ARM GAS  /tmp/cc5HGhWi.s 			page 1


   1              		.cpu cortex-m3
   2              		.eabi_attribute 20, 1
   3              		.eabi_attribute 21, 1
   4              		.eabi_attribute 23, 3
   5              		.eabi_attribute 24, 1
   6              		.eabi_attribute 25, 1
   7              		.eabi_attribute 26, 1
   8              		.eabi_attribute 30, 6
   9              		.eabi_attribute 34, 1
  10              		.eabi_attribute 18, 4
  11              		.file	"stm32f1xx_hal_tim.c"
  12              		.text
  13              	.Ltext0:
  14              		.cfi_sections	.debug_frame
  15              		.section	.text.HAL_TIM_Base_Init,"ax",%progbits
  16              		.align	1
  17              		.global	HAL_TIM_Base_Init
  18              		.syntax unified
  19              		.thumb
  20              		.thumb_func
  21              		.fpu softvfp
  23              	HAL_TIM_Base_Init:
  24              	.LFB66:
  25              		.file 1 "Drivers/STM32F1xx_HAL_Driver/Src/stm32f1xx_hal_tim.c"
   1:Drivers/STM32F1xx_HAL_Driver/Src/stm32f1xx_hal_tim.c **** /**
   2:Drivers/STM32F1xx_HAL_Driver/Src/stm32f1xx_hal_tim.c ****   ******************************************************************************
   3:Drivers/STM32F1xx_HAL_Driver/Src/stm32f1xx_hal_tim.c ****   * @file    stm32f1xx_hal_tim.c
   4:Drivers/STM32F1xx_HAL_Driver/Src/stm32f1xx_hal_tim.c ****   * @author  MCD Application Team
   5:Drivers/STM32F1xx_HAL_Driver/Src/stm32f1xx_hal_tim.c ****   * @version V1.1.1
   6:Drivers/STM32F1xx_HAL_Driver/Src/stm32f1xx_hal_tim.c ****   * @date    12-May-2017
   7:Drivers/STM32F1xx_HAL_Driver/Src/stm32f1xx_hal_tim.c ****   * @brief   TIM HAL module driver
   8:Drivers/STM32F1xx_HAL_Driver/Src/stm32f1xx_hal_tim.c ****   *          This file provides firmware functions to manage the following 
   9:Drivers/STM32F1xx_HAL_Driver/Src/stm32f1xx_hal_tim.c ****   *          functionalities of the Timer (TIM) peripheral:
  10:Drivers/STM32F1xx_HAL_Driver/Src/stm32f1xx_hal_tim.c ****   *           + Time Base Initialization
  11:Drivers/STM32F1xx_HAL_Driver/Src/stm32f1xx_hal_tim.c ****   *           + Time Base Start
  12:Drivers/STM32F1xx_HAL_Driver/Src/stm32f1xx_hal_tim.c ****   *           + Time Base Start Interruption
  13:Drivers/STM32F1xx_HAL_Driver/Src/stm32f1xx_hal_tim.c ****   *           + Time Base Start DMA
  14:Drivers/STM32F1xx_HAL_Driver/Src/stm32f1xx_hal_tim.c ****   *           + Time Output Compare/PWM Initialization
  15:Drivers/STM32F1xx_HAL_Driver/Src/stm32f1xx_hal_tim.c ****   *           + Time Output Compare/PWM Channel Configuration
  16:Drivers/STM32F1xx_HAL_Driver/Src/stm32f1xx_hal_tim.c ****   *           + Time Output Compare/PWM  Start
  17:Drivers/STM32F1xx_HAL_Driver/Src/stm32f1xx_hal_tim.c ****   *           + Time Output Compare/PWM  Start Interruption
  18:Drivers/STM32F1xx_HAL_Driver/Src/stm32f1xx_hal_tim.c ****   *           + Time Output Compare/PWM Start DMA
  19:Drivers/STM32F1xx_HAL_Driver/Src/stm32f1xx_hal_tim.c ****   *           + Time Input Capture Initialization
  20:Drivers/STM32F1xx_HAL_Driver/Src/stm32f1xx_hal_tim.c ****   *           + Time Input Capture Channel Configuration
  21:Drivers/STM32F1xx_HAL_Driver/Src/stm32f1xx_hal_tim.c ****   *           + Time Input Capture Start
  22:Drivers/STM32F1xx_HAL_Driver/Src/stm32f1xx_hal_tim.c ****   *           + Time Input Capture Start Interruption 
  23:Drivers/STM32F1xx_HAL_Driver/Src/stm32f1xx_hal_tim.c ****   *           + Time Input Capture Start DMA
  24:Drivers/STM32F1xx_HAL_Driver/Src/stm32f1xx_hal_tim.c ****   *           + Time One Pulse Initialization
  25:Drivers/STM32F1xx_HAL_Driver/Src/stm32f1xx_hal_tim.c ****   *           + Time One Pulse Channel Configuration
  26:Drivers/STM32F1xx_HAL_Driver/Src/stm32f1xx_hal_tim.c ****   *           + Time One Pulse Start 
  27:Drivers/STM32F1xx_HAL_Driver/Src/stm32f1xx_hal_tim.c ****   *           + Time Encoder Interface Initialization
  28:Drivers/STM32F1xx_HAL_Driver/Src/stm32f1xx_hal_tim.c ****   *           + Time Encoder Interface Start
  29:Drivers/STM32F1xx_HAL_Driver/Src/stm32f1xx_hal_tim.c ****   *           + Time Encoder Interface Start Interruption
  30:Drivers/STM32F1xx_HAL_Driver/Src/stm32f1xx_hal_tim.c ****   *           + Time Encoder Interface Start DMA
  31:Drivers/STM32F1xx_HAL_Driver/Src/stm32f1xx_hal_tim.c ****   *           + Commutation Event configuration with Interruption and DMA
  32:Drivers/STM32F1xx_HAL_Driver/Src/stm32f1xx_hal_tim.c ****   *           + Time OCRef clear configuration
  33:Drivers/STM32F1xx_HAL_Driver/Src/stm32f1xx_hal_tim.c ****   *           + Time External Clock configuration
ARM GAS  /tmp/cc5HGhWi.s 			page 2


  34:Drivers/STM32F1xx_HAL_Driver/Src/stm32f1xx_hal_tim.c ****   @verbatim
  35:Drivers/STM32F1xx_HAL_Driver/Src/stm32f1xx_hal_tim.c ****   ==============================================================================
  36:Drivers/STM32F1xx_HAL_Driver/Src/stm32f1xx_hal_tim.c ****                       ##### TIMER Generic features #####
  37:Drivers/STM32F1xx_HAL_Driver/Src/stm32f1xx_hal_tim.c ****   ==============================================================================
  38:Drivers/STM32F1xx_HAL_Driver/Src/stm32f1xx_hal_tim.c ****   [..] The Timer features include:
  39:Drivers/STM32F1xx_HAL_Driver/Src/stm32f1xx_hal_tim.c ****        (#) 16-bit up, down, up/down auto-reload counter.
  40:Drivers/STM32F1xx_HAL_Driver/Src/stm32f1xx_hal_tim.c ****        (#) 16-bit programmable prescaler allowing dividing (also on the fly) the 
  41:Drivers/STM32F1xx_HAL_Driver/Src/stm32f1xx_hal_tim.c ****            counter clock frequency either by any factor between 1 and 65536.
  42:Drivers/STM32F1xx_HAL_Driver/Src/stm32f1xx_hal_tim.c ****        (#) Up to 4 independent channels for:
  43:Drivers/STM32F1xx_HAL_Driver/Src/stm32f1xx_hal_tim.c ****            (++) Input Capture
  44:Drivers/STM32F1xx_HAL_Driver/Src/stm32f1xx_hal_tim.c ****            (++) Output Compare
  45:Drivers/STM32F1xx_HAL_Driver/Src/stm32f1xx_hal_tim.c ****            (++) PWM generation (Edge and Center-aligned Mode)
  46:Drivers/STM32F1xx_HAL_Driver/Src/stm32f1xx_hal_tim.c ****            (++) One-pulse mode output 
  47:Drivers/STM32F1xx_HAL_Driver/Src/stm32f1xx_hal_tim.c **** 
  48:Drivers/STM32F1xx_HAL_Driver/Src/stm32f1xx_hal_tim.c ****             ##### How to use this driver #####
  49:Drivers/STM32F1xx_HAL_Driver/Src/stm32f1xx_hal_tim.c ****   ==============================================================================
  50:Drivers/STM32F1xx_HAL_Driver/Src/stm32f1xx_hal_tim.c ****     [..]
  51:Drivers/STM32F1xx_HAL_Driver/Src/stm32f1xx_hal_tim.c ****      (#) Initialize the TIM low level resources by implementing the following functions 
  52:Drivers/STM32F1xx_HAL_Driver/Src/stm32f1xx_hal_tim.c ****          depending from feature used :
  53:Drivers/STM32F1xx_HAL_Driver/Src/stm32f1xx_hal_tim.c ****            (++) Time Base : HAL_TIM_Base_MspInit()
  54:Drivers/STM32F1xx_HAL_Driver/Src/stm32f1xx_hal_tim.c ****            (++) Input Capture : HAL_TIM_IC_MspInit()
  55:Drivers/STM32F1xx_HAL_Driver/Src/stm32f1xx_hal_tim.c ****            (++) Output Compare : HAL_TIM_OC_MspInit()
  56:Drivers/STM32F1xx_HAL_Driver/Src/stm32f1xx_hal_tim.c ****            (++) PWM generation : HAL_TIM_PWM_MspInit()
  57:Drivers/STM32F1xx_HAL_Driver/Src/stm32f1xx_hal_tim.c ****            (++) One-pulse mode output : HAL_TIM_OnePulse_MspInit()
  58:Drivers/STM32F1xx_HAL_Driver/Src/stm32f1xx_hal_tim.c ****            (++) Encoder mode output : HAL_TIM_Encoder_MspInit()
  59:Drivers/STM32F1xx_HAL_Driver/Src/stm32f1xx_hal_tim.c **** 
  60:Drivers/STM32F1xx_HAL_Driver/Src/stm32f1xx_hal_tim.c ****      (#) Initialize the TIM low level resources :
  61:Drivers/STM32F1xx_HAL_Driver/Src/stm32f1xx_hal_tim.c ****         (##) Enable the TIM interface clock using __HAL_RCC_TIMx_CLK_ENABLE();
  62:Drivers/STM32F1xx_HAL_Driver/Src/stm32f1xx_hal_tim.c ****         (##) TIM pins configuration
  63:Drivers/STM32F1xx_HAL_Driver/Src/stm32f1xx_hal_tim.c ****             (+++) Enable the clock for the TIM GPIOs using the following function:
  64:Drivers/STM32F1xx_HAL_Driver/Src/stm32f1xx_hal_tim.c ****              __HAL_RCC_GPIOx_CLK_ENABLE();
  65:Drivers/STM32F1xx_HAL_Driver/Src/stm32f1xx_hal_tim.c ****             (+++) Configure these TIM pins in Alternate function mode using HAL_GPIO_Init();
  66:Drivers/STM32F1xx_HAL_Driver/Src/stm32f1xx_hal_tim.c **** 
  67:Drivers/STM32F1xx_HAL_Driver/Src/stm32f1xx_hal_tim.c ****      (#) The external Clock can be configured, if needed (the default clock is the 
  68:Drivers/STM32F1xx_HAL_Driver/Src/stm32f1xx_hal_tim.c ****          internal clock from the APBx), using the following function:
  69:Drivers/STM32F1xx_HAL_Driver/Src/stm32f1xx_hal_tim.c ****          HAL_TIM_ConfigClockSource, the clock configuration should be done before 
  70:Drivers/STM32F1xx_HAL_Driver/Src/stm32f1xx_hal_tim.c ****          any start function.
  71:Drivers/STM32F1xx_HAL_Driver/Src/stm32f1xx_hal_tim.c **** 
  72:Drivers/STM32F1xx_HAL_Driver/Src/stm32f1xx_hal_tim.c ****      (#) Configure the TIM in the desired functioning mode using one of the 
  73:Drivers/STM32F1xx_HAL_Driver/Src/stm32f1xx_hal_tim.c ****        Initialization function of this driver:
  74:Drivers/STM32F1xx_HAL_Driver/Src/stm32f1xx_hal_tim.c ****        (++) HAL_TIM_Base_Init: to use the Timer to generate a simple time base
  75:Drivers/STM32F1xx_HAL_Driver/Src/stm32f1xx_hal_tim.c ****        (++) HAL_TIM_OC_Init and HAL_TIM_OC_ConfigChannel: to use the Timer to generate an 
  76:Drivers/STM32F1xx_HAL_Driver/Src/stm32f1xx_hal_tim.c ****             Output Compare signal.
  77:Drivers/STM32F1xx_HAL_Driver/Src/stm32f1xx_hal_tim.c ****        (++) HAL_TIM_PWM_Init and HAL_TIM_PWM_ConfigChannel: to use the Timer to generate a 
  78:Drivers/STM32F1xx_HAL_Driver/Src/stm32f1xx_hal_tim.c ****             PWM signal.
  79:Drivers/STM32F1xx_HAL_Driver/Src/stm32f1xx_hal_tim.c ****        (++) HAL_TIM_IC_Init and HAL_TIM_IC_ConfigChannel: to use the Timer to measure an 
  80:Drivers/STM32F1xx_HAL_Driver/Src/stm32f1xx_hal_tim.c ****             external signal.
  81:Drivers/STM32F1xx_HAL_Driver/Src/stm32f1xx_hal_tim.c ****          (++) HAL_TIM_OnePulse_Init and HAL_TIM_OnePulse_ConfigChannel: to use the Timer 
  82:Drivers/STM32F1xx_HAL_Driver/Src/stm32f1xx_hal_tim.c ****               in One Pulse Mode.
  83:Drivers/STM32F1xx_HAL_Driver/Src/stm32f1xx_hal_tim.c ****        (++) HAL_TIM_Encoder_Init: to use the Timer Encoder Interface.
  84:Drivers/STM32F1xx_HAL_Driver/Src/stm32f1xx_hal_tim.c **** 
  85:Drivers/STM32F1xx_HAL_Driver/Src/stm32f1xx_hal_tim.c ****      (#) Activate the TIM peripheral using one of the start functions depending from the feature us
  86:Drivers/STM32F1xx_HAL_Driver/Src/stm32f1xx_hal_tim.c ****            (++) Time Base : HAL_TIM_Base_Start(), HAL_TIM_Base_Start_DMA(), HAL_TIM_Base_Start_IT()
  87:Drivers/STM32F1xx_HAL_Driver/Src/stm32f1xx_hal_tim.c ****            (++) Input Capture :  HAL_TIM_IC_Start(), HAL_TIM_IC_Start_DMA(), HAL_TIM_IC_Start_IT()
  88:Drivers/STM32F1xx_HAL_Driver/Src/stm32f1xx_hal_tim.c ****            (++) Output Compare : HAL_TIM_OC_Start(), HAL_TIM_OC_Start_DMA(), HAL_TIM_OC_Start_IT()
  89:Drivers/STM32F1xx_HAL_Driver/Src/stm32f1xx_hal_tim.c ****            (++) PWM generation : HAL_TIM_PWM_Start(), HAL_TIM_PWM_Start_DMA(), HAL_TIM_PWM_Start_IT
  90:Drivers/STM32F1xx_HAL_Driver/Src/stm32f1xx_hal_tim.c ****            (++) One-pulse mode output : HAL_TIM_OnePulse_Start(), HAL_TIM_OnePulse_Start_IT()
ARM GAS  /tmp/cc5HGhWi.s 			page 3


  91:Drivers/STM32F1xx_HAL_Driver/Src/stm32f1xx_hal_tim.c ****            (++) Encoder mode output : HAL_TIM_Encoder_Start(), HAL_TIM_Encoder_Start_DMA(), HAL_TIM
  92:Drivers/STM32F1xx_HAL_Driver/Src/stm32f1xx_hal_tim.c **** 
  93:Drivers/STM32F1xx_HAL_Driver/Src/stm32f1xx_hal_tim.c ****      (#) The DMA Burst is managed with the two following functions:
  94:Drivers/STM32F1xx_HAL_Driver/Src/stm32f1xx_hal_tim.c ****          HAL_TIM_DMABurst_WriteStart()
  95:Drivers/STM32F1xx_HAL_Driver/Src/stm32f1xx_hal_tim.c ****          HAL_TIM_DMABurst_ReadStart()
  96:Drivers/STM32F1xx_HAL_Driver/Src/stm32f1xx_hal_tim.c **** 
  97:Drivers/STM32F1xx_HAL_Driver/Src/stm32f1xx_hal_tim.c ****   @endverbatim
  98:Drivers/STM32F1xx_HAL_Driver/Src/stm32f1xx_hal_tim.c ****   ******************************************************************************
  99:Drivers/STM32F1xx_HAL_Driver/Src/stm32f1xx_hal_tim.c ****   * @attention
 100:Drivers/STM32F1xx_HAL_Driver/Src/stm32f1xx_hal_tim.c ****   *
 101:Drivers/STM32F1xx_HAL_Driver/Src/stm32f1xx_hal_tim.c ****   * <h2><center>&copy; COPYRIGHT(c) 2016 STMicroelectronics</center></h2>
 102:Drivers/STM32F1xx_HAL_Driver/Src/stm32f1xx_hal_tim.c ****   *
 103:Drivers/STM32F1xx_HAL_Driver/Src/stm32f1xx_hal_tim.c ****   * Redistribution and use in source and binary forms, with or without modification,
 104:Drivers/STM32F1xx_HAL_Driver/Src/stm32f1xx_hal_tim.c ****   * are permitted provided that the following conditions are met:
 105:Drivers/STM32F1xx_HAL_Driver/Src/stm32f1xx_hal_tim.c ****   *   1. Redistributions of source code must retain the above copyright notice,
 106:Drivers/STM32F1xx_HAL_Driver/Src/stm32f1xx_hal_tim.c ****   *      this list of conditions and the following disclaimer.
 107:Drivers/STM32F1xx_HAL_Driver/Src/stm32f1xx_hal_tim.c ****   *   2. Redistributions in binary form must reproduce the above copyright notice,
 108:Drivers/STM32F1xx_HAL_Driver/Src/stm32f1xx_hal_tim.c ****   *      this list of conditions and the following disclaimer in the documentation
 109:Drivers/STM32F1xx_HAL_Driver/Src/stm32f1xx_hal_tim.c ****   *      and/or other materials provided with the distribution.
 110:Drivers/STM32F1xx_HAL_Driver/Src/stm32f1xx_hal_tim.c ****   *   3. Neither the name of STMicroelectronics nor the names of its contributors
 111:Drivers/STM32F1xx_HAL_Driver/Src/stm32f1xx_hal_tim.c ****   *      may be used to endorse or promote products derived from this software
 112:Drivers/STM32F1xx_HAL_Driver/Src/stm32f1xx_hal_tim.c ****   *      without specific prior written permission.
 113:Drivers/STM32F1xx_HAL_Driver/Src/stm32f1xx_hal_tim.c ****   *
 114:Drivers/STM32F1xx_HAL_Driver/Src/stm32f1xx_hal_tim.c ****   * THIS SOFTWARE IS PROVIDED BY THE COPYRIGHT HOLDERS AND CONTRIBUTORS "AS IS"
 115:Drivers/STM32F1xx_HAL_Driver/Src/stm32f1xx_hal_tim.c ****   * AND ANY EXPRESS OR IMPLIED WARRANTIES, INCLUDING, BUT NOT LIMITED TO, THE
 116:Drivers/STM32F1xx_HAL_Driver/Src/stm32f1xx_hal_tim.c ****   * IMPLIED WARRANTIES OF MERCHANTABILITY AND FITNESS FOR A PARTICULAR PURPOSE ARE
 117:Drivers/STM32F1xx_HAL_Driver/Src/stm32f1xx_hal_tim.c ****   * DISCLAIMED. IN NO EVENT SHALL THE COPYRIGHT HOLDER OR CONTRIBUTORS BE LIABLE
 118:Drivers/STM32F1xx_HAL_Driver/Src/stm32f1xx_hal_tim.c ****   * FOR ANY DIRECT, INDIRECT, INCIDENTAL, SPECIAL, EXEMPLARY, OR CONSEQUENTIAL
 119:Drivers/STM32F1xx_HAL_Driver/Src/stm32f1xx_hal_tim.c ****   * DAMAGES (INCLUDING, BUT NOT LIMITED TO, PROCUREMENT OF SUBSTITUTE GOODS OR
 120:Drivers/STM32F1xx_HAL_Driver/Src/stm32f1xx_hal_tim.c ****   * SERVICES; LOSS OF USE, DATA, OR PROFITS; OR BUSINESS INTERRUPTION) HOWEVER
 121:Drivers/STM32F1xx_HAL_Driver/Src/stm32f1xx_hal_tim.c ****   * CAUSED AND ON ANY THEORY OF LIABILITY, WHETHER IN CONTRACT, STRICT LIABILITY,
 122:Drivers/STM32F1xx_HAL_Driver/Src/stm32f1xx_hal_tim.c ****   * OR TORT (INCLUDING NEGLIGENCE OR OTHERWISE) ARISING IN ANY WAY OUT OF THE USE
 123:Drivers/STM32F1xx_HAL_Driver/Src/stm32f1xx_hal_tim.c ****   * OF THIS SOFTWARE, EVEN IF ADVISED OF THE POSSIBILITY OF SUCH DAMAGE.
 124:Drivers/STM32F1xx_HAL_Driver/Src/stm32f1xx_hal_tim.c ****   *
 125:Drivers/STM32F1xx_HAL_Driver/Src/stm32f1xx_hal_tim.c ****   ******************************************************************************
 126:Drivers/STM32F1xx_HAL_Driver/Src/stm32f1xx_hal_tim.c ****   */
 127:Drivers/STM32F1xx_HAL_Driver/Src/stm32f1xx_hal_tim.c **** 
 128:Drivers/STM32F1xx_HAL_Driver/Src/stm32f1xx_hal_tim.c **** /* Includes ------------------------------------------------------------------*/
 129:Drivers/STM32F1xx_HAL_Driver/Src/stm32f1xx_hal_tim.c **** #include "stm32f1xx_hal.h"
 130:Drivers/STM32F1xx_HAL_Driver/Src/stm32f1xx_hal_tim.c **** 
 131:Drivers/STM32F1xx_HAL_Driver/Src/stm32f1xx_hal_tim.c **** /** @addtogroup STM32F1xx_HAL_Driver
 132:Drivers/STM32F1xx_HAL_Driver/Src/stm32f1xx_hal_tim.c ****   * @{
 133:Drivers/STM32F1xx_HAL_Driver/Src/stm32f1xx_hal_tim.c ****   */
 134:Drivers/STM32F1xx_HAL_Driver/Src/stm32f1xx_hal_tim.c **** 
 135:Drivers/STM32F1xx_HAL_Driver/Src/stm32f1xx_hal_tim.c **** /** @defgroup TIM TIM
 136:Drivers/STM32F1xx_HAL_Driver/Src/stm32f1xx_hal_tim.c ****   * @brief TIM HAL module driver
 137:Drivers/STM32F1xx_HAL_Driver/Src/stm32f1xx_hal_tim.c ****   * @{
 138:Drivers/STM32F1xx_HAL_Driver/Src/stm32f1xx_hal_tim.c ****   */
 139:Drivers/STM32F1xx_HAL_Driver/Src/stm32f1xx_hal_tim.c **** 
 140:Drivers/STM32F1xx_HAL_Driver/Src/stm32f1xx_hal_tim.c **** #ifdef HAL_TIM_MODULE_ENABLED
 141:Drivers/STM32F1xx_HAL_Driver/Src/stm32f1xx_hal_tim.c **** 
 142:Drivers/STM32F1xx_HAL_Driver/Src/stm32f1xx_hal_tim.c **** /* Private typedef -----------------------------------------------------------*/
 143:Drivers/STM32F1xx_HAL_Driver/Src/stm32f1xx_hal_tim.c **** /* Private define ------------------------------------------------------------*/
 144:Drivers/STM32F1xx_HAL_Driver/Src/stm32f1xx_hal_tim.c **** /* Private macro -------------------------------------------------------------*/
 145:Drivers/STM32F1xx_HAL_Driver/Src/stm32f1xx_hal_tim.c **** /* Private variables ---------------------------------------------------------*/
 146:Drivers/STM32F1xx_HAL_Driver/Src/stm32f1xx_hal_tim.c **** /* Private function prototypes -----------------------------------------------*/
 147:Drivers/STM32F1xx_HAL_Driver/Src/stm32f1xx_hal_tim.c **** /** @defgroup TIM_Private_Functions TIM Private Functions
ARM GAS  /tmp/cc5HGhWi.s 			page 4


 148:Drivers/STM32F1xx_HAL_Driver/Src/stm32f1xx_hal_tim.c ****   * @{
 149:Drivers/STM32F1xx_HAL_Driver/Src/stm32f1xx_hal_tim.c ****   */
 150:Drivers/STM32F1xx_HAL_Driver/Src/stm32f1xx_hal_tim.c **** static void TIM_OC1_SetConfig(TIM_TypeDef *TIMx, TIM_OC_InitTypeDef *OC_Config);
 151:Drivers/STM32F1xx_HAL_Driver/Src/stm32f1xx_hal_tim.c **** static void TIM_OC3_SetConfig(TIM_TypeDef *TIMx, TIM_OC_InitTypeDef *OC_Config);
 152:Drivers/STM32F1xx_HAL_Driver/Src/stm32f1xx_hal_tim.c **** static void TIM_OC4_SetConfig(TIM_TypeDef *TIMx, TIM_OC_InitTypeDef *OC_Config);
 153:Drivers/STM32F1xx_HAL_Driver/Src/stm32f1xx_hal_tim.c **** static void TIM_TI1_ConfigInputStage(TIM_TypeDef *TIMx, uint32_t TIM_ICPolarity, uint32_t TIM_ICFil
 154:Drivers/STM32F1xx_HAL_Driver/Src/stm32f1xx_hal_tim.c **** static void TIM_TI2_SetConfig(TIM_TypeDef *TIMx, uint32_t TIM_ICPolarity, uint32_t TIM_ICSelection,
 155:Drivers/STM32F1xx_HAL_Driver/Src/stm32f1xx_hal_tim.c ****                        uint32_t TIM_ICFilter);
 156:Drivers/STM32F1xx_HAL_Driver/Src/stm32f1xx_hal_tim.c **** static void TIM_TI2_ConfigInputStage(TIM_TypeDef *TIMx, uint32_t TIM_ICPolarity, uint32_t TIM_ICFil
 157:Drivers/STM32F1xx_HAL_Driver/Src/stm32f1xx_hal_tim.c **** static void TIM_TI3_SetConfig(TIM_TypeDef *TIMx, uint32_t TIM_ICPolarity, uint32_t TIM_ICSelection,
 158:Drivers/STM32F1xx_HAL_Driver/Src/stm32f1xx_hal_tim.c ****                        uint32_t TIM_ICFilter);
 159:Drivers/STM32F1xx_HAL_Driver/Src/stm32f1xx_hal_tim.c **** static void TIM_TI4_SetConfig(TIM_TypeDef *TIMx, uint32_t TIM_ICPolarity, uint32_t TIM_ICSelection,
 160:Drivers/STM32F1xx_HAL_Driver/Src/stm32f1xx_hal_tim.c ****                        uint32_t TIM_ICFilter);
 161:Drivers/STM32F1xx_HAL_Driver/Src/stm32f1xx_hal_tim.c **** static void TIM_ETR_SetConfig(TIM_TypeDef* TIMx, uint32_t TIM_ExtTRGPrescaler,
 162:Drivers/STM32F1xx_HAL_Driver/Src/stm32f1xx_hal_tim.c ****                        uint32_t TIM_ExtTRGPolarity, uint32_t ExtTRGFilter);
 163:Drivers/STM32F1xx_HAL_Driver/Src/stm32f1xx_hal_tim.c **** static void TIM_ITRx_SetConfig(TIM_TypeDef* TIMx, uint16_t InputTriggerSource);
 164:Drivers/STM32F1xx_HAL_Driver/Src/stm32f1xx_hal_tim.c **** static void TIM_DMAPeriodElapsedCplt(DMA_HandleTypeDef *hdma);
 165:Drivers/STM32F1xx_HAL_Driver/Src/stm32f1xx_hal_tim.c **** static void TIM_DMATriggerCplt(DMA_HandleTypeDef *hdma);
 166:Drivers/STM32F1xx_HAL_Driver/Src/stm32f1xx_hal_tim.c **** static void TIM_SlaveTimer_SetConfig(TIM_HandleTypeDef *htim,
 167:Drivers/STM32F1xx_HAL_Driver/Src/stm32f1xx_hal_tim.c ****                                      TIM_SlaveConfigTypeDef * sSlaveConfig);
 168:Drivers/STM32F1xx_HAL_Driver/Src/stm32f1xx_hal_tim.c **** 
 169:Drivers/STM32F1xx_HAL_Driver/Src/stm32f1xx_hal_tim.c **** /**
 170:Drivers/STM32F1xx_HAL_Driver/Src/stm32f1xx_hal_tim.c ****   * @}
 171:Drivers/STM32F1xx_HAL_Driver/Src/stm32f1xx_hal_tim.c ****   */
 172:Drivers/STM32F1xx_HAL_Driver/Src/stm32f1xx_hal_tim.c **** 
 173:Drivers/STM32F1xx_HAL_Driver/Src/stm32f1xx_hal_tim.c **** /* Exported functions ---------------------------------------------------------*/
 174:Drivers/STM32F1xx_HAL_Driver/Src/stm32f1xx_hal_tim.c **** 
 175:Drivers/STM32F1xx_HAL_Driver/Src/stm32f1xx_hal_tim.c **** /** @defgroup TIM_Exported_Functions TIM Exported Functions
 176:Drivers/STM32F1xx_HAL_Driver/Src/stm32f1xx_hal_tim.c ****   * @{
 177:Drivers/STM32F1xx_HAL_Driver/Src/stm32f1xx_hal_tim.c ****   */
 178:Drivers/STM32F1xx_HAL_Driver/Src/stm32f1xx_hal_tim.c **** 
 179:Drivers/STM32F1xx_HAL_Driver/Src/stm32f1xx_hal_tim.c **** /** @defgroup TIM_Exported_Functions_Group1 Time Base functions 
 180:Drivers/STM32F1xx_HAL_Driver/Src/stm32f1xx_hal_tim.c ****  *  @brief    Time Base functions 
 181:Drivers/STM32F1xx_HAL_Driver/Src/stm32f1xx_hal_tim.c ****  *
 182:Drivers/STM32F1xx_HAL_Driver/Src/stm32f1xx_hal_tim.c **** @verbatim 
 183:Drivers/STM32F1xx_HAL_Driver/Src/stm32f1xx_hal_tim.c ****   ==============================================================================
 184:Drivers/STM32F1xx_HAL_Driver/Src/stm32f1xx_hal_tim.c ****               ##### Time Base functions #####
 185:Drivers/STM32F1xx_HAL_Driver/Src/stm32f1xx_hal_tim.c ****   ==============================================================================
 186:Drivers/STM32F1xx_HAL_Driver/Src/stm32f1xx_hal_tim.c ****   [..]
 187:Drivers/STM32F1xx_HAL_Driver/Src/stm32f1xx_hal_tim.c ****     This section provides functions allowing to:
 188:Drivers/STM32F1xx_HAL_Driver/Src/stm32f1xx_hal_tim.c ****     (+) Initialize and configure the TIM base.
 189:Drivers/STM32F1xx_HAL_Driver/Src/stm32f1xx_hal_tim.c ****     (+) De-initialize the TIM base.
 190:Drivers/STM32F1xx_HAL_Driver/Src/stm32f1xx_hal_tim.c ****     (+) Start the Time Base.
 191:Drivers/STM32F1xx_HAL_Driver/Src/stm32f1xx_hal_tim.c ****     (+) Stop the Time Base.
 192:Drivers/STM32F1xx_HAL_Driver/Src/stm32f1xx_hal_tim.c ****     (+) Start the Time Base and enable interrupt.
 193:Drivers/STM32F1xx_HAL_Driver/Src/stm32f1xx_hal_tim.c ****     (+) Stop the Time Base and disable interrupt.
 194:Drivers/STM32F1xx_HAL_Driver/Src/stm32f1xx_hal_tim.c ****     (+) Start the Time Base and enable DMA transfer.
 195:Drivers/STM32F1xx_HAL_Driver/Src/stm32f1xx_hal_tim.c ****     (+) Stop the Time Base and disable DMA transfer.
 196:Drivers/STM32F1xx_HAL_Driver/Src/stm32f1xx_hal_tim.c **** 
 197:Drivers/STM32F1xx_HAL_Driver/Src/stm32f1xx_hal_tim.c **** @endverbatim
 198:Drivers/STM32F1xx_HAL_Driver/Src/stm32f1xx_hal_tim.c ****   * @{
 199:Drivers/STM32F1xx_HAL_Driver/Src/stm32f1xx_hal_tim.c ****   */
 200:Drivers/STM32F1xx_HAL_Driver/Src/stm32f1xx_hal_tim.c **** /**
 201:Drivers/STM32F1xx_HAL_Driver/Src/stm32f1xx_hal_tim.c ****   * @brief  Initializes the TIM Time base Unit according to the specified
 202:Drivers/STM32F1xx_HAL_Driver/Src/stm32f1xx_hal_tim.c ****   *         parameters in the TIM_HandleTypeDef and create the associated handle.
 203:Drivers/STM32F1xx_HAL_Driver/Src/stm32f1xx_hal_tim.c ****   * @param  htim : TIM Base handle
 204:Drivers/STM32F1xx_HAL_Driver/Src/stm32f1xx_hal_tim.c ****   * @retval HAL status
ARM GAS  /tmp/cc5HGhWi.s 			page 5


 205:Drivers/STM32F1xx_HAL_Driver/Src/stm32f1xx_hal_tim.c ****   */
 206:Drivers/STM32F1xx_HAL_Driver/Src/stm32f1xx_hal_tim.c **** HAL_StatusTypeDef HAL_TIM_Base_Init(TIM_HandleTypeDef *htim)
 207:Drivers/STM32F1xx_HAL_Driver/Src/stm32f1xx_hal_tim.c **** {
  26              		.loc 1 207 0
  27              		.cfi_startproc
  28              		@ args = 0, pretend = 0, frame = 8
  29              		@ frame_needed = 1, uses_anonymous_args = 0
  30 0000 80B5     		push	{r7, lr}
  31              	.LCFI0:
  32              		.cfi_def_cfa_offset 8
  33              		.cfi_offset 7, -8
  34              		.cfi_offset 14, -4
  35 0002 82B0     		sub	sp, sp, #8
  36              	.LCFI1:
  37              		.cfi_def_cfa_offset 16
  38 0004 00AF     		add	r7, sp, #0
  39              	.LCFI2:
  40              		.cfi_def_cfa_register 7
  41 0006 7860     		str	r0, [r7, #4]
 208:Drivers/STM32F1xx_HAL_Driver/Src/stm32f1xx_hal_tim.c ****   /* Check the TIM handle allocation */
 209:Drivers/STM32F1xx_HAL_Driver/Src/stm32f1xx_hal_tim.c ****   if(htim == NULL)
  42              		.loc 1 209 0
  43 0008 7B68     		ldr	r3, [r7, #4]
  44 000a 002B     		cmp	r3, #0
  45 000c 01D1     		bne	.L2
 210:Drivers/STM32F1xx_HAL_Driver/Src/stm32f1xx_hal_tim.c ****   {
 211:Drivers/STM32F1xx_HAL_Driver/Src/stm32f1xx_hal_tim.c ****     return HAL_ERROR;
  46              		.loc 1 211 0
  47 000e 0123     		movs	r3, #1
  48 0010 1DE0     		b	.L3
  49              	.L2:
 212:Drivers/STM32F1xx_HAL_Driver/Src/stm32f1xx_hal_tim.c ****   }
 213:Drivers/STM32F1xx_HAL_Driver/Src/stm32f1xx_hal_tim.c **** 
 214:Drivers/STM32F1xx_HAL_Driver/Src/stm32f1xx_hal_tim.c ****   /* Check the parameters */
 215:Drivers/STM32F1xx_HAL_Driver/Src/stm32f1xx_hal_tim.c ****   assert_param(IS_TIM_INSTANCE(htim->Instance));
 216:Drivers/STM32F1xx_HAL_Driver/Src/stm32f1xx_hal_tim.c ****   assert_param(IS_TIM_COUNTER_MODE(htim->Init.CounterMode));
 217:Drivers/STM32F1xx_HAL_Driver/Src/stm32f1xx_hal_tim.c ****   assert_param(IS_TIM_CLOCKDIVISION_DIV(htim->Init.ClockDivision));
 218:Drivers/STM32F1xx_HAL_Driver/Src/stm32f1xx_hal_tim.c ****   assert_param(IS_TIM_AUTORELOAD_PRELOAD(htim->Init.AutoReloadPreload));
 219:Drivers/STM32F1xx_HAL_Driver/Src/stm32f1xx_hal_tim.c **** 
 220:Drivers/STM32F1xx_HAL_Driver/Src/stm32f1xx_hal_tim.c ****   if(htim->State == HAL_TIM_STATE_RESET)
  50              		.loc 1 220 0
  51 0012 7B68     		ldr	r3, [r7, #4]
  52 0014 93F83D30 		ldrb	r3, [r3, #61]
  53 0018 DBB2     		uxtb	r3, r3
  54 001a 002B     		cmp	r3, #0
  55 001c 06D1     		bne	.L4
 221:Drivers/STM32F1xx_HAL_Driver/Src/stm32f1xx_hal_tim.c ****   {
 222:Drivers/STM32F1xx_HAL_Driver/Src/stm32f1xx_hal_tim.c ****     /* Allocate lock resource and initialize it */
 223:Drivers/STM32F1xx_HAL_Driver/Src/stm32f1xx_hal_tim.c ****     htim->Lock = HAL_UNLOCKED;
  56              		.loc 1 223 0
  57 001e 7B68     		ldr	r3, [r7, #4]
  58 0020 0022     		movs	r2, #0
  59 0022 83F83C20 		strb	r2, [r3, #60]
 224:Drivers/STM32F1xx_HAL_Driver/Src/stm32f1xx_hal_tim.c ****     
 225:Drivers/STM32F1xx_HAL_Driver/Src/stm32f1xx_hal_tim.c ****     /* Init the low level hardware : GPIO, CLOCK, NVIC */
 226:Drivers/STM32F1xx_HAL_Driver/Src/stm32f1xx_hal_tim.c ****     HAL_TIM_Base_MspInit(htim);
  60              		.loc 1 226 0
ARM GAS  /tmp/cc5HGhWi.s 			page 6


  61 0026 7868     		ldr	r0, [r7, #4]
  62 0028 FFF7FEFF 		bl	HAL_TIM_Base_MspInit
  63              	.L4:
 227:Drivers/STM32F1xx_HAL_Driver/Src/stm32f1xx_hal_tim.c ****   }
 228:Drivers/STM32F1xx_HAL_Driver/Src/stm32f1xx_hal_tim.c **** 
 229:Drivers/STM32F1xx_HAL_Driver/Src/stm32f1xx_hal_tim.c ****   /* Set the TIM state */
 230:Drivers/STM32F1xx_HAL_Driver/Src/stm32f1xx_hal_tim.c ****   htim->State= HAL_TIM_STATE_BUSY;
  64              		.loc 1 230 0
  65 002c 7B68     		ldr	r3, [r7, #4]
  66 002e 0222     		movs	r2, #2
  67 0030 83F83D20 		strb	r2, [r3, #61]
 231:Drivers/STM32F1xx_HAL_Driver/Src/stm32f1xx_hal_tim.c **** 
 232:Drivers/STM32F1xx_HAL_Driver/Src/stm32f1xx_hal_tim.c ****   /* Set the Time Base configuration */
 233:Drivers/STM32F1xx_HAL_Driver/Src/stm32f1xx_hal_tim.c ****   TIM_Base_SetConfig(htim->Instance, &htim->Init);
  68              		.loc 1 233 0
  69 0034 7B68     		ldr	r3, [r7, #4]
  70 0036 1A68     		ldr	r2, [r3]
  71 0038 7B68     		ldr	r3, [r7, #4]
  72 003a 0433     		adds	r3, r3, #4
  73 003c 1946     		mov	r1, r3
  74 003e 1046     		mov	r0, r2
  75 0040 FFF7FEFF 		bl	TIM_Base_SetConfig
 234:Drivers/STM32F1xx_HAL_Driver/Src/stm32f1xx_hal_tim.c **** 
 235:Drivers/STM32F1xx_HAL_Driver/Src/stm32f1xx_hal_tim.c ****   /* Initialize the TIM state*/
 236:Drivers/STM32F1xx_HAL_Driver/Src/stm32f1xx_hal_tim.c ****   htim->State= HAL_TIM_STATE_READY;
  76              		.loc 1 236 0
  77 0044 7B68     		ldr	r3, [r7, #4]
  78 0046 0122     		movs	r2, #1
  79 0048 83F83D20 		strb	r2, [r3, #61]
 237:Drivers/STM32F1xx_HAL_Driver/Src/stm32f1xx_hal_tim.c **** 
 238:Drivers/STM32F1xx_HAL_Driver/Src/stm32f1xx_hal_tim.c ****   return HAL_OK;
  80              		.loc 1 238 0
  81 004c 0023     		movs	r3, #0
  82              	.L3:
 239:Drivers/STM32F1xx_HAL_Driver/Src/stm32f1xx_hal_tim.c **** }
  83              		.loc 1 239 0
  84 004e 1846     		mov	r0, r3
  85 0050 0837     		adds	r7, r7, #8
  86              	.LCFI3:
  87              		.cfi_def_cfa_offset 8
  88 0052 BD46     		mov	sp, r7
  89              	.LCFI4:
  90              		.cfi_def_cfa_register 13
  91              		@ sp needed
  92 0054 80BD     		pop	{r7, pc}
  93              		.cfi_endproc
  94              	.LFE66:
  96              		.section	.text.HAL_TIM_Base_DeInit,"ax",%progbits
  97              		.align	1
  98              		.global	HAL_TIM_Base_DeInit
  99              		.syntax unified
 100              		.thumb
 101              		.thumb_func
 102              		.fpu softvfp
 104              	HAL_TIM_Base_DeInit:
 105              	.LFB67:
 240:Drivers/STM32F1xx_HAL_Driver/Src/stm32f1xx_hal_tim.c **** 
ARM GAS  /tmp/cc5HGhWi.s 			page 7


 241:Drivers/STM32F1xx_HAL_Driver/Src/stm32f1xx_hal_tim.c **** /**
 242:Drivers/STM32F1xx_HAL_Driver/Src/stm32f1xx_hal_tim.c ****   * @brief  DeInitializes the TIM Base peripheral 
 243:Drivers/STM32F1xx_HAL_Driver/Src/stm32f1xx_hal_tim.c ****   * @param  htim : TIM Base handle
 244:Drivers/STM32F1xx_HAL_Driver/Src/stm32f1xx_hal_tim.c ****   * @retval HAL status
 245:Drivers/STM32F1xx_HAL_Driver/Src/stm32f1xx_hal_tim.c ****   */
 246:Drivers/STM32F1xx_HAL_Driver/Src/stm32f1xx_hal_tim.c **** HAL_StatusTypeDef HAL_TIM_Base_DeInit(TIM_HandleTypeDef *htim)
 247:Drivers/STM32F1xx_HAL_Driver/Src/stm32f1xx_hal_tim.c **** {
 106              		.loc 1 247 0
 107              		.cfi_startproc
 108              		@ args = 0, pretend = 0, frame = 8
 109              		@ frame_needed = 1, uses_anonymous_args = 0
 110 0000 80B5     		push	{r7, lr}
 111              	.LCFI5:
 112              		.cfi_def_cfa_offset 8
 113              		.cfi_offset 7, -8
 114              		.cfi_offset 14, -4
 115 0002 82B0     		sub	sp, sp, #8
 116              	.LCFI6:
 117              		.cfi_def_cfa_offset 16
 118 0004 00AF     		add	r7, sp, #0
 119              	.LCFI7:
 120              		.cfi_def_cfa_register 7
 121 0006 7860     		str	r0, [r7, #4]
 248:Drivers/STM32F1xx_HAL_Driver/Src/stm32f1xx_hal_tim.c ****   /* Check the parameters */
 249:Drivers/STM32F1xx_HAL_Driver/Src/stm32f1xx_hal_tim.c ****   assert_param(IS_TIM_INSTANCE(htim->Instance));
 250:Drivers/STM32F1xx_HAL_Driver/Src/stm32f1xx_hal_tim.c **** 
 251:Drivers/STM32F1xx_HAL_Driver/Src/stm32f1xx_hal_tim.c ****   htim->State = HAL_TIM_STATE_BUSY;
 122              		.loc 1 251 0
 123 0008 7B68     		ldr	r3, [r7, #4]
 124 000a 0222     		movs	r2, #2
 125 000c 83F83D20 		strb	r2, [r3, #61]
 252:Drivers/STM32F1xx_HAL_Driver/Src/stm32f1xx_hal_tim.c **** 
 253:Drivers/STM32F1xx_HAL_Driver/Src/stm32f1xx_hal_tim.c ****   /* Disable the TIM Peripheral Clock */
 254:Drivers/STM32F1xx_HAL_Driver/Src/stm32f1xx_hal_tim.c ****   __HAL_TIM_DISABLE(htim);
 126              		.loc 1 254 0
 127 0010 7B68     		ldr	r3, [r7, #4]
 128 0012 1B68     		ldr	r3, [r3]
 129 0014 1A6A     		ldr	r2, [r3, #32]
 130 0016 41F21113 		movw	r3, #4369
 131 001a 1340     		ands	r3, r3, r2
 132 001c 002B     		cmp	r3, #0
 133 001e 0FD1     		bne	.L6
 134              		.loc 1 254 0 is_stmt 0 discriminator 1
 135 0020 7B68     		ldr	r3, [r7, #4]
 136 0022 1B68     		ldr	r3, [r3]
 137 0024 1A6A     		ldr	r2, [r3, #32]
 138 0026 40F24443 		movw	r3, #1092
 139 002a 1340     		ands	r3, r3, r2
 140 002c 002B     		cmp	r3, #0
 141 002e 07D1     		bne	.L6
 142              		.loc 1 254 0 discriminator 2
 143 0030 7B68     		ldr	r3, [r7, #4]
 144 0032 1B68     		ldr	r3, [r3]
 145 0034 1A68     		ldr	r2, [r3]
 146 0036 7B68     		ldr	r3, [r7, #4]
 147 0038 1B68     		ldr	r3, [r3]
 148 003a 22F00102 		bic	r2, r2, #1
ARM GAS  /tmp/cc5HGhWi.s 			page 8


 149 003e 1A60     		str	r2, [r3]
 150              	.L6:
 255:Drivers/STM32F1xx_HAL_Driver/Src/stm32f1xx_hal_tim.c **** 
 256:Drivers/STM32F1xx_HAL_Driver/Src/stm32f1xx_hal_tim.c ****   /* DeInit the low level hardware: GPIO, CLOCK, NVIC */
 257:Drivers/STM32F1xx_HAL_Driver/Src/stm32f1xx_hal_tim.c ****   HAL_TIM_Base_MspDeInit(htim);
 151              		.loc 1 257 0 is_stmt 1
 152 0040 7868     		ldr	r0, [r7, #4]
 153 0042 FFF7FEFF 		bl	HAL_TIM_Base_MspDeInit
 258:Drivers/STM32F1xx_HAL_Driver/Src/stm32f1xx_hal_tim.c **** 
 259:Drivers/STM32F1xx_HAL_Driver/Src/stm32f1xx_hal_tim.c ****   /* Change TIM state */
 260:Drivers/STM32F1xx_HAL_Driver/Src/stm32f1xx_hal_tim.c ****   htim->State = HAL_TIM_STATE_RESET;
 154              		.loc 1 260 0
 155 0046 7B68     		ldr	r3, [r7, #4]
 156 0048 0022     		movs	r2, #0
 157 004a 83F83D20 		strb	r2, [r3, #61]
 261:Drivers/STM32F1xx_HAL_Driver/Src/stm32f1xx_hal_tim.c **** 
 262:Drivers/STM32F1xx_HAL_Driver/Src/stm32f1xx_hal_tim.c ****   /* Release Lock */
 263:Drivers/STM32F1xx_HAL_Driver/Src/stm32f1xx_hal_tim.c ****   __HAL_UNLOCK(htim);
 158              		.loc 1 263 0
 159 004e 7B68     		ldr	r3, [r7, #4]
 160 0050 0022     		movs	r2, #0
 161 0052 83F83C20 		strb	r2, [r3, #60]
 264:Drivers/STM32F1xx_HAL_Driver/Src/stm32f1xx_hal_tim.c **** 
 265:Drivers/STM32F1xx_HAL_Driver/Src/stm32f1xx_hal_tim.c ****   return HAL_OK;
 162              		.loc 1 265 0
 163 0056 0023     		movs	r3, #0
 266:Drivers/STM32F1xx_HAL_Driver/Src/stm32f1xx_hal_tim.c **** }
 164              		.loc 1 266 0
 165 0058 1846     		mov	r0, r3
 166 005a 0837     		adds	r7, r7, #8
 167              	.LCFI8:
 168              		.cfi_def_cfa_offset 8
 169 005c BD46     		mov	sp, r7
 170              	.LCFI9:
 171              		.cfi_def_cfa_register 13
 172              		@ sp needed
 173 005e 80BD     		pop	{r7, pc}
 174              		.cfi_endproc
 175              	.LFE67:
 177              		.section	.text.HAL_TIM_Base_MspInit,"ax",%progbits
 178              		.align	1
 179              		.weak	HAL_TIM_Base_MspInit
 180              		.syntax unified
 181              		.thumb
 182              		.thumb_func
 183              		.fpu softvfp
 185              	HAL_TIM_Base_MspInit:
 186              	.LFB68:
 267:Drivers/STM32F1xx_HAL_Driver/Src/stm32f1xx_hal_tim.c **** 
 268:Drivers/STM32F1xx_HAL_Driver/Src/stm32f1xx_hal_tim.c **** /**
 269:Drivers/STM32F1xx_HAL_Driver/Src/stm32f1xx_hal_tim.c ****   * @brief  Initializes the TIM Base MSP.
 270:Drivers/STM32F1xx_HAL_Driver/Src/stm32f1xx_hal_tim.c ****   * @param  htim : TIM handle
 271:Drivers/STM32F1xx_HAL_Driver/Src/stm32f1xx_hal_tim.c ****   * @retval None
 272:Drivers/STM32F1xx_HAL_Driver/Src/stm32f1xx_hal_tim.c ****   */
 273:Drivers/STM32F1xx_HAL_Driver/Src/stm32f1xx_hal_tim.c **** __weak void HAL_TIM_Base_MspInit(TIM_HandleTypeDef *htim)
 274:Drivers/STM32F1xx_HAL_Driver/Src/stm32f1xx_hal_tim.c **** {
 187              		.loc 1 274 0
ARM GAS  /tmp/cc5HGhWi.s 			page 9


 188              		.cfi_startproc
 189              		@ args = 0, pretend = 0, frame = 8
 190              		@ frame_needed = 1, uses_anonymous_args = 0
 191              		@ link register save eliminated.
 192 0000 80B4     		push	{r7}
 193              	.LCFI10:
 194              		.cfi_def_cfa_offset 4
 195              		.cfi_offset 7, -4
 196 0002 83B0     		sub	sp, sp, #12
 197              	.LCFI11:
 198              		.cfi_def_cfa_offset 16
 199 0004 00AF     		add	r7, sp, #0
 200              	.LCFI12:
 201              		.cfi_def_cfa_register 7
 202 0006 7860     		str	r0, [r7, #4]
 275:Drivers/STM32F1xx_HAL_Driver/Src/stm32f1xx_hal_tim.c ****   /* Prevent unused argument(s) compilation warning */
 276:Drivers/STM32F1xx_HAL_Driver/Src/stm32f1xx_hal_tim.c ****   UNUSED(htim);
 277:Drivers/STM32F1xx_HAL_Driver/Src/stm32f1xx_hal_tim.c ****   /* NOTE : This function Should not be modified, when the callback is needed,
 278:Drivers/STM32F1xx_HAL_Driver/Src/stm32f1xx_hal_tim.c ****             the HAL_TIM_Base_MspInit could be implemented in the user file
 279:Drivers/STM32F1xx_HAL_Driver/Src/stm32f1xx_hal_tim.c ****    */
 280:Drivers/STM32F1xx_HAL_Driver/Src/stm32f1xx_hal_tim.c **** }
 203              		.loc 1 280 0
 204 0008 00BF     		nop
 205 000a 0C37     		adds	r7, r7, #12
 206              	.LCFI13:
 207              		.cfi_def_cfa_offset 4
 208 000c BD46     		mov	sp, r7
 209              	.LCFI14:
 210              		.cfi_def_cfa_register 13
 211              		@ sp needed
 212 000e 80BC     		pop	{r7}
 213              	.LCFI15:
 214              		.cfi_restore 7
 215              		.cfi_def_cfa_offset 0
 216 0010 7047     		bx	lr
 217              		.cfi_endproc
 218              	.LFE68:
 220              		.section	.text.HAL_TIM_Base_MspDeInit,"ax",%progbits
 221              		.align	1
 222              		.weak	HAL_TIM_Base_MspDeInit
 223              		.syntax unified
 224              		.thumb
 225              		.thumb_func
 226              		.fpu softvfp
 228              	HAL_TIM_Base_MspDeInit:
 229              	.LFB69:
 281:Drivers/STM32F1xx_HAL_Driver/Src/stm32f1xx_hal_tim.c **** 
 282:Drivers/STM32F1xx_HAL_Driver/Src/stm32f1xx_hal_tim.c **** /**
 283:Drivers/STM32F1xx_HAL_Driver/Src/stm32f1xx_hal_tim.c ****   * @brief  DeInitializes TIM Base MSP.
 284:Drivers/STM32F1xx_HAL_Driver/Src/stm32f1xx_hal_tim.c ****   * @param  htim : TIM handle
 285:Drivers/STM32F1xx_HAL_Driver/Src/stm32f1xx_hal_tim.c ****   * @retval None
 286:Drivers/STM32F1xx_HAL_Driver/Src/stm32f1xx_hal_tim.c ****   */
 287:Drivers/STM32F1xx_HAL_Driver/Src/stm32f1xx_hal_tim.c **** __weak void HAL_TIM_Base_MspDeInit(TIM_HandleTypeDef *htim)
 288:Drivers/STM32F1xx_HAL_Driver/Src/stm32f1xx_hal_tim.c **** {
 230              		.loc 1 288 0
 231              		.cfi_startproc
 232              		@ args = 0, pretend = 0, frame = 8
ARM GAS  /tmp/cc5HGhWi.s 			page 10


 233              		@ frame_needed = 1, uses_anonymous_args = 0
 234              		@ link register save eliminated.
 235 0000 80B4     		push	{r7}
 236              	.LCFI16:
 237              		.cfi_def_cfa_offset 4
 238              		.cfi_offset 7, -4
 239 0002 83B0     		sub	sp, sp, #12
 240              	.LCFI17:
 241              		.cfi_def_cfa_offset 16
 242 0004 00AF     		add	r7, sp, #0
 243              	.LCFI18:
 244              		.cfi_def_cfa_register 7
 245 0006 7860     		str	r0, [r7, #4]
 289:Drivers/STM32F1xx_HAL_Driver/Src/stm32f1xx_hal_tim.c ****   /* Prevent unused argument(s) compilation warning */
 290:Drivers/STM32F1xx_HAL_Driver/Src/stm32f1xx_hal_tim.c ****   UNUSED(htim);
 291:Drivers/STM32F1xx_HAL_Driver/Src/stm32f1xx_hal_tim.c ****   /* NOTE : This function Should not be modified, when the callback is needed,
 292:Drivers/STM32F1xx_HAL_Driver/Src/stm32f1xx_hal_tim.c ****             the HAL_TIM_Base_MspDeInit could be implemented in the user file
 293:Drivers/STM32F1xx_HAL_Driver/Src/stm32f1xx_hal_tim.c ****    */
 294:Drivers/STM32F1xx_HAL_Driver/Src/stm32f1xx_hal_tim.c **** }
 246              		.loc 1 294 0
 247 0008 00BF     		nop
 248 000a 0C37     		adds	r7, r7, #12
 249              	.LCFI19:
 250              		.cfi_def_cfa_offset 4
 251 000c BD46     		mov	sp, r7
 252              	.LCFI20:
 253              		.cfi_def_cfa_register 13
 254              		@ sp needed
 255 000e 80BC     		pop	{r7}
 256              	.LCFI21:
 257              		.cfi_restore 7
 258              		.cfi_def_cfa_offset 0
 259 0010 7047     		bx	lr
 260              		.cfi_endproc
 261              	.LFE69:
 263              		.section	.text.HAL_TIM_Base_Start,"ax",%progbits
 264              		.align	1
 265              		.global	HAL_TIM_Base_Start
 266              		.syntax unified
 267              		.thumb
 268              		.thumb_func
 269              		.fpu softvfp
 271              	HAL_TIM_Base_Start:
 272              	.LFB70:
 295:Drivers/STM32F1xx_HAL_Driver/Src/stm32f1xx_hal_tim.c **** 
 296:Drivers/STM32F1xx_HAL_Driver/Src/stm32f1xx_hal_tim.c **** 
 297:Drivers/STM32F1xx_HAL_Driver/Src/stm32f1xx_hal_tim.c **** /**
 298:Drivers/STM32F1xx_HAL_Driver/Src/stm32f1xx_hal_tim.c ****   * @brief  Starts the TIM Base generation.
 299:Drivers/STM32F1xx_HAL_Driver/Src/stm32f1xx_hal_tim.c ****   * @param  htim : TIM handle
 300:Drivers/STM32F1xx_HAL_Driver/Src/stm32f1xx_hal_tim.c ****   * @retval HAL status
 301:Drivers/STM32F1xx_HAL_Driver/Src/stm32f1xx_hal_tim.c **** */
 302:Drivers/STM32F1xx_HAL_Driver/Src/stm32f1xx_hal_tim.c **** HAL_StatusTypeDef HAL_TIM_Base_Start(TIM_HandleTypeDef *htim)
 303:Drivers/STM32F1xx_HAL_Driver/Src/stm32f1xx_hal_tim.c **** {
 273              		.loc 1 303 0
 274              		.cfi_startproc
 275              		@ args = 0, pretend = 0, frame = 8
 276              		@ frame_needed = 1, uses_anonymous_args = 0
ARM GAS  /tmp/cc5HGhWi.s 			page 11


 277              		@ link register save eliminated.
 278 0000 80B4     		push	{r7}
 279              	.LCFI22:
 280              		.cfi_def_cfa_offset 4
 281              		.cfi_offset 7, -4
 282 0002 83B0     		sub	sp, sp, #12
 283              	.LCFI23:
 284              		.cfi_def_cfa_offset 16
 285 0004 00AF     		add	r7, sp, #0
 286              	.LCFI24:
 287              		.cfi_def_cfa_register 7
 288 0006 7860     		str	r0, [r7, #4]
 304:Drivers/STM32F1xx_HAL_Driver/Src/stm32f1xx_hal_tim.c ****   /* Check the parameters */
 305:Drivers/STM32F1xx_HAL_Driver/Src/stm32f1xx_hal_tim.c ****   assert_param(IS_TIM_INSTANCE(htim->Instance));
 306:Drivers/STM32F1xx_HAL_Driver/Src/stm32f1xx_hal_tim.c **** 
 307:Drivers/STM32F1xx_HAL_Driver/Src/stm32f1xx_hal_tim.c ****   /* Set the TIM state */
 308:Drivers/STM32F1xx_HAL_Driver/Src/stm32f1xx_hal_tim.c ****   htim->State= HAL_TIM_STATE_BUSY;
 289              		.loc 1 308 0
 290 0008 7B68     		ldr	r3, [r7, #4]
 291 000a 0222     		movs	r2, #2
 292 000c 83F83D20 		strb	r2, [r3, #61]
 309:Drivers/STM32F1xx_HAL_Driver/Src/stm32f1xx_hal_tim.c **** 
 310:Drivers/STM32F1xx_HAL_Driver/Src/stm32f1xx_hal_tim.c ****   /* Enable the Peripheral */
 311:Drivers/STM32F1xx_HAL_Driver/Src/stm32f1xx_hal_tim.c ****   __HAL_TIM_ENABLE(htim);
 293              		.loc 1 311 0
 294 0010 7B68     		ldr	r3, [r7, #4]
 295 0012 1B68     		ldr	r3, [r3]
 296 0014 1A68     		ldr	r2, [r3]
 297 0016 7B68     		ldr	r3, [r7, #4]
 298 0018 1B68     		ldr	r3, [r3]
 299 001a 42F00102 		orr	r2, r2, #1
 300 001e 1A60     		str	r2, [r3]
 312:Drivers/STM32F1xx_HAL_Driver/Src/stm32f1xx_hal_tim.c **** 
 313:Drivers/STM32F1xx_HAL_Driver/Src/stm32f1xx_hal_tim.c ****   /* Change the TIM state*/
 314:Drivers/STM32F1xx_HAL_Driver/Src/stm32f1xx_hal_tim.c ****   htim->State= HAL_TIM_STATE_READY;
 301              		.loc 1 314 0
 302 0020 7B68     		ldr	r3, [r7, #4]
 303 0022 0122     		movs	r2, #1
 304 0024 83F83D20 		strb	r2, [r3, #61]
 315:Drivers/STM32F1xx_HAL_Driver/Src/stm32f1xx_hal_tim.c **** 
 316:Drivers/STM32F1xx_HAL_Driver/Src/stm32f1xx_hal_tim.c ****   /* Return function status */
 317:Drivers/STM32F1xx_HAL_Driver/Src/stm32f1xx_hal_tim.c ****   return HAL_OK;
 305              		.loc 1 317 0
 306 0028 0023     		movs	r3, #0
 318:Drivers/STM32F1xx_HAL_Driver/Src/stm32f1xx_hal_tim.c **** }
 307              		.loc 1 318 0
 308 002a 1846     		mov	r0, r3
 309 002c 0C37     		adds	r7, r7, #12
 310              	.LCFI25:
 311              		.cfi_def_cfa_offset 4
 312 002e BD46     		mov	sp, r7
 313              	.LCFI26:
 314              		.cfi_def_cfa_register 13
 315              		@ sp needed
 316 0030 80BC     		pop	{r7}
 317              	.LCFI27:
 318              		.cfi_restore 7
ARM GAS  /tmp/cc5HGhWi.s 			page 12


 319              		.cfi_def_cfa_offset 0
 320 0032 7047     		bx	lr
 321              		.cfi_endproc
 322              	.LFE70:
 324              		.section	.text.HAL_TIM_Base_Stop,"ax",%progbits
 325              		.align	1
 326              		.global	HAL_TIM_Base_Stop
 327              		.syntax unified
 328              		.thumb
 329              		.thumb_func
 330              		.fpu softvfp
 332              	HAL_TIM_Base_Stop:
 333              	.LFB71:
 319:Drivers/STM32F1xx_HAL_Driver/Src/stm32f1xx_hal_tim.c **** 
 320:Drivers/STM32F1xx_HAL_Driver/Src/stm32f1xx_hal_tim.c **** /**
 321:Drivers/STM32F1xx_HAL_Driver/Src/stm32f1xx_hal_tim.c ****   * @brief  Stops the TIM Base generation.
 322:Drivers/STM32F1xx_HAL_Driver/Src/stm32f1xx_hal_tim.c ****   * @param  htim : TIM handle
 323:Drivers/STM32F1xx_HAL_Driver/Src/stm32f1xx_hal_tim.c ****   * @retval HAL status
 324:Drivers/STM32F1xx_HAL_Driver/Src/stm32f1xx_hal_tim.c **** */
 325:Drivers/STM32F1xx_HAL_Driver/Src/stm32f1xx_hal_tim.c **** HAL_StatusTypeDef HAL_TIM_Base_Stop(TIM_HandleTypeDef *htim)
 326:Drivers/STM32F1xx_HAL_Driver/Src/stm32f1xx_hal_tim.c **** {
 334              		.loc 1 326 0
 335              		.cfi_startproc
 336              		@ args = 0, pretend = 0, frame = 8
 337              		@ frame_needed = 1, uses_anonymous_args = 0
 338              		@ link register save eliminated.
 339 0000 80B4     		push	{r7}
 340              	.LCFI28:
 341              		.cfi_def_cfa_offset 4
 342              		.cfi_offset 7, -4
 343 0002 83B0     		sub	sp, sp, #12
 344              	.LCFI29:
 345              		.cfi_def_cfa_offset 16
 346 0004 00AF     		add	r7, sp, #0
 347              	.LCFI30:
 348              		.cfi_def_cfa_register 7
 349 0006 7860     		str	r0, [r7, #4]
 327:Drivers/STM32F1xx_HAL_Driver/Src/stm32f1xx_hal_tim.c ****   /* Check the parameters */
 328:Drivers/STM32F1xx_HAL_Driver/Src/stm32f1xx_hal_tim.c ****   assert_param(IS_TIM_INSTANCE(htim->Instance));
 329:Drivers/STM32F1xx_HAL_Driver/Src/stm32f1xx_hal_tim.c **** 
 330:Drivers/STM32F1xx_HAL_Driver/Src/stm32f1xx_hal_tim.c ****   /* Set the TIM state */
 331:Drivers/STM32F1xx_HAL_Driver/Src/stm32f1xx_hal_tim.c ****   htim->State= HAL_TIM_STATE_BUSY;
 350              		.loc 1 331 0
 351 0008 7B68     		ldr	r3, [r7, #4]
 352 000a 0222     		movs	r2, #2
 353 000c 83F83D20 		strb	r2, [r3, #61]
 332:Drivers/STM32F1xx_HAL_Driver/Src/stm32f1xx_hal_tim.c **** 
 333:Drivers/STM32F1xx_HAL_Driver/Src/stm32f1xx_hal_tim.c ****   /* Disable the Peripheral */
 334:Drivers/STM32F1xx_HAL_Driver/Src/stm32f1xx_hal_tim.c ****   __HAL_TIM_DISABLE(htim);
 354              		.loc 1 334 0
 355 0010 7B68     		ldr	r3, [r7, #4]
 356 0012 1B68     		ldr	r3, [r3]
 357 0014 1A6A     		ldr	r2, [r3, #32]
 358 0016 41F21113 		movw	r3, #4369
 359 001a 1340     		ands	r3, r3, r2
 360 001c 002B     		cmp	r3, #0
 361 001e 0FD1     		bne	.L13
ARM GAS  /tmp/cc5HGhWi.s 			page 13


 362              		.loc 1 334 0 is_stmt 0 discriminator 1
 363 0020 7B68     		ldr	r3, [r7, #4]
 364 0022 1B68     		ldr	r3, [r3]
 365 0024 1A6A     		ldr	r2, [r3, #32]
 366 0026 40F24443 		movw	r3, #1092
 367 002a 1340     		ands	r3, r3, r2
 368 002c 002B     		cmp	r3, #0
 369 002e 07D1     		bne	.L13
 370              		.loc 1 334 0 discriminator 2
 371 0030 7B68     		ldr	r3, [r7, #4]
 372 0032 1B68     		ldr	r3, [r3]
 373 0034 1A68     		ldr	r2, [r3]
 374 0036 7B68     		ldr	r3, [r7, #4]
 375 0038 1B68     		ldr	r3, [r3]
 376 003a 22F00102 		bic	r2, r2, #1
 377 003e 1A60     		str	r2, [r3]
 378              	.L13:
 335:Drivers/STM32F1xx_HAL_Driver/Src/stm32f1xx_hal_tim.c **** 
 336:Drivers/STM32F1xx_HAL_Driver/Src/stm32f1xx_hal_tim.c ****   /* Change the TIM state*/
 337:Drivers/STM32F1xx_HAL_Driver/Src/stm32f1xx_hal_tim.c ****   htim->State= HAL_TIM_STATE_READY;
 379              		.loc 1 337 0 is_stmt 1
 380 0040 7B68     		ldr	r3, [r7, #4]
 381 0042 0122     		movs	r2, #1
 382 0044 83F83D20 		strb	r2, [r3, #61]
 338:Drivers/STM32F1xx_HAL_Driver/Src/stm32f1xx_hal_tim.c **** 
 339:Drivers/STM32F1xx_HAL_Driver/Src/stm32f1xx_hal_tim.c ****   /* Return function status */
 340:Drivers/STM32F1xx_HAL_Driver/Src/stm32f1xx_hal_tim.c ****   return HAL_OK;
 383              		.loc 1 340 0
 384 0048 0023     		movs	r3, #0
 341:Drivers/STM32F1xx_HAL_Driver/Src/stm32f1xx_hal_tim.c **** }
 385              		.loc 1 341 0
 386 004a 1846     		mov	r0, r3
 387 004c 0C37     		adds	r7, r7, #12
 388              	.LCFI31:
 389              		.cfi_def_cfa_offset 4
 390 004e BD46     		mov	sp, r7
 391              	.LCFI32:
 392              		.cfi_def_cfa_register 13
 393              		@ sp needed
 394 0050 80BC     		pop	{r7}
 395              	.LCFI33:
 396              		.cfi_restore 7
 397              		.cfi_def_cfa_offset 0
 398 0052 7047     		bx	lr
 399              		.cfi_endproc
 400              	.LFE71:
 402              		.section	.text.HAL_TIM_Base_Start_IT,"ax",%progbits
 403              		.align	1
 404              		.global	HAL_TIM_Base_Start_IT
 405              		.syntax unified
 406              		.thumb
 407              		.thumb_func
 408              		.fpu softvfp
 410              	HAL_TIM_Base_Start_IT:
 411              	.LFB72:
 342:Drivers/STM32F1xx_HAL_Driver/Src/stm32f1xx_hal_tim.c **** 
 343:Drivers/STM32F1xx_HAL_Driver/Src/stm32f1xx_hal_tim.c **** /**
ARM GAS  /tmp/cc5HGhWi.s 			page 14


 344:Drivers/STM32F1xx_HAL_Driver/Src/stm32f1xx_hal_tim.c ****   * @brief  Starts the TIM Base generation in interrupt mode.
 345:Drivers/STM32F1xx_HAL_Driver/Src/stm32f1xx_hal_tim.c ****   * @param  htim : TIM handle
 346:Drivers/STM32F1xx_HAL_Driver/Src/stm32f1xx_hal_tim.c ****   * @retval HAL status
 347:Drivers/STM32F1xx_HAL_Driver/Src/stm32f1xx_hal_tim.c **** */
 348:Drivers/STM32F1xx_HAL_Driver/Src/stm32f1xx_hal_tim.c **** HAL_StatusTypeDef HAL_TIM_Base_Start_IT(TIM_HandleTypeDef *htim)
 349:Drivers/STM32F1xx_HAL_Driver/Src/stm32f1xx_hal_tim.c **** {
 412              		.loc 1 349 0
 413              		.cfi_startproc
 414              		@ args = 0, pretend = 0, frame = 8
 415              		@ frame_needed = 1, uses_anonymous_args = 0
 416              		@ link register save eliminated.
 417 0000 80B4     		push	{r7}
 418              	.LCFI34:
 419              		.cfi_def_cfa_offset 4
 420              		.cfi_offset 7, -4
 421 0002 83B0     		sub	sp, sp, #12
 422              	.LCFI35:
 423              		.cfi_def_cfa_offset 16
 424 0004 00AF     		add	r7, sp, #0
 425              	.LCFI36:
 426              		.cfi_def_cfa_register 7
 427 0006 7860     		str	r0, [r7, #4]
 350:Drivers/STM32F1xx_HAL_Driver/Src/stm32f1xx_hal_tim.c ****   /* Check the parameters */
 351:Drivers/STM32F1xx_HAL_Driver/Src/stm32f1xx_hal_tim.c ****   assert_param(IS_TIM_INSTANCE(htim->Instance));
 352:Drivers/STM32F1xx_HAL_Driver/Src/stm32f1xx_hal_tim.c **** 
 353:Drivers/STM32F1xx_HAL_Driver/Src/stm32f1xx_hal_tim.c ****    /* Enable the TIM Update interrupt */
 354:Drivers/STM32F1xx_HAL_Driver/Src/stm32f1xx_hal_tim.c ****    __HAL_TIM_ENABLE_IT(htim, TIM_IT_UPDATE);
 428              		.loc 1 354 0
 429 0008 7B68     		ldr	r3, [r7, #4]
 430 000a 1B68     		ldr	r3, [r3]
 431 000c DA68     		ldr	r2, [r3, #12]
 432 000e 7B68     		ldr	r3, [r7, #4]
 433 0010 1B68     		ldr	r3, [r3]
 434 0012 42F00102 		orr	r2, r2, #1
 435 0016 DA60     		str	r2, [r3, #12]
 355:Drivers/STM32F1xx_HAL_Driver/Src/stm32f1xx_hal_tim.c **** 
 356:Drivers/STM32F1xx_HAL_Driver/Src/stm32f1xx_hal_tim.c ****    /* Enable the Peripheral */
 357:Drivers/STM32F1xx_HAL_Driver/Src/stm32f1xx_hal_tim.c ****   __HAL_TIM_ENABLE(htim);
 436              		.loc 1 357 0
 437 0018 7B68     		ldr	r3, [r7, #4]
 438 001a 1B68     		ldr	r3, [r3]
 439 001c 1A68     		ldr	r2, [r3]
 440 001e 7B68     		ldr	r3, [r7, #4]
 441 0020 1B68     		ldr	r3, [r3]
 442 0022 42F00102 		orr	r2, r2, #1
 443 0026 1A60     		str	r2, [r3]
 358:Drivers/STM32F1xx_HAL_Driver/Src/stm32f1xx_hal_tim.c **** 
 359:Drivers/STM32F1xx_HAL_Driver/Src/stm32f1xx_hal_tim.c ****   /* Return function status */
 360:Drivers/STM32F1xx_HAL_Driver/Src/stm32f1xx_hal_tim.c ****   return HAL_OK;
 444              		.loc 1 360 0
 445 0028 0023     		movs	r3, #0
 361:Drivers/STM32F1xx_HAL_Driver/Src/stm32f1xx_hal_tim.c **** }
 446              		.loc 1 361 0
 447 002a 1846     		mov	r0, r3
 448 002c 0C37     		adds	r7, r7, #12
 449              	.LCFI37:
 450              		.cfi_def_cfa_offset 4
ARM GAS  /tmp/cc5HGhWi.s 			page 15


 451 002e BD46     		mov	sp, r7
 452              	.LCFI38:
 453              		.cfi_def_cfa_register 13
 454              		@ sp needed
 455 0030 80BC     		pop	{r7}
 456              	.LCFI39:
 457              		.cfi_restore 7
 458              		.cfi_def_cfa_offset 0
 459 0032 7047     		bx	lr
 460              		.cfi_endproc
 461              	.LFE72:
 463              		.section	.text.HAL_TIM_Base_Stop_IT,"ax",%progbits
 464              		.align	1
 465              		.global	HAL_TIM_Base_Stop_IT
 466              		.syntax unified
 467              		.thumb
 468              		.thumb_func
 469              		.fpu softvfp
 471              	HAL_TIM_Base_Stop_IT:
 472              	.LFB73:
 362:Drivers/STM32F1xx_HAL_Driver/Src/stm32f1xx_hal_tim.c **** 
 363:Drivers/STM32F1xx_HAL_Driver/Src/stm32f1xx_hal_tim.c **** /**
 364:Drivers/STM32F1xx_HAL_Driver/Src/stm32f1xx_hal_tim.c ****   * @brief  Stops the TIM Base generation in interrupt mode.
 365:Drivers/STM32F1xx_HAL_Driver/Src/stm32f1xx_hal_tim.c ****   * @param  htim : TIM handle
 366:Drivers/STM32F1xx_HAL_Driver/Src/stm32f1xx_hal_tim.c ****   * @retval HAL status
 367:Drivers/STM32F1xx_HAL_Driver/Src/stm32f1xx_hal_tim.c **** */
 368:Drivers/STM32F1xx_HAL_Driver/Src/stm32f1xx_hal_tim.c **** HAL_StatusTypeDef HAL_TIM_Base_Stop_IT(TIM_HandleTypeDef *htim)
 369:Drivers/STM32F1xx_HAL_Driver/Src/stm32f1xx_hal_tim.c **** {
 473              		.loc 1 369 0
 474              		.cfi_startproc
 475              		@ args = 0, pretend = 0, frame = 8
 476              		@ frame_needed = 1, uses_anonymous_args = 0
 477              		@ link register save eliminated.
 478 0000 80B4     		push	{r7}
 479              	.LCFI40:
 480              		.cfi_def_cfa_offset 4
 481              		.cfi_offset 7, -4
 482 0002 83B0     		sub	sp, sp, #12
 483              	.LCFI41:
 484              		.cfi_def_cfa_offset 16
 485 0004 00AF     		add	r7, sp, #0
 486              	.LCFI42:
 487              		.cfi_def_cfa_register 7
 488 0006 7860     		str	r0, [r7, #4]
 370:Drivers/STM32F1xx_HAL_Driver/Src/stm32f1xx_hal_tim.c ****   /* Check the parameters */
 371:Drivers/STM32F1xx_HAL_Driver/Src/stm32f1xx_hal_tim.c ****   assert_param(IS_TIM_INSTANCE(htim->Instance));
 372:Drivers/STM32F1xx_HAL_Driver/Src/stm32f1xx_hal_tim.c ****   /* Disable the TIM Update interrupt */
 373:Drivers/STM32F1xx_HAL_Driver/Src/stm32f1xx_hal_tim.c ****   __HAL_TIM_DISABLE_IT(htim, TIM_IT_UPDATE);
 489              		.loc 1 373 0
 490 0008 7B68     		ldr	r3, [r7, #4]
 491 000a 1B68     		ldr	r3, [r3]
 492 000c DA68     		ldr	r2, [r3, #12]
 493 000e 7B68     		ldr	r3, [r7, #4]
 494 0010 1B68     		ldr	r3, [r3]
 495 0012 22F00102 		bic	r2, r2, #1
 496 0016 DA60     		str	r2, [r3, #12]
 374:Drivers/STM32F1xx_HAL_Driver/Src/stm32f1xx_hal_tim.c **** 
ARM GAS  /tmp/cc5HGhWi.s 			page 16


 375:Drivers/STM32F1xx_HAL_Driver/Src/stm32f1xx_hal_tim.c ****   /* Disable the Peripheral */
 376:Drivers/STM32F1xx_HAL_Driver/Src/stm32f1xx_hal_tim.c ****   __HAL_TIM_DISABLE(htim);
 497              		.loc 1 376 0
 498 0018 7B68     		ldr	r3, [r7, #4]
 499 001a 1B68     		ldr	r3, [r3]
 500 001c 1A6A     		ldr	r2, [r3, #32]
 501 001e 41F21113 		movw	r3, #4369
 502 0022 1340     		ands	r3, r3, r2
 503 0024 002B     		cmp	r3, #0
 504 0026 0FD1     		bne	.L18
 505              		.loc 1 376 0 is_stmt 0 discriminator 1
 506 0028 7B68     		ldr	r3, [r7, #4]
 507 002a 1B68     		ldr	r3, [r3]
 508 002c 1A6A     		ldr	r2, [r3, #32]
 509 002e 40F24443 		movw	r3, #1092
 510 0032 1340     		ands	r3, r3, r2
 511 0034 002B     		cmp	r3, #0
 512 0036 07D1     		bne	.L18
 513              		.loc 1 376 0 discriminator 2
 514 0038 7B68     		ldr	r3, [r7, #4]
 515 003a 1B68     		ldr	r3, [r3]
 516 003c 1A68     		ldr	r2, [r3]
 517 003e 7B68     		ldr	r3, [r7, #4]
 518 0040 1B68     		ldr	r3, [r3]
 519 0042 22F00102 		bic	r2, r2, #1
 520 0046 1A60     		str	r2, [r3]
 521              	.L18:
 377:Drivers/STM32F1xx_HAL_Driver/Src/stm32f1xx_hal_tim.c **** 
 378:Drivers/STM32F1xx_HAL_Driver/Src/stm32f1xx_hal_tim.c ****   /* Return function status */
 379:Drivers/STM32F1xx_HAL_Driver/Src/stm32f1xx_hal_tim.c ****   return HAL_OK;
 522              		.loc 1 379 0 is_stmt 1
 523 0048 0023     		movs	r3, #0
 380:Drivers/STM32F1xx_HAL_Driver/Src/stm32f1xx_hal_tim.c **** }
 524              		.loc 1 380 0
 525 004a 1846     		mov	r0, r3
 526 004c 0C37     		adds	r7, r7, #12
 527              	.LCFI43:
 528              		.cfi_def_cfa_offset 4
 529 004e BD46     		mov	sp, r7
 530              	.LCFI44:
 531              		.cfi_def_cfa_register 13
 532              		@ sp needed
 533 0050 80BC     		pop	{r7}
 534              	.LCFI45:
 535              		.cfi_restore 7
 536              		.cfi_def_cfa_offset 0
 537 0052 7047     		bx	lr
 538              		.cfi_endproc
 539              	.LFE73:
 541              		.section	.text.HAL_TIM_Base_Start_DMA,"ax",%progbits
 542              		.align	1
 543              		.global	HAL_TIM_Base_Start_DMA
 544              		.syntax unified
 545              		.thumb
 546              		.thumb_func
 547              		.fpu softvfp
 549              	HAL_TIM_Base_Start_DMA:
ARM GAS  /tmp/cc5HGhWi.s 			page 17


 550              	.LFB74:
 381:Drivers/STM32F1xx_HAL_Driver/Src/stm32f1xx_hal_tim.c **** 
 382:Drivers/STM32F1xx_HAL_Driver/Src/stm32f1xx_hal_tim.c **** /**
 383:Drivers/STM32F1xx_HAL_Driver/Src/stm32f1xx_hal_tim.c ****   * @brief  Starts the TIM Base generation in DMA mode.
 384:Drivers/STM32F1xx_HAL_Driver/Src/stm32f1xx_hal_tim.c ****   * @param  htim : TIM handle
 385:Drivers/STM32F1xx_HAL_Driver/Src/stm32f1xx_hal_tim.c ****   * @param  pData : The source Buffer address.
 386:Drivers/STM32F1xx_HAL_Driver/Src/stm32f1xx_hal_tim.c ****   * @param  Length : The length of data to be transferred from memory to peripheral.
 387:Drivers/STM32F1xx_HAL_Driver/Src/stm32f1xx_hal_tim.c ****   * @retval HAL status
 388:Drivers/STM32F1xx_HAL_Driver/Src/stm32f1xx_hal_tim.c **** */
 389:Drivers/STM32F1xx_HAL_Driver/Src/stm32f1xx_hal_tim.c **** HAL_StatusTypeDef HAL_TIM_Base_Start_DMA(TIM_HandleTypeDef *htim, uint32_t *pData, uint16_t Length)
 390:Drivers/STM32F1xx_HAL_Driver/Src/stm32f1xx_hal_tim.c **** {
 551              		.loc 1 390 0
 552              		.cfi_startproc
 553              		@ args = 0, pretend = 0, frame = 16
 554              		@ frame_needed = 1, uses_anonymous_args = 0
 555 0000 80B5     		push	{r7, lr}
 556              	.LCFI46:
 557              		.cfi_def_cfa_offset 8
 558              		.cfi_offset 7, -8
 559              		.cfi_offset 14, -4
 560 0002 84B0     		sub	sp, sp, #16
 561              	.LCFI47:
 562              		.cfi_def_cfa_offset 24
 563 0004 00AF     		add	r7, sp, #0
 564              	.LCFI48:
 565              		.cfi_def_cfa_register 7
 566 0006 F860     		str	r0, [r7, #12]
 567 0008 B960     		str	r1, [r7, #8]
 568 000a 1346     		mov	r3, r2
 569 000c FB80     		strh	r3, [r7, #6]	@ movhi
 391:Drivers/STM32F1xx_HAL_Driver/Src/stm32f1xx_hal_tim.c ****   /* Check the parameters */
 392:Drivers/STM32F1xx_HAL_Driver/Src/stm32f1xx_hal_tim.c ****   assert_param(IS_TIM_DMA_INSTANCE(htim->Instance));
 393:Drivers/STM32F1xx_HAL_Driver/Src/stm32f1xx_hal_tim.c **** 
 394:Drivers/STM32F1xx_HAL_Driver/Src/stm32f1xx_hal_tim.c ****   if((htim->State == HAL_TIM_STATE_BUSY))
 570              		.loc 1 394 0
 571 000e FB68     		ldr	r3, [r7, #12]
 572 0010 93F83D30 		ldrb	r3, [r3, #61]
 573 0014 DBB2     		uxtb	r3, r3
 574 0016 022B     		cmp	r3, #2
 575 0018 01D1     		bne	.L21
 395:Drivers/STM32F1xx_HAL_Driver/Src/stm32f1xx_hal_tim.c ****   {
 396:Drivers/STM32F1xx_HAL_Driver/Src/stm32f1xx_hal_tim.c ****      return HAL_BUSY;
 576              		.loc 1 396 0
 577 001a 0223     		movs	r3, #2
 578 001c 34E0     		b	.L22
 579              	.L21:
 397:Drivers/STM32F1xx_HAL_Driver/Src/stm32f1xx_hal_tim.c ****   }
 398:Drivers/STM32F1xx_HAL_Driver/Src/stm32f1xx_hal_tim.c ****   else if((htim->State == HAL_TIM_STATE_READY))
 580              		.loc 1 398 0
 581 001e FB68     		ldr	r3, [r7, #12]
 582 0020 93F83D30 		ldrb	r3, [r3, #61]
 583 0024 DBB2     		uxtb	r3, r3
 584 0026 012B     		cmp	r3, #1
 585 0028 0BD1     		bne	.L23
 399:Drivers/STM32F1xx_HAL_Driver/Src/stm32f1xx_hal_tim.c ****   {
 400:Drivers/STM32F1xx_HAL_Driver/Src/stm32f1xx_hal_tim.c ****     if((pData == 0U) && (Length > 0U))
 586              		.loc 1 400 0
ARM GAS  /tmp/cc5HGhWi.s 			page 18


 587 002a BB68     		ldr	r3, [r7, #8]
 588 002c 002B     		cmp	r3, #0
 589 002e 04D1     		bne	.L24
 590              		.loc 1 400 0 is_stmt 0 discriminator 1
 591 0030 FB88     		ldrh	r3, [r7, #6]
 592 0032 002B     		cmp	r3, #0
 593 0034 01D0     		beq	.L24
 401:Drivers/STM32F1xx_HAL_Driver/Src/stm32f1xx_hal_tim.c ****     {
 402:Drivers/STM32F1xx_HAL_Driver/Src/stm32f1xx_hal_tim.c ****       return HAL_ERROR;
 594              		.loc 1 402 0 is_stmt 1
 595 0036 0123     		movs	r3, #1
 596 0038 26E0     		b	.L22
 597              	.L24:
 403:Drivers/STM32F1xx_HAL_Driver/Src/stm32f1xx_hal_tim.c ****     }
 404:Drivers/STM32F1xx_HAL_Driver/Src/stm32f1xx_hal_tim.c ****     else
 405:Drivers/STM32F1xx_HAL_Driver/Src/stm32f1xx_hal_tim.c ****     {
 406:Drivers/STM32F1xx_HAL_Driver/Src/stm32f1xx_hal_tim.c ****       htim->State = HAL_TIM_STATE_BUSY;
 598              		.loc 1 406 0
 599 003a FB68     		ldr	r3, [r7, #12]
 600 003c 0222     		movs	r2, #2
 601 003e 83F83D20 		strb	r2, [r3, #61]
 602              	.L23:
 407:Drivers/STM32F1xx_HAL_Driver/Src/stm32f1xx_hal_tim.c ****     }
 408:Drivers/STM32F1xx_HAL_Driver/Src/stm32f1xx_hal_tim.c ****   }
 409:Drivers/STM32F1xx_HAL_Driver/Src/stm32f1xx_hal_tim.c ****   /* Set the DMA Period elapsed callback */
 410:Drivers/STM32F1xx_HAL_Driver/Src/stm32f1xx_hal_tim.c ****   htim->hdma[TIM_DMA_ID_UPDATE]->XferCpltCallback = TIM_DMAPeriodElapsedCplt;
 603              		.loc 1 410 0
 604 0042 FB68     		ldr	r3, [r7, #12]
 605 0044 1B6A     		ldr	r3, [r3, #32]
 606 0046 124A     		ldr	r2, .L25
 607 0048 9A62     		str	r2, [r3, #40]
 411:Drivers/STM32F1xx_HAL_Driver/Src/stm32f1xx_hal_tim.c **** 
 412:Drivers/STM32F1xx_HAL_Driver/Src/stm32f1xx_hal_tim.c ****   /* Set the DMA error callback */
 413:Drivers/STM32F1xx_HAL_Driver/Src/stm32f1xx_hal_tim.c ****   htim->hdma[TIM_DMA_ID_UPDATE]->XferErrorCallback = TIM_DMAError ;
 608              		.loc 1 413 0
 609 004a FB68     		ldr	r3, [r7, #12]
 610 004c 1B6A     		ldr	r3, [r3, #32]
 611 004e 114A     		ldr	r2, .L25+4
 612 0050 1A63     		str	r2, [r3, #48]
 414:Drivers/STM32F1xx_HAL_Driver/Src/stm32f1xx_hal_tim.c **** 
 415:Drivers/STM32F1xx_HAL_Driver/Src/stm32f1xx_hal_tim.c ****   /* Enable the DMA channel */
 416:Drivers/STM32F1xx_HAL_Driver/Src/stm32f1xx_hal_tim.c ****   HAL_DMA_Start_IT(htim->hdma[TIM_DMA_ID_UPDATE], (uint32_t)pData, (uint32_t)&htim->Instance->ARR, 
 613              		.loc 1 416 0
 614 0052 FB68     		ldr	r3, [r7, #12]
 615 0054 186A     		ldr	r0, [r3, #32]
 616 0056 B968     		ldr	r1, [r7, #8]
 617 0058 FB68     		ldr	r3, [r7, #12]
 618 005a 1B68     		ldr	r3, [r3]
 619 005c 2C33     		adds	r3, r3, #44
 620 005e 1A46     		mov	r2, r3
 621 0060 FB88     		ldrh	r3, [r7, #6]
 622 0062 FFF7FEFF 		bl	HAL_DMA_Start_IT
 417:Drivers/STM32F1xx_HAL_Driver/Src/stm32f1xx_hal_tim.c **** 
 418:Drivers/STM32F1xx_HAL_Driver/Src/stm32f1xx_hal_tim.c ****   /* Enable the TIM Update DMA request */
 419:Drivers/STM32F1xx_HAL_Driver/Src/stm32f1xx_hal_tim.c ****   __HAL_TIM_ENABLE_DMA(htim, TIM_DMA_UPDATE);
 623              		.loc 1 419 0
 624 0066 FB68     		ldr	r3, [r7, #12]
ARM GAS  /tmp/cc5HGhWi.s 			page 19


 625 0068 1B68     		ldr	r3, [r3]
 626 006a DA68     		ldr	r2, [r3, #12]
 627 006c FB68     		ldr	r3, [r7, #12]
 628 006e 1B68     		ldr	r3, [r3]
 629 0070 42F48072 		orr	r2, r2, #256
 630 0074 DA60     		str	r2, [r3, #12]
 420:Drivers/STM32F1xx_HAL_Driver/Src/stm32f1xx_hal_tim.c **** 
 421:Drivers/STM32F1xx_HAL_Driver/Src/stm32f1xx_hal_tim.c ****   /* Enable the Peripheral */
 422:Drivers/STM32F1xx_HAL_Driver/Src/stm32f1xx_hal_tim.c ****   __HAL_TIM_ENABLE(htim);
 631              		.loc 1 422 0
 632 0076 FB68     		ldr	r3, [r7, #12]
 633 0078 1B68     		ldr	r3, [r3]
 634 007a 1A68     		ldr	r2, [r3]
 635 007c FB68     		ldr	r3, [r7, #12]
 636 007e 1B68     		ldr	r3, [r3]
 637 0080 42F00102 		orr	r2, r2, #1
 638 0084 1A60     		str	r2, [r3]
 423:Drivers/STM32F1xx_HAL_Driver/Src/stm32f1xx_hal_tim.c **** 
 424:Drivers/STM32F1xx_HAL_Driver/Src/stm32f1xx_hal_tim.c ****   /* Return function status */
 425:Drivers/STM32F1xx_HAL_Driver/Src/stm32f1xx_hal_tim.c ****   return HAL_OK;
 639              		.loc 1 425 0
 640 0086 0023     		movs	r3, #0
 641              	.L22:
 426:Drivers/STM32F1xx_HAL_Driver/Src/stm32f1xx_hal_tim.c **** }
 642              		.loc 1 426 0
 643 0088 1846     		mov	r0, r3
 644 008a 1037     		adds	r7, r7, #16
 645              	.LCFI49:
 646              		.cfi_def_cfa_offset 8
 647 008c BD46     		mov	sp, r7
 648              	.LCFI50:
 649              		.cfi_def_cfa_register 13
 650              		@ sp needed
 651 008e 80BD     		pop	{r7, pc}
 652              	.L26:
 653              		.align	2
 654              	.L25:
 655 0090 00000000 		.word	TIM_DMAPeriodElapsedCplt
 656 0094 00000000 		.word	TIM_DMAError
 657              		.cfi_endproc
 658              	.LFE74:
 660              		.section	.text.HAL_TIM_Base_Stop_DMA,"ax",%progbits
 661              		.align	1
 662              		.global	HAL_TIM_Base_Stop_DMA
 663              		.syntax unified
 664              		.thumb
 665              		.thumb_func
 666              		.fpu softvfp
 668              	HAL_TIM_Base_Stop_DMA:
 669              	.LFB75:
 427:Drivers/STM32F1xx_HAL_Driver/Src/stm32f1xx_hal_tim.c **** 
 428:Drivers/STM32F1xx_HAL_Driver/Src/stm32f1xx_hal_tim.c **** /**
 429:Drivers/STM32F1xx_HAL_Driver/Src/stm32f1xx_hal_tim.c ****   * @brief  Stops the TIM Base generation in DMA mode.
 430:Drivers/STM32F1xx_HAL_Driver/Src/stm32f1xx_hal_tim.c ****   * @param  htim : TIM handle
 431:Drivers/STM32F1xx_HAL_Driver/Src/stm32f1xx_hal_tim.c ****   * @retval HAL status
 432:Drivers/STM32F1xx_HAL_Driver/Src/stm32f1xx_hal_tim.c **** */
 433:Drivers/STM32F1xx_HAL_Driver/Src/stm32f1xx_hal_tim.c **** HAL_StatusTypeDef HAL_TIM_Base_Stop_DMA(TIM_HandleTypeDef *htim)
ARM GAS  /tmp/cc5HGhWi.s 			page 20


 434:Drivers/STM32F1xx_HAL_Driver/Src/stm32f1xx_hal_tim.c **** {
 670              		.loc 1 434 0
 671              		.cfi_startproc
 672              		@ args = 0, pretend = 0, frame = 8
 673              		@ frame_needed = 1, uses_anonymous_args = 0
 674              		@ link register save eliminated.
 675 0000 80B4     		push	{r7}
 676              	.LCFI51:
 677              		.cfi_def_cfa_offset 4
 678              		.cfi_offset 7, -4
 679 0002 83B0     		sub	sp, sp, #12
 680              	.LCFI52:
 681              		.cfi_def_cfa_offset 16
 682 0004 00AF     		add	r7, sp, #0
 683              	.LCFI53:
 684              		.cfi_def_cfa_register 7
 685 0006 7860     		str	r0, [r7, #4]
 435:Drivers/STM32F1xx_HAL_Driver/Src/stm32f1xx_hal_tim.c ****   /* Check the parameters */
 436:Drivers/STM32F1xx_HAL_Driver/Src/stm32f1xx_hal_tim.c ****   assert_param(IS_TIM_DMA_INSTANCE(htim->Instance));
 437:Drivers/STM32F1xx_HAL_Driver/Src/stm32f1xx_hal_tim.c **** 
 438:Drivers/STM32F1xx_HAL_Driver/Src/stm32f1xx_hal_tim.c ****   /* Disable the TIM Update DMA request */
 439:Drivers/STM32F1xx_HAL_Driver/Src/stm32f1xx_hal_tim.c ****   __HAL_TIM_DISABLE_DMA(htim, TIM_DMA_UPDATE);
 686              		.loc 1 439 0
 687 0008 7B68     		ldr	r3, [r7, #4]
 688 000a 1B68     		ldr	r3, [r3]
 689 000c DA68     		ldr	r2, [r3, #12]
 690 000e 7B68     		ldr	r3, [r7, #4]
 691 0010 1B68     		ldr	r3, [r3]
 692 0012 22F48072 		bic	r2, r2, #256
 693 0016 DA60     		str	r2, [r3, #12]
 440:Drivers/STM32F1xx_HAL_Driver/Src/stm32f1xx_hal_tim.c **** 
 441:Drivers/STM32F1xx_HAL_Driver/Src/stm32f1xx_hal_tim.c ****   /* Disable the Peripheral */
 442:Drivers/STM32F1xx_HAL_Driver/Src/stm32f1xx_hal_tim.c ****   __HAL_TIM_DISABLE(htim);
 694              		.loc 1 442 0
 695 0018 7B68     		ldr	r3, [r7, #4]
 696 001a 1B68     		ldr	r3, [r3]
 697 001c 1A6A     		ldr	r2, [r3, #32]
 698 001e 41F21113 		movw	r3, #4369
 699 0022 1340     		ands	r3, r3, r2
 700 0024 002B     		cmp	r3, #0
 701 0026 0FD1     		bne	.L28
 702              		.loc 1 442 0 is_stmt 0 discriminator 1
 703 0028 7B68     		ldr	r3, [r7, #4]
 704 002a 1B68     		ldr	r3, [r3]
 705 002c 1A6A     		ldr	r2, [r3, #32]
 706 002e 40F24443 		movw	r3, #1092
 707 0032 1340     		ands	r3, r3, r2
 708 0034 002B     		cmp	r3, #0
 709 0036 07D1     		bne	.L28
 710              		.loc 1 442 0 discriminator 2
 711 0038 7B68     		ldr	r3, [r7, #4]
 712 003a 1B68     		ldr	r3, [r3]
 713 003c 1A68     		ldr	r2, [r3]
 714 003e 7B68     		ldr	r3, [r7, #4]
 715 0040 1B68     		ldr	r3, [r3]
 716 0042 22F00102 		bic	r2, r2, #1
 717 0046 1A60     		str	r2, [r3]
ARM GAS  /tmp/cc5HGhWi.s 			page 21


 718              	.L28:
 443:Drivers/STM32F1xx_HAL_Driver/Src/stm32f1xx_hal_tim.c **** 
 444:Drivers/STM32F1xx_HAL_Driver/Src/stm32f1xx_hal_tim.c ****   /* Change the htim state */
 445:Drivers/STM32F1xx_HAL_Driver/Src/stm32f1xx_hal_tim.c ****   htim->State = HAL_TIM_STATE_READY;
 719              		.loc 1 445 0 is_stmt 1
 720 0048 7B68     		ldr	r3, [r7, #4]
 721 004a 0122     		movs	r2, #1
 722 004c 83F83D20 		strb	r2, [r3, #61]
 446:Drivers/STM32F1xx_HAL_Driver/Src/stm32f1xx_hal_tim.c **** 
 447:Drivers/STM32F1xx_HAL_Driver/Src/stm32f1xx_hal_tim.c ****   /* Return function status */
 448:Drivers/STM32F1xx_HAL_Driver/Src/stm32f1xx_hal_tim.c ****   return HAL_OK;
 723              		.loc 1 448 0
 724 0050 0023     		movs	r3, #0
 449:Drivers/STM32F1xx_HAL_Driver/Src/stm32f1xx_hal_tim.c **** }
 725              		.loc 1 449 0
 726 0052 1846     		mov	r0, r3
 727 0054 0C37     		adds	r7, r7, #12
 728              	.LCFI54:
 729              		.cfi_def_cfa_offset 4
 730 0056 BD46     		mov	sp, r7
 731              	.LCFI55:
 732              		.cfi_def_cfa_register 13
 733              		@ sp needed
 734 0058 80BC     		pop	{r7}
 735              	.LCFI56:
 736              		.cfi_restore 7
 737              		.cfi_def_cfa_offset 0
 738 005a 7047     		bx	lr
 739              		.cfi_endproc
 740              	.LFE75:
 742              		.section	.text.HAL_TIM_OC_Init,"ax",%progbits
 743              		.align	1
 744              		.global	HAL_TIM_OC_Init
 745              		.syntax unified
 746              		.thumb
 747              		.thumb_func
 748              		.fpu softvfp
 750              	HAL_TIM_OC_Init:
 751              	.LFB76:
 450:Drivers/STM32F1xx_HAL_Driver/Src/stm32f1xx_hal_tim.c **** 
 451:Drivers/STM32F1xx_HAL_Driver/Src/stm32f1xx_hal_tim.c **** /**
 452:Drivers/STM32F1xx_HAL_Driver/Src/stm32f1xx_hal_tim.c ****   * @}
 453:Drivers/STM32F1xx_HAL_Driver/Src/stm32f1xx_hal_tim.c ****   */
 454:Drivers/STM32F1xx_HAL_Driver/Src/stm32f1xx_hal_tim.c **** 
 455:Drivers/STM32F1xx_HAL_Driver/Src/stm32f1xx_hal_tim.c **** /** @defgroup TIM_Exported_Functions_Group2 Time Output Compare functions 
 456:Drivers/STM32F1xx_HAL_Driver/Src/stm32f1xx_hal_tim.c ****  *  @brief    Time Output Compare functions 
 457:Drivers/STM32F1xx_HAL_Driver/Src/stm32f1xx_hal_tim.c ****  *
 458:Drivers/STM32F1xx_HAL_Driver/Src/stm32f1xx_hal_tim.c **** @verbatim 
 459:Drivers/STM32F1xx_HAL_Driver/Src/stm32f1xx_hal_tim.c ****   ==============================================================================
 460:Drivers/STM32F1xx_HAL_Driver/Src/stm32f1xx_hal_tim.c ****                   ##### Time Output Compare functions #####
 461:Drivers/STM32F1xx_HAL_Driver/Src/stm32f1xx_hal_tim.c ****   ==============================================================================
 462:Drivers/STM32F1xx_HAL_Driver/Src/stm32f1xx_hal_tim.c ****   [..]
 463:Drivers/STM32F1xx_HAL_Driver/Src/stm32f1xx_hal_tim.c ****     This section provides functions allowing to:
 464:Drivers/STM32F1xx_HAL_Driver/Src/stm32f1xx_hal_tim.c ****     (+) Initialize and configure the TIM Output Compare.
 465:Drivers/STM32F1xx_HAL_Driver/Src/stm32f1xx_hal_tim.c ****     (+) De-initialize the TIM Output Compare.
 466:Drivers/STM32F1xx_HAL_Driver/Src/stm32f1xx_hal_tim.c ****     (+) Start the Time Output Compare.
 467:Drivers/STM32F1xx_HAL_Driver/Src/stm32f1xx_hal_tim.c ****     (+) Stop the Time Output Compare.
ARM GAS  /tmp/cc5HGhWi.s 			page 22


 468:Drivers/STM32F1xx_HAL_Driver/Src/stm32f1xx_hal_tim.c ****     (+) Start the Time Output Compare and enable interrupt.
 469:Drivers/STM32F1xx_HAL_Driver/Src/stm32f1xx_hal_tim.c ****     (+) Stop the Time Output Compare and disable interrupt.
 470:Drivers/STM32F1xx_HAL_Driver/Src/stm32f1xx_hal_tim.c ****     (+) Start the Time Output Compare and enable DMA transfer.
 471:Drivers/STM32F1xx_HAL_Driver/Src/stm32f1xx_hal_tim.c ****     (+) Stop the Time Output Compare and disable DMA transfer.
 472:Drivers/STM32F1xx_HAL_Driver/Src/stm32f1xx_hal_tim.c **** 
 473:Drivers/STM32F1xx_HAL_Driver/Src/stm32f1xx_hal_tim.c **** @endverbatim
 474:Drivers/STM32F1xx_HAL_Driver/Src/stm32f1xx_hal_tim.c ****   * @{
 475:Drivers/STM32F1xx_HAL_Driver/Src/stm32f1xx_hal_tim.c ****   */
 476:Drivers/STM32F1xx_HAL_Driver/Src/stm32f1xx_hal_tim.c **** /**
 477:Drivers/STM32F1xx_HAL_Driver/Src/stm32f1xx_hal_tim.c ****   * @brief  Initializes the TIM Output Compare according to the specified
 478:Drivers/STM32F1xx_HAL_Driver/Src/stm32f1xx_hal_tim.c ****   *         parameters in the TIM_HandleTypeDef and create the associated handle.
 479:Drivers/STM32F1xx_HAL_Driver/Src/stm32f1xx_hal_tim.c ****   * @param  htim : TIM Output Compare handle
 480:Drivers/STM32F1xx_HAL_Driver/Src/stm32f1xx_hal_tim.c ****   * @retval HAL status
 481:Drivers/STM32F1xx_HAL_Driver/Src/stm32f1xx_hal_tim.c ****   */
 482:Drivers/STM32F1xx_HAL_Driver/Src/stm32f1xx_hal_tim.c **** HAL_StatusTypeDef HAL_TIM_OC_Init(TIM_HandleTypeDef* htim)
 483:Drivers/STM32F1xx_HAL_Driver/Src/stm32f1xx_hal_tim.c **** {
 752              		.loc 1 483 0
 753              		.cfi_startproc
 754              		@ args = 0, pretend = 0, frame = 8
 755              		@ frame_needed = 1, uses_anonymous_args = 0
 756 0000 80B5     		push	{r7, lr}
 757              	.LCFI57:
 758              		.cfi_def_cfa_offset 8
 759              		.cfi_offset 7, -8
 760              		.cfi_offset 14, -4
 761 0002 82B0     		sub	sp, sp, #8
 762              	.LCFI58:
 763              		.cfi_def_cfa_offset 16
 764 0004 00AF     		add	r7, sp, #0
 765              	.LCFI59:
 766              		.cfi_def_cfa_register 7
 767 0006 7860     		str	r0, [r7, #4]
 484:Drivers/STM32F1xx_HAL_Driver/Src/stm32f1xx_hal_tim.c ****   /* Check the TIM handle allocation */
 485:Drivers/STM32F1xx_HAL_Driver/Src/stm32f1xx_hal_tim.c ****   if(htim == NULL)
 768              		.loc 1 485 0
 769 0008 7B68     		ldr	r3, [r7, #4]
 770 000a 002B     		cmp	r3, #0
 771 000c 01D1     		bne	.L31
 486:Drivers/STM32F1xx_HAL_Driver/Src/stm32f1xx_hal_tim.c ****   {
 487:Drivers/STM32F1xx_HAL_Driver/Src/stm32f1xx_hal_tim.c ****     return HAL_ERROR;
 772              		.loc 1 487 0
 773 000e 0123     		movs	r3, #1
 774 0010 1DE0     		b	.L32
 775              	.L31:
 488:Drivers/STM32F1xx_HAL_Driver/Src/stm32f1xx_hal_tim.c ****   }
 489:Drivers/STM32F1xx_HAL_Driver/Src/stm32f1xx_hal_tim.c **** 
 490:Drivers/STM32F1xx_HAL_Driver/Src/stm32f1xx_hal_tim.c ****   /* Check the parameters */
 491:Drivers/STM32F1xx_HAL_Driver/Src/stm32f1xx_hal_tim.c ****   assert_param(IS_TIM_INSTANCE(htim->Instance));
 492:Drivers/STM32F1xx_HAL_Driver/Src/stm32f1xx_hal_tim.c ****   assert_param(IS_TIM_COUNTER_MODE(htim->Init.CounterMode));
 493:Drivers/STM32F1xx_HAL_Driver/Src/stm32f1xx_hal_tim.c ****   assert_param(IS_TIM_CLOCKDIVISION_DIV(htim->Init.ClockDivision));
 494:Drivers/STM32F1xx_HAL_Driver/Src/stm32f1xx_hal_tim.c ****   assert_param(IS_TIM_AUTORELOAD_PRELOAD(htim->Init.AutoReloadPreload));
 495:Drivers/STM32F1xx_HAL_Driver/Src/stm32f1xx_hal_tim.c **** 
 496:Drivers/STM32F1xx_HAL_Driver/Src/stm32f1xx_hal_tim.c ****   if(htim->State == HAL_TIM_STATE_RESET)
 776              		.loc 1 496 0
 777 0012 7B68     		ldr	r3, [r7, #4]
 778 0014 93F83D30 		ldrb	r3, [r3, #61]
 779 0018 DBB2     		uxtb	r3, r3
ARM GAS  /tmp/cc5HGhWi.s 			page 23


 780 001a 002B     		cmp	r3, #0
 781 001c 06D1     		bne	.L33
 497:Drivers/STM32F1xx_HAL_Driver/Src/stm32f1xx_hal_tim.c ****   {
 498:Drivers/STM32F1xx_HAL_Driver/Src/stm32f1xx_hal_tim.c ****     /* Allocate lock resource and initialize it */
 499:Drivers/STM32F1xx_HAL_Driver/Src/stm32f1xx_hal_tim.c ****     htim->Lock = HAL_UNLOCKED;
 782              		.loc 1 499 0
 783 001e 7B68     		ldr	r3, [r7, #4]
 784 0020 0022     		movs	r2, #0
 785 0022 83F83C20 		strb	r2, [r3, #60]
 500:Drivers/STM32F1xx_HAL_Driver/Src/stm32f1xx_hal_tim.c ****     
 501:Drivers/STM32F1xx_HAL_Driver/Src/stm32f1xx_hal_tim.c ****     /* Init the low level hardware : GPIO, CLOCK, NVIC and DMA */
 502:Drivers/STM32F1xx_HAL_Driver/Src/stm32f1xx_hal_tim.c ****     HAL_TIM_OC_MspInit(htim);
 786              		.loc 1 502 0
 787 0026 7868     		ldr	r0, [r7, #4]
 788 0028 FFF7FEFF 		bl	HAL_TIM_OC_MspInit
 789              	.L33:
 503:Drivers/STM32F1xx_HAL_Driver/Src/stm32f1xx_hal_tim.c ****   }
 504:Drivers/STM32F1xx_HAL_Driver/Src/stm32f1xx_hal_tim.c **** 
 505:Drivers/STM32F1xx_HAL_Driver/Src/stm32f1xx_hal_tim.c ****   /* Set the TIM state */
 506:Drivers/STM32F1xx_HAL_Driver/Src/stm32f1xx_hal_tim.c ****   htim->State= HAL_TIM_STATE_BUSY;
 790              		.loc 1 506 0
 791 002c 7B68     		ldr	r3, [r7, #4]
 792 002e 0222     		movs	r2, #2
 793 0030 83F83D20 		strb	r2, [r3, #61]
 507:Drivers/STM32F1xx_HAL_Driver/Src/stm32f1xx_hal_tim.c **** 
 508:Drivers/STM32F1xx_HAL_Driver/Src/stm32f1xx_hal_tim.c ****   /* Init the base time for the Output Compare */
 509:Drivers/STM32F1xx_HAL_Driver/Src/stm32f1xx_hal_tim.c ****   TIM_Base_SetConfig(htim->Instance,  &htim->Init);
 794              		.loc 1 509 0
 795 0034 7B68     		ldr	r3, [r7, #4]
 796 0036 1A68     		ldr	r2, [r3]
 797 0038 7B68     		ldr	r3, [r7, #4]
 798 003a 0433     		adds	r3, r3, #4
 799 003c 1946     		mov	r1, r3
 800 003e 1046     		mov	r0, r2
 801 0040 FFF7FEFF 		bl	TIM_Base_SetConfig
 510:Drivers/STM32F1xx_HAL_Driver/Src/stm32f1xx_hal_tim.c **** 
 511:Drivers/STM32F1xx_HAL_Driver/Src/stm32f1xx_hal_tim.c ****   /* Initialize the TIM state*/
 512:Drivers/STM32F1xx_HAL_Driver/Src/stm32f1xx_hal_tim.c ****   htim->State= HAL_TIM_STATE_READY;
 802              		.loc 1 512 0
 803 0044 7B68     		ldr	r3, [r7, #4]
 804 0046 0122     		movs	r2, #1
 805 0048 83F83D20 		strb	r2, [r3, #61]
 513:Drivers/STM32F1xx_HAL_Driver/Src/stm32f1xx_hal_tim.c **** 
 514:Drivers/STM32F1xx_HAL_Driver/Src/stm32f1xx_hal_tim.c ****   return HAL_OK;
 806              		.loc 1 514 0
 807 004c 0023     		movs	r3, #0
 808              	.L32:
 515:Drivers/STM32F1xx_HAL_Driver/Src/stm32f1xx_hal_tim.c **** }
 809              		.loc 1 515 0
 810 004e 1846     		mov	r0, r3
 811 0050 0837     		adds	r7, r7, #8
 812              	.LCFI60:
 813              		.cfi_def_cfa_offset 8
 814 0052 BD46     		mov	sp, r7
 815              	.LCFI61:
 816              		.cfi_def_cfa_register 13
 817              		@ sp needed
ARM GAS  /tmp/cc5HGhWi.s 			page 24


 818 0054 80BD     		pop	{r7, pc}
 819              		.cfi_endproc
 820              	.LFE76:
 822              		.section	.text.HAL_TIM_OC_DeInit,"ax",%progbits
 823              		.align	1
 824              		.global	HAL_TIM_OC_DeInit
 825              		.syntax unified
 826              		.thumb
 827              		.thumb_func
 828              		.fpu softvfp
 830              	HAL_TIM_OC_DeInit:
 831              	.LFB77:
 516:Drivers/STM32F1xx_HAL_Driver/Src/stm32f1xx_hal_tim.c **** 
 517:Drivers/STM32F1xx_HAL_Driver/Src/stm32f1xx_hal_tim.c **** /**
 518:Drivers/STM32F1xx_HAL_Driver/Src/stm32f1xx_hal_tim.c ****   * @brief  DeInitializes the TIM peripheral 
 519:Drivers/STM32F1xx_HAL_Driver/Src/stm32f1xx_hal_tim.c ****   * @param  htim : TIM Output Compare handle
 520:Drivers/STM32F1xx_HAL_Driver/Src/stm32f1xx_hal_tim.c ****   * @retval HAL status
 521:Drivers/STM32F1xx_HAL_Driver/Src/stm32f1xx_hal_tim.c ****   */
 522:Drivers/STM32F1xx_HAL_Driver/Src/stm32f1xx_hal_tim.c **** HAL_StatusTypeDef HAL_TIM_OC_DeInit(TIM_HandleTypeDef *htim)
 523:Drivers/STM32F1xx_HAL_Driver/Src/stm32f1xx_hal_tim.c **** {
 832              		.loc 1 523 0
 833              		.cfi_startproc
 834              		@ args = 0, pretend = 0, frame = 8
 835              		@ frame_needed = 1, uses_anonymous_args = 0
 836 0000 80B5     		push	{r7, lr}
 837              	.LCFI62:
 838              		.cfi_def_cfa_offset 8
 839              		.cfi_offset 7, -8
 840              		.cfi_offset 14, -4
 841 0002 82B0     		sub	sp, sp, #8
 842              	.LCFI63:
 843              		.cfi_def_cfa_offset 16
 844 0004 00AF     		add	r7, sp, #0
 845              	.LCFI64:
 846              		.cfi_def_cfa_register 7
 847 0006 7860     		str	r0, [r7, #4]
 524:Drivers/STM32F1xx_HAL_Driver/Src/stm32f1xx_hal_tim.c ****   /* Check the parameters */
 525:Drivers/STM32F1xx_HAL_Driver/Src/stm32f1xx_hal_tim.c ****   assert_param(IS_TIM_INSTANCE(htim->Instance));
 526:Drivers/STM32F1xx_HAL_Driver/Src/stm32f1xx_hal_tim.c **** 
 527:Drivers/STM32F1xx_HAL_Driver/Src/stm32f1xx_hal_tim.c ****    htim->State = HAL_TIM_STATE_BUSY;
 848              		.loc 1 527 0
 849 0008 7B68     		ldr	r3, [r7, #4]
 850 000a 0222     		movs	r2, #2
 851 000c 83F83D20 		strb	r2, [r3, #61]
 528:Drivers/STM32F1xx_HAL_Driver/Src/stm32f1xx_hal_tim.c **** 
 529:Drivers/STM32F1xx_HAL_Driver/Src/stm32f1xx_hal_tim.c ****   /* Disable the TIM Peripheral Clock */
 530:Drivers/STM32F1xx_HAL_Driver/Src/stm32f1xx_hal_tim.c ****   __HAL_TIM_DISABLE(htim);
 852              		.loc 1 530 0
 853 0010 7B68     		ldr	r3, [r7, #4]
 854 0012 1B68     		ldr	r3, [r3]
 855 0014 1A6A     		ldr	r2, [r3, #32]
 856 0016 41F21113 		movw	r3, #4369
 857 001a 1340     		ands	r3, r3, r2
 858 001c 002B     		cmp	r3, #0
 859 001e 0FD1     		bne	.L35
 860              		.loc 1 530 0 is_stmt 0 discriminator 1
 861 0020 7B68     		ldr	r3, [r7, #4]
ARM GAS  /tmp/cc5HGhWi.s 			page 25


 862 0022 1B68     		ldr	r3, [r3]
 863 0024 1A6A     		ldr	r2, [r3, #32]
 864 0026 40F24443 		movw	r3, #1092
 865 002a 1340     		ands	r3, r3, r2
 866 002c 002B     		cmp	r3, #0
 867 002e 07D1     		bne	.L35
 868              		.loc 1 530 0 discriminator 2
 869 0030 7B68     		ldr	r3, [r7, #4]
 870 0032 1B68     		ldr	r3, [r3]
 871 0034 1A68     		ldr	r2, [r3]
 872 0036 7B68     		ldr	r3, [r7, #4]
 873 0038 1B68     		ldr	r3, [r3]
 874 003a 22F00102 		bic	r2, r2, #1
 875 003e 1A60     		str	r2, [r3]
 876              	.L35:
 531:Drivers/STM32F1xx_HAL_Driver/Src/stm32f1xx_hal_tim.c **** 
 532:Drivers/STM32F1xx_HAL_Driver/Src/stm32f1xx_hal_tim.c ****   /* DeInit the low level hardware: GPIO, CLOCK, NVIC and DMA */
 533:Drivers/STM32F1xx_HAL_Driver/Src/stm32f1xx_hal_tim.c ****   HAL_TIM_OC_MspDeInit(htim);
 877              		.loc 1 533 0 is_stmt 1
 878 0040 7868     		ldr	r0, [r7, #4]
 879 0042 FFF7FEFF 		bl	HAL_TIM_OC_MspDeInit
 534:Drivers/STM32F1xx_HAL_Driver/Src/stm32f1xx_hal_tim.c **** 
 535:Drivers/STM32F1xx_HAL_Driver/Src/stm32f1xx_hal_tim.c ****   /* Change TIM state */
 536:Drivers/STM32F1xx_HAL_Driver/Src/stm32f1xx_hal_tim.c ****   htim->State = HAL_TIM_STATE_RESET;
 880              		.loc 1 536 0
 881 0046 7B68     		ldr	r3, [r7, #4]
 882 0048 0022     		movs	r2, #0
 883 004a 83F83D20 		strb	r2, [r3, #61]
 537:Drivers/STM32F1xx_HAL_Driver/Src/stm32f1xx_hal_tim.c **** 
 538:Drivers/STM32F1xx_HAL_Driver/Src/stm32f1xx_hal_tim.c ****   /* Release Lock */
 539:Drivers/STM32F1xx_HAL_Driver/Src/stm32f1xx_hal_tim.c ****   __HAL_UNLOCK(htim);
 884              		.loc 1 539 0
 885 004e 7B68     		ldr	r3, [r7, #4]
 886 0050 0022     		movs	r2, #0
 887 0052 83F83C20 		strb	r2, [r3, #60]
 540:Drivers/STM32F1xx_HAL_Driver/Src/stm32f1xx_hal_tim.c **** 
 541:Drivers/STM32F1xx_HAL_Driver/Src/stm32f1xx_hal_tim.c ****   return HAL_OK;
 888              		.loc 1 541 0
 889 0056 0023     		movs	r3, #0
 542:Drivers/STM32F1xx_HAL_Driver/Src/stm32f1xx_hal_tim.c **** }
 890              		.loc 1 542 0
 891 0058 1846     		mov	r0, r3
 892 005a 0837     		adds	r7, r7, #8
 893              	.LCFI65:
 894              		.cfi_def_cfa_offset 8
 895 005c BD46     		mov	sp, r7
 896              	.LCFI66:
 897              		.cfi_def_cfa_register 13
 898              		@ sp needed
 899 005e 80BD     		pop	{r7, pc}
 900              		.cfi_endproc
 901              	.LFE77:
 903              		.section	.text.HAL_TIM_OC_MspInit,"ax",%progbits
 904              		.align	1
 905              		.weak	HAL_TIM_OC_MspInit
 906              		.syntax unified
 907              		.thumb
ARM GAS  /tmp/cc5HGhWi.s 			page 26


 908              		.thumb_func
 909              		.fpu softvfp
 911              	HAL_TIM_OC_MspInit:
 912              	.LFB78:
 543:Drivers/STM32F1xx_HAL_Driver/Src/stm32f1xx_hal_tim.c **** 
 544:Drivers/STM32F1xx_HAL_Driver/Src/stm32f1xx_hal_tim.c **** /**
 545:Drivers/STM32F1xx_HAL_Driver/Src/stm32f1xx_hal_tim.c ****   * @brief  Initializes the TIM Output Compare MSP.
 546:Drivers/STM32F1xx_HAL_Driver/Src/stm32f1xx_hal_tim.c ****   * @param  htim : TIM handle
 547:Drivers/STM32F1xx_HAL_Driver/Src/stm32f1xx_hal_tim.c ****   * @retval None
 548:Drivers/STM32F1xx_HAL_Driver/Src/stm32f1xx_hal_tim.c ****   */
 549:Drivers/STM32F1xx_HAL_Driver/Src/stm32f1xx_hal_tim.c **** __weak void HAL_TIM_OC_MspInit(TIM_HandleTypeDef *htim)
 550:Drivers/STM32F1xx_HAL_Driver/Src/stm32f1xx_hal_tim.c **** {
 913              		.loc 1 550 0
 914              		.cfi_startproc
 915              		@ args = 0, pretend = 0, frame = 8
 916              		@ frame_needed = 1, uses_anonymous_args = 0
 917              		@ link register save eliminated.
 918 0000 80B4     		push	{r7}
 919              	.LCFI67:
 920              		.cfi_def_cfa_offset 4
 921              		.cfi_offset 7, -4
 922 0002 83B0     		sub	sp, sp, #12
 923              	.LCFI68:
 924              		.cfi_def_cfa_offset 16
 925 0004 00AF     		add	r7, sp, #0
 926              	.LCFI69:
 927              		.cfi_def_cfa_register 7
 928 0006 7860     		str	r0, [r7, #4]
 551:Drivers/STM32F1xx_HAL_Driver/Src/stm32f1xx_hal_tim.c ****   /* Prevent unused argument(s) compilation warning */
 552:Drivers/STM32F1xx_HAL_Driver/Src/stm32f1xx_hal_tim.c ****   UNUSED(htim);
 553:Drivers/STM32F1xx_HAL_Driver/Src/stm32f1xx_hal_tim.c ****   /* NOTE : This function Should not be modified, when the callback is needed,
 554:Drivers/STM32F1xx_HAL_Driver/Src/stm32f1xx_hal_tim.c ****             the HAL_TIM_OC_MspInit could be implemented in the user file
 555:Drivers/STM32F1xx_HAL_Driver/Src/stm32f1xx_hal_tim.c ****    */
 556:Drivers/STM32F1xx_HAL_Driver/Src/stm32f1xx_hal_tim.c **** }
 929              		.loc 1 556 0
 930 0008 00BF     		nop
 931 000a 0C37     		adds	r7, r7, #12
 932              	.LCFI70:
 933              		.cfi_def_cfa_offset 4
 934 000c BD46     		mov	sp, r7
 935              	.LCFI71:
 936              		.cfi_def_cfa_register 13
 937              		@ sp needed
 938 000e 80BC     		pop	{r7}
 939              	.LCFI72:
 940              		.cfi_restore 7
 941              		.cfi_def_cfa_offset 0
 942 0010 7047     		bx	lr
 943              		.cfi_endproc
 944              	.LFE78:
 946              		.section	.text.HAL_TIM_OC_MspDeInit,"ax",%progbits
 947              		.align	1
 948              		.weak	HAL_TIM_OC_MspDeInit
 949              		.syntax unified
 950              		.thumb
 951              		.thumb_func
 952              		.fpu softvfp
ARM GAS  /tmp/cc5HGhWi.s 			page 27


 954              	HAL_TIM_OC_MspDeInit:
 955              	.LFB79:
 557:Drivers/STM32F1xx_HAL_Driver/Src/stm32f1xx_hal_tim.c **** 
 558:Drivers/STM32F1xx_HAL_Driver/Src/stm32f1xx_hal_tim.c **** /**
 559:Drivers/STM32F1xx_HAL_Driver/Src/stm32f1xx_hal_tim.c ****   * @brief  DeInitializes TIM Output Compare MSP.
 560:Drivers/STM32F1xx_HAL_Driver/Src/stm32f1xx_hal_tim.c ****   * @param  htim : TIM handle
 561:Drivers/STM32F1xx_HAL_Driver/Src/stm32f1xx_hal_tim.c ****   * @retval None
 562:Drivers/STM32F1xx_HAL_Driver/Src/stm32f1xx_hal_tim.c ****   */
 563:Drivers/STM32F1xx_HAL_Driver/Src/stm32f1xx_hal_tim.c **** __weak void HAL_TIM_OC_MspDeInit(TIM_HandleTypeDef *htim)
 564:Drivers/STM32F1xx_HAL_Driver/Src/stm32f1xx_hal_tim.c **** {
 956              		.loc 1 564 0
 957              		.cfi_startproc
 958              		@ args = 0, pretend = 0, frame = 8
 959              		@ frame_needed = 1, uses_anonymous_args = 0
 960              		@ link register save eliminated.
 961 0000 80B4     		push	{r7}
 962              	.LCFI73:
 963              		.cfi_def_cfa_offset 4
 964              		.cfi_offset 7, -4
 965 0002 83B0     		sub	sp, sp, #12
 966              	.LCFI74:
 967              		.cfi_def_cfa_offset 16
 968 0004 00AF     		add	r7, sp, #0
 969              	.LCFI75:
 970              		.cfi_def_cfa_register 7
 971 0006 7860     		str	r0, [r7, #4]
 565:Drivers/STM32F1xx_HAL_Driver/Src/stm32f1xx_hal_tim.c ****   /* Prevent unused argument(s) compilation warning */
 566:Drivers/STM32F1xx_HAL_Driver/Src/stm32f1xx_hal_tim.c ****   UNUSED(htim);
 567:Drivers/STM32F1xx_HAL_Driver/Src/stm32f1xx_hal_tim.c ****   /* NOTE : This function Should not be modified, when the callback is needed,
 568:Drivers/STM32F1xx_HAL_Driver/Src/stm32f1xx_hal_tim.c ****             the HAL_TIM_OC_MspDeInit could be implemented in the user file
 569:Drivers/STM32F1xx_HAL_Driver/Src/stm32f1xx_hal_tim.c ****    */
 570:Drivers/STM32F1xx_HAL_Driver/Src/stm32f1xx_hal_tim.c **** }
 972              		.loc 1 570 0
 973 0008 00BF     		nop
 974 000a 0C37     		adds	r7, r7, #12
 975              	.LCFI76:
 976              		.cfi_def_cfa_offset 4
 977 000c BD46     		mov	sp, r7
 978              	.LCFI77:
 979              		.cfi_def_cfa_register 13
 980              		@ sp needed
 981 000e 80BC     		pop	{r7}
 982              	.LCFI78:
 983              		.cfi_restore 7
 984              		.cfi_def_cfa_offset 0
 985 0010 7047     		bx	lr
 986              		.cfi_endproc
 987              	.LFE79:
 989              		.section	.text.HAL_TIM_OC_Start,"ax",%progbits
 990              		.align	1
 991              		.global	HAL_TIM_OC_Start
 992              		.syntax unified
 993              		.thumb
 994              		.thumb_func
 995              		.fpu softvfp
 997              	HAL_TIM_OC_Start:
 998              	.LFB80:
ARM GAS  /tmp/cc5HGhWi.s 			page 28


 571:Drivers/STM32F1xx_HAL_Driver/Src/stm32f1xx_hal_tim.c **** 
 572:Drivers/STM32F1xx_HAL_Driver/Src/stm32f1xx_hal_tim.c **** /**
 573:Drivers/STM32F1xx_HAL_Driver/Src/stm32f1xx_hal_tim.c ****   * @brief  Starts the TIM Output Compare signal generation.
 574:Drivers/STM32F1xx_HAL_Driver/Src/stm32f1xx_hal_tim.c ****   * @param  htim : TIM Output Compare handle 
 575:Drivers/STM32F1xx_HAL_Driver/Src/stm32f1xx_hal_tim.c ****   * @param  Channel : TIM Channel to be enabled
 576:Drivers/STM32F1xx_HAL_Driver/Src/stm32f1xx_hal_tim.c ****   *          This parameter can be one of the following values:
 577:Drivers/STM32F1xx_HAL_Driver/Src/stm32f1xx_hal_tim.c ****   *            @arg TIM_CHANNEL_1: TIM Channel 1 selected
 578:Drivers/STM32F1xx_HAL_Driver/Src/stm32f1xx_hal_tim.c ****   *            @arg TIM_CHANNEL_2: TIM Channel 2 selected
 579:Drivers/STM32F1xx_HAL_Driver/Src/stm32f1xx_hal_tim.c ****   *            @arg TIM_CHANNEL_3: TIM Channel 3 selected
 580:Drivers/STM32F1xx_HAL_Driver/Src/stm32f1xx_hal_tim.c ****   *            @arg TIM_CHANNEL_4: TIM Channel 4 selected 
 581:Drivers/STM32F1xx_HAL_Driver/Src/stm32f1xx_hal_tim.c ****   * @retval HAL status
 582:Drivers/STM32F1xx_HAL_Driver/Src/stm32f1xx_hal_tim.c **** */
 583:Drivers/STM32F1xx_HAL_Driver/Src/stm32f1xx_hal_tim.c **** HAL_StatusTypeDef HAL_TIM_OC_Start(TIM_HandleTypeDef *htim, uint32_t Channel)
 584:Drivers/STM32F1xx_HAL_Driver/Src/stm32f1xx_hal_tim.c **** {
 999              		.loc 1 584 0
 1000              		.cfi_startproc
 1001              		@ args = 0, pretend = 0, frame = 8
 1002              		@ frame_needed = 1, uses_anonymous_args = 0
 1003 0000 80B5     		push	{r7, lr}
 1004              	.LCFI79:
 1005              		.cfi_def_cfa_offset 8
 1006              		.cfi_offset 7, -8
 1007              		.cfi_offset 14, -4
 1008 0002 82B0     		sub	sp, sp, #8
 1009              	.LCFI80:
 1010              		.cfi_def_cfa_offset 16
 1011 0004 00AF     		add	r7, sp, #0
 1012              	.LCFI81:
 1013              		.cfi_def_cfa_register 7
 1014 0006 7860     		str	r0, [r7, #4]
 1015 0008 3960     		str	r1, [r7]
 585:Drivers/STM32F1xx_HAL_Driver/Src/stm32f1xx_hal_tim.c ****   /* Check the parameters */
 586:Drivers/STM32F1xx_HAL_Driver/Src/stm32f1xx_hal_tim.c ****   assert_param(IS_TIM_CCX_INSTANCE(htim->Instance, Channel));
 587:Drivers/STM32F1xx_HAL_Driver/Src/stm32f1xx_hal_tim.c **** 
 588:Drivers/STM32F1xx_HAL_Driver/Src/stm32f1xx_hal_tim.c ****   /* Enable the Output compare channel */
 589:Drivers/STM32F1xx_HAL_Driver/Src/stm32f1xx_hal_tim.c ****   TIM_CCxChannelCmd(htim->Instance, Channel, TIM_CCx_ENABLE);
 1016              		.loc 1 589 0
 1017 000a 7B68     		ldr	r3, [r7, #4]
 1018 000c 1B68     		ldr	r3, [r3]
 1019 000e 0122     		movs	r2, #1
 1020 0010 3968     		ldr	r1, [r7]
 1021 0012 1846     		mov	r0, r3
 1022 0014 FFF7FEFF 		bl	TIM_CCxChannelCmd
 590:Drivers/STM32F1xx_HAL_Driver/Src/stm32f1xx_hal_tim.c **** 
 591:Drivers/STM32F1xx_HAL_Driver/Src/stm32f1xx_hal_tim.c ****   if(IS_TIM_BREAK_INSTANCE(htim->Instance) != RESET)
 1023              		.loc 1 591 0
 1024 0018 7B68     		ldr	r3, [r7, #4]
 1025 001a 1B68     		ldr	r3, [r3]
 1026 001c 0B4A     		ldr	r2, .L42
 1027 001e 9342     		cmp	r3, r2
 1028 0020 07D1     		bne	.L40
 592:Drivers/STM32F1xx_HAL_Driver/Src/stm32f1xx_hal_tim.c ****   {
 593:Drivers/STM32F1xx_HAL_Driver/Src/stm32f1xx_hal_tim.c ****     /* Enable the main output */
 594:Drivers/STM32F1xx_HAL_Driver/Src/stm32f1xx_hal_tim.c ****     __HAL_TIM_MOE_ENABLE(htim);
 1029              		.loc 1 594 0
 1030 0022 7B68     		ldr	r3, [r7, #4]
 1031 0024 1B68     		ldr	r3, [r3]
ARM GAS  /tmp/cc5HGhWi.s 			page 29


 1032 0026 5A6C     		ldr	r2, [r3, #68]
 1033 0028 7B68     		ldr	r3, [r7, #4]
 1034 002a 1B68     		ldr	r3, [r3]
 1035 002c 42F40042 		orr	r2, r2, #32768
 1036 0030 5A64     		str	r2, [r3, #68]
 1037              	.L40:
 595:Drivers/STM32F1xx_HAL_Driver/Src/stm32f1xx_hal_tim.c ****   }
 596:Drivers/STM32F1xx_HAL_Driver/Src/stm32f1xx_hal_tim.c **** 
 597:Drivers/STM32F1xx_HAL_Driver/Src/stm32f1xx_hal_tim.c ****   /* Enable the Peripheral */
 598:Drivers/STM32F1xx_HAL_Driver/Src/stm32f1xx_hal_tim.c ****   __HAL_TIM_ENABLE(htim);
 1038              		.loc 1 598 0
 1039 0032 7B68     		ldr	r3, [r7, #4]
 1040 0034 1B68     		ldr	r3, [r3]
 1041 0036 1A68     		ldr	r2, [r3]
 1042 0038 7B68     		ldr	r3, [r7, #4]
 1043 003a 1B68     		ldr	r3, [r3]
 1044 003c 42F00102 		orr	r2, r2, #1
 1045 0040 1A60     		str	r2, [r3]
 599:Drivers/STM32F1xx_HAL_Driver/Src/stm32f1xx_hal_tim.c **** 
 600:Drivers/STM32F1xx_HAL_Driver/Src/stm32f1xx_hal_tim.c ****   /* Return function status */
 601:Drivers/STM32F1xx_HAL_Driver/Src/stm32f1xx_hal_tim.c ****   return HAL_OK;
 1046              		.loc 1 601 0
 1047 0042 0023     		movs	r3, #0
 602:Drivers/STM32F1xx_HAL_Driver/Src/stm32f1xx_hal_tim.c **** }
 1048              		.loc 1 602 0
 1049 0044 1846     		mov	r0, r3
 1050 0046 0837     		adds	r7, r7, #8
 1051              	.LCFI82:
 1052              		.cfi_def_cfa_offset 8
 1053 0048 BD46     		mov	sp, r7
 1054              	.LCFI83:
 1055              		.cfi_def_cfa_register 13
 1056              		@ sp needed
 1057 004a 80BD     		pop	{r7, pc}
 1058              	.L43:
 1059              		.align	2
 1060              	.L42:
 1061 004c 002C0140 		.word	1073818624
 1062              		.cfi_endproc
 1063              	.LFE80:
 1065              		.section	.text.HAL_TIM_OC_Stop,"ax",%progbits
 1066              		.align	1
 1067              		.global	HAL_TIM_OC_Stop
 1068              		.syntax unified
 1069              		.thumb
 1070              		.thumb_func
 1071              		.fpu softvfp
 1073              	HAL_TIM_OC_Stop:
 1074              	.LFB81:
 603:Drivers/STM32F1xx_HAL_Driver/Src/stm32f1xx_hal_tim.c **** 
 604:Drivers/STM32F1xx_HAL_Driver/Src/stm32f1xx_hal_tim.c **** /**
 605:Drivers/STM32F1xx_HAL_Driver/Src/stm32f1xx_hal_tim.c ****   * @brief  Stops the TIM Output Compare signal generation.
 606:Drivers/STM32F1xx_HAL_Driver/Src/stm32f1xx_hal_tim.c ****   * @param  htim : TIM handle
 607:Drivers/STM32F1xx_HAL_Driver/Src/stm32f1xx_hal_tim.c ****   * @param  Channel : TIM Channel to be disabled
 608:Drivers/STM32F1xx_HAL_Driver/Src/stm32f1xx_hal_tim.c ****   *          This parameter can be one of the following values:
 609:Drivers/STM32F1xx_HAL_Driver/Src/stm32f1xx_hal_tim.c ****   *            @arg TIM_CHANNEL_1: TIM Channel 1 selected
 610:Drivers/STM32F1xx_HAL_Driver/Src/stm32f1xx_hal_tim.c ****   *            @arg TIM_CHANNEL_2: TIM Channel 2 selected
ARM GAS  /tmp/cc5HGhWi.s 			page 30


 611:Drivers/STM32F1xx_HAL_Driver/Src/stm32f1xx_hal_tim.c ****   *            @arg TIM_CHANNEL_3: TIM Channel 3 selected
 612:Drivers/STM32F1xx_HAL_Driver/Src/stm32f1xx_hal_tim.c ****   *            @arg TIM_CHANNEL_4: TIM Channel 4 selected
 613:Drivers/STM32F1xx_HAL_Driver/Src/stm32f1xx_hal_tim.c ****   * @retval HAL status
 614:Drivers/STM32F1xx_HAL_Driver/Src/stm32f1xx_hal_tim.c **** */
 615:Drivers/STM32F1xx_HAL_Driver/Src/stm32f1xx_hal_tim.c **** HAL_StatusTypeDef HAL_TIM_OC_Stop(TIM_HandleTypeDef *htim, uint32_t Channel)
 616:Drivers/STM32F1xx_HAL_Driver/Src/stm32f1xx_hal_tim.c **** {
 1075              		.loc 1 616 0
 1076              		.cfi_startproc
 1077              		@ args = 0, pretend = 0, frame = 8
 1078              		@ frame_needed = 1, uses_anonymous_args = 0
 1079 0000 80B5     		push	{r7, lr}
 1080              	.LCFI84:
 1081              		.cfi_def_cfa_offset 8
 1082              		.cfi_offset 7, -8
 1083              		.cfi_offset 14, -4
 1084 0002 82B0     		sub	sp, sp, #8
 1085              	.LCFI85:
 1086              		.cfi_def_cfa_offset 16
 1087 0004 00AF     		add	r7, sp, #0
 1088              	.LCFI86:
 1089              		.cfi_def_cfa_register 7
 1090 0006 7860     		str	r0, [r7, #4]
 1091 0008 3960     		str	r1, [r7]
 617:Drivers/STM32F1xx_HAL_Driver/Src/stm32f1xx_hal_tim.c ****   /* Check the parameters */
 618:Drivers/STM32F1xx_HAL_Driver/Src/stm32f1xx_hal_tim.c ****   assert_param(IS_TIM_CCX_INSTANCE(htim->Instance, Channel));
 619:Drivers/STM32F1xx_HAL_Driver/Src/stm32f1xx_hal_tim.c **** 
 620:Drivers/STM32F1xx_HAL_Driver/Src/stm32f1xx_hal_tim.c ****   /* Disable the Output compare channel */
 621:Drivers/STM32F1xx_HAL_Driver/Src/stm32f1xx_hal_tim.c ****   TIM_CCxChannelCmd(htim->Instance, Channel, TIM_CCx_DISABLE);
 1092              		.loc 1 621 0
 1093 000a 7B68     		ldr	r3, [r7, #4]
 1094 000c 1B68     		ldr	r3, [r3]
 1095 000e 0022     		movs	r2, #0
 1096 0010 3968     		ldr	r1, [r7]
 1097 0012 1846     		mov	r0, r3
 1098 0014 FFF7FEFF 		bl	TIM_CCxChannelCmd
 622:Drivers/STM32F1xx_HAL_Driver/Src/stm32f1xx_hal_tim.c **** 
 623:Drivers/STM32F1xx_HAL_Driver/Src/stm32f1xx_hal_tim.c ****   if(IS_TIM_BREAK_INSTANCE(htim->Instance) != RESET)
 1099              		.loc 1 623 0
 1100 0018 7B68     		ldr	r3, [r7, #4]
 1101 001a 1B68     		ldr	r3, [r3]
 1102 001c 1B4A     		ldr	r2, .L48
 1103 001e 9342     		cmp	r3, r2
 1104 0020 17D1     		bne	.L45
 624:Drivers/STM32F1xx_HAL_Driver/Src/stm32f1xx_hal_tim.c ****   {
 625:Drivers/STM32F1xx_HAL_Driver/Src/stm32f1xx_hal_tim.c ****     /* Disable the Main Ouput */
 626:Drivers/STM32F1xx_HAL_Driver/Src/stm32f1xx_hal_tim.c ****     __HAL_TIM_MOE_DISABLE(htim);
 1105              		.loc 1 626 0
 1106 0022 7B68     		ldr	r3, [r7, #4]
 1107 0024 1B68     		ldr	r3, [r3]
 1108 0026 1A6A     		ldr	r2, [r3, #32]
 1109 0028 41F21113 		movw	r3, #4369
 1110 002c 1340     		ands	r3, r3, r2
 1111 002e 002B     		cmp	r3, #0
 1112 0030 0FD1     		bne	.L45
 1113              		.loc 1 626 0 is_stmt 0 discriminator 1
 1114 0032 7B68     		ldr	r3, [r7, #4]
 1115 0034 1B68     		ldr	r3, [r3]
ARM GAS  /tmp/cc5HGhWi.s 			page 31


 1116 0036 1A6A     		ldr	r2, [r3, #32]
 1117 0038 40F24443 		movw	r3, #1092
 1118 003c 1340     		ands	r3, r3, r2
 1119 003e 002B     		cmp	r3, #0
 1120 0040 07D1     		bne	.L45
 1121              		.loc 1 626 0 discriminator 2
 1122 0042 7B68     		ldr	r3, [r7, #4]
 1123 0044 1B68     		ldr	r3, [r3]
 1124 0046 5A6C     		ldr	r2, [r3, #68]
 1125 0048 7B68     		ldr	r3, [r7, #4]
 1126 004a 1B68     		ldr	r3, [r3]
 1127 004c 22F40042 		bic	r2, r2, #32768
 1128 0050 5A64     		str	r2, [r3, #68]
 1129              	.L45:
 627:Drivers/STM32F1xx_HAL_Driver/Src/stm32f1xx_hal_tim.c ****   }
 628:Drivers/STM32F1xx_HAL_Driver/Src/stm32f1xx_hal_tim.c **** 
 629:Drivers/STM32F1xx_HAL_Driver/Src/stm32f1xx_hal_tim.c ****   /* Disable the Peripheral */
 630:Drivers/STM32F1xx_HAL_Driver/Src/stm32f1xx_hal_tim.c ****   __HAL_TIM_DISABLE(htim);
 1130              		.loc 1 630 0 is_stmt 1
 1131 0052 7B68     		ldr	r3, [r7, #4]
 1132 0054 1B68     		ldr	r3, [r3]
 1133 0056 1A6A     		ldr	r2, [r3, #32]
 1134 0058 41F21113 		movw	r3, #4369
 1135 005c 1340     		ands	r3, r3, r2
 1136 005e 002B     		cmp	r3, #0
 1137 0060 0FD1     		bne	.L46
 1138              		.loc 1 630 0 is_stmt 0 discriminator 1
 1139 0062 7B68     		ldr	r3, [r7, #4]
 1140 0064 1B68     		ldr	r3, [r3]
 1141 0066 1A6A     		ldr	r2, [r3, #32]
 1142 0068 40F24443 		movw	r3, #1092
 1143 006c 1340     		ands	r3, r3, r2
 1144 006e 002B     		cmp	r3, #0
 1145 0070 07D1     		bne	.L46
 1146              		.loc 1 630 0 discriminator 2
 1147 0072 7B68     		ldr	r3, [r7, #4]
 1148 0074 1B68     		ldr	r3, [r3]
 1149 0076 1A68     		ldr	r2, [r3]
 1150 0078 7B68     		ldr	r3, [r7, #4]
 1151 007a 1B68     		ldr	r3, [r3]
 1152 007c 22F00102 		bic	r2, r2, #1
 1153 0080 1A60     		str	r2, [r3]
 1154              	.L46:
 631:Drivers/STM32F1xx_HAL_Driver/Src/stm32f1xx_hal_tim.c **** 
 632:Drivers/STM32F1xx_HAL_Driver/Src/stm32f1xx_hal_tim.c ****   /* Return function status */
 633:Drivers/STM32F1xx_HAL_Driver/Src/stm32f1xx_hal_tim.c ****   return HAL_OK;
 1155              		.loc 1 633 0 is_stmt 1
 1156 0082 0023     		movs	r3, #0
 634:Drivers/STM32F1xx_HAL_Driver/Src/stm32f1xx_hal_tim.c **** }
 1157              		.loc 1 634 0
 1158 0084 1846     		mov	r0, r3
 1159 0086 0837     		adds	r7, r7, #8
 1160              	.LCFI87:
 1161              		.cfi_def_cfa_offset 8
 1162 0088 BD46     		mov	sp, r7
 1163              	.LCFI88:
 1164              		.cfi_def_cfa_register 13
ARM GAS  /tmp/cc5HGhWi.s 			page 32


 1165              		@ sp needed
 1166 008a 80BD     		pop	{r7, pc}
 1167              	.L49:
 1168              		.align	2
 1169              	.L48:
 1170 008c 002C0140 		.word	1073818624
 1171              		.cfi_endproc
 1172              	.LFE81:
 1174              		.section	.text.HAL_TIM_OC_Start_IT,"ax",%progbits
 1175              		.align	1
 1176              		.global	HAL_TIM_OC_Start_IT
 1177              		.syntax unified
 1178              		.thumb
 1179              		.thumb_func
 1180              		.fpu softvfp
 1182              	HAL_TIM_OC_Start_IT:
 1183              	.LFB82:
 635:Drivers/STM32F1xx_HAL_Driver/Src/stm32f1xx_hal_tim.c **** 
 636:Drivers/STM32F1xx_HAL_Driver/Src/stm32f1xx_hal_tim.c **** /**
 637:Drivers/STM32F1xx_HAL_Driver/Src/stm32f1xx_hal_tim.c ****   * @brief  Starts the TIM Output Compare signal generation in interrupt mode.
 638:Drivers/STM32F1xx_HAL_Driver/Src/stm32f1xx_hal_tim.c ****   * @param  htim : TIM OC handle
 639:Drivers/STM32F1xx_HAL_Driver/Src/stm32f1xx_hal_tim.c ****   * @param  Channel : TIM Channel to be enabled
 640:Drivers/STM32F1xx_HAL_Driver/Src/stm32f1xx_hal_tim.c ****   *          This parameter can be one of the following values:
 641:Drivers/STM32F1xx_HAL_Driver/Src/stm32f1xx_hal_tim.c ****   *            @arg TIM_CHANNEL_1: TIM Channel 1 selected
 642:Drivers/STM32F1xx_HAL_Driver/Src/stm32f1xx_hal_tim.c ****   *            @arg TIM_CHANNEL_2: TIM Channel 2 selected
 643:Drivers/STM32F1xx_HAL_Driver/Src/stm32f1xx_hal_tim.c ****   *            @arg TIM_CHANNEL_3: TIM Channel 3 selected
 644:Drivers/STM32F1xx_HAL_Driver/Src/stm32f1xx_hal_tim.c ****   *            @arg TIM_CHANNEL_4: TIM Channel 4 selected
 645:Drivers/STM32F1xx_HAL_Driver/Src/stm32f1xx_hal_tim.c ****   * @retval HAL status
 646:Drivers/STM32F1xx_HAL_Driver/Src/stm32f1xx_hal_tim.c **** */
 647:Drivers/STM32F1xx_HAL_Driver/Src/stm32f1xx_hal_tim.c **** HAL_StatusTypeDef HAL_TIM_OC_Start_IT(TIM_HandleTypeDef *htim, uint32_t Channel)
 648:Drivers/STM32F1xx_HAL_Driver/Src/stm32f1xx_hal_tim.c **** {
 1184              		.loc 1 648 0
 1185              		.cfi_startproc
 1186              		@ args = 0, pretend = 0, frame = 8
 1187              		@ frame_needed = 1, uses_anonymous_args = 0
 1188 0000 80B5     		push	{r7, lr}
 1189              	.LCFI89:
 1190              		.cfi_def_cfa_offset 8
 1191              		.cfi_offset 7, -8
 1192              		.cfi_offset 14, -4
 1193 0002 82B0     		sub	sp, sp, #8
 1194              	.LCFI90:
 1195              		.cfi_def_cfa_offset 16
 1196 0004 00AF     		add	r7, sp, #0
 1197              	.LCFI91:
 1198              		.cfi_def_cfa_register 7
 1199 0006 7860     		str	r0, [r7, #4]
 1200 0008 3960     		str	r1, [r7]
 649:Drivers/STM32F1xx_HAL_Driver/Src/stm32f1xx_hal_tim.c ****   /* Check the parameters */
 650:Drivers/STM32F1xx_HAL_Driver/Src/stm32f1xx_hal_tim.c ****   assert_param(IS_TIM_CCX_INSTANCE(htim->Instance, Channel));
 651:Drivers/STM32F1xx_HAL_Driver/Src/stm32f1xx_hal_tim.c **** 
 652:Drivers/STM32F1xx_HAL_Driver/Src/stm32f1xx_hal_tim.c ****   switch (Channel)
 1201              		.loc 1 652 0
 1202 000a 3B68     		ldr	r3, [r7]
 1203 000c 0C2B     		cmp	r3, #12
 1204 000e 41D8     		bhi	.L60
 1205 0010 01A2     		adr	r2, .L53
ARM GAS  /tmp/cc5HGhWi.s 			page 33


 1206 0012 52F823F0 		ldr	pc, [r2, r3, lsl #2]
 1207 0016 00BF     		.p2align 2
 1208              	.L53:
 1209 0018 4D000000 		.word	.L52+1
 1210 001c 95000000 		.word	.L60+1
 1211 0020 95000000 		.word	.L60+1
 1212 0024 95000000 		.word	.L60+1
 1213 0028 5F000000 		.word	.L54+1
 1214 002c 95000000 		.word	.L60+1
 1215 0030 95000000 		.word	.L60+1
 1216 0034 95000000 		.word	.L60+1
 1217 0038 71000000 		.word	.L55+1
 1218 003c 95000000 		.word	.L60+1
 1219 0040 95000000 		.word	.L60+1
 1220 0044 95000000 		.word	.L60+1
 1221 0048 83000000 		.word	.L56+1
 1222              		.p2align 1
 1223              	.L52:
 653:Drivers/STM32F1xx_HAL_Driver/Src/stm32f1xx_hal_tim.c ****   {
 654:Drivers/STM32F1xx_HAL_Driver/Src/stm32f1xx_hal_tim.c ****     case TIM_CHANNEL_1:
 655:Drivers/STM32F1xx_HAL_Driver/Src/stm32f1xx_hal_tim.c ****     {
 656:Drivers/STM32F1xx_HAL_Driver/Src/stm32f1xx_hal_tim.c ****       /* Enable the TIM Capture/Compare 1 interrupt */
 657:Drivers/STM32F1xx_HAL_Driver/Src/stm32f1xx_hal_tim.c ****       __HAL_TIM_ENABLE_IT(htim, TIM_IT_CC1);
 1224              		.loc 1 657 0
 1225 004c 7B68     		ldr	r3, [r7, #4]
 1226 004e 1B68     		ldr	r3, [r3]
 1227 0050 DA68     		ldr	r2, [r3, #12]
 1228 0052 7B68     		ldr	r3, [r7, #4]
 1229 0054 1B68     		ldr	r3, [r3]
 1230 0056 42F00202 		orr	r2, r2, #2
 1231 005a DA60     		str	r2, [r3, #12]
 658:Drivers/STM32F1xx_HAL_Driver/Src/stm32f1xx_hal_tim.c ****     }
 659:Drivers/STM32F1xx_HAL_Driver/Src/stm32f1xx_hal_tim.c ****     break;
 1232              		.loc 1 659 0
 1233 005c 1BE0     		b	.L57
 1234              	.L54:
 660:Drivers/STM32F1xx_HAL_Driver/Src/stm32f1xx_hal_tim.c **** 
 661:Drivers/STM32F1xx_HAL_Driver/Src/stm32f1xx_hal_tim.c ****     case TIM_CHANNEL_2:
 662:Drivers/STM32F1xx_HAL_Driver/Src/stm32f1xx_hal_tim.c ****     {
 663:Drivers/STM32F1xx_HAL_Driver/Src/stm32f1xx_hal_tim.c ****       /* Enable the TIM Capture/Compare 2 interrupt */
 664:Drivers/STM32F1xx_HAL_Driver/Src/stm32f1xx_hal_tim.c ****       __HAL_TIM_ENABLE_IT(htim, TIM_IT_CC2);
 1235              		.loc 1 664 0
 1236 005e 7B68     		ldr	r3, [r7, #4]
 1237 0060 1B68     		ldr	r3, [r3]
 1238 0062 DA68     		ldr	r2, [r3, #12]
 1239 0064 7B68     		ldr	r3, [r7, #4]
 1240 0066 1B68     		ldr	r3, [r3]
 1241 0068 42F00402 		orr	r2, r2, #4
 1242 006c DA60     		str	r2, [r3, #12]
 665:Drivers/STM32F1xx_HAL_Driver/Src/stm32f1xx_hal_tim.c ****     }
 666:Drivers/STM32F1xx_HAL_Driver/Src/stm32f1xx_hal_tim.c ****     break;
 1243              		.loc 1 666 0
 1244 006e 12E0     		b	.L57
 1245              	.L55:
 667:Drivers/STM32F1xx_HAL_Driver/Src/stm32f1xx_hal_tim.c **** 
 668:Drivers/STM32F1xx_HAL_Driver/Src/stm32f1xx_hal_tim.c ****     case TIM_CHANNEL_3:
 669:Drivers/STM32F1xx_HAL_Driver/Src/stm32f1xx_hal_tim.c ****     {
ARM GAS  /tmp/cc5HGhWi.s 			page 34


 670:Drivers/STM32F1xx_HAL_Driver/Src/stm32f1xx_hal_tim.c ****       /* Enable the TIM Capture/Compare 3 interrupt */
 671:Drivers/STM32F1xx_HAL_Driver/Src/stm32f1xx_hal_tim.c ****       __HAL_TIM_ENABLE_IT(htim, TIM_IT_CC3);
 1246              		.loc 1 671 0
 1247 0070 7B68     		ldr	r3, [r7, #4]
 1248 0072 1B68     		ldr	r3, [r3]
 1249 0074 DA68     		ldr	r2, [r3, #12]
 1250 0076 7B68     		ldr	r3, [r7, #4]
 1251 0078 1B68     		ldr	r3, [r3]
 1252 007a 42F00802 		orr	r2, r2, #8
 1253 007e DA60     		str	r2, [r3, #12]
 672:Drivers/STM32F1xx_HAL_Driver/Src/stm32f1xx_hal_tim.c ****     }
 673:Drivers/STM32F1xx_HAL_Driver/Src/stm32f1xx_hal_tim.c ****     break;
 1254              		.loc 1 673 0
 1255 0080 09E0     		b	.L57
 1256              	.L56:
 674:Drivers/STM32F1xx_HAL_Driver/Src/stm32f1xx_hal_tim.c **** 
 675:Drivers/STM32F1xx_HAL_Driver/Src/stm32f1xx_hal_tim.c ****     case TIM_CHANNEL_4:
 676:Drivers/STM32F1xx_HAL_Driver/Src/stm32f1xx_hal_tim.c ****     {
 677:Drivers/STM32F1xx_HAL_Driver/Src/stm32f1xx_hal_tim.c ****       /* Enable the TIM Capture/Compare 4 interrupt */
 678:Drivers/STM32F1xx_HAL_Driver/Src/stm32f1xx_hal_tim.c ****       __HAL_TIM_ENABLE_IT(htim, TIM_IT_CC4);
 1257              		.loc 1 678 0
 1258 0082 7B68     		ldr	r3, [r7, #4]
 1259 0084 1B68     		ldr	r3, [r3]
 1260 0086 DA68     		ldr	r2, [r3, #12]
 1261 0088 7B68     		ldr	r3, [r7, #4]
 1262 008a 1B68     		ldr	r3, [r3]
 1263 008c 42F01002 		orr	r2, r2, #16
 1264 0090 DA60     		str	r2, [r3, #12]
 679:Drivers/STM32F1xx_HAL_Driver/Src/stm32f1xx_hal_tim.c ****     }
 680:Drivers/STM32F1xx_HAL_Driver/Src/stm32f1xx_hal_tim.c ****     break;
 1265              		.loc 1 680 0
 1266 0092 00E0     		b	.L57
 1267              	.L60:
 681:Drivers/STM32F1xx_HAL_Driver/Src/stm32f1xx_hal_tim.c **** 
 682:Drivers/STM32F1xx_HAL_Driver/Src/stm32f1xx_hal_tim.c ****     default:
 683:Drivers/STM32F1xx_HAL_Driver/Src/stm32f1xx_hal_tim.c ****     break;
 1268              		.loc 1 683 0
 1269 0094 00BF     		nop
 1270              	.L57:
 684:Drivers/STM32F1xx_HAL_Driver/Src/stm32f1xx_hal_tim.c ****   }
 685:Drivers/STM32F1xx_HAL_Driver/Src/stm32f1xx_hal_tim.c **** 
 686:Drivers/STM32F1xx_HAL_Driver/Src/stm32f1xx_hal_tim.c ****   /* Enable the Output compare channel */
 687:Drivers/STM32F1xx_HAL_Driver/Src/stm32f1xx_hal_tim.c ****   TIM_CCxChannelCmd(htim->Instance, Channel, TIM_CCx_ENABLE);
 1271              		.loc 1 687 0
 1272 0096 7B68     		ldr	r3, [r7, #4]
 1273 0098 1B68     		ldr	r3, [r3]
 1274 009a 0122     		movs	r2, #1
 1275 009c 3968     		ldr	r1, [r7]
 1276 009e 1846     		mov	r0, r3
 1277 00a0 FFF7FEFF 		bl	TIM_CCxChannelCmd
 688:Drivers/STM32F1xx_HAL_Driver/Src/stm32f1xx_hal_tim.c **** 
 689:Drivers/STM32F1xx_HAL_Driver/Src/stm32f1xx_hal_tim.c ****   if(IS_TIM_BREAK_INSTANCE(htim->Instance) != RESET)
 1278              		.loc 1 689 0
 1279 00a4 7B68     		ldr	r3, [r7, #4]
 1280 00a6 1B68     		ldr	r3, [r3]
 1281 00a8 0B4A     		ldr	r2, .L61
 1282 00aa 9342     		cmp	r3, r2
ARM GAS  /tmp/cc5HGhWi.s 			page 35


 1283 00ac 07D1     		bne	.L58
 690:Drivers/STM32F1xx_HAL_Driver/Src/stm32f1xx_hal_tim.c ****   {
 691:Drivers/STM32F1xx_HAL_Driver/Src/stm32f1xx_hal_tim.c ****     /* Enable the main output */
 692:Drivers/STM32F1xx_HAL_Driver/Src/stm32f1xx_hal_tim.c ****     __HAL_TIM_MOE_ENABLE(htim);
 1284              		.loc 1 692 0
 1285 00ae 7B68     		ldr	r3, [r7, #4]
 1286 00b0 1B68     		ldr	r3, [r3]
 1287 00b2 5A6C     		ldr	r2, [r3, #68]
 1288 00b4 7B68     		ldr	r3, [r7, #4]
 1289 00b6 1B68     		ldr	r3, [r3]
 1290 00b8 42F40042 		orr	r2, r2, #32768
 1291 00bc 5A64     		str	r2, [r3, #68]
 1292              	.L58:
 693:Drivers/STM32F1xx_HAL_Driver/Src/stm32f1xx_hal_tim.c ****   }
 694:Drivers/STM32F1xx_HAL_Driver/Src/stm32f1xx_hal_tim.c **** 
 695:Drivers/STM32F1xx_HAL_Driver/Src/stm32f1xx_hal_tim.c ****   /* Enable the Peripheral */
 696:Drivers/STM32F1xx_HAL_Driver/Src/stm32f1xx_hal_tim.c ****   __HAL_TIM_ENABLE(htim);
 1293              		.loc 1 696 0
 1294 00be 7B68     		ldr	r3, [r7, #4]
 1295 00c0 1B68     		ldr	r3, [r3]
 1296 00c2 1A68     		ldr	r2, [r3]
 1297 00c4 7B68     		ldr	r3, [r7, #4]
 1298 00c6 1B68     		ldr	r3, [r3]
 1299 00c8 42F00102 		orr	r2, r2, #1
 1300 00cc 1A60     		str	r2, [r3]
 697:Drivers/STM32F1xx_HAL_Driver/Src/stm32f1xx_hal_tim.c **** 
 698:Drivers/STM32F1xx_HAL_Driver/Src/stm32f1xx_hal_tim.c ****   /* Return function status */
 699:Drivers/STM32F1xx_HAL_Driver/Src/stm32f1xx_hal_tim.c ****   return HAL_OK;
 1301              		.loc 1 699 0
 1302 00ce 0023     		movs	r3, #0
 700:Drivers/STM32F1xx_HAL_Driver/Src/stm32f1xx_hal_tim.c **** }
 1303              		.loc 1 700 0
 1304 00d0 1846     		mov	r0, r3
 1305 00d2 0837     		adds	r7, r7, #8
 1306              	.LCFI92:
 1307              		.cfi_def_cfa_offset 8
 1308 00d4 BD46     		mov	sp, r7
 1309              	.LCFI93:
 1310              		.cfi_def_cfa_register 13
 1311              		@ sp needed
 1312 00d6 80BD     		pop	{r7, pc}
 1313              	.L62:
 1314              		.align	2
 1315              	.L61:
 1316 00d8 002C0140 		.word	1073818624
 1317              		.cfi_endproc
 1318              	.LFE82:
 1320              		.section	.text.HAL_TIM_OC_Stop_IT,"ax",%progbits
 1321              		.align	1
 1322              		.global	HAL_TIM_OC_Stop_IT
 1323              		.syntax unified
 1324              		.thumb
 1325              		.thumb_func
 1326              		.fpu softvfp
 1328              	HAL_TIM_OC_Stop_IT:
 1329              	.LFB83:
 701:Drivers/STM32F1xx_HAL_Driver/Src/stm32f1xx_hal_tim.c **** 
ARM GAS  /tmp/cc5HGhWi.s 			page 36


 702:Drivers/STM32F1xx_HAL_Driver/Src/stm32f1xx_hal_tim.c **** /**
 703:Drivers/STM32F1xx_HAL_Driver/Src/stm32f1xx_hal_tim.c ****   * @brief  Stops the TIM Output Compare signal generation in interrupt mode.
 704:Drivers/STM32F1xx_HAL_Driver/Src/stm32f1xx_hal_tim.c ****   * @param  htim : TIM Output Compare handle
 705:Drivers/STM32F1xx_HAL_Driver/Src/stm32f1xx_hal_tim.c ****   * @param  Channel : TIM Channel to be disabled
 706:Drivers/STM32F1xx_HAL_Driver/Src/stm32f1xx_hal_tim.c ****   *          This parameter can be one of the following values:
 707:Drivers/STM32F1xx_HAL_Driver/Src/stm32f1xx_hal_tim.c ****   *            @arg TIM_CHANNEL_1: TIM Channel 1 selected
 708:Drivers/STM32F1xx_HAL_Driver/Src/stm32f1xx_hal_tim.c ****   *            @arg TIM_CHANNEL_2: TIM Channel 2 selected
 709:Drivers/STM32F1xx_HAL_Driver/Src/stm32f1xx_hal_tim.c ****   *            @arg TIM_CHANNEL_3: TIM Channel 3 selected
 710:Drivers/STM32F1xx_HAL_Driver/Src/stm32f1xx_hal_tim.c ****   *            @arg TIM_CHANNEL_4: TIM Channel 4 selected
 711:Drivers/STM32F1xx_HAL_Driver/Src/stm32f1xx_hal_tim.c ****   * @retval HAL status
 712:Drivers/STM32F1xx_HAL_Driver/Src/stm32f1xx_hal_tim.c **** */
 713:Drivers/STM32F1xx_HAL_Driver/Src/stm32f1xx_hal_tim.c **** HAL_StatusTypeDef HAL_TIM_OC_Stop_IT(TIM_HandleTypeDef *htim, uint32_t Channel)
 714:Drivers/STM32F1xx_HAL_Driver/Src/stm32f1xx_hal_tim.c **** {
 1330              		.loc 1 714 0
 1331              		.cfi_startproc
 1332              		@ args = 0, pretend = 0, frame = 8
 1333              		@ frame_needed = 1, uses_anonymous_args = 0
 1334 0000 80B5     		push	{r7, lr}
 1335              	.LCFI94:
 1336              		.cfi_def_cfa_offset 8
 1337              		.cfi_offset 7, -8
 1338              		.cfi_offset 14, -4
 1339 0002 82B0     		sub	sp, sp, #8
 1340              	.LCFI95:
 1341              		.cfi_def_cfa_offset 16
 1342 0004 00AF     		add	r7, sp, #0
 1343              	.LCFI96:
 1344              		.cfi_def_cfa_register 7
 1345 0006 7860     		str	r0, [r7, #4]
 1346 0008 3960     		str	r1, [r7]
 715:Drivers/STM32F1xx_HAL_Driver/Src/stm32f1xx_hal_tim.c ****   /* Check the parameters */
 716:Drivers/STM32F1xx_HAL_Driver/Src/stm32f1xx_hal_tim.c ****   assert_param(IS_TIM_CCX_INSTANCE(htim->Instance, Channel));
 717:Drivers/STM32F1xx_HAL_Driver/Src/stm32f1xx_hal_tim.c **** 
 718:Drivers/STM32F1xx_HAL_Driver/Src/stm32f1xx_hal_tim.c ****   switch (Channel)
 1347              		.loc 1 718 0
 1348 000a 3B68     		ldr	r3, [r7]
 1349 000c 0C2B     		cmp	r3, #12
 1350 000e 41D8     		bhi	.L74
 1351 0010 01A2     		adr	r2, .L66
 1352 0012 52F823F0 		ldr	pc, [r2, r3, lsl #2]
 1353 0016 00BF     		.p2align 2
 1354              	.L66:
 1355 0018 4D000000 		.word	.L65+1
 1356 001c 95000000 		.word	.L74+1
 1357 0020 95000000 		.word	.L74+1
 1358 0024 95000000 		.word	.L74+1
 1359 0028 5F000000 		.word	.L67+1
 1360 002c 95000000 		.word	.L74+1
 1361 0030 95000000 		.word	.L74+1
 1362 0034 95000000 		.word	.L74+1
 1363 0038 71000000 		.word	.L68+1
 1364 003c 95000000 		.word	.L74+1
 1365 0040 95000000 		.word	.L74+1
 1366 0044 95000000 		.word	.L74+1
 1367 0048 83000000 		.word	.L69+1
 1368              		.p2align 1
 1369              	.L65:
ARM GAS  /tmp/cc5HGhWi.s 			page 37


 719:Drivers/STM32F1xx_HAL_Driver/Src/stm32f1xx_hal_tim.c ****   {
 720:Drivers/STM32F1xx_HAL_Driver/Src/stm32f1xx_hal_tim.c ****     case TIM_CHANNEL_1:
 721:Drivers/STM32F1xx_HAL_Driver/Src/stm32f1xx_hal_tim.c ****     {
 722:Drivers/STM32F1xx_HAL_Driver/Src/stm32f1xx_hal_tim.c ****       /* Disable the TIM Capture/Compare 1 interrupt */
 723:Drivers/STM32F1xx_HAL_Driver/Src/stm32f1xx_hal_tim.c ****       __HAL_TIM_DISABLE_IT(htim, TIM_IT_CC1);
 1370              		.loc 1 723 0
 1371 004c 7B68     		ldr	r3, [r7, #4]
 1372 004e 1B68     		ldr	r3, [r3]
 1373 0050 DA68     		ldr	r2, [r3, #12]
 1374 0052 7B68     		ldr	r3, [r7, #4]
 1375 0054 1B68     		ldr	r3, [r3]
 1376 0056 22F00202 		bic	r2, r2, #2
 1377 005a DA60     		str	r2, [r3, #12]
 724:Drivers/STM32F1xx_HAL_Driver/Src/stm32f1xx_hal_tim.c ****     }
 725:Drivers/STM32F1xx_HAL_Driver/Src/stm32f1xx_hal_tim.c ****     break;
 1378              		.loc 1 725 0
 1379 005c 1BE0     		b	.L70
 1380              	.L67:
 726:Drivers/STM32F1xx_HAL_Driver/Src/stm32f1xx_hal_tim.c **** 
 727:Drivers/STM32F1xx_HAL_Driver/Src/stm32f1xx_hal_tim.c ****     case TIM_CHANNEL_2:
 728:Drivers/STM32F1xx_HAL_Driver/Src/stm32f1xx_hal_tim.c ****     {
 729:Drivers/STM32F1xx_HAL_Driver/Src/stm32f1xx_hal_tim.c ****       /* Disable the TIM Capture/Compare 2 interrupt */
 730:Drivers/STM32F1xx_HAL_Driver/Src/stm32f1xx_hal_tim.c ****       __HAL_TIM_DISABLE_IT(htim, TIM_IT_CC2);
 1381              		.loc 1 730 0
 1382 005e 7B68     		ldr	r3, [r7, #4]
 1383 0060 1B68     		ldr	r3, [r3]
 1384 0062 DA68     		ldr	r2, [r3, #12]
 1385 0064 7B68     		ldr	r3, [r7, #4]
 1386 0066 1B68     		ldr	r3, [r3]
 1387 0068 22F00402 		bic	r2, r2, #4
 1388 006c DA60     		str	r2, [r3, #12]
 731:Drivers/STM32F1xx_HAL_Driver/Src/stm32f1xx_hal_tim.c ****     }
 732:Drivers/STM32F1xx_HAL_Driver/Src/stm32f1xx_hal_tim.c ****     break;
 1389              		.loc 1 732 0
 1390 006e 12E0     		b	.L70
 1391              	.L68:
 733:Drivers/STM32F1xx_HAL_Driver/Src/stm32f1xx_hal_tim.c **** 
 734:Drivers/STM32F1xx_HAL_Driver/Src/stm32f1xx_hal_tim.c ****     case TIM_CHANNEL_3:
 735:Drivers/STM32F1xx_HAL_Driver/Src/stm32f1xx_hal_tim.c ****     {
 736:Drivers/STM32F1xx_HAL_Driver/Src/stm32f1xx_hal_tim.c ****       /* Disable the TIM Capture/Compare 3 interrupt */
 737:Drivers/STM32F1xx_HAL_Driver/Src/stm32f1xx_hal_tim.c ****       __HAL_TIM_DISABLE_IT(htim, TIM_IT_CC3);
 1392              		.loc 1 737 0
 1393 0070 7B68     		ldr	r3, [r7, #4]
 1394 0072 1B68     		ldr	r3, [r3]
 1395 0074 DA68     		ldr	r2, [r3, #12]
 1396 0076 7B68     		ldr	r3, [r7, #4]
 1397 0078 1B68     		ldr	r3, [r3]
 1398 007a 22F00802 		bic	r2, r2, #8
 1399 007e DA60     		str	r2, [r3, #12]
 738:Drivers/STM32F1xx_HAL_Driver/Src/stm32f1xx_hal_tim.c ****     }
 739:Drivers/STM32F1xx_HAL_Driver/Src/stm32f1xx_hal_tim.c ****     break;
 1400              		.loc 1 739 0
 1401 0080 09E0     		b	.L70
 1402              	.L69:
 740:Drivers/STM32F1xx_HAL_Driver/Src/stm32f1xx_hal_tim.c **** 
 741:Drivers/STM32F1xx_HAL_Driver/Src/stm32f1xx_hal_tim.c ****     case TIM_CHANNEL_4:
 742:Drivers/STM32F1xx_HAL_Driver/Src/stm32f1xx_hal_tim.c ****     {
ARM GAS  /tmp/cc5HGhWi.s 			page 38


 743:Drivers/STM32F1xx_HAL_Driver/Src/stm32f1xx_hal_tim.c ****       /* Disable the TIM Capture/Compare 4 interrupt */
 744:Drivers/STM32F1xx_HAL_Driver/Src/stm32f1xx_hal_tim.c ****       __HAL_TIM_DISABLE_IT(htim, TIM_IT_CC4);
 1403              		.loc 1 744 0
 1404 0082 7B68     		ldr	r3, [r7, #4]
 1405 0084 1B68     		ldr	r3, [r3]
 1406 0086 DA68     		ldr	r2, [r3, #12]
 1407 0088 7B68     		ldr	r3, [r7, #4]
 1408 008a 1B68     		ldr	r3, [r3]
 1409 008c 22F01002 		bic	r2, r2, #16
 1410 0090 DA60     		str	r2, [r3, #12]
 745:Drivers/STM32F1xx_HAL_Driver/Src/stm32f1xx_hal_tim.c ****     }
 746:Drivers/STM32F1xx_HAL_Driver/Src/stm32f1xx_hal_tim.c ****     break;
 1411              		.loc 1 746 0
 1412 0092 00E0     		b	.L70
 1413              	.L74:
 747:Drivers/STM32F1xx_HAL_Driver/Src/stm32f1xx_hal_tim.c **** 
 748:Drivers/STM32F1xx_HAL_Driver/Src/stm32f1xx_hal_tim.c ****     default:
 749:Drivers/STM32F1xx_HAL_Driver/Src/stm32f1xx_hal_tim.c ****     break;
 1414              		.loc 1 749 0
 1415 0094 00BF     		nop
 1416              	.L70:
 750:Drivers/STM32F1xx_HAL_Driver/Src/stm32f1xx_hal_tim.c ****   }
 751:Drivers/STM32F1xx_HAL_Driver/Src/stm32f1xx_hal_tim.c **** 
 752:Drivers/STM32F1xx_HAL_Driver/Src/stm32f1xx_hal_tim.c ****   /* Disable the Output compare channel */
 753:Drivers/STM32F1xx_HAL_Driver/Src/stm32f1xx_hal_tim.c ****   TIM_CCxChannelCmd(htim->Instance, Channel, TIM_CCx_DISABLE);
 1417              		.loc 1 753 0
 1418 0096 7B68     		ldr	r3, [r7, #4]
 1419 0098 1B68     		ldr	r3, [r3]
 1420 009a 0022     		movs	r2, #0
 1421 009c 3968     		ldr	r1, [r7]
 1422 009e 1846     		mov	r0, r3
 1423 00a0 FFF7FEFF 		bl	TIM_CCxChannelCmd
 754:Drivers/STM32F1xx_HAL_Driver/Src/stm32f1xx_hal_tim.c **** 
 755:Drivers/STM32F1xx_HAL_Driver/Src/stm32f1xx_hal_tim.c ****   if(IS_TIM_BREAK_INSTANCE(htim->Instance) != RESET)
 1424              		.loc 1 755 0
 1425 00a4 7B68     		ldr	r3, [r7, #4]
 1426 00a6 1B68     		ldr	r3, [r3]
 1427 00a8 1B4A     		ldr	r2, .L75
 1428 00aa 9342     		cmp	r3, r2
 1429 00ac 17D1     		bne	.L71
 756:Drivers/STM32F1xx_HAL_Driver/Src/stm32f1xx_hal_tim.c ****   {
 757:Drivers/STM32F1xx_HAL_Driver/Src/stm32f1xx_hal_tim.c ****     /* Disable the Main Ouput */
 758:Drivers/STM32F1xx_HAL_Driver/Src/stm32f1xx_hal_tim.c ****     __HAL_TIM_MOE_DISABLE(htim);
 1430              		.loc 1 758 0
 1431 00ae 7B68     		ldr	r3, [r7, #4]
 1432 00b0 1B68     		ldr	r3, [r3]
 1433 00b2 1A6A     		ldr	r2, [r3, #32]
 1434 00b4 41F21113 		movw	r3, #4369
 1435 00b8 1340     		ands	r3, r3, r2
 1436 00ba 002B     		cmp	r3, #0
 1437 00bc 0FD1     		bne	.L71
 1438              		.loc 1 758 0 is_stmt 0 discriminator 1
 1439 00be 7B68     		ldr	r3, [r7, #4]
 1440 00c0 1B68     		ldr	r3, [r3]
 1441 00c2 1A6A     		ldr	r2, [r3, #32]
 1442 00c4 40F24443 		movw	r3, #1092
 1443 00c8 1340     		ands	r3, r3, r2
ARM GAS  /tmp/cc5HGhWi.s 			page 39


 1444 00ca 002B     		cmp	r3, #0
 1445 00cc 07D1     		bne	.L71
 1446              		.loc 1 758 0 discriminator 2
 1447 00ce 7B68     		ldr	r3, [r7, #4]
 1448 00d0 1B68     		ldr	r3, [r3]
 1449 00d2 5A6C     		ldr	r2, [r3, #68]
 1450 00d4 7B68     		ldr	r3, [r7, #4]
 1451 00d6 1B68     		ldr	r3, [r3]
 1452 00d8 22F40042 		bic	r2, r2, #32768
 1453 00dc 5A64     		str	r2, [r3, #68]
 1454              	.L71:
 759:Drivers/STM32F1xx_HAL_Driver/Src/stm32f1xx_hal_tim.c ****   }
 760:Drivers/STM32F1xx_HAL_Driver/Src/stm32f1xx_hal_tim.c **** 
 761:Drivers/STM32F1xx_HAL_Driver/Src/stm32f1xx_hal_tim.c ****   /* Disable the Peripheral */
 762:Drivers/STM32F1xx_HAL_Driver/Src/stm32f1xx_hal_tim.c ****   __HAL_TIM_DISABLE(htim);
 1455              		.loc 1 762 0 is_stmt 1
 1456 00de 7B68     		ldr	r3, [r7, #4]
 1457 00e0 1B68     		ldr	r3, [r3]
 1458 00e2 1A6A     		ldr	r2, [r3, #32]
 1459 00e4 41F21113 		movw	r3, #4369
 1460 00e8 1340     		ands	r3, r3, r2
 1461 00ea 002B     		cmp	r3, #0
 1462 00ec 0FD1     		bne	.L72
 1463              		.loc 1 762 0 is_stmt 0 discriminator 1
 1464 00ee 7B68     		ldr	r3, [r7, #4]
 1465 00f0 1B68     		ldr	r3, [r3]
 1466 00f2 1A6A     		ldr	r2, [r3, #32]
 1467 00f4 40F24443 		movw	r3, #1092
 1468 00f8 1340     		ands	r3, r3, r2
 1469 00fa 002B     		cmp	r3, #0
 1470 00fc 07D1     		bne	.L72
 1471              		.loc 1 762 0 discriminator 2
 1472 00fe 7B68     		ldr	r3, [r7, #4]
 1473 0100 1B68     		ldr	r3, [r3]
 1474 0102 1A68     		ldr	r2, [r3]
 1475 0104 7B68     		ldr	r3, [r7, #4]
 1476 0106 1B68     		ldr	r3, [r3]
 1477 0108 22F00102 		bic	r2, r2, #1
 1478 010c 1A60     		str	r2, [r3]
 1479              	.L72:
 763:Drivers/STM32F1xx_HAL_Driver/Src/stm32f1xx_hal_tim.c **** 
 764:Drivers/STM32F1xx_HAL_Driver/Src/stm32f1xx_hal_tim.c ****   /* Return function status */
 765:Drivers/STM32F1xx_HAL_Driver/Src/stm32f1xx_hal_tim.c ****   return HAL_OK;
 1480              		.loc 1 765 0 is_stmt 1
 1481 010e 0023     		movs	r3, #0
 766:Drivers/STM32F1xx_HAL_Driver/Src/stm32f1xx_hal_tim.c **** }
 1482              		.loc 1 766 0
 1483 0110 1846     		mov	r0, r3
 1484 0112 0837     		adds	r7, r7, #8
 1485              	.LCFI97:
 1486              		.cfi_def_cfa_offset 8
 1487 0114 BD46     		mov	sp, r7
 1488              	.LCFI98:
 1489              		.cfi_def_cfa_register 13
 1490              		@ sp needed
 1491 0116 80BD     		pop	{r7, pc}
 1492              	.L76:
ARM GAS  /tmp/cc5HGhWi.s 			page 40


 1493              		.align	2
 1494              	.L75:
 1495 0118 002C0140 		.word	1073818624
 1496              		.cfi_endproc
 1497              	.LFE83:
 1499              		.section	.text.HAL_TIM_OC_Start_DMA,"ax",%progbits
 1500              		.align	1
 1501              		.global	HAL_TIM_OC_Start_DMA
 1502              		.syntax unified
 1503              		.thumb
 1504              		.thumb_func
 1505              		.fpu softvfp
 1507              	HAL_TIM_OC_Start_DMA:
 1508              	.LFB84:
 767:Drivers/STM32F1xx_HAL_Driver/Src/stm32f1xx_hal_tim.c **** 
 768:Drivers/STM32F1xx_HAL_Driver/Src/stm32f1xx_hal_tim.c **** /**
 769:Drivers/STM32F1xx_HAL_Driver/Src/stm32f1xx_hal_tim.c ****   * @brief  Starts the TIM Output Compare signal generation in DMA mode.
 770:Drivers/STM32F1xx_HAL_Driver/Src/stm32f1xx_hal_tim.c ****   * @param  htim : TIM Output Compare handle
 771:Drivers/STM32F1xx_HAL_Driver/Src/stm32f1xx_hal_tim.c ****   * @param  Channel : TIM Channel to be enabled
 772:Drivers/STM32F1xx_HAL_Driver/Src/stm32f1xx_hal_tim.c ****   *          This parameter can be one of the following values:
 773:Drivers/STM32F1xx_HAL_Driver/Src/stm32f1xx_hal_tim.c ****   *            @arg TIM_CHANNEL_1: TIM Channel 1 selected
 774:Drivers/STM32F1xx_HAL_Driver/Src/stm32f1xx_hal_tim.c ****   *            @arg TIM_CHANNEL_2: TIM Channel 2 selected
 775:Drivers/STM32F1xx_HAL_Driver/Src/stm32f1xx_hal_tim.c ****   *            @arg TIM_CHANNEL_3: TIM Channel 3 selected
 776:Drivers/STM32F1xx_HAL_Driver/Src/stm32f1xx_hal_tim.c ****   *            @arg TIM_CHANNEL_4: TIM Channel 4 selected
 777:Drivers/STM32F1xx_HAL_Driver/Src/stm32f1xx_hal_tim.c ****   * @param  pData : The source Buffer address.
 778:Drivers/STM32F1xx_HAL_Driver/Src/stm32f1xx_hal_tim.c ****   * @param  Length : The length of data to be transferred from memory to TIM peripheral
 779:Drivers/STM32F1xx_HAL_Driver/Src/stm32f1xx_hal_tim.c ****   * @retval HAL status
 780:Drivers/STM32F1xx_HAL_Driver/Src/stm32f1xx_hal_tim.c **** */
 781:Drivers/STM32F1xx_HAL_Driver/Src/stm32f1xx_hal_tim.c **** HAL_StatusTypeDef HAL_TIM_OC_Start_DMA(TIM_HandleTypeDef *htim, uint32_t Channel, uint32_t *pData, 
 782:Drivers/STM32F1xx_HAL_Driver/Src/stm32f1xx_hal_tim.c **** {
 1509              		.loc 1 782 0
 1510              		.cfi_startproc
 1511              		@ args = 0, pretend = 0, frame = 16
 1512              		@ frame_needed = 1, uses_anonymous_args = 0
 1513 0000 80B5     		push	{r7, lr}
 1514              	.LCFI99:
 1515              		.cfi_def_cfa_offset 8
 1516              		.cfi_offset 7, -8
 1517              		.cfi_offset 14, -4
 1518 0002 84B0     		sub	sp, sp, #16
 1519              	.LCFI100:
 1520              		.cfi_def_cfa_offset 24
 1521 0004 00AF     		add	r7, sp, #0
 1522              	.LCFI101:
 1523              		.cfi_def_cfa_register 7
 1524 0006 F860     		str	r0, [r7, #12]
 1525 0008 B960     		str	r1, [r7, #8]
 1526 000a 7A60     		str	r2, [r7, #4]
 1527 000c 7B80     		strh	r3, [r7, #2]	@ movhi
 783:Drivers/STM32F1xx_HAL_Driver/Src/stm32f1xx_hal_tim.c ****   /* Check the parameters */
 784:Drivers/STM32F1xx_HAL_Driver/Src/stm32f1xx_hal_tim.c ****   assert_param(IS_TIM_CCX_INSTANCE(htim->Instance, Channel));
 785:Drivers/STM32F1xx_HAL_Driver/Src/stm32f1xx_hal_tim.c **** 
 786:Drivers/STM32F1xx_HAL_Driver/Src/stm32f1xx_hal_tim.c ****   if((htim->State == HAL_TIM_STATE_BUSY))
 1528              		.loc 1 786 0
 1529 000e FB68     		ldr	r3, [r7, #12]
 1530 0010 93F83D30 		ldrb	r3, [r3, #61]
 1531 0014 DBB2     		uxtb	r3, r3
ARM GAS  /tmp/cc5HGhWi.s 			page 41


 1532 0016 022B     		cmp	r3, #2
 1533 0018 01D1     		bne	.L78
 787:Drivers/STM32F1xx_HAL_Driver/Src/stm32f1xx_hal_tim.c ****   {
 788:Drivers/STM32F1xx_HAL_Driver/Src/stm32f1xx_hal_tim.c ****      return HAL_BUSY;
 1534              		.loc 1 788 0
 1535 001a 0223     		movs	r3, #2
 1536 001c BCE0     		b	.L79
 1537              	.L78:
 789:Drivers/STM32F1xx_HAL_Driver/Src/stm32f1xx_hal_tim.c ****   }
 790:Drivers/STM32F1xx_HAL_Driver/Src/stm32f1xx_hal_tim.c ****   else if((htim->State == HAL_TIM_STATE_READY))
 1538              		.loc 1 790 0
 1539 001e FB68     		ldr	r3, [r7, #12]
 1540 0020 93F83D30 		ldrb	r3, [r3, #61]
 1541 0024 DBB2     		uxtb	r3, r3
 1542 0026 012B     		cmp	r3, #1
 1543 0028 0BD1     		bne	.L80
 791:Drivers/STM32F1xx_HAL_Driver/Src/stm32f1xx_hal_tim.c ****   {
 792:Drivers/STM32F1xx_HAL_Driver/Src/stm32f1xx_hal_tim.c ****     if(((uint32_t)pData == 0U) && (Length > 0U))
 1544              		.loc 1 792 0
 1545 002a 7B68     		ldr	r3, [r7, #4]
 1546 002c 002B     		cmp	r3, #0
 1547 002e 04D1     		bne	.L81
 1548              		.loc 1 792 0 is_stmt 0 discriminator 1
 1549 0030 7B88     		ldrh	r3, [r7, #2]
 1550 0032 002B     		cmp	r3, #0
 1551 0034 01D0     		beq	.L81
 793:Drivers/STM32F1xx_HAL_Driver/Src/stm32f1xx_hal_tim.c ****     {
 794:Drivers/STM32F1xx_HAL_Driver/Src/stm32f1xx_hal_tim.c ****       return HAL_ERROR;
 1552              		.loc 1 794 0 is_stmt 1
 1553 0036 0123     		movs	r3, #1
 1554 0038 AEE0     		b	.L79
 1555              	.L81:
 795:Drivers/STM32F1xx_HAL_Driver/Src/stm32f1xx_hal_tim.c ****     }
 796:Drivers/STM32F1xx_HAL_Driver/Src/stm32f1xx_hal_tim.c ****     else
 797:Drivers/STM32F1xx_HAL_Driver/Src/stm32f1xx_hal_tim.c ****     {
 798:Drivers/STM32F1xx_HAL_Driver/Src/stm32f1xx_hal_tim.c ****       htim->State = HAL_TIM_STATE_BUSY;
 1556              		.loc 1 798 0
 1557 003a FB68     		ldr	r3, [r7, #12]
 1558 003c 0222     		movs	r2, #2
 1559 003e 83F83D20 		strb	r2, [r3, #61]
 1560              	.L80:
 799:Drivers/STM32F1xx_HAL_Driver/Src/stm32f1xx_hal_tim.c ****     }
 800:Drivers/STM32F1xx_HAL_Driver/Src/stm32f1xx_hal_tim.c ****   }
 801:Drivers/STM32F1xx_HAL_Driver/Src/stm32f1xx_hal_tim.c ****   switch (Channel)
 1561              		.loc 1 801 0
 1562 0042 BB68     		ldr	r3, [r7, #8]
 1563 0044 0C2B     		cmp	r3, #12
 1564 0046 00F28980 		bhi	.L90
 1565 004a 01A2     		adr	r2, .L84
 1566 004c 52F823F0 		ldr	pc, [r2, r3, lsl #2]
 1567              		.p2align 2
 1568              	.L84:
 1569 0050 85000000 		.word	.L83+1
 1570 0054 5D010000 		.word	.L90+1
 1571 0058 5D010000 		.word	.L90+1
 1572 005c 5D010000 		.word	.L90+1
 1573 0060 BB000000 		.word	.L85+1
ARM GAS  /tmp/cc5HGhWi.s 			page 42


 1574 0064 5D010000 		.word	.L90+1
 1575 0068 5D010000 		.word	.L90+1
 1576 006c 5D010000 		.word	.L90+1
 1577 0070 F1000000 		.word	.L86+1
 1578 0074 5D010000 		.word	.L90+1
 1579 0078 5D010000 		.word	.L90+1
 1580 007c 5D010000 		.word	.L90+1
 1581 0080 27010000 		.word	.L87+1
 1582              		.p2align 1
 1583              	.L83:
 802:Drivers/STM32F1xx_HAL_Driver/Src/stm32f1xx_hal_tim.c ****   {
 803:Drivers/STM32F1xx_HAL_Driver/Src/stm32f1xx_hal_tim.c ****     case TIM_CHANNEL_1:
 804:Drivers/STM32F1xx_HAL_Driver/Src/stm32f1xx_hal_tim.c ****     {
 805:Drivers/STM32F1xx_HAL_Driver/Src/stm32f1xx_hal_tim.c ****       /* Set the DMA Period elapsed callback */
 806:Drivers/STM32F1xx_HAL_Driver/Src/stm32f1xx_hal_tim.c ****       htim->hdma[TIM_DMA_ID_CC1]->XferCpltCallback = TIM_DMADelayPulseCplt;
 1584              		.loc 1 806 0
 1585 0084 FB68     		ldr	r3, [r7, #12]
 1586 0086 5B6A     		ldr	r3, [r3, #36]
 1587 0088 454A     		ldr	r2, .L91
 1588 008a 9A62     		str	r2, [r3, #40]
 807:Drivers/STM32F1xx_HAL_Driver/Src/stm32f1xx_hal_tim.c **** 
 808:Drivers/STM32F1xx_HAL_Driver/Src/stm32f1xx_hal_tim.c ****       /* Set the DMA error callback */
 809:Drivers/STM32F1xx_HAL_Driver/Src/stm32f1xx_hal_tim.c ****       htim->hdma[TIM_DMA_ID_CC1]->XferErrorCallback = TIM_DMAError ;
 1589              		.loc 1 809 0
 1590 008c FB68     		ldr	r3, [r7, #12]
 1591 008e 5B6A     		ldr	r3, [r3, #36]
 1592 0090 444A     		ldr	r2, .L91+4
 1593 0092 1A63     		str	r2, [r3, #48]
 810:Drivers/STM32F1xx_HAL_Driver/Src/stm32f1xx_hal_tim.c **** 
 811:Drivers/STM32F1xx_HAL_Driver/Src/stm32f1xx_hal_tim.c ****       /* Enable the DMA channel */
 812:Drivers/STM32F1xx_HAL_Driver/Src/stm32f1xx_hal_tim.c ****       HAL_DMA_Start_IT(htim->hdma[TIM_DMA_ID_CC1], (uint32_t)pData, (uint32_t)&htim->Instance->CCR1
 1594              		.loc 1 812 0
 1595 0094 FB68     		ldr	r3, [r7, #12]
 1596 0096 586A     		ldr	r0, [r3, #36]
 1597 0098 7968     		ldr	r1, [r7, #4]
 1598 009a FB68     		ldr	r3, [r7, #12]
 1599 009c 1B68     		ldr	r3, [r3]
 1600 009e 3433     		adds	r3, r3, #52
 1601 00a0 1A46     		mov	r2, r3
 1602 00a2 7B88     		ldrh	r3, [r7, #2]
 1603 00a4 FFF7FEFF 		bl	HAL_DMA_Start_IT
 813:Drivers/STM32F1xx_HAL_Driver/Src/stm32f1xx_hal_tim.c **** 
 814:Drivers/STM32F1xx_HAL_Driver/Src/stm32f1xx_hal_tim.c ****       /* Enable the TIM Capture/Compare 1 DMA request */
 815:Drivers/STM32F1xx_HAL_Driver/Src/stm32f1xx_hal_tim.c ****       __HAL_TIM_ENABLE_DMA(htim, TIM_DMA_CC1);
 1604              		.loc 1 815 0
 1605 00a8 FB68     		ldr	r3, [r7, #12]
 1606 00aa 1B68     		ldr	r3, [r3]
 1607 00ac DA68     		ldr	r2, [r3, #12]
 1608 00ae FB68     		ldr	r3, [r7, #12]
 1609 00b0 1B68     		ldr	r3, [r3]
 1610 00b2 42F40072 		orr	r2, r2, #512
 1611 00b6 DA60     		str	r2, [r3, #12]
 816:Drivers/STM32F1xx_HAL_Driver/Src/stm32f1xx_hal_tim.c ****     }
 817:Drivers/STM32F1xx_HAL_Driver/Src/stm32f1xx_hal_tim.c ****     break;
 1612              		.loc 1 817 0
 1613 00b8 51E0     		b	.L88
 1614              	.L85:
ARM GAS  /tmp/cc5HGhWi.s 			page 43


 818:Drivers/STM32F1xx_HAL_Driver/Src/stm32f1xx_hal_tim.c **** 
 819:Drivers/STM32F1xx_HAL_Driver/Src/stm32f1xx_hal_tim.c ****     case TIM_CHANNEL_2:
 820:Drivers/STM32F1xx_HAL_Driver/Src/stm32f1xx_hal_tim.c ****     {
 821:Drivers/STM32F1xx_HAL_Driver/Src/stm32f1xx_hal_tim.c ****       /* Set the DMA Period elapsed callback */
 822:Drivers/STM32F1xx_HAL_Driver/Src/stm32f1xx_hal_tim.c ****       htim->hdma[TIM_DMA_ID_CC2]->XferCpltCallback = TIM_DMADelayPulseCplt;
 1615              		.loc 1 822 0
 1616 00ba FB68     		ldr	r3, [r7, #12]
 1617 00bc 9B6A     		ldr	r3, [r3, #40]
 1618 00be 384A     		ldr	r2, .L91
 1619 00c0 9A62     		str	r2, [r3, #40]
 823:Drivers/STM32F1xx_HAL_Driver/Src/stm32f1xx_hal_tim.c **** 
 824:Drivers/STM32F1xx_HAL_Driver/Src/stm32f1xx_hal_tim.c ****       /* Set the DMA error callback */
 825:Drivers/STM32F1xx_HAL_Driver/Src/stm32f1xx_hal_tim.c ****       htim->hdma[TIM_DMA_ID_CC2]->XferErrorCallback = TIM_DMAError ;
 1620              		.loc 1 825 0
 1621 00c2 FB68     		ldr	r3, [r7, #12]
 1622 00c4 9B6A     		ldr	r3, [r3, #40]
 1623 00c6 374A     		ldr	r2, .L91+4
 1624 00c8 1A63     		str	r2, [r3, #48]
 826:Drivers/STM32F1xx_HAL_Driver/Src/stm32f1xx_hal_tim.c **** 
 827:Drivers/STM32F1xx_HAL_Driver/Src/stm32f1xx_hal_tim.c ****       /* Enable the DMA channel */
 828:Drivers/STM32F1xx_HAL_Driver/Src/stm32f1xx_hal_tim.c ****       HAL_DMA_Start_IT(htim->hdma[TIM_DMA_ID_CC2], (uint32_t)pData, (uint32_t)&htim->Instance->CCR2
 1625              		.loc 1 828 0
 1626 00ca FB68     		ldr	r3, [r7, #12]
 1627 00cc 986A     		ldr	r0, [r3, #40]
 1628 00ce 7968     		ldr	r1, [r7, #4]
 1629 00d0 FB68     		ldr	r3, [r7, #12]
 1630 00d2 1B68     		ldr	r3, [r3]
 1631 00d4 3833     		adds	r3, r3, #56
 1632 00d6 1A46     		mov	r2, r3
 1633 00d8 7B88     		ldrh	r3, [r7, #2]
 1634 00da FFF7FEFF 		bl	HAL_DMA_Start_IT
 829:Drivers/STM32F1xx_HAL_Driver/Src/stm32f1xx_hal_tim.c **** 
 830:Drivers/STM32F1xx_HAL_Driver/Src/stm32f1xx_hal_tim.c ****       /* Enable the TIM Capture/Compare 2 DMA request */
 831:Drivers/STM32F1xx_HAL_Driver/Src/stm32f1xx_hal_tim.c ****       __HAL_TIM_ENABLE_DMA(htim, TIM_DMA_CC2);
 1635              		.loc 1 831 0
 1636 00de FB68     		ldr	r3, [r7, #12]
 1637 00e0 1B68     		ldr	r3, [r3]
 1638 00e2 DA68     		ldr	r2, [r3, #12]
 1639 00e4 FB68     		ldr	r3, [r7, #12]
 1640 00e6 1B68     		ldr	r3, [r3]
 1641 00e8 42F48062 		orr	r2, r2, #1024
 1642 00ec DA60     		str	r2, [r3, #12]
 832:Drivers/STM32F1xx_HAL_Driver/Src/stm32f1xx_hal_tim.c ****     }
 833:Drivers/STM32F1xx_HAL_Driver/Src/stm32f1xx_hal_tim.c ****     break;
 1643              		.loc 1 833 0
 1644 00ee 36E0     		b	.L88
 1645              	.L86:
 834:Drivers/STM32F1xx_HAL_Driver/Src/stm32f1xx_hal_tim.c **** 
 835:Drivers/STM32F1xx_HAL_Driver/Src/stm32f1xx_hal_tim.c ****     case TIM_CHANNEL_3:
 836:Drivers/STM32F1xx_HAL_Driver/Src/stm32f1xx_hal_tim.c ****     {
 837:Drivers/STM32F1xx_HAL_Driver/Src/stm32f1xx_hal_tim.c ****       /* Set the DMA Period elapsed callback */
 838:Drivers/STM32F1xx_HAL_Driver/Src/stm32f1xx_hal_tim.c ****       htim->hdma[TIM_DMA_ID_CC3]->XferCpltCallback = TIM_DMADelayPulseCplt;
 1646              		.loc 1 838 0
 1647 00f0 FB68     		ldr	r3, [r7, #12]
 1648 00f2 DB6A     		ldr	r3, [r3, #44]
 1649 00f4 2A4A     		ldr	r2, .L91
 1650 00f6 9A62     		str	r2, [r3, #40]
ARM GAS  /tmp/cc5HGhWi.s 			page 44


 839:Drivers/STM32F1xx_HAL_Driver/Src/stm32f1xx_hal_tim.c **** 
 840:Drivers/STM32F1xx_HAL_Driver/Src/stm32f1xx_hal_tim.c ****       /* Set the DMA error callback */
 841:Drivers/STM32F1xx_HAL_Driver/Src/stm32f1xx_hal_tim.c ****       htim->hdma[TIM_DMA_ID_CC3]->XferErrorCallback = TIM_DMAError ;
 1651              		.loc 1 841 0
 1652 00f8 FB68     		ldr	r3, [r7, #12]
 1653 00fa DB6A     		ldr	r3, [r3, #44]
 1654 00fc 294A     		ldr	r2, .L91+4
 1655 00fe 1A63     		str	r2, [r3, #48]
 842:Drivers/STM32F1xx_HAL_Driver/Src/stm32f1xx_hal_tim.c **** 
 843:Drivers/STM32F1xx_HAL_Driver/Src/stm32f1xx_hal_tim.c ****       /* Enable the DMA channel */
 844:Drivers/STM32F1xx_HAL_Driver/Src/stm32f1xx_hal_tim.c ****       HAL_DMA_Start_IT(htim->hdma[TIM_DMA_ID_CC3], (uint32_t)pData, (uint32_t)&htim->Instance->CCR3
 1656              		.loc 1 844 0
 1657 0100 FB68     		ldr	r3, [r7, #12]
 1658 0102 D86A     		ldr	r0, [r3, #44]
 1659 0104 7968     		ldr	r1, [r7, #4]
 1660 0106 FB68     		ldr	r3, [r7, #12]
 1661 0108 1B68     		ldr	r3, [r3]
 1662 010a 3C33     		adds	r3, r3, #60
 1663 010c 1A46     		mov	r2, r3
 1664 010e 7B88     		ldrh	r3, [r7, #2]
 1665 0110 FFF7FEFF 		bl	HAL_DMA_Start_IT
 845:Drivers/STM32F1xx_HAL_Driver/Src/stm32f1xx_hal_tim.c **** 
 846:Drivers/STM32F1xx_HAL_Driver/Src/stm32f1xx_hal_tim.c ****       /* Enable the TIM Capture/Compare 3 DMA request */
 847:Drivers/STM32F1xx_HAL_Driver/Src/stm32f1xx_hal_tim.c ****       __HAL_TIM_ENABLE_DMA(htim, TIM_DMA_CC3);
 1666              		.loc 1 847 0
 1667 0114 FB68     		ldr	r3, [r7, #12]
 1668 0116 1B68     		ldr	r3, [r3]
 1669 0118 DA68     		ldr	r2, [r3, #12]
 1670 011a FB68     		ldr	r3, [r7, #12]
 1671 011c 1B68     		ldr	r3, [r3]
 1672 011e 42F40062 		orr	r2, r2, #2048
 1673 0122 DA60     		str	r2, [r3, #12]
 848:Drivers/STM32F1xx_HAL_Driver/Src/stm32f1xx_hal_tim.c ****     }
 849:Drivers/STM32F1xx_HAL_Driver/Src/stm32f1xx_hal_tim.c ****     break;
 1674              		.loc 1 849 0
 1675 0124 1BE0     		b	.L88
 1676              	.L87:
 850:Drivers/STM32F1xx_HAL_Driver/Src/stm32f1xx_hal_tim.c **** 
 851:Drivers/STM32F1xx_HAL_Driver/Src/stm32f1xx_hal_tim.c ****     case TIM_CHANNEL_4:
 852:Drivers/STM32F1xx_HAL_Driver/Src/stm32f1xx_hal_tim.c ****     {
 853:Drivers/STM32F1xx_HAL_Driver/Src/stm32f1xx_hal_tim.c ****      /* Set the DMA Period elapsed callback */
 854:Drivers/STM32F1xx_HAL_Driver/Src/stm32f1xx_hal_tim.c ****       htim->hdma[TIM_DMA_ID_CC4]->XferCpltCallback = TIM_DMADelayPulseCplt;
 1677              		.loc 1 854 0
 1678 0126 FB68     		ldr	r3, [r7, #12]
 1679 0128 1B6B     		ldr	r3, [r3, #48]
 1680 012a 1D4A     		ldr	r2, .L91
 1681 012c 9A62     		str	r2, [r3, #40]
 855:Drivers/STM32F1xx_HAL_Driver/Src/stm32f1xx_hal_tim.c **** 
 856:Drivers/STM32F1xx_HAL_Driver/Src/stm32f1xx_hal_tim.c ****       /* Set the DMA error callback */
 857:Drivers/STM32F1xx_HAL_Driver/Src/stm32f1xx_hal_tim.c ****       htim->hdma[TIM_DMA_ID_CC4]->XferErrorCallback = TIM_DMAError ;
 1682              		.loc 1 857 0
 1683 012e FB68     		ldr	r3, [r7, #12]
 1684 0130 1B6B     		ldr	r3, [r3, #48]
 1685 0132 1C4A     		ldr	r2, .L91+4
 1686 0134 1A63     		str	r2, [r3, #48]
 858:Drivers/STM32F1xx_HAL_Driver/Src/stm32f1xx_hal_tim.c **** 
 859:Drivers/STM32F1xx_HAL_Driver/Src/stm32f1xx_hal_tim.c ****       /* Enable the DMA channel */
ARM GAS  /tmp/cc5HGhWi.s 			page 45


 860:Drivers/STM32F1xx_HAL_Driver/Src/stm32f1xx_hal_tim.c ****       HAL_DMA_Start_IT(htim->hdma[TIM_DMA_ID_CC4], (uint32_t)pData, (uint32_t)&htim->Instance->CCR4
 1687              		.loc 1 860 0
 1688 0136 FB68     		ldr	r3, [r7, #12]
 1689 0138 186B     		ldr	r0, [r3, #48]
 1690 013a 7968     		ldr	r1, [r7, #4]
 1691 013c FB68     		ldr	r3, [r7, #12]
 1692 013e 1B68     		ldr	r3, [r3]
 1693 0140 4033     		adds	r3, r3, #64
 1694 0142 1A46     		mov	r2, r3
 1695 0144 7B88     		ldrh	r3, [r7, #2]
 1696 0146 FFF7FEFF 		bl	HAL_DMA_Start_IT
 861:Drivers/STM32F1xx_HAL_Driver/Src/stm32f1xx_hal_tim.c **** 
 862:Drivers/STM32F1xx_HAL_Driver/Src/stm32f1xx_hal_tim.c ****       /* Enable the TIM Capture/Compare 4 DMA request */
 863:Drivers/STM32F1xx_HAL_Driver/Src/stm32f1xx_hal_tim.c ****       __HAL_TIM_ENABLE_DMA(htim, TIM_DMA_CC4);
 1697              		.loc 1 863 0
 1698 014a FB68     		ldr	r3, [r7, #12]
 1699 014c 1B68     		ldr	r3, [r3]
 1700 014e DA68     		ldr	r2, [r3, #12]
 1701 0150 FB68     		ldr	r3, [r7, #12]
 1702 0152 1B68     		ldr	r3, [r3]
 1703 0154 42F48052 		orr	r2, r2, #4096
 1704 0158 DA60     		str	r2, [r3, #12]
 864:Drivers/STM32F1xx_HAL_Driver/Src/stm32f1xx_hal_tim.c ****     }
 865:Drivers/STM32F1xx_HAL_Driver/Src/stm32f1xx_hal_tim.c ****     break;
 1705              		.loc 1 865 0
 1706 015a 00E0     		b	.L88
 1707              	.L90:
 866:Drivers/STM32F1xx_HAL_Driver/Src/stm32f1xx_hal_tim.c **** 
 867:Drivers/STM32F1xx_HAL_Driver/Src/stm32f1xx_hal_tim.c ****     default:
 868:Drivers/STM32F1xx_HAL_Driver/Src/stm32f1xx_hal_tim.c ****     break;
 1708              		.loc 1 868 0
 1709 015c 00BF     		nop
 1710              	.L88:
 869:Drivers/STM32F1xx_HAL_Driver/Src/stm32f1xx_hal_tim.c ****   }
 870:Drivers/STM32F1xx_HAL_Driver/Src/stm32f1xx_hal_tim.c **** 
 871:Drivers/STM32F1xx_HAL_Driver/Src/stm32f1xx_hal_tim.c ****   /* Enable the Output compare channel */
 872:Drivers/STM32F1xx_HAL_Driver/Src/stm32f1xx_hal_tim.c ****   TIM_CCxChannelCmd(htim->Instance, Channel, TIM_CCx_ENABLE);
 1711              		.loc 1 872 0
 1712 015e FB68     		ldr	r3, [r7, #12]
 1713 0160 1B68     		ldr	r3, [r3]
 1714 0162 0122     		movs	r2, #1
 1715 0164 B968     		ldr	r1, [r7, #8]
 1716 0166 1846     		mov	r0, r3
 1717 0168 FFF7FEFF 		bl	TIM_CCxChannelCmd
 873:Drivers/STM32F1xx_HAL_Driver/Src/stm32f1xx_hal_tim.c **** 
 874:Drivers/STM32F1xx_HAL_Driver/Src/stm32f1xx_hal_tim.c ****   if(IS_TIM_BREAK_INSTANCE(htim->Instance) != RESET)
 1718              		.loc 1 874 0
 1719 016c FB68     		ldr	r3, [r7, #12]
 1720 016e 1B68     		ldr	r3, [r3]
 1721 0170 0D4A     		ldr	r2, .L91+8
 1722 0172 9342     		cmp	r3, r2
 1723 0174 07D1     		bne	.L89
 875:Drivers/STM32F1xx_HAL_Driver/Src/stm32f1xx_hal_tim.c ****   {
 876:Drivers/STM32F1xx_HAL_Driver/Src/stm32f1xx_hal_tim.c ****     /* Enable the main output */
 877:Drivers/STM32F1xx_HAL_Driver/Src/stm32f1xx_hal_tim.c ****     __HAL_TIM_MOE_ENABLE(htim);
 1724              		.loc 1 877 0
 1725 0176 FB68     		ldr	r3, [r7, #12]
ARM GAS  /tmp/cc5HGhWi.s 			page 46


 1726 0178 1B68     		ldr	r3, [r3]
 1727 017a 5A6C     		ldr	r2, [r3, #68]
 1728 017c FB68     		ldr	r3, [r7, #12]
 1729 017e 1B68     		ldr	r3, [r3]
 1730 0180 42F40042 		orr	r2, r2, #32768
 1731 0184 5A64     		str	r2, [r3, #68]
 1732              	.L89:
 878:Drivers/STM32F1xx_HAL_Driver/Src/stm32f1xx_hal_tim.c ****   }
 879:Drivers/STM32F1xx_HAL_Driver/Src/stm32f1xx_hal_tim.c **** 
 880:Drivers/STM32F1xx_HAL_Driver/Src/stm32f1xx_hal_tim.c ****   /* Enable the Peripheral */
 881:Drivers/STM32F1xx_HAL_Driver/Src/stm32f1xx_hal_tim.c ****   __HAL_TIM_ENABLE(htim);
 1733              		.loc 1 881 0
 1734 0186 FB68     		ldr	r3, [r7, #12]
 1735 0188 1B68     		ldr	r3, [r3]
 1736 018a 1A68     		ldr	r2, [r3]
 1737 018c FB68     		ldr	r3, [r7, #12]
 1738 018e 1B68     		ldr	r3, [r3]
 1739 0190 42F00102 		orr	r2, r2, #1
 1740 0194 1A60     		str	r2, [r3]
 882:Drivers/STM32F1xx_HAL_Driver/Src/stm32f1xx_hal_tim.c **** 
 883:Drivers/STM32F1xx_HAL_Driver/Src/stm32f1xx_hal_tim.c ****   /* Return function status */
 884:Drivers/STM32F1xx_HAL_Driver/Src/stm32f1xx_hal_tim.c ****   return HAL_OK;
 1741              		.loc 1 884 0
 1742 0196 0023     		movs	r3, #0
 1743              	.L79:
 885:Drivers/STM32F1xx_HAL_Driver/Src/stm32f1xx_hal_tim.c **** }
 1744              		.loc 1 885 0
 1745 0198 1846     		mov	r0, r3
 1746 019a 1037     		adds	r7, r7, #16
 1747              	.LCFI102:
 1748              		.cfi_def_cfa_offset 8
 1749 019c BD46     		mov	sp, r7
 1750              	.LCFI103:
 1751              		.cfi_def_cfa_register 13
 1752              		@ sp needed
 1753 019e 80BD     		pop	{r7, pc}
 1754              	.L92:
 1755              		.align	2
 1756              	.L91:
 1757 01a0 00000000 		.word	TIM_DMADelayPulseCplt
 1758 01a4 00000000 		.word	TIM_DMAError
 1759 01a8 002C0140 		.word	1073818624
 1760              		.cfi_endproc
 1761              	.LFE84:
 1763              		.section	.text.HAL_TIM_OC_Stop_DMA,"ax",%progbits
 1764              		.align	1
 1765              		.global	HAL_TIM_OC_Stop_DMA
 1766              		.syntax unified
 1767              		.thumb
 1768              		.thumb_func
 1769              		.fpu softvfp
 1771              	HAL_TIM_OC_Stop_DMA:
 1772              	.LFB85:
 886:Drivers/STM32F1xx_HAL_Driver/Src/stm32f1xx_hal_tim.c **** 
 887:Drivers/STM32F1xx_HAL_Driver/Src/stm32f1xx_hal_tim.c **** /**
 888:Drivers/STM32F1xx_HAL_Driver/Src/stm32f1xx_hal_tim.c ****   * @brief  Stops the TIM Output Compare signal generation in DMA mode.
 889:Drivers/STM32F1xx_HAL_Driver/Src/stm32f1xx_hal_tim.c ****   * @param  htim : TIM Output Compare handle
ARM GAS  /tmp/cc5HGhWi.s 			page 47


 890:Drivers/STM32F1xx_HAL_Driver/Src/stm32f1xx_hal_tim.c ****   * @param  Channel : TIM Channel to be disabled
 891:Drivers/STM32F1xx_HAL_Driver/Src/stm32f1xx_hal_tim.c ****   *          This parameter can be one of the following values:
 892:Drivers/STM32F1xx_HAL_Driver/Src/stm32f1xx_hal_tim.c ****   *            @arg TIM_CHANNEL_1: TIM Channel 1 selected
 893:Drivers/STM32F1xx_HAL_Driver/Src/stm32f1xx_hal_tim.c ****   *            @arg TIM_CHANNEL_2: TIM Channel 2 selected
 894:Drivers/STM32F1xx_HAL_Driver/Src/stm32f1xx_hal_tim.c ****   *            @arg TIM_CHANNEL_3: TIM Channel 3 selected
 895:Drivers/STM32F1xx_HAL_Driver/Src/stm32f1xx_hal_tim.c ****   *            @arg TIM_CHANNEL_4: TIM Channel 4 selected
 896:Drivers/STM32F1xx_HAL_Driver/Src/stm32f1xx_hal_tim.c ****   * @retval HAL status
 897:Drivers/STM32F1xx_HAL_Driver/Src/stm32f1xx_hal_tim.c **** */
 898:Drivers/STM32F1xx_HAL_Driver/Src/stm32f1xx_hal_tim.c **** HAL_StatusTypeDef HAL_TIM_OC_Stop_DMA(TIM_HandleTypeDef *htim, uint32_t Channel)
 899:Drivers/STM32F1xx_HAL_Driver/Src/stm32f1xx_hal_tim.c **** {
 1773              		.loc 1 899 0
 1774              		.cfi_startproc
 1775              		@ args = 0, pretend = 0, frame = 8
 1776              		@ frame_needed = 1, uses_anonymous_args = 0
 1777 0000 80B5     		push	{r7, lr}
 1778              	.LCFI104:
 1779              		.cfi_def_cfa_offset 8
 1780              		.cfi_offset 7, -8
 1781              		.cfi_offset 14, -4
 1782 0002 82B0     		sub	sp, sp, #8
 1783              	.LCFI105:
 1784              		.cfi_def_cfa_offset 16
 1785 0004 00AF     		add	r7, sp, #0
 1786              	.LCFI106:
 1787              		.cfi_def_cfa_register 7
 1788 0006 7860     		str	r0, [r7, #4]
 1789 0008 3960     		str	r1, [r7]
 900:Drivers/STM32F1xx_HAL_Driver/Src/stm32f1xx_hal_tim.c ****   /* Check the parameters */
 901:Drivers/STM32F1xx_HAL_Driver/Src/stm32f1xx_hal_tim.c ****   assert_param(IS_TIM_CCX_INSTANCE(htim->Instance, Channel));
 902:Drivers/STM32F1xx_HAL_Driver/Src/stm32f1xx_hal_tim.c **** 
 903:Drivers/STM32F1xx_HAL_Driver/Src/stm32f1xx_hal_tim.c ****   switch (Channel)
 1790              		.loc 1 903 0
 1791 000a 3B68     		ldr	r3, [r7]
 1792 000c 0C2B     		cmp	r3, #12
 1793 000e 41D8     		bhi	.L104
 1794 0010 01A2     		adr	r2, .L96
 1795 0012 52F823F0 		ldr	pc, [r2, r3, lsl #2]
 1796 0016 00BF     		.p2align 2
 1797              	.L96:
 1798 0018 4D000000 		.word	.L95+1
 1799 001c 95000000 		.word	.L104+1
 1800 0020 95000000 		.word	.L104+1
 1801 0024 95000000 		.word	.L104+1
 1802 0028 5F000000 		.word	.L97+1
 1803 002c 95000000 		.word	.L104+1
 1804 0030 95000000 		.word	.L104+1
 1805 0034 95000000 		.word	.L104+1
 1806 0038 71000000 		.word	.L98+1
 1807 003c 95000000 		.word	.L104+1
 1808 0040 95000000 		.word	.L104+1
 1809 0044 95000000 		.word	.L104+1
 1810 0048 83000000 		.word	.L99+1
 1811              		.p2align 1
 1812              	.L95:
 904:Drivers/STM32F1xx_HAL_Driver/Src/stm32f1xx_hal_tim.c ****   {
 905:Drivers/STM32F1xx_HAL_Driver/Src/stm32f1xx_hal_tim.c ****     case TIM_CHANNEL_1:
 906:Drivers/STM32F1xx_HAL_Driver/Src/stm32f1xx_hal_tim.c ****     {
ARM GAS  /tmp/cc5HGhWi.s 			page 48


 907:Drivers/STM32F1xx_HAL_Driver/Src/stm32f1xx_hal_tim.c ****       /* Disable the TIM Capture/Compare 1 DMA request */
 908:Drivers/STM32F1xx_HAL_Driver/Src/stm32f1xx_hal_tim.c ****       __HAL_TIM_DISABLE_DMA(htim, TIM_DMA_CC1);
 1813              		.loc 1 908 0
 1814 004c 7B68     		ldr	r3, [r7, #4]
 1815 004e 1B68     		ldr	r3, [r3]
 1816 0050 DA68     		ldr	r2, [r3, #12]
 1817 0052 7B68     		ldr	r3, [r7, #4]
 1818 0054 1B68     		ldr	r3, [r3]
 1819 0056 22F40072 		bic	r2, r2, #512
 1820 005a DA60     		str	r2, [r3, #12]
 909:Drivers/STM32F1xx_HAL_Driver/Src/stm32f1xx_hal_tim.c ****     }
 910:Drivers/STM32F1xx_HAL_Driver/Src/stm32f1xx_hal_tim.c ****     break;
 1821              		.loc 1 910 0
 1822 005c 1BE0     		b	.L100
 1823              	.L97:
 911:Drivers/STM32F1xx_HAL_Driver/Src/stm32f1xx_hal_tim.c **** 
 912:Drivers/STM32F1xx_HAL_Driver/Src/stm32f1xx_hal_tim.c ****     case TIM_CHANNEL_2:
 913:Drivers/STM32F1xx_HAL_Driver/Src/stm32f1xx_hal_tim.c ****     {
 914:Drivers/STM32F1xx_HAL_Driver/Src/stm32f1xx_hal_tim.c ****       /* Disable the TIM Capture/Compare 2 DMA request */
 915:Drivers/STM32F1xx_HAL_Driver/Src/stm32f1xx_hal_tim.c ****       __HAL_TIM_DISABLE_DMA(htim, TIM_DMA_CC2);
 1824              		.loc 1 915 0
 1825 005e 7B68     		ldr	r3, [r7, #4]
 1826 0060 1B68     		ldr	r3, [r3]
 1827 0062 DA68     		ldr	r2, [r3, #12]
 1828 0064 7B68     		ldr	r3, [r7, #4]
 1829 0066 1B68     		ldr	r3, [r3]
 1830 0068 22F48062 		bic	r2, r2, #1024
 1831 006c DA60     		str	r2, [r3, #12]
 916:Drivers/STM32F1xx_HAL_Driver/Src/stm32f1xx_hal_tim.c ****     }
 917:Drivers/STM32F1xx_HAL_Driver/Src/stm32f1xx_hal_tim.c ****     break;
 1832              		.loc 1 917 0
 1833 006e 12E0     		b	.L100
 1834              	.L98:
 918:Drivers/STM32F1xx_HAL_Driver/Src/stm32f1xx_hal_tim.c **** 
 919:Drivers/STM32F1xx_HAL_Driver/Src/stm32f1xx_hal_tim.c ****     case TIM_CHANNEL_3:
 920:Drivers/STM32F1xx_HAL_Driver/Src/stm32f1xx_hal_tim.c ****     {
 921:Drivers/STM32F1xx_HAL_Driver/Src/stm32f1xx_hal_tim.c ****       /* Disable the TIM Capture/Compare 3 DMA request */
 922:Drivers/STM32F1xx_HAL_Driver/Src/stm32f1xx_hal_tim.c ****       __HAL_TIM_DISABLE_DMA(htim, TIM_DMA_CC3);
 1835              		.loc 1 922 0
 1836 0070 7B68     		ldr	r3, [r7, #4]
 1837 0072 1B68     		ldr	r3, [r3]
 1838 0074 DA68     		ldr	r2, [r3, #12]
 1839 0076 7B68     		ldr	r3, [r7, #4]
 1840 0078 1B68     		ldr	r3, [r3]
 1841 007a 22F40062 		bic	r2, r2, #2048
 1842 007e DA60     		str	r2, [r3, #12]
 923:Drivers/STM32F1xx_HAL_Driver/Src/stm32f1xx_hal_tim.c ****     }
 924:Drivers/STM32F1xx_HAL_Driver/Src/stm32f1xx_hal_tim.c ****     break;
 1843              		.loc 1 924 0
 1844 0080 09E0     		b	.L100
 1845              	.L99:
 925:Drivers/STM32F1xx_HAL_Driver/Src/stm32f1xx_hal_tim.c **** 
 926:Drivers/STM32F1xx_HAL_Driver/Src/stm32f1xx_hal_tim.c ****     case TIM_CHANNEL_4:
 927:Drivers/STM32F1xx_HAL_Driver/Src/stm32f1xx_hal_tim.c ****     {
 928:Drivers/STM32F1xx_HAL_Driver/Src/stm32f1xx_hal_tim.c ****       /* Disable the TIM Capture/Compare 4 interrupt */
 929:Drivers/STM32F1xx_HAL_Driver/Src/stm32f1xx_hal_tim.c ****       __HAL_TIM_DISABLE_DMA(htim, TIM_DMA_CC4);
 1846              		.loc 1 929 0
ARM GAS  /tmp/cc5HGhWi.s 			page 49


 1847 0082 7B68     		ldr	r3, [r7, #4]
 1848 0084 1B68     		ldr	r3, [r3]
 1849 0086 DA68     		ldr	r2, [r3, #12]
 1850 0088 7B68     		ldr	r3, [r7, #4]
 1851 008a 1B68     		ldr	r3, [r3]
 1852 008c 22F48052 		bic	r2, r2, #4096
 1853 0090 DA60     		str	r2, [r3, #12]
 930:Drivers/STM32F1xx_HAL_Driver/Src/stm32f1xx_hal_tim.c ****     }
 931:Drivers/STM32F1xx_HAL_Driver/Src/stm32f1xx_hal_tim.c ****     break;
 1854              		.loc 1 931 0
 1855 0092 00E0     		b	.L100
 1856              	.L104:
 932:Drivers/STM32F1xx_HAL_Driver/Src/stm32f1xx_hal_tim.c **** 
 933:Drivers/STM32F1xx_HAL_Driver/Src/stm32f1xx_hal_tim.c ****     default:
 934:Drivers/STM32F1xx_HAL_Driver/Src/stm32f1xx_hal_tim.c ****     break;
 1857              		.loc 1 934 0
 1858 0094 00BF     		nop
 1859              	.L100:
 935:Drivers/STM32F1xx_HAL_Driver/Src/stm32f1xx_hal_tim.c ****   }
 936:Drivers/STM32F1xx_HAL_Driver/Src/stm32f1xx_hal_tim.c **** 
 937:Drivers/STM32F1xx_HAL_Driver/Src/stm32f1xx_hal_tim.c ****   /* Disable the Output compare channel */
 938:Drivers/STM32F1xx_HAL_Driver/Src/stm32f1xx_hal_tim.c ****   TIM_CCxChannelCmd(htim->Instance, Channel, TIM_CCx_DISABLE);
 1860              		.loc 1 938 0
 1861 0096 7B68     		ldr	r3, [r7, #4]
 1862 0098 1B68     		ldr	r3, [r3]
 1863 009a 0022     		movs	r2, #0
 1864 009c 3968     		ldr	r1, [r7]
 1865 009e 1846     		mov	r0, r3
 1866 00a0 FFF7FEFF 		bl	TIM_CCxChannelCmd
 939:Drivers/STM32F1xx_HAL_Driver/Src/stm32f1xx_hal_tim.c **** 
 940:Drivers/STM32F1xx_HAL_Driver/Src/stm32f1xx_hal_tim.c ****   if(IS_TIM_BREAK_INSTANCE(htim->Instance) != RESET)
 1867              		.loc 1 940 0
 1868 00a4 7B68     		ldr	r3, [r7, #4]
 1869 00a6 1B68     		ldr	r3, [r3]
 1870 00a8 1D4A     		ldr	r2, .L105
 1871 00aa 9342     		cmp	r3, r2
 1872 00ac 17D1     		bne	.L101
 941:Drivers/STM32F1xx_HAL_Driver/Src/stm32f1xx_hal_tim.c ****   {
 942:Drivers/STM32F1xx_HAL_Driver/Src/stm32f1xx_hal_tim.c ****     /* Disable the Main Ouput */
 943:Drivers/STM32F1xx_HAL_Driver/Src/stm32f1xx_hal_tim.c ****     __HAL_TIM_MOE_DISABLE(htim);
 1873              		.loc 1 943 0
 1874 00ae 7B68     		ldr	r3, [r7, #4]
 1875 00b0 1B68     		ldr	r3, [r3]
 1876 00b2 1A6A     		ldr	r2, [r3, #32]
 1877 00b4 41F21113 		movw	r3, #4369
 1878 00b8 1340     		ands	r3, r3, r2
 1879 00ba 002B     		cmp	r3, #0
 1880 00bc 0FD1     		bne	.L101
 1881              		.loc 1 943 0 is_stmt 0 discriminator 1
 1882 00be 7B68     		ldr	r3, [r7, #4]
 1883 00c0 1B68     		ldr	r3, [r3]
 1884 00c2 1A6A     		ldr	r2, [r3, #32]
 1885 00c4 40F24443 		movw	r3, #1092
 1886 00c8 1340     		ands	r3, r3, r2
 1887 00ca 002B     		cmp	r3, #0
 1888 00cc 07D1     		bne	.L101
 1889              		.loc 1 943 0 discriminator 2
ARM GAS  /tmp/cc5HGhWi.s 			page 50


 1890 00ce 7B68     		ldr	r3, [r7, #4]
 1891 00d0 1B68     		ldr	r3, [r3]
 1892 00d2 5A6C     		ldr	r2, [r3, #68]
 1893 00d4 7B68     		ldr	r3, [r7, #4]
 1894 00d6 1B68     		ldr	r3, [r3]
 1895 00d8 22F40042 		bic	r2, r2, #32768
 1896 00dc 5A64     		str	r2, [r3, #68]
 1897              	.L101:
 944:Drivers/STM32F1xx_HAL_Driver/Src/stm32f1xx_hal_tim.c ****   }
 945:Drivers/STM32F1xx_HAL_Driver/Src/stm32f1xx_hal_tim.c **** 
 946:Drivers/STM32F1xx_HAL_Driver/Src/stm32f1xx_hal_tim.c ****   /* Disable the Peripheral */
 947:Drivers/STM32F1xx_HAL_Driver/Src/stm32f1xx_hal_tim.c ****   __HAL_TIM_DISABLE(htim);
 1898              		.loc 1 947 0 is_stmt 1
 1899 00de 7B68     		ldr	r3, [r7, #4]
 1900 00e0 1B68     		ldr	r3, [r3]
 1901 00e2 1A6A     		ldr	r2, [r3, #32]
 1902 00e4 41F21113 		movw	r3, #4369
 1903 00e8 1340     		ands	r3, r3, r2
 1904 00ea 002B     		cmp	r3, #0
 1905 00ec 0FD1     		bne	.L102
 1906              		.loc 1 947 0 is_stmt 0 discriminator 1
 1907 00ee 7B68     		ldr	r3, [r7, #4]
 1908 00f0 1B68     		ldr	r3, [r3]
 1909 00f2 1A6A     		ldr	r2, [r3, #32]
 1910 00f4 40F24443 		movw	r3, #1092
 1911 00f8 1340     		ands	r3, r3, r2
 1912 00fa 002B     		cmp	r3, #0
 1913 00fc 07D1     		bne	.L102
 1914              		.loc 1 947 0 discriminator 2
 1915 00fe 7B68     		ldr	r3, [r7, #4]
 1916 0100 1B68     		ldr	r3, [r3]
 1917 0102 1A68     		ldr	r2, [r3]
 1918 0104 7B68     		ldr	r3, [r7, #4]
 1919 0106 1B68     		ldr	r3, [r3]
 1920 0108 22F00102 		bic	r2, r2, #1
 1921 010c 1A60     		str	r2, [r3]
 1922              	.L102:
 948:Drivers/STM32F1xx_HAL_Driver/Src/stm32f1xx_hal_tim.c **** 
 949:Drivers/STM32F1xx_HAL_Driver/Src/stm32f1xx_hal_tim.c ****   /* Change the htim state */
 950:Drivers/STM32F1xx_HAL_Driver/Src/stm32f1xx_hal_tim.c ****   htim->State = HAL_TIM_STATE_READY;
 1923              		.loc 1 950 0 is_stmt 1
 1924 010e 7B68     		ldr	r3, [r7, #4]
 1925 0110 0122     		movs	r2, #1
 1926 0112 83F83D20 		strb	r2, [r3, #61]
 951:Drivers/STM32F1xx_HAL_Driver/Src/stm32f1xx_hal_tim.c **** 
 952:Drivers/STM32F1xx_HAL_Driver/Src/stm32f1xx_hal_tim.c ****   /* Return function status */
 953:Drivers/STM32F1xx_HAL_Driver/Src/stm32f1xx_hal_tim.c ****   return HAL_OK;
 1927              		.loc 1 953 0
 1928 0116 0023     		movs	r3, #0
 954:Drivers/STM32F1xx_HAL_Driver/Src/stm32f1xx_hal_tim.c **** }
 1929              		.loc 1 954 0
 1930 0118 1846     		mov	r0, r3
 1931 011a 0837     		adds	r7, r7, #8
 1932              	.LCFI107:
 1933              		.cfi_def_cfa_offset 8
 1934 011c BD46     		mov	sp, r7
 1935              	.LCFI108:
ARM GAS  /tmp/cc5HGhWi.s 			page 51


 1936              		.cfi_def_cfa_register 13
 1937              		@ sp needed
 1938 011e 80BD     		pop	{r7, pc}
 1939              	.L106:
 1940              		.align	2
 1941              	.L105:
 1942 0120 002C0140 		.word	1073818624
 1943              		.cfi_endproc
 1944              	.LFE85:
 1946              		.section	.text.HAL_TIM_PWM_Init,"ax",%progbits
 1947              		.align	1
 1948              		.global	HAL_TIM_PWM_Init
 1949              		.syntax unified
 1950              		.thumb
 1951              		.thumb_func
 1952              		.fpu softvfp
 1954              	HAL_TIM_PWM_Init:
 1955              	.LFB86:
 955:Drivers/STM32F1xx_HAL_Driver/Src/stm32f1xx_hal_tim.c **** 
 956:Drivers/STM32F1xx_HAL_Driver/Src/stm32f1xx_hal_tim.c **** /**
 957:Drivers/STM32F1xx_HAL_Driver/Src/stm32f1xx_hal_tim.c ****   * @}
 958:Drivers/STM32F1xx_HAL_Driver/Src/stm32f1xx_hal_tim.c ****   */
 959:Drivers/STM32F1xx_HAL_Driver/Src/stm32f1xx_hal_tim.c **** 
 960:Drivers/STM32F1xx_HAL_Driver/Src/stm32f1xx_hal_tim.c **** /** @defgroup TIM_Exported_Functions_Group3 Time PWM functions 
 961:Drivers/STM32F1xx_HAL_Driver/Src/stm32f1xx_hal_tim.c ****  *  @brief    Time PWM functions 
 962:Drivers/STM32F1xx_HAL_Driver/Src/stm32f1xx_hal_tim.c ****  *
 963:Drivers/STM32F1xx_HAL_Driver/Src/stm32f1xx_hal_tim.c **** @verbatim 
 964:Drivers/STM32F1xx_HAL_Driver/Src/stm32f1xx_hal_tim.c ****   ==============================================================================
 965:Drivers/STM32F1xx_HAL_Driver/Src/stm32f1xx_hal_tim.c ****                           ##### Time PWM functions #####
 966:Drivers/STM32F1xx_HAL_Driver/Src/stm32f1xx_hal_tim.c ****   ==============================================================================
 967:Drivers/STM32F1xx_HAL_Driver/Src/stm32f1xx_hal_tim.c ****   [..]
 968:Drivers/STM32F1xx_HAL_Driver/Src/stm32f1xx_hal_tim.c ****     This section provides functions allowing to:
 969:Drivers/STM32F1xx_HAL_Driver/Src/stm32f1xx_hal_tim.c ****     (+) Initialize and configure the TIM PWM.
 970:Drivers/STM32F1xx_HAL_Driver/Src/stm32f1xx_hal_tim.c ****     (+) De-initialize the TIM PWM.
 971:Drivers/STM32F1xx_HAL_Driver/Src/stm32f1xx_hal_tim.c ****     (+) Start the Time PWM.
 972:Drivers/STM32F1xx_HAL_Driver/Src/stm32f1xx_hal_tim.c ****     (+) Stop the Time PWM.
 973:Drivers/STM32F1xx_HAL_Driver/Src/stm32f1xx_hal_tim.c ****     (+) Start the Time PWM and enable interrupt.
 974:Drivers/STM32F1xx_HAL_Driver/Src/stm32f1xx_hal_tim.c ****     (+) Stop the Time PWM and disable interrupt.
 975:Drivers/STM32F1xx_HAL_Driver/Src/stm32f1xx_hal_tim.c ****     (+) Start the Time PWM and enable DMA transfer.
 976:Drivers/STM32F1xx_HAL_Driver/Src/stm32f1xx_hal_tim.c ****     (+) Stop the Time PWM and disable DMA transfer.
 977:Drivers/STM32F1xx_HAL_Driver/Src/stm32f1xx_hal_tim.c **** 
 978:Drivers/STM32F1xx_HAL_Driver/Src/stm32f1xx_hal_tim.c **** @endverbatim
 979:Drivers/STM32F1xx_HAL_Driver/Src/stm32f1xx_hal_tim.c ****   * @{
 980:Drivers/STM32F1xx_HAL_Driver/Src/stm32f1xx_hal_tim.c ****   */
 981:Drivers/STM32F1xx_HAL_Driver/Src/stm32f1xx_hal_tim.c **** /**
 982:Drivers/STM32F1xx_HAL_Driver/Src/stm32f1xx_hal_tim.c ****   * @brief  Initializes the TIM PWM Time Base according to the specified
 983:Drivers/STM32F1xx_HAL_Driver/Src/stm32f1xx_hal_tim.c ****   *         parameters in the TIM_HandleTypeDef and create the associated handle.
 984:Drivers/STM32F1xx_HAL_Driver/Src/stm32f1xx_hal_tim.c ****   * @param  htim : TIM handle
 985:Drivers/STM32F1xx_HAL_Driver/Src/stm32f1xx_hal_tim.c ****   * @retval HAL status
 986:Drivers/STM32F1xx_HAL_Driver/Src/stm32f1xx_hal_tim.c ****   */
 987:Drivers/STM32F1xx_HAL_Driver/Src/stm32f1xx_hal_tim.c **** HAL_StatusTypeDef HAL_TIM_PWM_Init(TIM_HandleTypeDef *htim)
 988:Drivers/STM32F1xx_HAL_Driver/Src/stm32f1xx_hal_tim.c **** {
 1956              		.loc 1 988 0
 1957              		.cfi_startproc
 1958              		@ args = 0, pretend = 0, frame = 8
 1959              		@ frame_needed = 1, uses_anonymous_args = 0
 1960 0000 80B5     		push	{r7, lr}
ARM GAS  /tmp/cc5HGhWi.s 			page 52


 1961              	.LCFI109:
 1962              		.cfi_def_cfa_offset 8
 1963              		.cfi_offset 7, -8
 1964              		.cfi_offset 14, -4
 1965 0002 82B0     		sub	sp, sp, #8
 1966              	.LCFI110:
 1967              		.cfi_def_cfa_offset 16
 1968 0004 00AF     		add	r7, sp, #0
 1969              	.LCFI111:
 1970              		.cfi_def_cfa_register 7
 1971 0006 7860     		str	r0, [r7, #4]
 989:Drivers/STM32F1xx_HAL_Driver/Src/stm32f1xx_hal_tim.c ****   /* Check the TIM handle allocation */
 990:Drivers/STM32F1xx_HAL_Driver/Src/stm32f1xx_hal_tim.c ****   if(htim == NULL)
 1972              		.loc 1 990 0
 1973 0008 7B68     		ldr	r3, [r7, #4]
 1974 000a 002B     		cmp	r3, #0
 1975 000c 01D1     		bne	.L108
 991:Drivers/STM32F1xx_HAL_Driver/Src/stm32f1xx_hal_tim.c ****   {
 992:Drivers/STM32F1xx_HAL_Driver/Src/stm32f1xx_hal_tim.c ****     return HAL_ERROR;
 1976              		.loc 1 992 0
 1977 000e 0123     		movs	r3, #1
 1978 0010 1DE0     		b	.L109
 1979              	.L108:
 993:Drivers/STM32F1xx_HAL_Driver/Src/stm32f1xx_hal_tim.c ****   }
 994:Drivers/STM32F1xx_HAL_Driver/Src/stm32f1xx_hal_tim.c **** 
 995:Drivers/STM32F1xx_HAL_Driver/Src/stm32f1xx_hal_tim.c ****   /* Check the parameters */
 996:Drivers/STM32F1xx_HAL_Driver/Src/stm32f1xx_hal_tim.c ****   assert_param(IS_TIM_INSTANCE(htim->Instance));
 997:Drivers/STM32F1xx_HAL_Driver/Src/stm32f1xx_hal_tim.c ****   assert_param(IS_TIM_COUNTER_MODE(htim->Init.CounterMode));
 998:Drivers/STM32F1xx_HAL_Driver/Src/stm32f1xx_hal_tim.c ****   assert_param(IS_TIM_CLOCKDIVISION_DIV(htim->Init.ClockDivision));
 999:Drivers/STM32F1xx_HAL_Driver/Src/stm32f1xx_hal_tim.c ****   assert_param(IS_TIM_AUTORELOAD_PRELOAD(htim->Init.AutoReloadPreload));
1000:Drivers/STM32F1xx_HAL_Driver/Src/stm32f1xx_hal_tim.c **** 
1001:Drivers/STM32F1xx_HAL_Driver/Src/stm32f1xx_hal_tim.c ****   if(htim->State == HAL_TIM_STATE_RESET)
 1980              		.loc 1 1001 0
 1981 0012 7B68     		ldr	r3, [r7, #4]
 1982 0014 93F83D30 		ldrb	r3, [r3, #61]
 1983 0018 DBB2     		uxtb	r3, r3
 1984 001a 002B     		cmp	r3, #0
 1985 001c 06D1     		bne	.L110
1002:Drivers/STM32F1xx_HAL_Driver/Src/stm32f1xx_hal_tim.c ****   {
1003:Drivers/STM32F1xx_HAL_Driver/Src/stm32f1xx_hal_tim.c ****     /* Allocate lock resource and initialize it */
1004:Drivers/STM32F1xx_HAL_Driver/Src/stm32f1xx_hal_tim.c ****     htim->Lock = HAL_UNLOCKED;
 1986              		.loc 1 1004 0
 1987 001e 7B68     		ldr	r3, [r7, #4]
 1988 0020 0022     		movs	r2, #0
 1989 0022 83F83C20 		strb	r2, [r3, #60]
1005:Drivers/STM32F1xx_HAL_Driver/Src/stm32f1xx_hal_tim.c ****     
1006:Drivers/STM32F1xx_HAL_Driver/Src/stm32f1xx_hal_tim.c ****     /* Init the low level hardware : GPIO, CLOCK, NVIC and DMA */
1007:Drivers/STM32F1xx_HAL_Driver/Src/stm32f1xx_hal_tim.c ****     HAL_TIM_PWM_MspInit(htim);
 1990              		.loc 1 1007 0
 1991 0026 7868     		ldr	r0, [r7, #4]
 1992 0028 FFF7FEFF 		bl	HAL_TIM_PWM_MspInit
 1993              	.L110:
1008:Drivers/STM32F1xx_HAL_Driver/Src/stm32f1xx_hal_tim.c ****   }
1009:Drivers/STM32F1xx_HAL_Driver/Src/stm32f1xx_hal_tim.c **** 
1010:Drivers/STM32F1xx_HAL_Driver/Src/stm32f1xx_hal_tim.c ****   /* Set the TIM state */
1011:Drivers/STM32F1xx_HAL_Driver/Src/stm32f1xx_hal_tim.c ****   htim->State= HAL_TIM_STATE_BUSY;
 1994              		.loc 1 1011 0
ARM GAS  /tmp/cc5HGhWi.s 			page 53


 1995 002c 7B68     		ldr	r3, [r7, #4]
 1996 002e 0222     		movs	r2, #2
 1997 0030 83F83D20 		strb	r2, [r3, #61]
1012:Drivers/STM32F1xx_HAL_Driver/Src/stm32f1xx_hal_tim.c **** 
1013:Drivers/STM32F1xx_HAL_Driver/Src/stm32f1xx_hal_tim.c ****   /* Init the base time for the PWM */
1014:Drivers/STM32F1xx_HAL_Driver/Src/stm32f1xx_hal_tim.c ****   TIM_Base_SetConfig(htim->Instance, &htim->Init);
 1998              		.loc 1 1014 0
 1999 0034 7B68     		ldr	r3, [r7, #4]
 2000 0036 1A68     		ldr	r2, [r3]
 2001 0038 7B68     		ldr	r3, [r7, #4]
 2002 003a 0433     		adds	r3, r3, #4
 2003 003c 1946     		mov	r1, r3
 2004 003e 1046     		mov	r0, r2
 2005 0040 FFF7FEFF 		bl	TIM_Base_SetConfig
1015:Drivers/STM32F1xx_HAL_Driver/Src/stm32f1xx_hal_tim.c **** 
1016:Drivers/STM32F1xx_HAL_Driver/Src/stm32f1xx_hal_tim.c ****   /* Initialize the TIM state*/
1017:Drivers/STM32F1xx_HAL_Driver/Src/stm32f1xx_hal_tim.c ****   htim->State= HAL_TIM_STATE_READY;
 2006              		.loc 1 1017 0
 2007 0044 7B68     		ldr	r3, [r7, #4]
 2008 0046 0122     		movs	r2, #1
 2009 0048 83F83D20 		strb	r2, [r3, #61]
1018:Drivers/STM32F1xx_HAL_Driver/Src/stm32f1xx_hal_tim.c **** 
1019:Drivers/STM32F1xx_HAL_Driver/Src/stm32f1xx_hal_tim.c ****   return HAL_OK;
 2010              		.loc 1 1019 0
 2011 004c 0023     		movs	r3, #0
 2012              	.L109:
1020:Drivers/STM32F1xx_HAL_Driver/Src/stm32f1xx_hal_tim.c **** }
 2013              		.loc 1 1020 0
 2014 004e 1846     		mov	r0, r3
 2015 0050 0837     		adds	r7, r7, #8
 2016              	.LCFI112:
 2017              		.cfi_def_cfa_offset 8
 2018 0052 BD46     		mov	sp, r7
 2019              	.LCFI113:
 2020              		.cfi_def_cfa_register 13
 2021              		@ sp needed
 2022 0054 80BD     		pop	{r7, pc}
 2023              		.cfi_endproc
 2024              	.LFE86:
 2026              		.section	.text.HAL_TIM_PWM_DeInit,"ax",%progbits
 2027              		.align	1
 2028              		.global	HAL_TIM_PWM_DeInit
 2029              		.syntax unified
 2030              		.thumb
 2031              		.thumb_func
 2032              		.fpu softvfp
 2034              	HAL_TIM_PWM_DeInit:
 2035              	.LFB87:
1021:Drivers/STM32F1xx_HAL_Driver/Src/stm32f1xx_hal_tim.c **** 
1022:Drivers/STM32F1xx_HAL_Driver/Src/stm32f1xx_hal_tim.c **** /**
1023:Drivers/STM32F1xx_HAL_Driver/Src/stm32f1xx_hal_tim.c ****   * @brief  DeInitializes the TIM peripheral 
1024:Drivers/STM32F1xx_HAL_Driver/Src/stm32f1xx_hal_tim.c ****   * @param  htim : TIM handle
1025:Drivers/STM32F1xx_HAL_Driver/Src/stm32f1xx_hal_tim.c ****   * @retval HAL status
1026:Drivers/STM32F1xx_HAL_Driver/Src/stm32f1xx_hal_tim.c ****   */
1027:Drivers/STM32F1xx_HAL_Driver/Src/stm32f1xx_hal_tim.c **** HAL_StatusTypeDef HAL_TIM_PWM_DeInit(TIM_HandleTypeDef *htim)
1028:Drivers/STM32F1xx_HAL_Driver/Src/stm32f1xx_hal_tim.c **** {
 2036              		.loc 1 1028 0
ARM GAS  /tmp/cc5HGhWi.s 			page 54


 2037              		.cfi_startproc
 2038              		@ args = 0, pretend = 0, frame = 8
 2039              		@ frame_needed = 1, uses_anonymous_args = 0
 2040 0000 80B5     		push	{r7, lr}
 2041              	.LCFI114:
 2042              		.cfi_def_cfa_offset 8
 2043              		.cfi_offset 7, -8
 2044              		.cfi_offset 14, -4
 2045 0002 82B0     		sub	sp, sp, #8
 2046              	.LCFI115:
 2047              		.cfi_def_cfa_offset 16
 2048 0004 00AF     		add	r7, sp, #0
 2049              	.LCFI116:
 2050              		.cfi_def_cfa_register 7
 2051 0006 7860     		str	r0, [r7, #4]
1029:Drivers/STM32F1xx_HAL_Driver/Src/stm32f1xx_hal_tim.c ****   /* Check the parameters */
1030:Drivers/STM32F1xx_HAL_Driver/Src/stm32f1xx_hal_tim.c ****   assert_param(IS_TIM_INSTANCE(htim->Instance));
1031:Drivers/STM32F1xx_HAL_Driver/Src/stm32f1xx_hal_tim.c **** 
1032:Drivers/STM32F1xx_HAL_Driver/Src/stm32f1xx_hal_tim.c ****   htim->State = HAL_TIM_STATE_BUSY;
 2052              		.loc 1 1032 0
 2053 0008 7B68     		ldr	r3, [r7, #4]
 2054 000a 0222     		movs	r2, #2
 2055 000c 83F83D20 		strb	r2, [r3, #61]
1033:Drivers/STM32F1xx_HAL_Driver/Src/stm32f1xx_hal_tim.c **** 
1034:Drivers/STM32F1xx_HAL_Driver/Src/stm32f1xx_hal_tim.c ****   /* Disable the TIM Peripheral Clock */
1035:Drivers/STM32F1xx_HAL_Driver/Src/stm32f1xx_hal_tim.c ****   __HAL_TIM_DISABLE(htim);
 2056              		.loc 1 1035 0
 2057 0010 7B68     		ldr	r3, [r7, #4]
 2058 0012 1B68     		ldr	r3, [r3]
 2059 0014 1A6A     		ldr	r2, [r3, #32]
 2060 0016 41F21113 		movw	r3, #4369
 2061 001a 1340     		ands	r3, r3, r2
 2062 001c 002B     		cmp	r3, #0
 2063 001e 0FD1     		bne	.L112
 2064              		.loc 1 1035 0 is_stmt 0 discriminator 1
 2065 0020 7B68     		ldr	r3, [r7, #4]
 2066 0022 1B68     		ldr	r3, [r3]
 2067 0024 1A6A     		ldr	r2, [r3, #32]
 2068 0026 40F24443 		movw	r3, #1092
 2069 002a 1340     		ands	r3, r3, r2
 2070 002c 002B     		cmp	r3, #0
 2071 002e 07D1     		bne	.L112
 2072              		.loc 1 1035 0 discriminator 2
 2073 0030 7B68     		ldr	r3, [r7, #4]
 2074 0032 1B68     		ldr	r3, [r3]
 2075 0034 1A68     		ldr	r2, [r3]
 2076 0036 7B68     		ldr	r3, [r7, #4]
 2077 0038 1B68     		ldr	r3, [r3]
 2078 003a 22F00102 		bic	r2, r2, #1
 2079 003e 1A60     		str	r2, [r3]
 2080              	.L112:
1036:Drivers/STM32F1xx_HAL_Driver/Src/stm32f1xx_hal_tim.c **** 
1037:Drivers/STM32F1xx_HAL_Driver/Src/stm32f1xx_hal_tim.c ****   /* DeInit the low level hardware: GPIO, CLOCK, NVIC and DMA */
1038:Drivers/STM32F1xx_HAL_Driver/Src/stm32f1xx_hal_tim.c ****   HAL_TIM_PWM_MspDeInit(htim);
 2081              		.loc 1 1038 0 is_stmt 1
 2082 0040 7868     		ldr	r0, [r7, #4]
 2083 0042 FFF7FEFF 		bl	HAL_TIM_PWM_MspDeInit
ARM GAS  /tmp/cc5HGhWi.s 			page 55


1039:Drivers/STM32F1xx_HAL_Driver/Src/stm32f1xx_hal_tim.c **** 
1040:Drivers/STM32F1xx_HAL_Driver/Src/stm32f1xx_hal_tim.c ****   /* Change TIM state */
1041:Drivers/STM32F1xx_HAL_Driver/Src/stm32f1xx_hal_tim.c ****   htim->State = HAL_TIM_STATE_RESET;
 2084              		.loc 1 1041 0
 2085 0046 7B68     		ldr	r3, [r7, #4]
 2086 0048 0022     		movs	r2, #0
 2087 004a 83F83D20 		strb	r2, [r3, #61]
1042:Drivers/STM32F1xx_HAL_Driver/Src/stm32f1xx_hal_tim.c **** 
1043:Drivers/STM32F1xx_HAL_Driver/Src/stm32f1xx_hal_tim.c ****   /* Release Lock */
1044:Drivers/STM32F1xx_HAL_Driver/Src/stm32f1xx_hal_tim.c ****   __HAL_UNLOCK(htim);
 2088              		.loc 1 1044 0
 2089 004e 7B68     		ldr	r3, [r7, #4]
 2090 0050 0022     		movs	r2, #0
 2091 0052 83F83C20 		strb	r2, [r3, #60]
1045:Drivers/STM32F1xx_HAL_Driver/Src/stm32f1xx_hal_tim.c **** 
1046:Drivers/STM32F1xx_HAL_Driver/Src/stm32f1xx_hal_tim.c ****   return HAL_OK;
 2092              		.loc 1 1046 0
 2093 0056 0023     		movs	r3, #0
1047:Drivers/STM32F1xx_HAL_Driver/Src/stm32f1xx_hal_tim.c **** }
 2094              		.loc 1 1047 0
 2095 0058 1846     		mov	r0, r3
 2096 005a 0837     		adds	r7, r7, #8
 2097              	.LCFI117:
 2098              		.cfi_def_cfa_offset 8
 2099 005c BD46     		mov	sp, r7
 2100              	.LCFI118:
 2101              		.cfi_def_cfa_register 13
 2102              		@ sp needed
 2103 005e 80BD     		pop	{r7, pc}
 2104              		.cfi_endproc
 2105              	.LFE87:
 2107              		.section	.text.HAL_TIM_PWM_MspInit,"ax",%progbits
 2108              		.align	1
 2109              		.weak	HAL_TIM_PWM_MspInit
 2110              		.syntax unified
 2111              		.thumb
 2112              		.thumb_func
 2113              		.fpu softvfp
 2115              	HAL_TIM_PWM_MspInit:
 2116              	.LFB88:
1048:Drivers/STM32F1xx_HAL_Driver/Src/stm32f1xx_hal_tim.c **** 
1049:Drivers/STM32F1xx_HAL_Driver/Src/stm32f1xx_hal_tim.c **** /**
1050:Drivers/STM32F1xx_HAL_Driver/Src/stm32f1xx_hal_tim.c ****   * @brief  Initializes the TIM PWM MSP.
1051:Drivers/STM32F1xx_HAL_Driver/Src/stm32f1xx_hal_tim.c ****   * @param  htim : TIM handle
1052:Drivers/STM32F1xx_HAL_Driver/Src/stm32f1xx_hal_tim.c ****   * @retval None
1053:Drivers/STM32F1xx_HAL_Driver/Src/stm32f1xx_hal_tim.c ****   */
1054:Drivers/STM32F1xx_HAL_Driver/Src/stm32f1xx_hal_tim.c **** __weak void HAL_TIM_PWM_MspInit(TIM_HandleTypeDef *htim)
1055:Drivers/STM32F1xx_HAL_Driver/Src/stm32f1xx_hal_tim.c **** {
 2117              		.loc 1 1055 0
 2118              		.cfi_startproc
 2119              		@ args = 0, pretend = 0, frame = 8
 2120              		@ frame_needed = 1, uses_anonymous_args = 0
 2121              		@ link register save eliminated.
 2122 0000 80B4     		push	{r7}
 2123              	.LCFI119:
 2124              		.cfi_def_cfa_offset 4
 2125              		.cfi_offset 7, -4
ARM GAS  /tmp/cc5HGhWi.s 			page 56


 2126 0002 83B0     		sub	sp, sp, #12
 2127              	.LCFI120:
 2128              		.cfi_def_cfa_offset 16
 2129 0004 00AF     		add	r7, sp, #0
 2130              	.LCFI121:
 2131              		.cfi_def_cfa_register 7
 2132 0006 7860     		str	r0, [r7, #4]
1056:Drivers/STM32F1xx_HAL_Driver/Src/stm32f1xx_hal_tim.c ****   /* Prevent unused argument(s) compilation warning */
1057:Drivers/STM32F1xx_HAL_Driver/Src/stm32f1xx_hal_tim.c ****   UNUSED(htim);
1058:Drivers/STM32F1xx_HAL_Driver/Src/stm32f1xx_hal_tim.c ****   /* NOTE : This function Should not be modified, when the callback is needed,
1059:Drivers/STM32F1xx_HAL_Driver/Src/stm32f1xx_hal_tim.c ****             the HAL_TIM_PWM_MspInit could be implemented in the user file
1060:Drivers/STM32F1xx_HAL_Driver/Src/stm32f1xx_hal_tim.c ****    */
1061:Drivers/STM32F1xx_HAL_Driver/Src/stm32f1xx_hal_tim.c **** }
 2133              		.loc 1 1061 0
 2134 0008 00BF     		nop
 2135 000a 0C37     		adds	r7, r7, #12
 2136              	.LCFI122:
 2137              		.cfi_def_cfa_offset 4
 2138 000c BD46     		mov	sp, r7
 2139              	.LCFI123:
 2140              		.cfi_def_cfa_register 13
 2141              		@ sp needed
 2142 000e 80BC     		pop	{r7}
 2143              	.LCFI124:
 2144              		.cfi_restore 7
 2145              		.cfi_def_cfa_offset 0
 2146 0010 7047     		bx	lr
 2147              		.cfi_endproc
 2148              	.LFE88:
 2150              		.section	.text.HAL_TIM_PWM_MspDeInit,"ax",%progbits
 2151              		.align	1
 2152              		.weak	HAL_TIM_PWM_MspDeInit
 2153              		.syntax unified
 2154              		.thumb
 2155              		.thumb_func
 2156              		.fpu softvfp
 2158              	HAL_TIM_PWM_MspDeInit:
 2159              	.LFB89:
1062:Drivers/STM32F1xx_HAL_Driver/Src/stm32f1xx_hal_tim.c **** 
1063:Drivers/STM32F1xx_HAL_Driver/Src/stm32f1xx_hal_tim.c **** /**
1064:Drivers/STM32F1xx_HAL_Driver/Src/stm32f1xx_hal_tim.c ****   * @brief  DeInitializes TIM PWM MSP.
1065:Drivers/STM32F1xx_HAL_Driver/Src/stm32f1xx_hal_tim.c ****   * @param  htim : TIM handle
1066:Drivers/STM32F1xx_HAL_Driver/Src/stm32f1xx_hal_tim.c ****   * @retval None
1067:Drivers/STM32F1xx_HAL_Driver/Src/stm32f1xx_hal_tim.c ****   */
1068:Drivers/STM32F1xx_HAL_Driver/Src/stm32f1xx_hal_tim.c **** __weak void HAL_TIM_PWM_MspDeInit(TIM_HandleTypeDef *htim)
1069:Drivers/STM32F1xx_HAL_Driver/Src/stm32f1xx_hal_tim.c **** {
 2160              		.loc 1 1069 0
 2161              		.cfi_startproc
 2162              		@ args = 0, pretend = 0, frame = 8
 2163              		@ frame_needed = 1, uses_anonymous_args = 0
 2164              		@ link register save eliminated.
 2165 0000 80B4     		push	{r7}
 2166              	.LCFI125:
 2167              		.cfi_def_cfa_offset 4
 2168              		.cfi_offset 7, -4
 2169 0002 83B0     		sub	sp, sp, #12
 2170              	.LCFI126:
ARM GAS  /tmp/cc5HGhWi.s 			page 57


 2171              		.cfi_def_cfa_offset 16
 2172 0004 00AF     		add	r7, sp, #0
 2173              	.LCFI127:
 2174              		.cfi_def_cfa_register 7
 2175 0006 7860     		str	r0, [r7, #4]
1070:Drivers/STM32F1xx_HAL_Driver/Src/stm32f1xx_hal_tim.c ****   /* Prevent unused argument(s) compilation warning */
1071:Drivers/STM32F1xx_HAL_Driver/Src/stm32f1xx_hal_tim.c ****   UNUSED(htim);
1072:Drivers/STM32F1xx_HAL_Driver/Src/stm32f1xx_hal_tim.c ****   /* NOTE : This function Should not be modified, when the callback is needed,
1073:Drivers/STM32F1xx_HAL_Driver/Src/stm32f1xx_hal_tim.c ****             the HAL_TIM_PWM_MspDeInit could be implemented in the user file
1074:Drivers/STM32F1xx_HAL_Driver/Src/stm32f1xx_hal_tim.c ****    */
1075:Drivers/STM32F1xx_HAL_Driver/Src/stm32f1xx_hal_tim.c **** }
 2176              		.loc 1 1075 0
 2177 0008 00BF     		nop
 2178 000a 0C37     		adds	r7, r7, #12
 2179              	.LCFI128:
 2180              		.cfi_def_cfa_offset 4
 2181 000c BD46     		mov	sp, r7
 2182              	.LCFI129:
 2183              		.cfi_def_cfa_register 13
 2184              		@ sp needed
 2185 000e 80BC     		pop	{r7}
 2186              	.LCFI130:
 2187              		.cfi_restore 7
 2188              		.cfi_def_cfa_offset 0
 2189 0010 7047     		bx	lr
 2190              		.cfi_endproc
 2191              	.LFE89:
 2193              		.section	.text.HAL_TIM_PWM_Start,"ax",%progbits
 2194              		.align	1
 2195              		.global	HAL_TIM_PWM_Start
 2196              		.syntax unified
 2197              		.thumb
 2198              		.thumb_func
 2199              		.fpu softvfp
 2201              	HAL_TIM_PWM_Start:
 2202              	.LFB90:
1076:Drivers/STM32F1xx_HAL_Driver/Src/stm32f1xx_hal_tim.c **** 
1077:Drivers/STM32F1xx_HAL_Driver/Src/stm32f1xx_hal_tim.c **** /**
1078:Drivers/STM32F1xx_HAL_Driver/Src/stm32f1xx_hal_tim.c ****   * @brief  Starts the PWM signal generation.
1079:Drivers/STM32F1xx_HAL_Driver/Src/stm32f1xx_hal_tim.c ****   * @param  htim : TIM handle
1080:Drivers/STM32F1xx_HAL_Driver/Src/stm32f1xx_hal_tim.c ****   * @param  Channel : TIM Channels to be enabled
1081:Drivers/STM32F1xx_HAL_Driver/Src/stm32f1xx_hal_tim.c ****   *          This parameter can be one of the following values:
1082:Drivers/STM32F1xx_HAL_Driver/Src/stm32f1xx_hal_tim.c ****   *            @arg TIM_CHANNEL_1: TIM Channel 1 selected
1083:Drivers/STM32F1xx_HAL_Driver/Src/stm32f1xx_hal_tim.c ****   *            @arg TIM_CHANNEL_2: TIM Channel 2 selected
1084:Drivers/STM32F1xx_HAL_Driver/Src/stm32f1xx_hal_tim.c ****   *            @arg TIM_CHANNEL_3: TIM Channel 3 selected
1085:Drivers/STM32F1xx_HAL_Driver/Src/stm32f1xx_hal_tim.c ****   *            @arg TIM_CHANNEL_4: TIM Channel 4 selected
1086:Drivers/STM32F1xx_HAL_Driver/Src/stm32f1xx_hal_tim.c ****   * @retval HAL status
1087:Drivers/STM32F1xx_HAL_Driver/Src/stm32f1xx_hal_tim.c **** */
1088:Drivers/STM32F1xx_HAL_Driver/Src/stm32f1xx_hal_tim.c **** HAL_StatusTypeDef HAL_TIM_PWM_Start(TIM_HandleTypeDef *htim, uint32_t Channel)
1089:Drivers/STM32F1xx_HAL_Driver/Src/stm32f1xx_hal_tim.c **** {
 2203              		.loc 1 1089 0
 2204              		.cfi_startproc
 2205              		@ args = 0, pretend = 0, frame = 8
 2206              		@ frame_needed = 1, uses_anonymous_args = 0
 2207 0000 80B5     		push	{r7, lr}
 2208              	.LCFI131:
 2209              		.cfi_def_cfa_offset 8
ARM GAS  /tmp/cc5HGhWi.s 			page 58


 2210              		.cfi_offset 7, -8
 2211              		.cfi_offset 14, -4
 2212 0002 82B0     		sub	sp, sp, #8
 2213              	.LCFI132:
 2214              		.cfi_def_cfa_offset 16
 2215 0004 00AF     		add	r7, sp, #0
 2216              	.LCFI133:
 2217              		.cfi_def_cfa_register 7
 2218 0006 7860     		str	r0, [r7, #4]
 2219 0008 3960     		str	r1, [r7]
1090:Drivers/STM32F1xx_HAL_Driver/Src/stm32f1xx_hal_tim.c ****   /* Check the parameters */
1091:Drivers/STM32F1xx_HAL_Driver/Src/stm32f1xx_hal_tim.c ****   assert_param(IS_TIM_CCX_INSTANCE(htim->Instance, Channel));
1092:Drivers/STM32F1xx_HAL_Driver/Src/stm32f1xx_hal_tim.c **** 
1093:Drivers/STM32F1xx_HAL_Driver/Src/stm32f1xx_hal_tim.c ****   /* Enable the Capture compare channel */
1094:Drivers/STM32F1xx_HAL_Driver/Src/stm32f1xx_hal_tim.c ****   TIM_CCxChannelCmd(htim->Instance, Channel, TIM_CCx_ENABLE);
 2220              		.loc 1 1094 0
 2221 000a 7B68     		ldr	r3, [r7, #4]
 2222 000c 1B68     		ldr	r3, [r3]
 2223 000e 0122     		movs	r2, #1
 2224 0010 3968     		ldr	r1, [r7]
 2225 0012 1846     		mov	r0, r3
 2226 0014 FFF7FEFF 		bl	TIM_CCxChannelCmd
1095:Drivers/STM32F1xx_HAL_Driver/Src/stm32f1xx_hal_tim.c **** 
1096:Drivers/STM32F1xx_HAL_Driver/Src/stm32f1xx_hal_tim.c ****   if(IS_TIM_BREAK_INSTANCE(htim->Instance) != RESET)
 2227              		.loc 1 1096 0
 2228 0018 7B68     		ldr	r3, [r7, #4]
 2229 001a 1B68     		ldr	r3, [r3]
 2230 001c 0B4A     		ldr	r2, .L119
 2231 001e 9342     		cmp	r3, r2
 2232 0020 07D1     		bne	.L117
1097:Drivers/STM32F1xx_HAL_Driver/Src/stm32f1xx_hal_tim.c ****   {
1098:Drivers/STM32F1xx_HAL_Driver/Src/stm32f1xx_hal_tim.c ****     /* Enable the main output */
1099:Drivers/STM32F1xx_HAL_Driver/Src/stm32f1xx_hal_tim.c ****     __HAL_TIM_MOE_ENABLE(htim);
 2233              		.loc 1 1099 0
 2234 0022 7B68     		ldr	r3, [r7, #4]
 2235 0024 1B68     		ldr	r3, [r3]
 2236 0026 5A6C     		ldr	r2, [r3, #68]
 2237 0028 7B68     		ldr	r3, [r7, #4]
 2238 002a 1B68     		ldr	r3, [r3]
 2239 002c 42F40042 		orr	r2, r2, #32768
 2240 0030 5A64     		str	r2, [r3, #68]
 2241              	.L117:
1100:Drivers/STM32F1xx_HAL_Driver/Src/stm32f1xx_hal_tim.c ****   }
1101:Drivers/STM32F1xx_HAL_Driver/Src/stm32f1xx_hal_tim.c **** 
1102:Drivers/STM32F1xx_HAL_Driver/Src/stm32f1xx_hal_tim.c ****   /* Enable the Peripheral */
1103:Drivers/STM32F1xx_HAL_Driver/Src/stm32f1xx_hal_tim.c ****   __HAL_TIM_ENABLE(htim);
 2242              		.loc 1 1103 0
 2243 0032 7B68     		ldr	r3, [r7, #4]
 2244 0034 1B68     		ldr	r3, [r3]
 2245 0036 1A68     		ldr	r2, [r3]
 2246 0038 7B68     		ldr	r3, [r7, #4]
 2247 003a 1B68     		ldr	r3, [r3]
 2248 003c 42F00102 		orr	r2, r2, #1
 2249 0040 1A60     		str	r2, [r3]
1104:Drivers/STM32F1xx_HAL_Driver/Src/stm32f1xx_hal_tim.c **** 
1105:Drivers/STM32F1xx_HAL_Driver/Src/stm32f1xx_hal_tim.c ****   /* Return function status */
1106:Drivers/STM32F1xx_HAL_Driver/Src/stm32f1xx_hal_tim.c ****   return HAL_OK;
ARM GAS  /tmp/cc5HGhWi.s 			page 59


 2250              		.loc 1 1106 0
 2251 0042 0023     		movs	r3, #0
1107:Drivers/STM32F1xx_HAL_Driver/Src/stm32f1xx_hal_tim.c **** }
 2252              		.loc 1 1107 0
 2253 0044 1846     		mov	r0, r3
 2254 0046 0837     		adds	r7, r7, #8
 2255              	.LCFI134:
 2256              		.cfi_def_cfa_offset 8
 2257 0048 BD46     		mov	sp, r7
 2258              	.LCFI135:
 2259              		.cfi_def_cfa_register 13
 2260              		@ sp needed
 2261 004a 80BD     		pop	{r7, pc}
 2262              	.L120:
 2263              		.align	2
 2264              	.L119:
 2265 004c 002C0140 		.word	1073818624
 2266              		.cfi_endproc
 2267              	.LFE90:
 2269              		.section	.text.HAL_TIM_PWM_Stop,"ax",%progbits
 2270              		.align	1
 2271              		.global	HAL_TIM_PWM_Stop
 2272              		.syntax unified
 2273              		.thumb
 2274              		.thumb_func
 2275              		.fpu softvfp
 2277              	HAL_TIM_PWM_Stop:
 2278              	.LFB91:
1108:Drivers/STM32F1xx_HAL_Driver/Src/stm32f1xx_hal_tim.c **** 
1109:Drivers/STM32F1xx_HAL_Driver/Src/stm32f1xx_hal_tim.c **** /**
1110:Drivers/STM32F1xx_HAL_Driver/Src/stm32f1xx_hal_tim.c ****   * @brief  Stops the PWM signal generation.
1111:Drivers/STM32F1xx_HAL_Driver/Src/stm32f1xx_hal_tim.c ****   * @param  htim : TIM handle
1112:Drivers/STM32F1xx_HAL_Driver/Src/stm32f1xx_hal_tim.c ****   * @param  Channel : TIM Channels to be disabled
1113:Drivers/STM32F1xx_HAL_Driver/Src/stm32f1xx_hal_tim.c ****   *          This parameter can be one of the following values:
1114:Drivers/STM32F1xx_HAL_Driver/Src/stm32f1xx_hal_tim.c ****   *            @arg TIM_CHANNEL_1: TIM Channel 1 selected
1115:Drivers/STM32F1xx_HAL_Driver/Src/stm32f1xx_hal_tim.c ****   *            @arg TIM_CHANNEL_2: TIM Channel 2 selected
1116:Drivers/STM32F1xx_HAL_Driver/Src/stm32f1xx_hal_tim.c ****   *            @arg TIM_CHANNEL_3: TIM Channel 3 selected
1117:Drivers/STM32F1xx_HAL_Driver/Src/stm32f1xx_hal_tim.c ****   *            @arg TIM_CHANNEL_4: TIM Channel 4 selected
1118:Drivers/STM32F1xx_HAL_Driver/Src/stm32f1xx_hal_tim.c ****   * @retval HAL status
1119:Drivers/STM32F1xx_HAL_Driver/Src/stm32f1xx_hal_tim.c **** */
1120:Drivers/STM32F1xx_HAL_Driver/Src/stm32f1xx_hal_tim.c **** HAL_StatusTypeDef HAL_TIM_PWM_Stop(TIM_HandleTypeDef *htim, uint32_t Channel)
1121:Drivers/STM32F1xx_HAL_Driver/Src/stm32f1xx_hal_tim.c **** {
 2279              		.loc 1 1121 0
 2280              		.cfi_startproc
 2281              		@ args = 0, pretend = 0, frame = 8
 2282              		@ frame_needed = 1, uses_anonymous_args = 0
 2283 0000 80B5     		push	{r7, lr}
 2284              	.LCFI136:
 2285              		.cfi_def_cfa_offset 8
 2286              		.cfi_offset 7, -8
 2287              		.cfi_offset 14, -4
 2288 0002 82B0     		sub	sp, sp, #8
 2289              	.LCFI137:
 2290              		.cfi_def_cfa_offset 16
 2291 0004 00AF     		add	r7, sp, #0
 2292              	.LCFI138:
 2293              		.cfi_def_cfa_register 7
ARM GAS  /tmp/cc5HGhWi.s 			page 60


 2294 0006 7860     		str	r0, [r7, #4]
 2295 0008 3960     		str	r1, [r7]
1122:Drivers/STM32F1xx_HAL_Driver/Src/stm32f1xx_hal_tim.c ****   /* Check the parameters */
1123:Drivers/STM32F1xx_HAL_Driver/Src/stm32f1xx_hal_tim.c ****   assert_param(IS_TIM_CCX_INSTANCE(htim->Instance, Channel));
1124:Drivers/STM32F1xx_HAL_Driver/Src/stm32f1xx_hal_tim.c **** 
1125:Drivers/STM32F1xx_HAL_Driver/Src/stm32f1xx_hal_tim.c ****   /* Disable the Capture compare channel */
1126:Drivers/STM32F1xx_HAL_Driver/Src/stm32f1xx_hal_tim.c ****   TIM_CCxChannelCmd(htim->Instance, Channel, TIM_CCx_DISABLE);
 2296              		.loc 1 1126 0
 2297 000a 7B68     		ldr	r3, [r7, #4]
 2298 000c 1B68     		ldr	r3, [r3]
 2299 000e 0022     		movs	r2, #0
 2300 0010 3968     		ldr	r1, [r7]
 2301 0012 1846     		mov	r0, r3
 2302 0014 FFF7FEFF 		bl	TIM_CCxChannelCmd
1127:Drivers/STM32F1xx_HAL_Driver/Src/stm32f1xx_hal_tim.c **** 
1128:Drivers/STM32F1xx_HAL_Driver/Src/stm32f1xx_hal_tim.c ****   if(IS_TIM_BREAK_INSTANCE(htim->Instance) != RESET)
 2303              		.loc 1 1128 0
 2304 0018 7B68     		ldr	r3, [r7, #4]
 2305 001a 1B68     		ldr	r3, [r3]
 2306 001c 1D4A     		ldr	r2, .L125
 2307 001e 9342     		cmp	r3, r2
 2308 0020 17D1     		bne	.L122
1129:Drivers/STM32F1xx_HAL_Driver/Src/stm32f1xx_hal_tim.c ****   {
1130:Drivers/STM32F1xx_HAL_Driver/Src/stm32f1xx_hal_tim.c ****     /* Disable the Main Ouput */
1131:Drivers/STM32F1xx_HAL_Driver/Src/stm32f1xx_hal_tim.c ****     __HAL_TIM_MOE_DISABLE(htim);
 2309              		.loc 1 1131 0
 2310 0022 7B68     		ldr	r3, [r7, #4]
 2311 0024 1B68     		ldr	r3, [r3]
 2312 0026 1A6A     		ldr	r2, [r3, #32]
 2313 0028 41F21113 		movw	r3, #4369
 2314 002c 1340     		ands	r3, r3, r2
 2315 002e 002B     		cmp	r3, #0
 2316 0030 0FD1     		bne	.L122
 2317              		.loc 1 1131 0 is_stmt 0 discriminator 1
 2318 0032 7B68     		ldr	r3, [r7, #4]
 2319 0034 1B68     		ldr	r3, [r3]
 2320 0036 1A6A     		ldr	r2, [r3, #32]
 2321 0038 40F24443 		movw	r3, #1092
 2322 003c 1340     		ands	r3, r3, r2
 2323 003e 002B     		cmp	r3, #0
 2324 0040 07D1     		bne	.L122
 2325              		.loc 1 1131 0 discriminator 2
 2326 0042 7B68     		ldr	r3, [r7, #4]
 2327 0044 1B68     		ldr	r3, [r3]
 2328 0046 5A6C     		ldr	r2, [r3, #68]
 2329 0048 7B68     		ldr	r3, [r7, #4]
 2330 004a 1B68     		ldr	r3, [r3]
 2331 004c 22F40042 		bic	r2, r2, #32768
 2332 0050 5A64     		str	r2, [r3, #68]
 2333              	.L122:
1132:Drivers/STM32F1xx_HAL_Driver/Src/stm32f1xx_hal_tim.c ****   }
1133:Drivers/STM32F1xx_HAL_Driver/Src/stm32f1xx_hal_tim.c **** 
1134:Drivers/STM32F1xx_HAL_Driver/Src/stm32f1xx_hal_tim.c ****   /* Disable the Peripheral */
1135:Drivers/STM32F1xx_HAL_Driver/Src/stm32f1xx_hal_tim.c ****   __HAL_TIM_DISABLE(htim);
 2334              		.loc 1 1135 0 is_stmt 1
 2335 0052 7B68     		ldr	r3, [r7, #4]
 2336 0054 1B68     		ldr	r3, [r3]
ARM GAS  /tmp/cc5HGhWi.s 			page 61


 2337 0056 1A6A     		ldr	r2, [r3, #32]
 2338 0058 41F21113 		movw	r3, #4369
 2339 005c 1340     		ands	r3, r3, r2
 2340 005e 002B     		cmp	r3, #0
 2341 0060 0FD1     		bne	.L123
 2342              		.loc 1 1135 0 is_stmt 0 discriminator 1
 2343 0062 7B68     		ldr	r3, [r7, #4]
 2344 0064 1B68     		ldr	r3, [r3]
 2345 0066 1A6A     		ldr	r2, [r3, #32]
 2346 0068 40F24443 		movw	r3, #1092
 2347 006c 1340     		ands	r3, r3, r2
 2348 006e 002B     		cmp	r3, #0
 2349 0070 07D1     		bne	.L123
 2350              		.loc 1 1135 0 discriminator 2
 2351 0072 7B68     		ldr	r3, [r7, #4]
 2352 0074 1B68     		ldr	r3, [r3]
 2353 0076 1A68     		ldr	r2, [r3]
 2354 0078 7B68     		ldr	r3, [r7, #4]
 2355 007a 1B68     		ldr	r3, [r3]
 2356 007c 22F00102 		bic	r2, r2, #1
 2357 0080 1A60     		str	r2, [r3]
 2358              	.L123:
1136:Drivers/STM32F1xx_HAL_Driver/Src/stm32f1xx_hal_tim.c **** 
1137:Drivers/STM32F1xx_HAL_Driver/Src/stm32f1xx_hal_tim.c ****   /* Change the htim state */
1138:Drivers/STM32F1xx_HAL_Driver/Src/stm32f1xx_hal_tim.c ****   htim->State = HAL_TIM_STATE_READY;
 2359              		.loc 1 1138 0 is_stmt 1
 2360 0082 7B68     		ldr	r3, [r7, #4]
 2361 0084 0122     		movs	r2, #1
 2362 0086 83F83D20 		strb	r2, [r3, #61]
1139:Drivers/STM32F1xx_HAL_Driver/Src/stm32f1xx_hal_tim.c **** 
1140:Drivers/STM32F1xx_HAL_Driver/Src/stm32f1xx_hal_tim.c ****   /* Return function status */
1141:Drivers/STM32F1xx_HAL_Driver/Src/stm32f1xx_hal_tim.c ****   return HAL_OK;
 2363              		.loc 1 1141 0
 2364 008a 0023     		movs	r3, #0
1142:Drivers/STM32F1xx_HAL_Driver/Src/stm32f1xx_hal_tim.c **** }
 2365              		.loc 1 1142 0
 2366 008c 1846     		mov	r0, r3
 2367 008e 0837     		adds	r7, r7, #8
 2368              	.LCFI139:
 2369              		.cfi_def_cfa_offset 8
 2370 0090 BD46     		mov	sp, r7
 2371              	.LCFI140:
 2372              		.cfi_def_cfa_register 13
 2373              		@ sp needed
 2374 0092 80BD     		pop	{r7, pc}
 2375              	.L126:
 2376              		.align	2
 2377              	.L125:
 2378 0094 002C0140 		.word	1073818624
 2379              		.cfi_endproc
 2380              	.LFE91:
 2382              		.section	.text.HAL_TIM_PWM_Start_IT,"ax",%progbits
 2383              		.align	1
 2384              		.global	HAL_TIM_PWM_Start_IT
 2385              		.syntax unified
 2386              		.thumb
 2387              		.thumb_func
ARM GAS  /tmp/cc5HGhWi.s 			page 62


 2388              		.fpu softvfp
 2390              	HAL_TIM_PWM_Start_IT:
 2391              	.LFB92:
1143:Drivers/STM32F1xx_HAL_Driver/Src/stm32f1xx_hal_tim.c **** 
1144:Drivers/STM32F1xx_HAL_Driver/Src/stm32f1xx_hal_tim.c **** /**
1145:Drivers/STM32F1xx_HAL_Driver/Src/stm32f1xx_hal_tim.c ****   * @brief  Starts the PWM signal generation in interrupt mode.
1146:Drivers/STM32F1xx_HAL_Driver/Src/stm32f1xx_hal_tim.c ****   * @param  htim : TIM handle
1147:Drivers/STM32F1xx_HAL_Driver/Src/stm32f1xx_hal_tim.c ****   * @param  Channel : TIM Channel to be enabled
1148:Drivers/STM32F1xx_HAL_Driver/Src/stm32f1xx_hal_tim.c ****   *          This parameter can be one of the following values:
1149:Drivers/STM32F1xx_HAL_Driver/Src/stm32f1xx_hal_tim.c ****   *            @arg TIM_CHANNEL_1: TIM Channel 1 selected
1150:Drivers/STM32F1xx_HAL_Driver/Src/stm32f1xx_hal_tim.c ****   *            @arg TIM_CHANNEL_2: TIM Channel 2 selected
1151:Drivers/STM32F1xx_HAL_Driver/Src/stm32f1xx_hal_tim.c ****   *            @arg TIM_CHANNEL_3: TIM Channel 3 selected
1152:Drivers/STM32F1xx_HAL_Driver/Src/stm32f1xx_hal_tim.c ****   *            @arg TIM_CHANNEL_4: TIM Channel 4 selected
1153:Drivers/STM32F1xx_HAL_Driver/Src/stm32f1xx_hal_tim.c ****   * @retval HAL status
1154:Drivers/STM32F1xx_HAL_Driver/Src/stm32f1xx_hal_tim.c **** */
1155:Drivers/STM32F1xx_HAL_Driver/Src/stm32f1xx_hal_tim.c **** HAL_StatusTypeDef HAL_TIM_PWM_Start_IT(TIM_HandleTypeDef *htim, uint32_t Channel)
1156:Drivers/STM32F1xx_HAL_Driver/Src/stm32f1xx_hal_tim.c **** {
 2392              		.loc 1 1156 0
 2393              		.cfi_startproc
 2394              		@ args = 0, pretend = 0, frame = 8
 2395              		@ frame_needed = 1, uses_anonymous_args = 0
 2396 0000 80B5     		push	{r7, lr}
 2397              	.LCFI141:
 2398              		.cfi_def_cfa_offset 8
 2399              		.cfi_offset 7, -8
 2400              		.cfi_offset 14, -4
 2401 0002 82B0     		sub	sp, sp, #8
 2402              	.LCFI142:
 2403              		.cfi_def_cfa_offset 16
 2404 0004 00AF     		add	r7, sp, #0
 2405              	.LCFI143:
 2406              		.cfi_def_cfa_register 7
 2407 0006 7860     		str	r0, [r7, #4]
 2408 0008 3960     		str	r1, [r7]
1157:Drivers/STM32F1xx_HAL_Driver/Src/stm32f1xx_hal_tim.c ****   /* Check the parameters */
1158:Drivers/STM32F1xx_HAL_Driver/Src/stm32f1xx_hal_tim.c ****   assert_param(IS_TIM_CCX_INSTANCE(htim->Instance, Channel));
1159:Drivers/STM32F1xx_HAL_Driver/Src/stm32f1xx_hal_tim.c **** 
1160:Drivers/STM32F1xx_HAL_Driver/Src/stm32f1xx_hal_tim.c ****   switch (Channel)
 2409              		.loc 1 1160 0
 2410 000a 3B68     		ldr	r3, [r7]
 2411 000c 0C2B     		cmp	r3, #12
 2412 000e 41D8     		bhi	.L137
 2413 0010 01A2     		adr	r2, .L130
 2414 0012 52F823F0 		ldr	pc, [r2, r3, lsl #2]
 2415 0016 00BF     		.p2align 2
 2416              	.L130:
 2417 0018 4D000000 		.word	.L129+1
 2418 001c 95000000 		.word	.L137+1
 2419 0020 95000000 		.word	.L137+1
 2420 0024 95000000 		.word	.L137+1
 2421 0028 5F000000 		.word	.L131+1
 2422 002c 95000000 		.word	.L137+1
 2423 0030 95000000 		.word	.L137+1
 2424 0034 95000000 		.word	.L137+1
 2425 0038 71000000 		.word	.L132+1
 2426 003c 95000000 		.word	.L137+1
 2427 0040 95000000 		.word	.L137+1
ARM GAS  /tmp/cc5HGhWi.s 			page 63


 2428 0044 95000000 		.word	.L137+1
 2429 0048 83000000 		.word	.L133+1
 2430              		.p2align 1
 2431              	.L129:
1161:Drivers/STM32F1xx_HAL_Driver/Src/stm32f1xx_hal_tim.c ****   {
1162:Drivers/STM32F1xx_HAL_Driver/Src/stm32f1xx_hal_tim.c ****     case TIM_CHANNEL_1:
1163:Drivers/STM32F1xx_HAL_Driver/Src/stm32f1xx_hal_tim.c ****     {
1164:Drivers/STM32F1xx_HAL_Driver/Src/stm32f1xx_hal_tim.c ****       /* Enable the TIM Capture/Compare 1 interrupt */
1165:Drivers/STM32F1xx_HAL_Driver/Src/stm32f1xx_hal_tim.c ****       __HAL_TIM_ENABLE_IT(htim, TIM_IT_CC1);
 2432              		.loc 1 1165 0
 2433 004c 7B68     		ldr	r3, [r7, #4]
 2434 004e 1B68     		ldr	r3, [r3]
 2435 0050 DA68     		ldr	r2, [r3, #12]
 2436 0052 7B68     		ldr	r3, [r7, #4]
 2437 0054 1B68     		ldr	r3, [r3]
 2438 0056 42F00202 		orr	r2, r2, #2
 2439 005a DA60     		str	r2, [r3, #12]
1166:Drivers/STM32F1xx_HAL_Driver/Src/stm32f1xx_hal_tim.c ****     }
1167:Drivers/STM32F1xx_HAL_Driver/Src/stm32f1xx_hal_tim.c ****     break;
 2440              		.loc 1 1167 0
 2441 005c 1BE0     		b	.L134
 2442              	.L131:
1168:Drivers/STM32F1xx_HAL_Driver/Src/stm32f1xx_hal_tim.c **** 
1169:Drivers/STM32F1xx_HAL_Driver/Src/stm32f1xx_hal_tim.c ****     case TIM_CHANNEL_2:
1170:Drivers/STM32F1xx_HAL_Driver/Src/stm32f1xx_hal_tim.c ****     {
1171:Drivers/STM32F1xx_HAL_Driver/Src/stm32f1xx_hal_tim.c ****       /* Enable the TIM Capture/Compare 2 interrupt */
1172:Drivers/STM32F1xx_HAL_Driver/Src/stm32f1xx_hal_tim.c ****       __HAL_TIM_ENABLE_IT(htim, TIM_IT_CC2);
 2443              		.loc 1 1172 0
 2444 005e 7B68     		ldr	r3, [r7, #4]
 2445 0060 1B68     		ldr	r3, [r3]
 2446 0062 DA68     		ldr	r2, [r3, #12]
 2447 0064 7B68     		ldr	r3, [r7, #4]
 2448 0066 1B68     		ldr	r3, [r3]
 2449 0068 42F00402 		orr	r2, r2, #4
 2450 006c DA60     		str	r2, [r3, #12]
1173:Drivers/STM32F1xx_HAL_Driver/Src/stm32f1xx_hal_tim.c ****     }
1174:Drivers/STM32F1xx_HAL_Driver/Src/stm32f1xx_hal_tim.c ****     break;
 2451              		.loc 1 1174 0
 2452 006e 12E0     		b	.L134
 2453              	.L132:
1175:Drivers/STM32F1xx_HAL_Driver/Src/stm32f1xx_hal_tim.c **** 
1176:Drivers/STM32F1xx_HAL_Driver/Src/stm32f1xx_hal_tim.c ****     case TIM_CHANNEL_3:
1177:Drivers/STM32F1xx_HAL_Driver/Src/stm32f1xx_hal_tim.c ****     {
1178:Drivers/STM32F1xx_HAL_Driver/Src/stm32f1xx_hal_tim.c ****       /* Enable the TIM Capture/Compare 3 interrupt */
1179:Drivers/STM32F1xx_HAL_Driver/Src/stm32f1xx_hal_tim.c ****       __HAL_TIM_ENABLE_IT(htim, TIM_IT_CC3);
 2454              		.loc 1 1179 0
 2455 0070 7B68     		ldr	r3, [r7, #4]
 2456 0072 1B68     		ldr	r3, [r3]
 2457 0074 DA68     		ldr	r2, [r3, #12]
 2458 0076 7B68     		ldr	r3, [r7, #4]
 2459 0078 1B68     		ldr	r3, [r3]
 2460 007a 42F00802 		orr	r2, r2, #8
 2461 007e DA60     		str	r2, [r3, #12]
1180:Drivers/STM32F1xx_HAL_Driver/Src/stm32f1xx_hal_tim.c ****     }
1181:Drivers/STM32F1xx_HAL_Driver/Src/stm32f1xx_hal_tim.c ****     break;
 2462              		.loc 1 1181 0
 2463 0080 09E0     		b	.L134
ARM GAS  /tmp/cc5HGhWi.s 			page 64


 2464              	.L133:
1182:Drivers/STM32F1xx_HAL_Driver/Src/stm32f1xx_hal_tim.c **** 
1183:Drivers/STM32F1xx_HAL_Driver/Src/stm32f1xx_hal_tim.c ****     case TIM_CHANNEL_4:
1184:Drivers/STM32F1xx_HAL_Driver/Src/stm32f1xx_hal_tim.c ****     {
1185:Drivers/STM32F1xx_HAL_Driver/Src/stm32f1xx_hal_tim.c ****       /* Enable the TIM Capture/Compare 4 interrupt */
1186:Drivers/STM32F1xx_HAL_Driver/Src/stm32f1xx_hal_tim.c ****       __HAL_TIM_ENABLE_IT(htim, TIM_IT_CC4);
 2465              		.loc 1 1186 0
 2466 0082 7B68     		ldr	r3, [r7, #4]
 2467 0084 1B68     		ldr	r3, [r3]
 2468 0086 DA68     		ldr	r2, [r3, #12]
 2469 0088 7B68     		ldr	r3, [r7, #4]
 2470 008a 1B68     		ldr	r3, [r3]
 2471 008c 42F01002 		orr	r2, r2, #16
 2472 0090 DA60     		str	r2, [r3, #12]
1187:Drivers/STM32F1xx_HAL_Driver/Src/stm32f1xx_hal_tim.c ****     }
1188:Drivers/STM32F1xx_HAL_Driver/Src/stm32f1xx_hal_tim.c ****     break;
 2473              		.loc 1 1188 0
 2474 0092 00E0     		b	.L134
 2475              	.L137:
1189:Drivers/STM32F1xx_HAL_Driver/Src/stm32f1xx_hal_tim.c **** 
1190:Drivers/STM32F1xx_HAL_Driver/Src/stm32f1xx_hal_tim.c ****     default:
1191:Drivers/STM32F1xx_HAL_Driver/Src/stm32f1xx_hal_tim.c ****     break;
 2476              		.loc 1 1191 0
 2477 0094 00BF     		nop
 2478              	.L134:
1192:Drivers/STM32F1xx_HAL_Driver/Src/stm32f1xx_hal_tim.c ****   }
1193:Drivers/STM32F1xx_HAL_Driver/Src/stm32f1xx_hal_tim.c **** 
1194:Drivers/STM32F1xx_HAL_Driver/Src/stm32f1xx_hal_tim.c ****   /* Enable the Capture compare channel */
1195:Drivers/STM32F1xx_HAL_Driver/Src/stm32f1xx_hal_tim.c ****   TIM_CCxChannelCmd(htim->Instance, Channel, TIM_CCx_ENABLE);
 2479              		.loc 1 1195 0
 2480 0096 7B68     		ldr	r3, [r7, #4]
 2481 0098 1B68     		ldr	r3, [r3]
 2482 009a 0122     		movs	r2, #1
 2483 009c 3968     		ldr	r1, [r7]
 2484 009e 1846     		mov	r0, r3
 2485 00a0 FFF7FEFF 		bl	TIM_CCxChannelCmd
1196:Drivers/STM32F1xx_HAL_Driver/Src/stm32f1xx_hal_tim.c **** 
1197:Drivers/STM32F1xx_HAL_Driver/Src/stm32f1xx_hal_tim.c ****   if(IS_TIM_BREAK_INSTANCE(htim->Instance) != RESET)
 2486              		.loc 1 1197 0
 2487 00a4 7B68     		ldr	r3, [r7, #4]
 2488 00a6 1B68     		ldr	r3, [r3]
 2489 00a8 0B4A     		ldr	r2, .L138
 2490 00aa 9342     		cmp	r3, r2
 2491 00ac 07D1     		bne	.L135
1198:Drivers/STM32F1xx_HAL_Driver/Src/stm32f1xx_hal_tim.c ****   {
1199:Drivers/STM32F1xx_HAL_Driver/Src/stm32f1xx_hal_tim.c ****     /* Enable the main output */
1200:Drivers/STM32F1xx_HAL_Driver/Src/stm32f1xx_hal_tim.c ****     __HAL_TIM_MOE_ENABLE(htim);
 2492              		.loc 1 1200 0
 2493 00ae 7B68     		ldr	r3, [r7, #4]
 2494 00b0 1B68     		ldr	r3, [r3]
 2495 00b2 5A6C     		ldr	r2, [r3, #68]
 2496 00b4 7B68     		ldr	r3, [r7, #4]
 2497 00b6 1B68     		ldr	r3, [r3]
 2498 00b8 42F40042 		orr	r2, r2, #32768
 2499 00bc 5A64     		str	r2, [r3, #68]
 2500              	.L135:
1201:Drivers/STM32F1xx_HAL_Driver/Src/stm32f1xx_hal_tim.c ****   }
ARM GAS  /tmp/cc5HGhWi.s 			page 65


1202:Drivers/STM32F1xx_HAL_Driver/Src/stm32f1xx_hal_tim.c **** 
1203:Drivers/STM32F1xx_HAL_Driver/Src/stm32f1xx_hal_tim.c ****   /* Enable the Peripheral */
1204:Drivers/STM32F1xx_HAL_Driver/Src/stm32f1xx_hal_tim.c ****   __HAL_TIM_ENABLE(htim);
 2501              		.loc 1 1204 0
 2502 00be 7B68     		ldr	r3, [r7, #4]
 2503 00c0 1B68     		ldr	r3, [r3]
 2504 00c2 1A68     		ldr	r2, [r3]
 2505 00c4 7B68     		ldr	r3, [r7, #4]
 2506 00c6 1B68     		ldr	r3, [r3]
 2507 00c8 42F00102 		orr	r2, r2, #1
 2508 00cc 1A60     		str	r2, [r3]
1205:Drivers/STM32F1xx_HAL_Driver/Src/stm32f1xx_hal_tim.c **** 
1206:Drivers/STM32F1xx_HAL_Driver/Src/stm32f1xx_hal_tim.c ****   /* Return function status */
1207:Drivers/STM32F1xx_HAL_Driver/Src/stm32f1xx_hal_tim.c ****   return HAL_OK;
 2509              		.loc 1 1207 0
 2510 00ce 0023     		movs	r3, #0
1208:Drivers/STM32F1xx_HAL_Driver/Src/stm32f1xx_hal_tim.c **** }
 2511              		.loc 1 1208 0
 2512 00d0 1846     		mov	r0, r3
 2513 00d2 0837     		adds	r7, r7, #8
 2514              	.LCFI144:
 2515              		.cfi_def_cfa_offset 8
 2516 00d4 BD46     		mov	sp, r7
 2517              	.LCFI145:
 2518              		.cfi_def_cfa_register 13
 2519              		@ sp needed
 2520 00d6 80BD     		pop	{r7, pc}
 2521              	.L139:
 2522              		.align	2
 2523              	.L138:
 2524 00d8 002C0140 		.word	1073818624
 2525              		.cfi_endproc
 2526              	.LFE92:
 2528              		.section	.text.HAL_TIM_PWM_Stop_IT,"ax",%progbits
 2529              		.align	1
 2530              		.global	HAL_TIM_PWM_Stop_IT
 2531              		.syntax unified
 2532              		.thumb
 2533              		.thumb_func
 2534              		.fpu softvfp
 2536              	HAL_TIM_PWM_Stop_IT:
 2537              	.LFB93:
1209:Drivers/STM32F1xx_HAL_Driver/Src/stm32f1xx_hal_tim.c **** 
1210:Drivers/STM32F1xx_HAL_Driver/Src/stm32f1xx_hal_tim.c **** /**
1211:Drivers/STM32F1xx_HAL_Driver/Src/stm32f1xx_hal_tim.c ****   * @brief  Stops the PWM signal generation in interrupt mode.
1212:Drivers/STM32F1xx_HAL_Driver/Src/stm32f1xx_hal_tim.c ****   * @param  htim : TIM handle
1213:Drivers/STM32F1xx_HAL_Driver/Src/stm32f1xx_hal_tim.c ****   * @param  Channel : TIM Channels to be disabled
1214:Drivers/STM32F1xx_HAL_Driver/Src/stm32f1xx_hal_tim.c ****   *          This parameter can be one of the following values:
1215:Drivers/STM32F1xx_HAL_Driver/Src/stm32f1xx_hal_tim.c ****   *            @arg TIM_CHANNEL_1: TIM Channel 1 selected
1216:Drivers/STM32F1xx_HAL_Driver/Src/stm32f1xx_hal_tim.c ****   *            @arg TIM_CHANNEL_2: TIM Channel 2 selected
1217:Drivers/STM32F1xx_HAL_Driver/Src/stm32f1xx_hal_tim.c ****   *            @arg TIM_CHANNEL_3: TIM Channel 3 selected
1218:Drivers/STM32F1xx_HAL_Driver/Src/stm32f1xx_hal_tim.c ****   *            @arg TIM_CHANNEL_4: TIM Channel 4 selected
1219:Drivers/STM32F1xx_HAL_Driver/Src/stm32f1xx_hal_tim.c ****   * @retval HAL status
1220:Drivers/STM32F1xx_HAL_Driver/Src/stm32f1xx_hal_tim.c **** */
1221:Drivers/STM32F1xx_HAL_Driver/Src/stm32f1xx_hal_tim.c **** HAL_StatusTypeDef HAL_TIM_PWM_Stop_IT (TIM_HandleTypeDef *htim, uint32_t Channel)
1222:Drivers/STM32F1xx_HAL_Driver/Src/stm32f1xx_hal_tim.c **** {
 2538              		.loc 1 1222 0
ARM GAS  /tmp/cc5HGhWi.s 			page 66


 2539              		.cfi_startproc
 2540              		@ args = 0, pretend = 0, frame = 8
 2541              		@ frame_needed = 1, uses_anonymous_args = 0
 2542 0000 80B5     		push	{r7, lr}
 2543              	.LCFI146:
 2544              		.cfi_def_cfa_offset 8
 2545              		.cfi_offset 7, -8
 2546              		.cfi_offset 14, -4
 2547 0002 82B0     		sub	sp, sp, #8
 2548              	.LCFI147:
 2549              		.cfi_def_cfa_offset 16
 2550 0004 00AF     		add	r7, sp, #0
 2551              	.LCFI148:
 2552              		.cfi_def_cfa_register 7
 2553 0006 7860     		str	r0, [r7, #4]
 2554 0008 3960     		str	r1, [r7]
1223:Drivers/STM32F1xx_HAL_Driver/Src/stm32f1xx_hal_tim.c ****   /* Check the parameters */
1224:Drivers/STM32F1xx_HAL_Driver/Src/stm32f1xx_hal_tim.c ****   assert_param(IS_TIM_CCX_INSTANCE(htim->Instance, Channel));
1225:Drivers/STM32F1xx_HAL_Driver/Src/stm32f1xx_hal_tim.c **** 
1226:Drivers/STM32F1xx_HAL_Driver/Src/stm32f1xx_hal_tim.c ****   switch (Channel)
 2555              		.loc 1 1226 0
 2556 000a 3B68     		ldr	r3, [r7]
 2557 000c 0C2B     		cmp	r3, #12
 2558 000e 41D8     		bhi	.L151
 2559 0010 01A2     		adr	r2, .L143
 2560 0012 52F823F0 		ldr	pc, [r2, r3, lsl #2]
 2561 0016 00BF     		.p2align 2
 2562              	.L143:
 2563 0018 4D000000 		.word	.L142+1
 2564 001c 95000000 		.word	.L151+1
 2565 0020 95000000 		.word	.L151+1
 2566 0024 95000000 		.word	.L151+1
 2567 0028 5F000000 		.word	.L144+1
 2568 002c 95000000 		.word	.L151+1
 2569 0030 95000000 		.word	.L151+1
 2570 0034 95000000 		.word	.L151+1
 2571 0038 71000000 		.word	.L145+1
 2572 003c 95000000 		.word	.L151+1
 2573 0040 95000000 		.word	.L151+1
 2574 0044 95000000 		.word	.L151+1
 2575 0048 83000000 		.word	.L146+1
 2576              		.p2align 1
 2577              	.L142:
1227:Drivers/STM32F1xx_HAL_Driver/Src/stm32f1xx_hal_tim.c ****   {
1228:Drivers/STM32F1xx_HAL_Driver/Src/stm32f1xx_hal_tim.c ****     case TIM_CHANNEL_1:
1229:Drivers/STM32F1xx_HAL_Driver/Src/stm32f1xx_hal_tim.c ****     {
1230:Drivers/STM32F1xx_HAL_Driver/Src/stm32f1xx_hal_tim.c ****       /* Disable the TIM Capture/Compare 1 interrupt */
1231:Drivers/STM32F1xx_HAL_Driver/Src/stm32f1xx_hal_tim.c ****       __HAL_TIM_DISABLE_IT(htim, TIM_IT_CC1);
 2578              		.loc 1 1231 0
 2579 004c 7B68     		ldr	r3, [r7, #4]
 2580 004e 1B68     		ldr	r3, [r3]
 2581 0050 DA68     		ldr	r2, [r3, #12]
 2582 0052 7B68     		ldr	r3, [r7, #4]
 2583 0054 1B68     		ldr	r3, [r3]
 2584 0056 22F00202 		bic	r2, r2, #2
 2585 005a DA60     		str	r2, [r3, #12]
1232:Drivers/STM32F1xx_HAL_Driver/Src/stm32f1xx_hal_tim.c ****     }
ARM GAS  /tmp/cc5HGhWi.s 			page 67


1233:Drivers/STM32F1xx_HAL_Driver/Src/stm32f1xx_hal_tim.c ****     break;
 2586              		.loc 1 1233 0
 2587 005c 1BE0     		b	.L147
 2588              	.L144:
1234:Drivers/STM32F1xx_HAL_Driver/Src/stm32f1xx_hal_tim.c **** 
1235:Drivers/STM32F1xx_HAL_Driver/Src/stm32f1xx_hal_tim.c ****     case TIM_CHANNEL_2:
1236:Drivers/STM32F1xx_HAL_Driver/Src/stm32f1xx_hal_tim.c ****     {
1237:Drivers/STM32F1xx_HAL_Driver/Src/stm32f1xx_hal_tim.c ****       /* Disable the TIM Capture/Compare 2 interrupt */
1238:Drivers/STM32F1xx_HAL_Driver/Src/stm32f1xx_hal_tim.c ****       __HAL_TIM_DISABLE_IT(htim, TIM_IT_CC2);
 2589              		.loc 1 1238 0
 2590 005e 7B68     		ldr	r3, [r7, #4]
 2591 0060 1B68     		ldr	r3, [r3]
 2592 0062 DA68     		ldr	r2, [r3, #12]
 2593 0064 7B68     		ldr	r3, [r7, #4]
 2594 0066 1B68     		ldr	r3, [r3]
 2595 0068 22F00402 		bic	r2, r2, #4
 2596 006c DA60     		str	r2, [r3, #12]
1239:Drivers/STM32F1xx_HAL_Driver/Src/stm32f1xx_hal_tim.c ****     }
1240:Drivers/STM32F1xx_HAL_Driver/Src/stm32f1xx_hal_tim.c ****     break;
 2597              		.loc 1 1240 0
 2598 006e 12E0     		b	.L147
 2599              	.L145:
1241:Drivers/STM32F1xx_HAL_Driver/Src/stm32f1xx_hal_tim.c **** 
1242:Drivers/STM32F1xx_HAL_Driver/Src/stm32f1xx_hal_tim.c ****     case TIM_CHANNEL_3:
1243:Drivers/STM32F1xx_HAL_Driver/Src/stm32f1xx_hal_tim.c ****     {
1244:Drivers/STM32F1xx_HAL_Driver/Src/stm32f1xx_hal_tim.c ****       /* Disable the TIM Capture/Compare 3 interrupt */
1245:Drivers/STM32F1xx_HAL_Driver/Src/stm32f1xx_hal_tim.c ****       __HAL_TIM_DISABLE_IT(htim, TIM_IT_CC3);
 2600              		.loc 1 1245 0
 2601 0070 7B68     		ldr	r3, [r7, #4]
 2602 0072 1B68     		ldr	r3, [r3]
 2603 0074 DA68     		ldr	r2, [r3, #12]
 2604 0076 7B68     		ldr	r3, [r7, #4]
 2605 0078 1B68     		ldr	r3, [r3]
 2606 007a 22F00802 		bic	r2, r2, #8
 2607 007e DA60     		str	r2, [r3, #12]
1246:Drivers/STM32F1xx_HAL_Driver/Src/stm32f1xx_hal_tim.c ****     }
1247:Drivers/STM32F1xx_HAL_Driver/Src/stm32f1xx_hal_tim.c ****     break;
 2608              		.loc 1 1247 0
 2609 0080 09E0     		b	.L147
 2610              	.L146:
1248:Drivers/STM32F1xx_HAL_Driver/Src/stm32f1xx_hal_tim.c **** 
1249:Drivers/STM32F1xx_HAL_Driver/Src/stm32f1xx_hal_tim.c ****     case TIM_CHANNEL_4:
1250:Drivers/STM32F1xx_HAL_Driver/Src/stm32f1xx_hal_tim.c ****     {
1251:Drivers/STM32F1xx_HAL_Driver/Src/stm32f1xx_hal_tim.c ****       /* Disable the TIM Capture/Compare 4 interrupt */
1252:Drivers/STM32F1xx_HAL_Driver/Src/stm32f1xx_hal_tim.c ****       __HAL_TIM_DISABLE_IT(htim, TIM_IT_CC4);
 2611              		.loc 1 1252 0
 2612 0082 7B68     		ldr	r3, [r7, #4]
 2613 0084 1B68     		ldr	r3, [r3]
 2614 0086 DA68     		ldr	r2, [r3, #12]
 2615 0088 7B68     		ldr	r3, [r7, #4]
 2616 008a 1B68     		ldr	r3, [r3]
 2617 008c 22F01002 		bic	r2, r2, #16
 2618 0090 DA60     		str	r2, [r3, #12]
1253:Drivers/STM32F1xx_HAL_Driver/Src/stm32f1xx_hal_tim.c ****     }
1254:Drivers/STM32F1xx_HAL_Driver/Src/stm32f1xx_hal_tim.c ****     break;
 2619              		.loc 1 1254 0
 2620 0092 00E0     		b	.L147
ARM GAS  /tmp/cc5HGhWi.s 			page 68


 2621              	.L151:
1255:Drivers/STM32F1xx_HAL_Driver/Src/stm32f1xx_hal_tim.c **** 
1256:Drivers/STM32F1xx_HAL_Driver/Src/stm32f1xx_hal_tim.c ****     default:
1257:Drivers/STM32F1xx_HAL_Driver/Src/stm32f1xx_hal_tim.c ****     break;
 2622              		.loc 1 1257 0
 2623 0094 00BF     		nop
 2624              	.L147:
1258:Drivers/STM32F1xx_HAL_Driver/Src/stm32f1xx_hal_tim.c ****   }
1259:Drivers/STM32F1xx_HAL_Driver/Src/stm32f1xx_hal_tim.c **** 
1260:Drivers/STM32F1xx_HAL_Driver/Src/stm32f1xx_hal_tim.c ****   /* Disable the Capture compare channel */
1261:Drivers/STM32F1xx_HAL_Driver/Src/stm32f1xx_hal_tim.c ****   TIM_CCxChannelCmd(htim->Instance, Channel, TIM_CCx_DISABLE);
 2625              		.loc 1 1261 0
 2626 0096 7B68     		ldr	r3, [r7, #4]
 2627 0098 1B68     		ldr	r3, [r3]
 2628 009a 0022     		movs	r2, #0
 2629 009c 3968     		ldr	r1, [r7]
 2630 009e 1846     		mov	r0, r3
 2631 00a0 FFF7FEFF 		bl	TIM_CCxChannelCmd
1262:Drivers/STM32F1xx_HAL_Driver/Src/stm32f1xx_hal_tim.c **** 
1263:Drivers/STM32F1xx_HAL_Driver/Src/stm32f1xx_hal_tim.c ****   if(IS_TIM_BREAK_INSTANCE(htim->Instance) != RESET)
 2632              		.loc 1 1263 0
 2633 00a4 7B68     		ldr	r3, [r7, #4]
 2634 00a6 1B68     		ldr	r3, [r3]
 2635 00a8 1B4A     		ldr	r2, .L152
 2636 00aa 9342     		cmp	r3, r2
 2637 00ac 17D1     		bne	.L148
1264:Drivers/STM32F1xx_HAL_Driver/Src/stm32f1xx_hal_tim.c ****   {
1265:Drivers/STM32F1xx_HAL_Driver/Src/stm32f1xx_hal_tim.c ****     /* Disable the Main Ouput */
1266:Drivers/STM32F1xx_HAL_Driver/Src/stm32f1xx_hal_tim.c ****     __HAL_TIM_MOE_DISABLE(htim);
 2638              		.loc 1 1266 0
 2639 00ae 7B68     		ldr	r3, [r7, #4]
 2640 00b0 1B68     		ldr	r3, [r3]
 2641 00b2 1A6A     		ldr	r2, [r3, #32]
 2642 00b4 41F21113 		movw	r3, #4369
 2643 00b8 1340     		ands	r3, r3, r2
 2644 00ba 002B     		cmp	r3, #0
 2645 00bc 0FD1     		bne	.L148
 2646              		.loc 1 1266 0 is_stmt 0 discriminator 1
 2647 00be 7B68     		ldr	r3, [r7, #4]
 2648 00c0 1B68     		ldr	r3, [r3]
 2649 00c2 1A6A     		ldr	r2, [r3, #32]
 2650 00c4 40F24443 		movw	r3, #1092
 2651 00c8 1340     		ands	r3, r3, r2
 2652 00ca 002B     		cmp	r3, #0
 2653 00cc 07D1     		bne	.L148
 2654              		.loc 1 1266 0 discriminator 2
 2655 00ce 7B68     		ldr	r3, [r7, #4]
 2656 00d0 1B68     		ldr	r3, [r3]
 2657 00d2 5A6C     		ldr	r2, [r3, #68]
 2658 00d4 7B68     		ldr	r3, [r7, #4]
 2659 00d6 1B68     		ldr	r3, [r3]
 2660 00d8 22F40042 		bic	r2, r2, #32768
 2661 00dc 5A64     		str	r2, [r3, #68]
 2662              	.L148:
1267:Drivers/STM32F1xx_HAL_Driver/Src/stm32f1xx_hal_tim.c ****   }
1268:Drivers/STM32F1xx_HAL_Driver/Src/stm32f1xx_hal_tim.c **** 
1269:Drivers/STM32F1xx_HAL_Driver/Src/stm32f1xx_hal_tim.c ****   /* Disable the Peripheral */
ARM GAS  /tmp/cc5HGhWi.s 			page 69


1270:Drivers/STM32F1xx_HAL_Driver/Src/stm32f1xx_hal_tim.c ****   __HAL_TIM_DISABLE(htim);
 2663              		.loc 1 1270 0 is_stmt 1
 2664 00de 7B68     		ldr	r3, [r7, #4]
 2665 00e0 1B68     		ldr	r3, [r3]
 2666 00e2 1A6A     		ldr	r2, [r3, #32]
 2667 00e4 41F21113 		movw	r3, #4369
 2668 00e8 1340     		ands	r3, r3, r2
 2669 00ea 002B     		cmp	r3, #0
 2670 00ec 0FD1     		bne	.L149
 2671              		.loc 1 1270 0 is_stmt 0 discriminator 1
 2672 00ee 7B68     		ldr	r3, [r7, #4]
 2673 00f0 1B68     		ldr	r3, [r3]
 2674 00f2 1A6A     		ldr	r2, [r3, #32]
 2675 00f4 40F24443 		movw	r3, #1092
 2676 00f8 1340     		ands	r3, r3, r2
 2677 00fa 002B     		cmp	r3, #0
 2678 00fc 07D1     		bne	.L149
 2679              		.loc 1 1270 0 discriminator 2
 2680 00fe 7B68     		ldr	r3, [r7, #4]
 2681 0100 1B68     		ldr	r3, [r3]
 2682 0102 1A68     		ldr	r2, [r3]
 2683 0104 7B68     		ldr	r3, [r7, #4]
 2684 0106 1B68     		ldr	r3, [r3]
 2685 0108 22F00102 		bic	r2, r2, #1
 2686 010c 1A60     		str	r2, [r3]
 2687              	.L149:
1271:Drivers/STM32F1xx_HAL_Driver/Src/stm32f1xx_hal_tim.c **** 
1272:Drivers/STM32F1xx_HAL_Driver/Src/stm32f1xx_hal_tim.c ****   /* Return function status */
1273:Drivers/STM32F1xx_HAL_Driver/Src/stm32f1xx_hal_tim.c ****   return HAL_OK;
 2688              		.loc 1 1273 0 is_stmt 1
 2689 010e 0023     		movs	r3, #0
1274:Drivers/STM32F1xx_HAL_Driver/Src/stm32f1xx_hal_tim.c **** }
 2690              		.loc 1 1274 0
 2691 0110 1846     		mov	r0, r3
 2692 0112 0837     		adds	r7, r7, #8
 2693              	.LCFI149:
 2694              		.cfi_def_cfa_offset 8
 2695 0114 BD46     		mov	sp, r7
 2696              	.LCFI150:
 2697              		.cfi_def_cfa_register 13
 2698              		@ sp needed
 2699 0116 80BD     		pop	{r7, pc}
 2700              	.L153:
 2701              		.align	2
 2702              	.L152:
 2703 0118 002C0140 		.word	1073818624
 2704              		.cfi_endproc
 2705              	.LFE93:
 2707              		.section	.text.HAL_TIM_PWM_Start_DMA,"ax",%progbits
 2708              		.align	1
 2709              		.global	HAL_TIM_PWM_Start_DMA
 2710              		.syntax unified
 2711              		.thumb
 2712              		.thumb_func
 2713              		.fpu softvfp
 2715              	HAL_TIM_PWM_Start_DMA:
 2716              	.LFB94:
ARM GAS  /tmp/cc5HGhWi.s 			page 70


1275:Drivers/STM32F1xx_HAL_Driver/Src/stm32f1xx_hal_tim.c **** 
1276:Drivers/STM32F1xx_HAL_Driver/Src/stm32f1xx_hal_tim.c **** /**
1277:Drivers/STM32F1xx_HAL_Driver/Src/stm32f1xx_hal_tim.c ****   * @brief  Starts the TIM PWM signal generation in DMA mode.
1278:Drivers/STM32F1xx_HAL_Driver/Src/stm32f1xx_hal_tim.c ****   * @param  htim : TIM handle
1279:Drivers/STM32F1xx_HAL_Driver/Src/stm32f1xx_hal_tim.c ****   * @param  Channel : TIM Channels to be enabled
1280:Drivers/STM32F1xx_HAL_Driver/Src/stm32f1xx_hal_tim.c ****   *          This parameter can be one of the following values:
1281:Drivers/STM32F1xx_HAL_Driver/Src/stm32f1xx_hal_tim.c ****   *            @arg TIM_CHANNEL_1: TIM Channel 1 selected
1282:Drivers/STM32F1xx_HAL_Driver/Src/stm32f1xx_hal_tim.c ****   *            @arg TIM_CHANNEL_2: TIM Channel 2 selected
1283:Drivers/STM32F1xx_HAL_Driver/Src/stm32f1xx_hal_tim.c ****   *            @arg TIM_CHANNEL_3: TIM Channel 3 selected
1284:Drivers/STM32F1xx_HAL_Driver/Src/stm32f1xx_hal_tim.c ****   *            @arg TIM_CHANNEL_4: TIM Channel 4 selected
1285:Drivers/STM32F1xx_HAL_Driver/Src/stm32f1xx_hal_tim.c ****   * @param  pData : The source Buffer address.
1286:Drivers/STM32F1xx_HAL_Driver/Src/stm32f1xx_hal_tim.c ****   * @param  Length : The length of data to be transferred from memory to TIM peripheral
1287:Drivers/STM32F1xx_HAL_Driver/Src/stm32f1xx_hal_tim.c ****   * @retval HAL status
1288:Drivers/STM32F1xx_HAL_Driver/Src/stm32f1xx_hal_tim.c **** */
1289:Drivers/STM32F1xx_HAL_Driver/Src/stm32f1xx_hal_tim.c **** HAL_StatusTypeDef HAL_TIM_PWM_Start_DMA(TIM_HandleTypeDef *htim, uint32_t Channel, uint32_t *pData,
1290:Drivers/STM32F1xx_HAL_Driver/Src/stm32f1xx_hal_tim.c **** {
 2717              		.loc 1 1290 0
 2718              		.cfi_startproc
 2719              		@ args = 0, pretend = 0, frame = 16
 2720              		@ frame_needed = 1, uses_anonymous_args = 0
 2721 0000 80B5     		push	{r7, lr}
 2722              	.LCFI151:
 2723              		.cfi_def_cfa_offset 8
 2724              		.cfi_offset 7, -8
 2725              		.cfi_offset 14, -4
 2726 0002 84B0     		sub	sp, sp, #16
 2727              	.LCFI152:
 2728              		.cfi_def_cfa_offset 24
 2729 0004 00AF     		add	r7, sp, #0
 2730              	.LCFI153:
 2731              		.cfi_def_cfa_register 7
 2732 0006 F860     		str	r0, [r7, #12]
 2733 0008 B960     		str	r1, [r7, #8]
 2734 000a 7A60     		str	r2, [r7, #4]
 2735 000c 7B80     		strh	r3, [r7, #2]	@ movhi
1291:Drivers/STM32F1xx_HAL_Driver/Src/stm32f1xx_hal_tim.c ****   /* Check the parameters */
1292:Drivers/STM32F1xx_HAL_Driver/Src/stm32f1xx_hal_tim.c ****   assert_param(IS_TIM_CCX_INSTANCE(htim->Instance, Channel));
1293:Drivers/STM32F1xx_HAL_Driver/Src/stm32f1xx_hal_tim.c **** 
1294:Drivers/STM32F1xx_HAL_Driver/Src/stm32f1xx_hal_tim.c ****   if((htim->State == HAL_TIM_STATE_BUSY))
 2736              		.loc 1 1294 0
 2737 000e FB68     		ldr	r3, [r7, #12]
 2738 0010 93F83D30 		ldrb	r3, [r3, #61]
 2739 0014 DBB2     		uxtb	r3, r3
 2740 0016 022B     		cmp	r3, #2
 2741 0018 01D1     		bne	.L155
1295:Drivers/STM32F1xx_HAL_Driver/Src/stm32f1xx_hal_tim.c ****   {
1296:Drivers/STM32F1xx_HAL_Driver/Src/stm32f1xx_hal_tim.c ****      return HAL_BUSY;
 2742              		.loc 1 1296 0
 2743 001a 0223     		movs	r3, #2
 2744 001c BCE0     		b	.L156
 2745              	.L155:
1297:Drivers/STM32F1xx_HAL_Driver/Src/stm32f1xx_hal_tim.c ****   }
1298:Drivers/STM32F1xx_HAL_Driver/Src/stm32f1xx_hal_tim.c ****   else if((htim->State == HAL_TIM_STATE_READY))
 2746              		.loc 1 1298 0
 2747 001e FB68     		ldr	r3, [r7, #12]
 2748 0020 93F83D30 		ldrb	r3, [r3, #61]
 2749 0024 DBB2     		uxtb	r3, r3
ARM GAS  /tmp/cc5HGhWi.s 			page 71


 2750 0026 012B     		cmp	r3, #1
 2751 0028 0BD1     		bne	.L157
1299:Drivers/STM32F1xx_HAL_Driver/Src/stm32f1xx_hal_tim.c ****   {
1300:Drivers/STM32F1xx_HAL_Driver/Src/stm32f1xx_hal_tim.c ****     if(((uint32_t)pData == 0U) && (Length > 0U))
 2752              		.loc 1 1300 0
 2753 002a 7B68     		ldr	r3, [r7, #4]
 2754 002c 002B     		cmp	r3, #0
 2755 002e 04D1     		bne	.L158
 2756              		.loc 1 1300 0 is_stmt 0 discriminator 1
 2757 0030 7B88     		ldrh	r3, [r7, #2]
 2758 0032 002B     		cmp	r3, #0
 2759 0034 01D0     		beq	.L158
1301:Drivers/STM32F1xx_HAL_Driver/Src/stm32f1xx_hal_tim.c ****     {
1302:Drivers/STM32F1xx_HAL_Driver/Src/stm32f1xx_hal_tim.c ****       return HAL_ERROR;
 2760              		.loc 1 1302 0 is_stmt 1
 2761 0036 0123     		movs	r3, #1
 2762 0038 AEE0     		b	.L156
 2763              	.L158:
1303:Drivers/STM32F1xx_HAL_Driver/Src/stm32f1xx_hal_tim.c ****     }
1304:Drivers/STM32F1xx_HAL_Driver/Src/stm32f1xx_hal_tim.c ****     else
1305:Drivers/STM32F1xx_HAL_Driver/Src/stm32f1xx_hal_tim.c ****     {
1306:Drivers/STM32F1xx_HAL_Driver/Src/stm32f1xx_hal_tim.c ****       htim->State = HAL_TIM_STATE_BUSY;
 2764              		.loc 1 1306 0
 2765 003a FB68     		ldr	r3, [r7, #12]
 2766 003c 0222     		movs	r2, #2
 2767 003e 83F83D20 		strb	r2, [r3, #61]
 2768              	.L157:
1307:Drivers/STM32F1xx_HAL_Driver/Src/stm32f1xx_hal_tim.c ****     }
1308:Drivers/STM32F1xx_HAL_Driver/Src/stm32f1xx_hal_tim.c ****   }
1309:Drivers/STM32F1xx_HAL_Driver/Src/stm32f1xx_hal_tim.c ****   switch (Channel)
 2769              		.loc 1 1309 0
 2770 0042 BB68     		ldr	r3, [r7, #8]
 2771 0044 0C2B     		cmp	r3, #12
 2772 0046 00F28980 		bhi	.L167
 2773 004a 01A2     		adr	r2, .L161
 2774 004c 52F823F0 		ldr	pc, [r2, r3, lsl #2]
 2775              		.p2align 2
 2776              	.L161:
 2777 0050 85000000 		.word	.L160+1
 2778 0054 5D010000 		.word	.L167+1
 2779 0058 5D010000 		.word	.L167+1
 2780 005c 5D010000 		.word	.L167+1
 2781 0060 BB000000 		.word	.L162+1
 2782 0064 5D010000 		.word	.L167+1
 2783 0068 5D010000 		.word	.L167+1
 2784 006c 5D010000 		.word	.L167+1
 2785 0070 F1000000 		.word	.L163+1
 2786 0074 5D010000 		.word	.L167+1
 2787 0078 5D010000 		.word	.L167+1
 2788 007c 5D010000 		.word	.L167+1
 2789 0080 27010000 		.word	.L164+1
 2790              		.p2align 1
 2791              	.L160:
1310:Drivers/STM32F1xx_HAL_Driver/Src/stm32f1xx_hal_tim.c ****   {
1311:Drivers/STM32F1xx_HAL_Driver/Src/stm32f1xx_hal_tim.c ****     case TIM_CHANNEL_1:
1312:Drivers/STM32F1xx_HAL_Driver/Src/stm32f1xx_hal_tim.c ****     {
1313:Drivers/STM32F1xx_HAL_Driver/Src/stm32f1xx_hal_tim.c ****       /* Set the DMA Period elapsed callback */
ARM GAS  /tmp/cc5HGhWi.s 			page 72


1314:Drivers/STM32F1xx_HAL_Driver/Src/stm32f1xx_hal_tim.c ****       htim->hdma[TIM_DMA_ID_CC1]->XferCpltCallback = TIM_DMADelayPulseCplt;
 2792              		.loc 1 1314 0
 2793 0084 FB68     		ldr	r3, [r7, #12]
 2794 0086 5B6A     		ldr	r3, [r3, #36]
 2795 0088 454A     		ldr	r2, .L168
 2796 008a 9A62     		str	r2, [r3, #40]
1315:Drivers/STM32F1xx_HAL_Driver/Src/stm32f1xx_hal_tim.c **** 
1316:Drivers/STM32F1xx_HAL_Driver/Src/stm32f1xx_hal_tim.c ****       /* Set the DMA error callback */
1317:Drivers/STM32F1xx_HAL_Driver/Src/stm32f1xx_hal_tim.c ****       htim->hdma[TIM_DMA_ID_CC1]->XferErrorCallback = TIM_DMAError ;
 2797              		.loc 1 1317 0
 2798 008c FB68     		ldr	r3, [r7, #12]
 2799 008e 5B6A     		ldr	r3, [r3, #36]
 2800 0090 444A     		ldr	r2, .L168+4
 2801 0092 1A63     		str	r2, [r3, #48]
1318:Drivers/STM32F1xx_HAL_Driver/Src/stm32f1xx_hal_tim.c **** 
1319:Drivers/STM32F1xx_HAL_Driver/Src/stm32f1xx_hal_tim.c ****       /* Enable the DMA channel */
1320:Drivers/STM32F1xx_HAL_Driver/Src/stm32f1xx_hal_tim.c ****       HAL_DMA_Start_IT(htim->hdma[TIM_DMA_ID_CC1], (uint32_t)pData, (uint32_t)&htim->Instance->CCR1
 2802              		.loc 1 1320 0
 2803 0094 FB68     		ldr	r3, [r7, #12]
 2804 0096 586A     		ldr	r0, [r3, #36]
 2805 0098 7968     		ldr	r1, [r7, #4]
 2806 009a FB68     		ldr	r3, [r7, #12]
 2807 009c 1B68     		ldr	r3, [r3]
 2808 009e 3433     		adds	r3, r3, #52
 2809 00a0 1A46     		mov	r2, r3
 2810 00a2 7B88     		ldrh	r3, [r7, #2]
 2811 00a4 FFF7FEFF 		bl	HAL_DMA_Start_IT
1321:Drivers/STM32F1xx_HAL_Driver/Src/stm32f1xx_hal_tim.c **** 
1322:Drivers/STM32F1xx_HAL_Driver/Src/stm32f1xx_hal_tim.c ****       /* Enable the TIM Capture/Compare 1 DMA request */
1323:Drivers/STM32F1xx_HAL_Driver/Src/stm32f1xx_hal_tim.c ****       __HAL_TIM_ENABLE_DMA(htim, TIM_DMA_CC1);
 2812              		.loc 1 1323 0
 2813 00a8 FB68     		ldr	r3, [r7, #12]
 2814 00aa 1B68     		ldr	r3, [r3]
 2815 00ac DA68     		ldr	r2, [r3, #12]
 2816 00ae FB68     		ldr	r3, [r7, #12]
 2817 00b0 1B68     		ldr	r3, [r3]
 2818 00b2 42F40072 		orr	r2, r2, #512
 2819 00b6 DA60     		str	r2, [r3, #12]
1324:Drivers/STM32F1xx_HAL_Driver/Src/stm32f1xx_hal_tim.c ****     }
1325:Drivers/STM32F1xx_HAL_Driver/Src/stm32f1xx_hal_tim.c ****     break;
 2820              		.loc 1 1325 0
 2821 00b8 51E0     		b	.L165
 2822              	.L162:
1326:Drivers/STM32F1xx_HAL_Driver/Src/stm32f1xx_hal_tim.c **** 
1327:Drivers/STM32F1xx_HAL_Driver/Src/stm32f1xx_hal_tim.c ****     case TIM_CHANNEL_2:
1328:Drivers/STM32F1xx_HAL_Driver/Src/stm32f1xx_hal_tim.c ****     {
1329:Drivers/STM32F1xx_HAL_Driver/Src/stm32f1xx_hal_tim.c ****       /* Set the DMA Period elapsed callback */
1330:Drivers/STM32F1xx_HAL_Driver/Src/stm32f1xx_hal_tim.c ****       htim->hdma[TIM_DMA_ID_CC2]->XferCpltCallback = TIM_DMADelayPulseCplt;
 2823              		.loc 1 1330 0
 2824 00ba FB68     		ldr	r3, [r7, #12]
 2825 00bc 9B6A     		ldr	r3, [r3, #40]
 2826 00be 384A     		ldr	r2, .L168
 2827 00c0 9A62     		str	r2, [r3, #40]
1331:Drivers/STM32F1xx_HAL_Driver/Src/stm32f1xx_hal_tim.c **** 
1332:Drivers/STM32F1xx_HAL_Driver/Src/stm32f1xx_hal_tim.c ****       /* Set the DMA error callback */
1333:Drivers/STM32F1xx_HAL_Driver/Src/stm32f1xx_hal_tim.c ****       htim->hdma[TIM_DMA_ID_CC2]->XferErrorCallback = TIM_DMAError ;
 2828              		.loc 1 1333 0
ARM GAS  /tmp/cc5HGhWi.s 			page 73


 2829 00c2 FB68     		ldr	r3, [r7, #12]
 2830 00c4 9B6A     		ldr	r3, [r3, #40]
 2831 00c6 374A     		ldr	r2, .L168+4
 2832 00c8 1A63     		str	r2, [r3, #48]
1334:Drivers/STM32F1xx_HAL_Driver/Src/stm32f1xx_hal_tim.c **** 
1335:Drivers/STM32F1xx_HAL_Driver/Src/stm32f1xx_hal_tim.c ****       /* Enable the DMA channel */
1336:Drivers/STM32F1xx_HAL_Driver/Src/stm32f1xx_hal_tim.c ****       HAL_DMA_Start_IT(htim->hdma[TIM_DMA_ID_CC2], (uint32_t)pData, (uint32_t)&htim->Instance->CCR2
 2833              		.loc 1 1336 0
 2834 00ca FB68     		ldr	r3, [r7, #12]
 2835 00cc 986A     		ldr	r0, [r3, #40]
 2836 00ce 7968     		ldr	r1, [r7, #4]
 2837 00d0 FB68     		ldr	r3, [r7, #12]
 2838 00d2 1B68     		ldr	r3, [r3]
 2839 00d4 3833     		adds	r3, r3, #56
 2840 00d6 1A46     		mov	r2, r3
 2841 00d8 7B88     		ldrh	r3, [r7, #2]
 2842 00da FFF7FEFF 		bl	HAL_DMA_Start_IT
1337:Drivers/STM32F1xx_HAL_Driver/Src/stm32f1xx_hal_tim.c **** 
1338:Drivers/STM32F1xx_HAL_Driver/Src/stm32f1xx_hal_tim.c ****       /* Enable the TIM Capture/Compare 2 DMA request */
1339:Drivers/STM32F1xx_HAL_Driver/Src/stm32f1xx_hal_tim.c ****       __HAL_TIM_ENABLE_DMA(htim, TIM_DMA_CC2);
 2843              		.loc 1 1339 0
 2844 00de FB68     		ldr	r3, [r7, #12]
 2845 00e0 1B68     		ldr	r3, [r3]
 2846 00e2 DA68     		ldr	r2, [r3, #12]
 2847 00e4 FB68     		ldr	r3, [r7, #12]
 2848 00e6 1B68     		ldr	r3, [r3]
 2849 00e8 42F48062 		orr	r2, r2, #1024
 2850 00ec DA60     		str	r2, [r3, #12]
1340:Drivers/STM32F1xx_HAL_Driver/Src/stm32f1xx_hal_tim.c ****     }
1341:Drivers/STM32F1xx_HAL_Driver/Src/stm32f1xx_hal_tim.c ****     break;
 2851              		.loc 1 1341 0
 2852 00ee 36E0     		b	.L165
 2853              	.L163:
1342:Drivers/STM32F1xx_HAL_Driver/Src/stm32f1xx_hal_tim.c **** 
1343:Drivers/STM32F1xx_HAL_Driver/Src/stm32f1xx_hal_tim.c ****     case TIM_CHANNEL_3:
1344:Drivers/STM32F1xx_HAL_Driver/Src/stm32f1xx_hal_tim.c ****     {
1345:Drivers/STM32F1xx_HAL_Driver/Src/stm32f1xx_hal_tim.c ****       /* Set the DMA Period elapsed callback */
1346:Drivers/STM32F1xx_HAL_Driver/Src/stm32f1xx_hal_tim.c ****       htim->hdma[TIM_DMA_ID_CC3]->XferCpltCallback = TIM_DMADelayPulseCplt;
 2854              		.loc 1 1346 0
 2855 00f0 FB68     		ldr	r3, [r7, #12]
 2856 00f2 DB6A     		ldr	r3, [r3, #44]
 2857 00f4 2A4A     		ldr	r2, .L168
 2858 00f6 9A62     		str	r2, [r3, #40]
1347:Drivers/STM32F1xx_HAL_Driver/Src/stm32f1xx_hal_tim.c **** 
1348:Drivers/STM32F1xx_HAL_Driver/Src/stm32f1xx_hal_tim.c ****       /* Set the DMA error callback */
1349:Drivers/STM32F1xx_HAL_Driver/Src/stm32f1xx_hal_tim.c ****       htim->hdma[TIM_DMA_ID_CC3]->XferErrorCallback = TIM_DMAError ;
 2859              		.loc 1 1349 0
 2860 00f8 FB68     		ldr	r3, [r7, #12]
 2861 00fa DB6A     		ldr	r3, [r3, #44]
 2862 00fc 294A     		ldr	r2, .L168+4
 2863 00fe 1A63     		str	r2, [r3, #48]
1350:Drivers/STM32F1xx_HAL_Driver/Src/stm32f1xx_hal_tim.c **** 
1351:Drivers/STM32F1xx_HAL_Driver/Src/stm32f1xx_hal_tim.c ****       /* Enable the DMA channel */
1352:Drivers/STM32F1xx_HAL_Driver/Src/stm32f1xx_hal_tim.c ****       HAL_DMA_Start_IT(htim->hdma[TIM_DMA_ID_CC3], (uint32_t)pData, (uint32_t)&htim->Instance->CCR3
 2864              		.loc 1 1352 0
 2865 0100 FB68     		ldr	r3, [r7, #12]
 2866 0102 D86A     		ldr	r0, [r3, #44]
ARM GAS  /tmp/cc5HGhWi.s 			page 74


 2867 0104 7968     		ldr	r1, [r7, #4]
 2868 0106 FB68     		ldr	r3, [r7, #12]
 2869 0108 1B68     		ldr	r3, [r3]
 2870 010a 3C33     		adds	r3, r3, #60
 2871 010c 1A46     		mov	r2, r3
 2872 010e 7B88     		ldrh	r3, [r7, #2]
 2873 0110 FFF7FEFF 		bl	HAL_DMA_Start_IT
1353:Drivers/STM32F1xx_HAL_Driver/Src/stm32f1xx_hal_tim.c **** 
1354:Drivers/STM32F1xx_HAL_Driver/Src/stm32f1xx_hal_tim.c ****       /* Enable the TIM Output Capture/Compare 3 request */
1355:Drivers/STM32F1xx_HAL_Driver/Src/stm32f1xx_hal_tim.c ****       __HAL_TIM_ENABLE_DMA(htim, TIM_DMA_CC3);
 2874              		.loc 1 1355 0
 2875 0114 FB68     		ldr	r3, [r7, #12]
 2876 0116 1B68     		ldr	r3, [r3]
 2877 0118 DA68     		ldr	r2, [r3, #12]
 2878 011a FB68     		ldr	r3, [r7, #12]
 2879 011c 1B68     		ldr	r3, [r3]
 2880 011e 42F40062 		orr	r2, r2, #2048
 2881 0122 DA60     		str	r2, [r3, #12]
1356:Drivers/STM32F1xx_HAL_Driver/Src/stm32f1xx_hal_tim.c ****     }
1357:Drivers/STM32F1xx_HAL_Driver/Src/stm32f1xx_hal_tim.c ****     break;
 2882              		.loc 1 1357 0
 2883 0124 1BE0     		b	.L165
 2884              	.L164:
1358:Drivers/STM32F1xx_HAL_Driver/Src/stm32f1xx_hal_tim.c **** 
1359:Drivers/STM32F1xx_HAL_Driver/Src/stm32f1xx_hal_tim.c ****     case TIM_CHANNEL_4:
1360:Drivers/STM32F1xx_HAL_Driver/Src/stm32f1xx_hal_tim.c ****     {
1361:Drivers/STM32F1xx_HAL_Driver/Src/stm32f1xx_hal_tim.c ****      /* Set the DMA Period elapsed callback */
1362:Drivers/STM32F1xx_HAL_Driver/Src/stm32f1xx_hal_tim.c ****       htim->hdma[TIM_DMA_ID_CC4]->XferCpltCallback = TIM_DMADelayPulseCplt;
 2885              		.loc 1 1362 0
 2886 0126 FB68     		ldr	r3, [r7, #12]
 2887 0128 1B6B     		ldr	r3, [r3, #48]
 2888 012a 1D4A     		ldr	r2, .L168
 2889 012c 9A62     		str	r2, [r3, #40]
1363:Drivers/STM32F1xx_HAL_Driver/Src/stm32f1xx_hal_tim.c **** 
1364:Drivers/STM32F1xx_HAL_Driver/Src/stm32f1xx_hal_tim.c ****       /* Set the DMA error callback */
1365:Drivers/STM32F1xx_HAL_Driver/Src/stm32f1xx_hal_tim.c ****       htim->hdma[TIM_DMA_ID_CC4]->XferErrorCallback = TIM_DMAError ;
 2890              		.loc 1 1365 0
 2891 012e FB68     		ldr	r3, [r7, #12]
 2892 0130 1B6B     		ldr	r3, [r3, #48]
 2893 0132 1C4A     		ldr	r2, .L168+4
 2894 0134 1A63     		str	r2, [r3, #48]
1366:Drivers/STM32F1xx_HAL_Driver/Src/stm32f1xx_hal_tim.c **** 
1367:Drivers/STM32F1xx_HAL_Driver/Src/stm32f1xx_hal_tim.c ****       /* Enable the DMA channel */
1368:Drivers/STM32F1xx_HAL_Driver/Src/stm32f1xx_hal_tim.c ****       HAL_DMA_Start_IT(htim->hdma[TIM_DMA_ID_CC4], (uint32_t)pData, (uint32_t)&htim->Instance->CCR4
 2895              		.loc 1 1368 0
 2896 0136 FB68     		ldr	r3, [r7, #12]
 2897 0138 186B     		ldr	r0, [r3, #48]
 2898 013a 7968     		ldr	r1, [r7, #4]
 2899 013c FB68     		ldr	r3, [r7, #12]
 2900 013e 1B68     		ldr	r3, [r3]
 2901 0140 4033     		adds	r3, r3, #64
 2902 0142 1A46     		mov	r2, r3
 2903 0144 7B88     		ldrh	r3, [r7, #2]
 2904 0146 FFF7FEFF 		bl	HAL_DMA_Start_IT
1369:Drivers/STM32F1xx_HAL_Driver/Src/stm32f1xx_hal_tim.c **** 
1370:Drivers/STM32F1xx_HAL_Driver/Src/stm32f1xx_hal_tim.c ****       /* Enable the TIM Capture/Compare 4 DMA request */
1371:Drivers/STM32F1xx_HAL_Driver/Src/stm32f1xx_hal_tim.c ****       __HAL_TIM_ENABLE_DMA(htim, TIM_DMA_CC4);
ARM GAS  /tmp/cc5HGhWi.s 			page 75


 2905              		.loc 1 1371 0
 2906 014a FB68     		ldr	r3, [r7, #12]
 2907 014c 1B68     		ldr	r3, [r3]
 2908 014e DA68     		ldr	r2, [r3, #12]
 2909 0150 FB68     		ldr	r3, [r7, #12]
 2910 0152 1B68     		ldr	r3, [r3]
 2911 0154 42F48052 		orr	r2, r2, #4096
 2912 0158 DA60     		str	r2, [r3, #12]
1372:Drivers/STM32F1xx_HAL_Driver/Src/stm32f1xx_hal_tim.c ****     }
1373:Drivers/STM32F1xx_HAL_Driver/Src/stm32f1xx_hal_tim.c ****     break;
 2913              		.loc 1 1373 0
 2914 015a 00E0     		b	.L165
 2915              	.L167:
1374:Drivers/STM32F1xx_HAL_Driver/Src/stm32f1xx_hal_tim.c **** 
1375:Drivers/STM32F1xx_HAL_Driver/Src/stm32f1xx_hal_tim.c ****     default:
1376:Drivers/STM32F1xx_HAL_Driver/Src/stm32f1xx_hal_tim.c ****     break;
 2916              		.loc 1 1376 0
 2917 015c 00BF     		nop
 2918              	.L165:
1377:Drivers/STM32F1xx_HAL_Driver/Src/stm32f1xx_hal_tim.c ****   }
1378:Drivers/STM32F1xx_HAL_Driver/Src/stm32f1xx_hal_tim.c **** 
1379:Drivers/STM32F1xx_HAL_Driver/Src/stm32f1xx_hal_tim.c ****   /* Enable the Capture compare channel */
1380:Drivers/STM32F1xx_HAL_Driver/Src/stm32f1xx_hal_tim.c ****   TIM_CCxChannelCmd(htim->Instance, Channel, TIM_CCx_ENABLE);
 2919              		.loc 1 1380 0
 2920 015e FB68     		ldr	r3, [r7, #12]
 2921 0160 1B68     		ldr	r3, [r3]
 2922 0162 0122     		movs	r2, #1
 2923 0164 B968     		ldr	r1, [r7, #8]
 2924 0166 1846     		mov	r0, r3
 2925 0168 FFF7FEFF 		bl	TIM_CCxChannelCmd
1381:Drivers/STM32F1xx_HAL_Driver/Src/stm32f1xx_hal_tim.c **** 
1382:Drivers/STM32F1xx_HAL_Driver/Src/stm32f1xx_hal_tim.c ****   if(IS_TIM_BREAK_INSTANCE(htim->Instance) != RESET)
 2926              		.loc 1 1382 0
 2927 016c FB68     		ldr	r3, [r7, #12]
 2928 016e 1B68     		ldr	r3, [r3]
 2929 0170 0D4A     		ldr	r2, .L168+8
 2930 0172 9342     		cmp	r3, r2
 2931 0174 07D1     		bne	.L166
1383:Drivers/STM32F1xx_HAL_Driver/Src/stm32f1xx_hal_tim.c ****   {
1384:Drivers/STM32F1xx_HAL_Driver/Src/stm32f1xx_hal_tim.c ****     /* Enable the main output */
1385:Drivers/STM32F1xx_HAL_Driver/Src/stm32f1xx_hal_tim.c ****     __HAL_TIM_MOE_ENABLE(htim);
 2932              		.loc 1 1385 0
 2933 0176 FB68     		ldr	r3, [r7, #12]
 2934 0178 1B68     		ldr	r3, [r3]
 2935 017a 5A6C     		ldr	r2, [r3, #68]
 2936 017c FB68     		ldr	r3, [r7, #12]
 2937 017e 1B68     		ldr	r3, [r3]
 2938 0180 42F40042 		orr	r2, r2, #32768
 2939 0184 5A64     		str	r2, [r3, #68]
 2940              	.L166:
1386:Drivers/STM32F1xx_HAL_Driver/Src/stm32f1xx_hal_tim.c ****   }
1387:Drivers/STM32F1xx_HAL_Driver/Src/stm32f1xx_hal_tim.c **** 
1388:Drivers/STM32F1xx_HAL_Driver/Src/stm32f1xx_hal_tim.c ****   /* Enable the Peripheral */
1389:Drivers/STM32F1xx_HAL_Driver/Src/stm32f1xx_hal_tim.c ****   __HAL_TIM_ENABLE(htim);
 2941              		.loc 1 1389 0
 2942 0186 FB68     		ldr	r3, [r7, #12]
 2943 0188 1B68     		ldr	r3, [r3]
ARM GAS  /tmp/cc5HGhWi.s 			page 76


 2944 018a 1A68     		ldr	r2, [r3]
 2945 018c FB68     		ldr	r3, [r7, #12]
 2946 018e 1B68     		ldr	r3, [r3]
 2947 0190 42F00102 		orr	r2, r2, #1
 2948 0194 1A60     		str	r2, [r3]
1390:Drivers/STM32F1xx_HAL_Driver/Src/stm32f1xx_hal_tim.c **** 
1391:Drivers/STM32F1xx_HAL_Driver/Src/stm32f1xx_hal_tim.c ****   /* Return function status */
1392:Drivers/STM32F1xx_HAL_Driver/Src/stm32f1xx_hal_tim.c ****   return HAL_OK;
 2949              		.loc 1 1392 0
 2950 0196 0023     		movs	r3, #0
 2951              	.L156:
1393:Drivers/STM32F1xx_HAL_Driver/Src/stm32f1xx_hal_tim.c **** }
 2952              		.loc 1 1393 0
 2953 0198 1846     		mov	r0, r3
 2954 019a 1037     		adds	r7, r7, #16
 2955              	.LCFI154:
 2956              		.cfi_def_cfa_offset 8
 2957 019c BD46     		mov	sp, r7
 2958              	.LCFI155:
 2959              		.cfi_def_cfa_register 13
 2960              		@ sp needed
 2961 019e 80BD     		pop	{r7, pc}
 2962              	.L169:
 2963              		.align	2
 2964              	.L168:
 2965 01a0 00000000 		.word	TIM_DMADelayPulseCplt
 2966 01a4 00000000 		.word	TIM_DMAError
 2967 01a8 002C0140 		.word	1073818624
 2968              		.cfi_endproc
 2969              	.LFE94:
 2971              		.section	.text.HAL_TIM_PWM_Stop_DMA,"ax",%progbits
 2972              		.align	1
 2973              		.global	HAL_TIM_PWM_Stop_DMA
 2974              		.syntax unified
 2975              		.thumb
 2976              		.thumb_func
 2977              		.fpu softvfp
 2979              	HAL_TIM_PWM_Stop_DMA:
 2980              	.LFB95:
1394:Drivers/STM32F1xx_HAL_Driver/Src/stm32f1xx_hal_tim.c **** 
1395:Drivers/STM32F1xx_HAL_Driver/Src/stm32f1xx_hal_tim.c **** /**
1396:Drivers/STM32F1xx_HAL_Driver/Src/stm32f1xx_hal_tim.c ****   * @brief  Stops the TIM PWM signal generation in DMA mode.
1397:Drivers/STM32F1xx_HAL_Driver/Src/stm32f1xx_hal_tim.c ****   * @param  htim : TIM handle
1398:Drivers/STM32F1xx_HAL_Driver/Src/stm32f1xx_hal_tim.c ****   * @param  Channel : TIM Channels to be disabled
1399:Drivers/STM32F1xx_HAL_Driver/Src/stm32f1xx_hal_tim.c ****   *          This parameter can be one of the following values:
1400:Drivers/STM32F1xx_HAL_Driver/Src/stm32f1xx_hal_tim.c ****   *            @arg TIM_CHANNEL_1: TIM Channel 1 selected
1401:Drivers/STM32F1xx_HAL_Driver/Src/stm32f1xx_hal_tim.c ****   *            @arg TIM_CHANNEL_2: TIM Channel 2 selected
1402:Drivers/STM32F1xx_HAL_Driver/Src/stm32f1xx_hal_tim.c ****   *            @arg TIM_CHANNEL_3: TIM Channel 3 selected
1403:Drivers/STM32F1xx_HAL_Driver/Src/stm32f1xx_hal_tim.c ****   *            @arg TIM_CHANNEL_4: TIM Channel 4 selected
1404:Drivers/STM32F1xx_HAL_Driver/Src/stm32f1xx_hal_tim.c ****   * @retval HAL status
1405:Drivers/STM32F1xx_HAL_Driver/Src/stm32f1xx_hal_tim.c **** */
1406:Drivers/STM32F1xx_HAL_Driver/Src/stm32f1xx_hal_tim.c **** HAL_StatusTypeDef HAL_TIM_PWM_Stop_DMA(TIM_HandleTypeDef *htim, uint32_t Channel)
1407:Drivers/STM32F1xx_HAL_Driver/Src/stm32f1xx_hal_tim.c **** {
 2981              		.loc 1 1407 0
 2982              		.cfi_startproc
 2983              		@ args = 0, pretend = 0, frame = 8
 2984              		@ frame_needed = 1, uses_anonymous_args = 0
ARM GAS  /tmp/cc5HGhWi.s 			page 77


 2985 0000 80B5     		push	{r7, lr}
 2986              	.LCFI156:
 2987              		.cfi_def_cfa_offset 8
 2988              		.cfi_offset 7, -8
 2989              		.cfi_offset 14, -4
 2990 0002 82B0     		sub	sp, sp, #8
 2991              	.LCFI157:
 2992              		.cfi_def_cfa_offset 16
 2993 0004 00AF     		add	r7, sp, #0
 2994              	.LCFI158:
 2995              		.cfi_def_cfa_register 7
 2996 0006 7860     		str	r0, [r7, #4]
 2997 0008 3960     		str	r1, [r7]
1408:Drivers/STM32F1xx_HAL_Driver/Src/stm32f1xx_hal_tim.c ****   /* Check the parameters */
1409:Drivers/STM32F1xx_HAL_Driver/Src/stm32f1xx_hal_tim.c ****   assert_param(IS_TIM_CCX_INSTANCE(htim->Instance, Channel));
1410:Drivers/STM32F1xx_HAL_Driver/Src/stm32f1xx_hal_tim.c **** 
1411:Drivers/STM32F1xx_HAL_Driver/Src/stm32f1xx_hal_tim.c ****   switch (Channel)
 2998              		.loc 1 1411 0
 2999 000a 3B68     		ldr	r3, [r7]
 3000 000c 0C2B     		cmp	r3, #12
 3001 000e 41D8     		bhi	.L181
 3002 0010 01A2     		adr	r2, .L173
 3003 0012 52F823F0 		ldr	pc, [r2, r3, lsl #2]
 3004 0016 00BF     		.p2align 2
 3005              	.L173:
 3006 0018 4D000000 		.word	.L172+1
 3007 001c 95000000 		.word	.L181+1
 3008 0020 95000000 		.word	.L181+1
 3009 0024 95000000 		.word	.L181+1
 3010 0028 5F000000 		.word	.L174+1
 3011 002c 95000000 		.word	.L181+1
 3012 0030 95000000 		.word	.L181+1
 3013 0034 95000000 		.word	.L181+1
 3014 0038 71000000 		.word	.L175+1
 3015 003c 95000000 		.word	.L181+1
 3016 0040 95000000 		.word	.L181+1
 3017 0044 95000000 		.word	.L181+1
 3018 0048 83000000 		.word	.L176+1
 3019              		.p2align 1
 3020              	.L172:
1412:Drivers/STM32F1xx_HAL_Driver/Src/stm32f1xx_hal_tim.c ****   {
1413:Drivers/STM32F1xx_HAL_Driver/Src/stm32f1xx_hal_tim.c ****     case TIM_CHANNEL_1:
1414:Drivers/STM32F1xx_HAL_Driver/Src/stm32f1xx_hal_tim.c ****     {
1415:Drivers/STM32F1xx_HAL_Driver/Src/stm32f1xx_hal_tim.c ****       /* Disable the TIM Capture/Compare 1 DMA request */
1416:Drivers/STM32F1xx_HAL_Driver/Src/stm32f1xx_hal_tim.c ****       __HAL_TIM_DISABLE_DMA(htim, TIM_DMA_CC1);
 3021              		.loc 1 1416 0
 3022 004c 7B68     		ldr	r3, [r7, #4]
 3023 004e 1B68     		ldr	r3, [r3]
 3024 0050 DA68     		ldr	r2, [r3, #12]
 3025 0052 7B68     		ldr	r3, [r7, #4]
 3026 0054 1B68     		ldr	r3, [r3]
 3027 0056 22F40072 		bic	r2, r2, #512
 3028 005a DA60     		str	r2, [r3, #12]
1417:Drivers/STM32F1xx_HAL_Driver/Src/stm32f1xx_hal_tim.c ****     }
1418:Drivers/STM32F1xx_HAL_Driver/Src/stm32f1xx_hal_tim.c ****     break;
 3029              		.loc 1 1418 0
 3030 005c 1BE0     		b	.L177
ARM GAS  /tmp/cc5HGhWi.s 			page 78


 3031              	.L174:
1419:Drivers/STM32F1xx_HAL_Driver/Src/stm32f1xx_hal_tim.c **** 
1420:Drivers/STM32F1xx_HAL_Driver/Src/stm32f1xx_hal_tim.c ****     case TIM_CHANNEL_2:
1421:Drivers/STM32F1xx_HAL_Driver/Src/stm32f1xx_hal_tim.c ****     {
1422:Drivers/STM32F1xx_HAL_Driver/Src/stm32f1xx_hal_tim.c ****       /* Disable the TIM Capture/Compare 2 DMA request */
1423:Drivers/STM32F1xx_HAL_Driver/Src/stm32f1xx_hal_tim.c ****       __HAL_TIM_DISABLE_DMA(htim, TIM_DMA_CC2);
 3032              		.loc 1 1423 0
 3033 005e 7B68     		ldr	r3, [r7, #4]
 3034 0060 1B68     		ldr	r3, [r3]
 3035 0062 DA68     		ldr	r2, [r3, #12]
 3036 0064 7B68     		ldr	r3, [r7, #4]
 3037 0066 1B68     		ldr	r3, [r3]
 3038 0068 22F48062 		bic	r2, r2, #1024
 3039 006c DA60     		str	r2, [r3, #12]
1424:Drivers/STM32F1xx_HAL_Driver/Src/stm32f1xx_hal_tim.c ****     }
1425:Drivers/STM32F1xx_HAL_Driver/Src/stm32f1xx_hal_tim.c ****     break;
 3040              		.loc 1 1425 0
 3041 006e 12E0     		b	.L177
 3042              	.L175:
1426:Drivers/STM32F1xx_HAL_Driver/Src/stm32f1xx_hal_tim.c **** 
1427:Drivers/STM32F1xx_HAL_Driver/Src/stm32f1xx_hal_tim.c ****     case TIM_CHANNEL_3:
1428:Drivers/STM32F1xx_HAL_Driver/Src/stm32f1xx_hal_tim.c ****     {
1429:Drivers/STM32F1xx_HAL_Driver/Src/stm32f1xx_hal_tim.c ****       /* Disable the TIM Capture/Compare 3 DMA request */
1430:Drivers/STM32F1xx_HAL_Driver/Src/stm32f1xx_hal_tim.c ****       __HAL_TIM_DISABLE_DMA(htim, TIM_DMA_CC3);
 3043              		.loc 1 1430 0
 3044 0070 7B68     		ldr	r3, [r7, #4]
 3045 0072 1B68     		ldr	r3, [r3]
 3046 0074 DA68     		ldr	r2, [r3, #12]
 3047 0076 7B68     		ldr	r3, [r7, #4]
 3048 0078 1B68     		ldr	r3, [r3]
 3049 007a 22F40062 		bic	r2, r2, #2048
 3050 007e DA60     		str	r2, [r3, #12]
1431:Drivers/STM32F1xx_HAL_Driver/Src/stm32f1xx_hal_tim.c ****     }
1432:Drivers/STM32F1xx_HAL_Driver/Src/stm32f1xx_hal_tim.c ****     break;
 3051              		.loc 1 1432 0
 3052 0080 09E0     		b	.L177
 3053              	.L176:
1433:Drivers/STM32F1xx_HAL_Driver/Src/stm32f1xx_hal_tim.c **** 
1434:Drivers/STM32F1xx_HAL_Driver/Src/stm32f1xx_hal_tim.c ****     case TIM_CHANNEL_4:
1435:Drivers/STM32F1xx_HAL_Driver/Src/stm32f1xx_hal_tim.c ****     {
1436:Drivers/STM32F1xx_HAL_Driver/Src/stm32f1xx_hal_tim.c ****       /* Disable the TIM Capture/Compare 4 interrupt */
1437:Drivers/STM32F1xx_HAL_Driver/Src/stm32f1xx_hal_tim.c ****       __HAL_TIM_DISABLE_DMA(htim, TIM_DMA_CC4);
 3054              		.loc 1 1437 0
 3055 0082 7B68     		ldr	r3, [r7, #4]
 3056 0084 1B68     		ldr	r3, [r3]
 3057 0086 DA68     		ldr	r2, [r3, #12]
 3058 0088 7B68     		ldr	r3, [r7, #4]
 3059 008a 1B68     		ldr	r3, [r3]
 3060 008c 22F48052 		bic	r2, r2, #4096
 3061 0090 DA60     		str	r2, [r3, #12]
1438:Drivers/STM32F1xx_HAL_Driver/Src/stm32f1xx_hal_tim.c ****     }
1439:Drivers/STM32F1xx_HAL_Driver/Src/stm32f1xx_hal_tim.c ****     break;
 3062              		.loc 1 1439 0
 3063 0092 00E0     		b	.L177
 3064              	.L181:
1440:Drivers/STM32F1xx_HAL_Driver/Src/stm32f1xx_hal_tim.c **** 
1441:Drivers/STM32F1xx_HAL_Driver/Src/stm32f1xx_hal_tim.c ****     default:
ARM GAS  /tmp/cc5HGhWi.s 			page 79


1442:Drivers/STM32F1xx_HAL_Driver/Src/stm32f1xx_hal_tim.c ****     break;
 3065              		.loc 1 1442 0
 3066 0094 00BF     		nop
 3067              	.L177:
1443:Drivers/STM32F1xx_HAL_Driver/Src/stm32f1xx_hal_tim.c ****   }
1444:Drivers/STM32F1xx_HAL_Driver/Src/stm32f1xx_hal_tim.c **** 
1445:Drivers/STM32F1xx_HAL_Driver/Src/stm32f1xx_hal_tim.c ****   /* Disable the Capture compare channel */
1446:Drivers/STM32F1xx_HAL_Driver/Src/stm32f1xx_hal_tim.c ****   TIM_CCxChannelCmd(htim->Instance, Channel, TIM_CCx_DISABLE);
 3068              		.loc 1 1446 0
 3069 0096 7B68     		ldr	r3, [r7, #4]
 3070 0098 1B68     		ldr	r3, [r3]
 3071 009a 0022     		movs	r2, #0
 3072 009c 3968     		ldr	r1, [r7]
 3073 009e 1846     		mov	r0, r3
 3074 00a0 FFF7FEFF 		bl	TIM_CCxChannelCmd
1447:Drivers/STM32F1xx_HAL_Driver/Src/stm32f1xx_hal_tim.c **** 
1448:Drivers/STM32F1xx_HAL_Driver/Src/stm32f1xx_hal_tim.c ****   if(IS_TIM_BREAK_INSTANCE(htim->Instance) != RESET)
 3075              		.loc 1 1448 0
 3076 00a4 7B68     		ldr	r3, [r7, #4]
 3077 00a6 1B68     		ldr	r3, [r3]
 3078 00a8 1D4A     		ldr	r2, .L182
 3079 00aa 9342     		cmp	r3, r2
 3080 00ac 17D1     		bne	.L178
1449:Drivers/STM32F1xx_HAL_Driver/Src/stm32f1xx_hal_tim.c ****   {
1450:Drivers/STM32F1xx_HAL_Driver/Src/stm32f1xx_hal_tim.c ****     /* Disable the Main Ouput */
1451:Drivers/STM32F1xx_HAL_Driver/Src/stm32f1xx_hal_tim.c ****     __HAL_TIM_MOE_DISABLE(htim);
 3081              		.loc 1 1451 0
 3082 00ae 7B68     		ldr	r3, [r7, #4]
 3083 00b0 1B68     		ldr	r3, [r3]
 3084 00b2 1A6A     		ldr	r2, [r3, #32]
 3085 00b4 41F21113 		movw	r3, #4369
 3086 00b8 1340     		ands	r3, r3, r2
 3087 00ba 002B     		cmp	r3, #0
 3088 00bc 0FD1     		bne	.L178
 3089              		.loc 1 1451 0 is_stmt 0 discriminator 1
 3090 00be 7B68     		ldr	r3, [r7, #4]
 3091 00c0 1B68     		ldr	r3, [r3]
 3092 00c2 1A6A     		ldr	r2, [r3, #32]
 3093 00c4 40F24443 		movw	r3, #1092
 3094 00c8 1340     		ands	r3, r3, r2
 3095 00ca 002B     		cmp	r3, #0
 3096 00cc 07D1     		bne	.L178
 3097              		.loc 1 1451 0 discriminator 2
 3098 00ce 7B68     		ldr	r3, [r7, #4]
 3099 00d0 1B68     		ldr	r3, [r3]
 3100 00d2 5A6C     		ldr	r2, [r3, #68]
 3101 00d4 7B68     		ldr	r3, [r7, #4]
 3102 00d6 1B68     		ldr	r3, [r3]
 3103 00d8 22F40042 		bic	r2, r2, #32768
 3104 00dc 5A64     		str	r2, [r3, #68]
 3105              	.L178:
1452:Drivers/STM32F1xx_HAL_Driver/Src/stm32f1xx_hal_tim.c ****   }
1453:Drivers/STM32F1xx_HAL_Driver/Src/stm32f1xx_hal_tim.c **** 
1454:Drivers/STM32F1xx_HAL_Driver/Src/stm32f1xx_hal_tim.c ****   /* Disable the Peripheral */
