ARM GAS  /tmp/ccpgqo2Y.s 			page 1


   1              		.cpu cortex-m3
   2              		.eabi_attribute 20, 1
   3              		.eabi_attribute 21, 1
   4              		.eabi_attribute 23, 3
   5              		.eabi_attribute 24, 1
   6              		.eabi_attribute 25, 1
   7              		.eabi_attribute 26, 1
   8              		.eabi_attribute 30, 6
   9              		.eabi_attribute 34, 1
  10              		.eabi_attribute 18, 4
  11              		.file	"stm32f1xx_hal_tim_ex.c"
  12              		.text
  13              	.Ltext0:
  14              		.cfi_sections	.debug_frame
  15              		.section	.text.HAL_TIMEx_HallSensor_Init,"ax",%progbits
  16              		.align	1
  17              		.global	HAL_TIMEx_HallSensor_Init
  18              		.syntax unified
  19              		.thumb
  20              		.thumb_func
  21              		.fpu softvfp
  23              	HAL_TIMEx_HallSensor_Init:
  24              	.LFB66:
  25              		.file 1 "Drivers/STM32F1xx_HAL_Driver/Src/stm32f1xx_hal_tim_ex.c"
   1:Drivers/STM32F1xx_HAL_Driver/Src/stm32f1xx_hal_tim_ex.c **** /**
   2:Drivers/STM32F1xx_HAL_Driver/Src/stm32f1xx_hal_tim_ex.c ****   ******************************************************************************
   3:Drivers/STM32F1xx_HAL_Driver/Src/stm32f1xx_hal_tim_ex.c ****   * @file    stm32f1xx_hal_tim_ex.c
   4:Drivers/STM32F1xx_HAL_Driver/Src/stm32f1xx_hal_tim_ex.c ****   * @author  MCD Application Team
   5:Drivers/STM32F1xx_HAL_Driver/Src/stm32f1xx_hal_tim_ex.c ****   * @version V1.1.1
   6:Drivers/STM32F1xx_HAL_Driver/Src/stm32f1xx_hal_tim_ex.c ****   * @date    12-May-2017
   7:Drivers/STM32F1xx_HAL_Driver/Src/stm32f1xx_hal_tim_ex.c ****   * @brief   TIM HAL module driver.
   8:Drivers/STM32F1xx_HAL_Driver/Src/stm32f1xx_hal_tim_ex.c ****   *          This file provides firmware functions to manage the following
   9:Drivers/STM32F1xx_HAL_Driver/Src/stm32f1xx_hal_tim_ex.c ****   *          functionalities of the Timer Extended peripheral:
  10:Drivers/STM32F1xx_HAL_Driver/Src/stm32f1xx_hal_tim_ex.c ****   *           + Time Hall Sensor Interface Initialization
  11:Drivers/STM32F1xx_HAL_Driver/Src/stm32f1xx_hal_tim_ex.c ****   *           + Time Hall Sensor Interface Start
  12:Drivers/STM32F1xx_HAL_Driver/Src/stm32f1xx_hal_tim_ex.c ****   *           + Time Complementary signal bread and dead time configuration
  13:Drivers/STM32F1xx_HAL_Driver/Src/stm32f1xx_hal_tim_ex.c ****   *           + Time Master and Slave synchronization configuration
  14:Drivers/STM32F1xx_HAL_Driver/Src/stm32f1xx_hal_tim_ex.c ****   *           + Timer remapping capabilities configuration
  15:Drivers/STM32F1xx_HAL_Driver/Src/stm32f1xx_hal_tim_ex.c ****   @verbatim
  16:Drivers/STM32F1xx_HAL_Driver/Src/stm32f1xx_hal_tim_ex.c ****   ==============================================================================
  17:Drivers/STM32F1xx_HAL_Driver/Src/stm32f1xx_hal_tim_ex.c ****                       ##### TIMER Extended features #####
  18:Drivers/STM32F1xx_HAL_Driver/Src/stm32f1xx_hal_tim_ex.c ****   ==============================================================================
  19:Drivers/STM32F1xx_HAL_Driver/Src/stm32f1xx_hal_tim_ex.c ****   [..]
  20:Drivers/STM32F1xx_HAL_Driver/Src/stm32f1xx_hal_tim_ex.c ****     The Timer Extended features include:
  21:Drivers/STM32F1xx_HAL_Driver/Src/stm32f1xx_hal_tim_ex.c ****     (#) Complementary outputs with programmable dead-time for :
  22:Drivers/STM32F1xx_HAL_Driver/Src/stm32f1xx_hal_tim_ex.c ****         (++) Output Compare
  23:Drivers/STM32F1xx_HAL_Driver/Src/stm32f1xx_hal_tim_ex.c ****         (++) PWM generation (Edge and Center-aligned Mode)
  24:Drivers/STM32F1xx_HAL_Driver/Src/stm32f1xx_hal_tim_ex.c ****         (++) One-pulse mode output
  25:Drivers/STM32F1xx_HAL_Driver/Src/stm32f1xx_hal_tim_ex.c ****     (#) Synchronization circuit to control the timer with external signals and to
  26:Drivers/STM32F1xx_HAL_Driver/Src/stm32f1xx_hal_tim_ex.c ****         interconnect several timers together.
  27:Drivers/STM32F1xx_HAL_Driver/Src/stm32f1xx_hal_tim_ex.c ****     (#) Break input to put the timer output signals in reset state or in a known state.
  28:Drivers/STM32F1xx_HAL_Driver/Src/stm32f1xx_hal_tim_ex.c ****     (#) Supports incremental (quadrature) encoder and hall-sensor circuitry for
  29:Drivers/STM32F1xx_HAL_Driver/Src/stm32f1xx_hal_tim_ex.c ****         positioning purposes
  30:Drivers/STM32F1xx_HAL_Driver/Src/stm32f1xx_hal_tim_ex.c **** 
  31:Drivers/STM32F1xx_HAL_Driver/Src/stm32f1xx_hal_tim_ex.c ****             ##### How to use this driver #####
  32:Drivers/STM32F1xx_HAL_Driver/Src/stm32f1xx_hal_tim_ex.c ****   ==============================================================================
  33:Drivers/STM32F1xx_HAL_Driver/Src/stm32f1xx_hal_tim_ex.c ****     [..]
ARM GAS  /tmp/ccpgqo2Y.s 			page 2


  34:Drivers/STM32F1xx_HAL_Driver/Src/stm32f1xx_hal_tim_ex.c ****      (#) Initialize the TIM low level resources by implementing the following functions
  35:Drivers/STM32F1xx_HAL_Driver/Src/stm32f1xx_hal_tim_ex.c ****          depending from feature used :
  36:Drivers/STM32F1xx_HAL_Driver/Src/stm32f1xx_hal_tim_ex.c ****            (++) Complementary Output Compare : HAL_TIM_OC_MspInit()
  37:Drivers/STM32F1xx_HAL_Driver/Src/stm32f1xx_hal_tim_ex.c ****            (++) Complementary PWM generation : HAL_TIM_PWM_MspInit()
  38:Drivers/STM32F1xx_HAL_Driver/Src/stm32f1xx_hal_tim_ex.c ****            (++) Complementary One-pulse mode output : HAL_TIM_OnePulse_MspInit()
  39:Drivers/STM32F1xx_HAL_Driver/Src/stm32f1xx_hal_tim_ex.c ****            (++) Hall Sensor output : HAL_TIMEx_HallSensor_MspInit()
  40:Drivers/STM32F1xx_HAL_Driver/Src/stm32f1xx_hal_tim_ex.c **** 
  41:Drivers/STM32F1xx_HAL_Driver/Src/stm32f1xx_hal_tim_ex.c ****      (#) Initialize the TIM low level resources :
  42:Drivers/STM32F1xx_HAL_Driver/Src/stm32f1xx_hal_tim_ex.c ****         (##) Enable the TIM interface clock using __HAL_RCC_TIMx_CLK_ENABLE();
  43:Drivers/STM32F1xx_HAL_Driver/Src/stm32f1xx_hal_tim_ex.c ****         (##) TIM pins configuration
  44:Drivers/STM32F1xx_HAL_Driver/Src/stm32f1xx_hal_tim_ex.c ****             (+++) Enable the clock for the TIM GPIOs using the following function:
  45:Drivers/STM32F1xx_HAL_Driver/Src/stm32f1xx_hal_tim_ex.c ****               __HAL_RCC_GPIOx_CLK_ENABLE();
  46:Drivers/STM32F1xx_HAL_Driver/Src/stm32f1xx_hal_tim_ex.c ****             (+++) Configure these TIM pins in Alternate function mode using HAL_GPIO_Init();
  47:Drivers/STM32F1xx_HAL_Driver/Src/stm32f1xx_hal_tim_ex.c **** 
  48:Drivers/STM32F1xx_HAL_Driver/Src/stm32f1xx_hal_tim_ex.c ****      (#) The external Clock can be configured, if needed (the default clock is the
  49:Drivers/STM32F1xx_HAL_Driver/Src/stm32f1xx_hal_tim_ex.c ****          internal clock from the APBx), using the following function:
  50:Drivers/STM32F1xx_HAL_Driver/Src/stm32f1xx_hal_tim_ex.c ****          HAL_TIM_ConfigClockSource, the clock configuration should be done before
  51:Drivers/STM32F1xx_HAL_Driver/Src/stm32f1xx_hal_tim_ex.c ****          any start function.
  52:Drivers/STM32F1xx_HAL_Driver/Src/stm32f1xx_hal_tim_ex.c **** 
  53:Drivers/STM32F1xx_HAL_Driver/Src/stm32f1xx_hal_tim_ex.c ****      (#) Configure the TIM in the desired functioning mode using one of the
  54:Drivers/STM32F1xx_HAL_Driver/Src/stm32f1xx_hal_tim_ex.c ****          initialization function of this driver:
  55:Drivers/STM32F1xx_HAL_Driver/Src/stm32f1xx_hal_tim_ex.c ****           (++) HAL_TIMEx_HallSensor_Init and HAL_TIMEx_ConfigCommutationEvent: to use the
  56:Drivers/STM32F1xx_HAL_Driver/Src/stm32f1xx_hal_tim_ex.c ****               Timer Hall Sensor Interface and the commutation event with the corresponding
  57:Drivers/STM32F1xx_HAL_Driver/Src/stm32f1xx_hal_tim_ex.c ****               Interrupt and DMA request if needed (Note that One Timer is used to interface
  58:Drivers/STM32F1xx_HAL_Driver/Src/stm32f1xx_hal_tim_ex.c ****              with the Hall sensor Interface and another Timer should be used to use
  59:Drivers/STM32F1xx_HAL_Driver/Src/stm32f1xx_hal_tim_ex.c ****              the commutation event).
  60:Drivers/STM32F1xx_HAL_Driver/Src/stm32f1xx_hal_tim_ex.c **** 
  61:Drivers/STM32F1xx_HAL_Driver/Src/stm32f1xx_hal_tim_ex.c ****      (#) Activate the TIM peripheral using one of the start functions:
  62:Drivers/STM32F1xx_HAL_Driver/Src/stm32f1xx_hal_tim_ex.c ****            (++) Complementary Output Compare : HAL_TIMEx_OCN_Start(), HAL_TIMEx_OCN_Start_DMA(), HA
  63:Drivers/STM32F1xx_HAL_Driver/Src/stm32f1xx_hal_tim_ex.c ****            (++) Complementary PWM generation : HAL_TIMEx_PWMN_Start(), HAL_TIMEx_PWMN_Start_DMA(), 
  64:Drivers/STM32F1xx_HAL_Driver/Src/stm32f1xx_hal_tim_ex.c ****            (++) Complementary One-pulse mode output : HAL_TIMEx_OnePulseN_Start(), HAL_TIMEx_OnePul
  65:Drivers/STM32F1xx_HAL_Driver/Src/stm32f1xx_hal_tim_ex.c ****            (++) Hall Sensor output : HAL_TIMEx_HallSensor_Start(), HAL_TIMEx_HallSensor_Start_DMA()
  66:Drivers/STM32F1xx_HAL_Driver/Src/stm32f1xx_hal_tim_ex.c **** 
  67:Drivers/STM32F1xx_HAL_Driver/Src/stm32f1xx_hal_tim_ex.c **** 
  68:Drivers/STM32F1xx_HAL_Driver/Src/stm32f1xx_hal_tim_ex.c ****   @endverbatim
  69:Drivers/STM32F1xx_HAL_Driver/Src/stm32f1xx_hal_tim_ex.c ****   ******************************************************************************
  70:Drivers/STM32F1xx_HAL_Driver/Src/stm32f1xx_hal_tim_ex.c ****   * @attention
  71:Drivers/STM32F1xx_HAL_Driver/Src/stm32f1xx_hal_tim_ex.c ****   *
  72:Drivers/STM32F1xx_HAL_Driver/Src/stm32f1xx_hal_tim_ex.c ****   * <h2><center>&copy; COPYRIGHT(c) 2016 STMicroelectronics</center></h2>
  73:Drivers/STM32F1xx_HAL_Driver/Src/stm32f1xx_hal_tim_ex.c ****   *
  74:Drivers/STM32F1xx_HAL_Driver/Src/stm32f1xx_hal_tim_ex.c ****   * Redistribution and use in source and binary forms, with or without modification,
  75:Drivers/STM32F1xx_HAL_Driver/Src/stm32f1xx_hal_tim_ex.c ****   * are permitted provided that the following conditions are met:
  76:Drivers/STM32F1xx_HAL_Driver/Src/stm32f1xx_hal_tim_ex.c ****   *   1. Redistributions of source code must retain the above copyright notice,
  77:Drivers/STM32F1xx_HAL_Driver/Src/stm32f1xx_hal_tim_ex.c ****   *      this list of conditions and the following disclaimer.
  78:Drivers/STM32F1xx_HAL_Driver/Src/stm32f1xx_hal_tim_ex.c ****   *   2. Redistributions in binary form must reproduce the above copyright notice,
  79:Drivers/STM32F1xx_HAL_Driver/Src/stm32f1xx_hal_tim_ex.c ****   *      this list of conditions and the following disclaimer in the documentation
  80:Drivers/STM32F1xx_HAL_Driver/Src/stm32f1xx_hal_tim_ex.c ****   *      and/or other materials provided with the distribution.
  81:Drivers/STM32F1xx_HAL_Driver/Src/stm32f1xx_hal_tim_ex.c ****   *   3. Neither the name of STMicroelectronics nor the names of its contributors
  82:Drivers/STM32F1xx_HAL_Driver/Src/stm32f1xx_hal_tim_ex.c ****   *      may be used to endorse or promote products derived from this software
  83:Drivers/STM32F1xx_HAL_Driver/Src/stm32f1xx_hal_tim_ex.c ****   *      without specific prior written permission.
  84:Drivers/STM32F1xx_HAL_Driver/Src/stm32f1xx_hal_tim_ex.c ****   *
  85:Drivers/STM32F1xx_HAL_Driver/Src/stm32f1xx_hal_tim_ex.c ****   * THIS SOFTWARE IS PROVIDED BY THE COPYRIGHT HOLDERS AND CONTRIBUTORS "AS IS"
  86:Drivers/STM32F1xx_HAL_Driver/Src/stm32f1xx_hal_tim_ex.c ****   * AND ANY EXPRESS OR IMPLIED WARRANTIES, INCLUDING, BUT NOT LIMITED TO, THE
  87:Drivers/STM32F1xx_HAL_Driver/Src/stm32f1xx_hal_tim_ex.c ****   * IMPLIED WARRANTIES OF MERCHANTABILITY AND FITNESS FOR A PARTICULAR PURPOSE ARE
  88:Drivers/STM32F1xx_HAL_Driver/Src/stm32f1xx_hal_tim_ex.c ****   * DISCLAIMED. IN NO EVENT SHALL THE COPYRIGHT HOLDER OR CONTRIBUTORS BE LIABLE
  89:Drivers/STM32F1xx_HAL_Driver/Src/stm32f1xx_hal_tim_ex.c ****   * FOR ANY DIRECT, INDIRECT, INCIDENTAL, SPECIAL, EXEMPLARY, OR CONSEQUENTIAL
  90:Drivers/STM32F1xx_HAL_Driver/Src/stm32f1xx_hal_tim_ex.c ****   * DAMAGES (INCLUDING, BUT NOT LIMITED TO, PROCUREMENT OF SUBSTITUTE GOODS OR
ARM GAS  /tmp/ccpgqo2Y.s 			page 3


  91:Drivers/STM32F1xx_HAL_Driver/Src/stm32f1xx_hal_tim_ex.c ****   * SERVICES; LOSS OF USE, DATA, OR PROFITS; OR BUSINESS INTERRUPTION) HOWEVER
  92:Drivers/STM32F1xx_HAL_Driver/Src/stm32f1xx_hal_tim_ex.c ****   * CAUSED AND ON ANY THEORY OF LIABILITY, WHETHER IN CONTRACT, STRICT LIABILITY,
  93:Drivers/STM32F1xx_HAL_Driver/Src/stm32f1xx_hal_tim_ex.c ****   * OR TORT (INCLUDING NEGLIGENCE OR OTHERWISE) ARISING IN ANY WAY OUT OF THE USE
  94:Drivers/STM32F1xx_HAL_Driver/Src/stm32f1xx_hal_tim_ex.c ****   * OF THIS SOFTWARE, EVEN IF ADVISED OF THE POSSIBILITY OF SUCH DAMAGE.
  95:Drivers/STM32F1xx_HAL_Driver/Src/stm32f1xx_hal_tim_ex.c ****   *
  96:Drivers/STM32F1xx_HAL_Driver/Src/stm32f1xx_hal_tim_ex.c ****   ******************************************************************************
  97:Drivers/STM32F1xx_HAL_Driver/Src/stm32f1xx_hal_tim_ex.c **** */
  98:Drivers/STM32F1xx_HAL_Driver/Src/stm32f1xx_hal_tim_ex.c **** 
  99:Drivers/STM32F1xx_HAL_Driver/Src/stm32f1xx_hal_tim_ex.c **** /* Includes ------------------------------------------------------------------*/
 100:Drivers/STM32F1xx_HAL_Driver/Src/stm32f1xx_hal_tim_ex.c **** #include "stm32f1xx_hal.h"
 101:Drivers/STM32F1xx_HAL_Driver/Src/stm32f1xx_hal_tim_ex.c **** 
 102:Drivers/STM32F1xx_HAL_Driver/Src/stm32f1xx_hal_tim_ex.c **** /** @addtogroup STM32F1xx_HAL_Driver
 103:Drivers/STM32F1xx_HAL_Driver/Src/stm32f1xx_hal_tim_ex.c ****   * @{
 104:Drivers/STM32F1xx_HAL_Driver/Src/stm32f1xx_hal_tim_ex.c ****   */
 105:Drivers/STM32F1xx_HAL_Driver/Src/stm32f1xx_hal_tim_ex.c **** 
 106:Drivers/STM32F1xx_HAL_Driver/Src/stm32f1xx_hal_tim_ex.c **** /** @defgroup TIMEx TIMEx
 107:Drivers/STM32F1xx_HAL_Driver/Src/stm32f1xx_hal_tim_ex.c ****   * @brief TIM Extended HAL module driver
 108:Drivers/STM32F1xx_HAL_Driver/Src/stm32f1xx_hal_tim_ex.c ****   * @{
 109:Drivers/STM32F1xx_HAL_Driver/Src/stm32f1xx_hal_tim_ex.c ****   */
 110:Drivers/STM32F1xx_HAL_Driver/Src/stm32f1xx_hal_tim_ex.c **** 
 111:Drivers/STM32F1xx_HAL_Driver/Src/stm32f1xx_hal_tim_ex.c **** #ifdef HAL_TIM_MODULE_ENABLED
 112:Drivers/STM32F1xx_HAL_Driver/Src/stm32f1xx_hal_tim_ex.c **** 
 113:Drivers/STM32F1xx_HAL_Driver/Src/stm32f1xx_hal_tim_ex.c **** /* Private typedef -----------------------------------------------------------*/
 114:Drivers/STM32F1xx_HAL_Driver/Src/stm32f1xx_hal_tim_ex.c **** /* Private define ------------------------------------------------------------*/
 115:Drivers/STM32F1xx_HAL_Driver/Src/stm32f1xx_hal_tim_ex.c **** /* Private macro -------------------------------------------------------------*/
 116:Drivers/STM32F1xx_HAL_Driver/Src/stm32f1xx_hal_tim_ex.c **** /* Private variables ---------------------------------------------------------*/
 117:Drivers/STM32F1xx_HAL_Driver/Src/stm32f1xx_hal_tim_ex.c **** /* Private function prototypes -----------------------------------------------*/
 118:Drivers/STM32F1xx_HAL_Driver/Src/stm32f1xx_hal_tim_ex.c **** 
 119:Drivers/STM32F1xx_HAL_Driver/Src/stm32f1xx_hal_tim_ex.c **** #if defined (STM32F100xB) || defined (STM32F100xE) ||                                              
 120:Drivers/STM32F1xx_HAL_Driver/Src/stm32f1xx_hal_tim_ex.c ****     defined (STM32F103x6) || defined (STM32F103xB) || defined (STM32F103xE) || defined (STM32F103xG
 121:Drivers/STM32F1xx_HAL_Driver/Src/stm32f1xx_hal_tim_ex.c ****     defined (STM32F105xC) || defined (STM32F107xC)
 122:Drivers/STM32F1xx_HAL_Driver/Src/stm32f1xx_hal_tim_ex.c **** /** @defgroup TIMEx_Private_Functions TIMEx Private Functions
 123:Drivers/STM32F1xx_HAL_Driver/Src/stm32f1xx_hal_tim_ex.c ****   * @{
 124:Drivers/STM32F1xx_HAL_Driver/Src/stm32f1xx_hal_tim_ex.c ****   */
 125:Drivers/STM32F1xx_HAL_Driver/Src/stm32f1xx_hal_tim_ex.c **** static void TIM_CCxNChannelCmd(TIM_TypeDef* TIMx, uint32_t Channel, uint32_t ChannelNState);
 126:Drivers/STM32F1xx_HAL_Driver/Src/stm32f1xx_hal_tim_ex.c **** /**
 127:Drivers/STM32F1xx_HAL_Driver/Src/stm32f1xx_hal_tim_ex.c ****   * @}
 128:Drivers/STM32F1xx_HAL_Driver/Src/stm32f1xx_hal_tim_ex.c ****   */
 129:Drivers/STM32F1xx_HAL_Driver/Src/stm32f1xx_hal_tim_ex.c **** #endif /* defined(STM32F100xB) || defined(STM32F100xE) ||                                          
 130:Drivers/STM32F1xx_HAL_Driver/Src/stm32f1xx_hal_tim_ex.c ****        /* defined(STM32F103x6) || defined(STM32F103xB) || defined(STM32F103xE) || defined(STM32F103
 131:Drivers/STM32F1xx_HAL_Driver/Src/stm32f1xx_hal_tim_ex.c ****        /* defined(STM32F105xC) || defined(STM32F107xC)                                             
 132:Drivers/STM32F1xx_HAL_Driver/Src/stm32f1xx_hal_tim_ex.c **** 
 133:Drivers/STM32F1xx_HAL_Driver/Src/stm32f1xx_hal_tim_ex.c **** /* Exported functions ---------------------------------------------------------*/
 134:Drivers/STM32F1xx_HAL_Driver/Src/stm32f1xx_hal_tim_ex.c **** 
 135:Drivers/STM32F1xx_HAL_Driver/Src/stm32f1xx_hal_tim_ex.c **** /** @defgroup TIMEx_Exported_Functions TIMEx Exported Functions
 136:Drivers/STM32F1xx_HAL_Driver/Src/stm32f1xx_hal_tim_ex.c ****   * @{
 137:Drivers/STM32F1xx_HAL_Driver/Src/stm32f1xx_hal_tim_ex.c ****   */
 138:Drivers/STM32F1xx_HAL_Driver/Src/stm32f1xx_hal_tim_ex.c **** 
 139:Drivers/STM32F1xx_HAL_Driver/Src/stm32f1xx_hal_tim_ex.c **** 
 140:Drivers/STM32F1xx_HAL_Driver/Src/stm32f1xx_hal_tim_ex.c **** /** @defgroup TIMEx_Exported_Functions_Group1 Timer Hall Sensor functions
 141:Drivers/STM32F1xx_HAL_Driver/Src/stm32f1xx_hal_tim_ex.c ****  *  @brief    Timer Hall Sensor functions
 142:Drivers/STM32F1xx_HAL_Driver/Src/stm32f1xx_hal_tim_ex.c ****  *
 143:Drivers/STM32F1xx_HAL_Driver/Src/stm32f1xx_hal_tim_ex.c **** @verbatim
 144:Drivers/STM32F1xx_HAL_Driver/Src/stm32f1xx_hal_tim_ex.c ****   ==============================================================================
 145:Drivers/STM32F1xx_HAL_Driver/Src/stm32f1xx_hal_tim_ex.c ****                       ##### Timer Hall Sensor functions #####
 146:Drivers/STM32F1xx_HAL_Driver/Src/stm32f1xx_hal_tim_ex.c ****   ==============================================================================
 147:Drivers/STM32F1xx_HAL_Driver/Src/stm32f1xx_hal_tim_ex.c ****   [..]
ARM GAS  /tmp/ccpgqo2Y.s 			page 4


 148:Drivers/STM32F1xx_HAL_Driver/Src/stm32f1xx_hal_tim_ex.c ****     This section provides functions allowing to:
 149:Drivers/STM32F1xx_HAL_Driver/Src/stm32f1xx_hal_tim_ex.c ****     (+) Initialize and configure TIM HAL Sensor.
 150:Drivers/STM32F1xx_HAL_Driver/Src/stm32f1xx_hal_tim_ex.c ****     (+) De-initialize TIM HAL Sensor.
 151:Drivers/STM32F1xx_HAL_Driver/Src/stm32f1xx_hal_tim_ex.c ****     (+) Start the Hall Sensor Interface.
 152:Drivers/STM32F1xx_HAL_Driver/Src/stm32f1xx_hal_tim_ex.c ****     (+) Stop the Hall Sensor Interface.
 153:Drivers/STM32F1xx_HAL_Driver/Src/stm32f1xx_hal_tim_ex.c ****     (+) Start the Hall Sensor Interface and enable interrupts.
 154:Drivers/STM32F1xx_HAL_Driver/Src/stm32f1xx_hal_tim_ex.c ****     (+) Stop the Hall Sensor Interface and disable interrupts.
 155:Drivers/STM32F1xx_HAL_Driver/Src/stm32f1xx_hal_tim_ex.c ****     (+) Start the Hall Sensor Interface and enable DMA transfers.
 156:Drivers/STM32F1xx_HAL_Driver/Src/stm32f1xx_hal_tim_ex.c ****     (+) Stop the Hall Sensor Interface and disable DMA transfers.
 157:Drivers/STM32F1xx_HAL_Driver/Src/stm32f1xx_hal_tim_ex.c **** 
 158:Drivers/STM32F1xx_HAL_Driver/Src/stm32f1xx_hal_tim_ex.c **** @endverbatim
 159:Drivers/STM32F1xx_HAL_Driver/Src/stm32f1xx_hal_tim_ex.c ****   * @{
 160:Drivers/STM32F1xx_HAL_Driver/Src/stm32f1xx_hal_tim_ex.c ****   */
 161:Drivers/STM32F1xx_HAL_Driver/Src/stm32f1xx_hal_tim_ex.c **** /**
 162:Drivers/STM32F1xx_HAL_Driver/Src/stm32f1xx_hal_tim_ex.c ****   * @brief  Initializes the TIM Hall Sensor Interface and create the associated handle.
 163:Drivers/STM32F1xx_HAL_Driver/Src/stm32f1xx_hal_tim_ex.c ****   * @param  htim : TIM Encoder Interface handle
 164:Drivers/STM32F1xx_HAL_Driver/Src/stm32f1xx_hal_tim_ex.c ****   * @param  sConfig : TIM Hall Sensor configuration structure
 165:Drivers/STM32F1xx_HAL_Driver/Src/stm32f1xx_hal_tim_ex.c ****   * @retval HAL status
 166:Drivers/STM32F1xx_HAL_Driver/Src/stm32f1xx_hal_tim_ex.c ****   */
 167:Drivers/STM32F1xx_HAL_Driver/Src/stm32f1xx_hal_tim_ex.c **** HAL_StatusTypeDef HAL_TIMEx_HallSensor_Init(TIM_HandleTypeDef *htim, TIM_HallSensor_InitTypeDef* sC
 168:Drivers/STM32F1xx_HAL_Driver/Src/stm32f1xx_hal_tim_ex.c **** {
  26              		.loc 1 168 0
  27              		.cfi_startproc
  28              		@ args = 0, pretend = 0, frame = 40
  29              		@ frame_needed = 1, uses_anonymous_args = 0
  30 0000 80B5     		push	{r7, lr}
  31              	.LCFI0:
  32              		.cfi_def_cfa_offset 8
  33              		.cfi_offset 7, -8
  34              		.cfi_offset 14, -4
  35 0002 8AB0     		sub	sp, sp, #40
  36              	.LCFI1:
  37              		.cfi_def_cfa_offset 48
  38 0004 00AF     		add	r7, sp, #0
  39              	.LCFI2:
  40              		.cfi_def_cfa_register 7
  41 0006 7860     		str	r0, [r7, #4]
  42 0008 3960     		str	r1, [r7]
 169:Drivers/STM32F1xx_HAL_Driver/Src/stm32f1xx_hal_tim_ex.c ****   TIM_OC_InitTypeDef OC_Config;
 170:Drivers/STM32F1xx_HAL_Driver/Src/stm32f1xx_hal_tim_ex.c **** 
 171:Drivers/STM32F1xx_HAL_Driver/Src/stm32f1xx_hal_tim_ex.c ****   /* Check the TIM handle allocation */
 172:Drivers/STM32F1xx_HAL_Driver/Src/stm32f1xx_hal_tim_ex.c ****   if(htim == NULL)
  43              		.loc 1 172 0
  44 000a 7B68     		ldr	r3, [r7, #4]
  45 000c 002B     		cmp	r3, #0
  46 000e 01D1     		bne	.L2
 173:Drivers/STM32F1xx_HAL_Driver/Src/stm32f1xx_hal_tim_ex.c ****   {
 174:Drivers/STM32F1xx_HAL_Driver/Src/stm32f1xx_hal_tim_ex.c ****     return HAL_ERROR;
  47              		.loc 1 174 0
  48 0010 0123     		movs	r3, #1
  49 0012 86E0     		b	.L5
  50              	.L2:
 175:Drivers/STM32F1xx_HAL_Driver/Src/stm32f1xx_hal_tim_ex.c ****   }
 176:Drivers/STM32F1xx_HAL_Driver/Src/stm32f1xx_hal_tim_ex.c **** 
 177:Drivers/STM32F1xx_HAL_Driver/Src/stm32f1xx_hal_tim_ex.c ****   assert_param(IS_TIM_XOR_INSTANCE(htim->Instance));
 178:Drivers/STM32F1xx_HAL_Driver/Src/stm32f1xx_hal_tim_ex.c ****   assert_param(IS_TIM_COUNTER_MODE(htim->Init.CounterMode));
 179:Drivers/STM32F1xx_HAL_Driver/Src/stm32f1xx_hal_tim_ex.c ****   assert_param(IS_TIM_CLOCKDIVISION_DIV(htim->Init.ClockDivision));
ARM GAS  /tmp/ccpgqo2Y.s 			page 5


 180:Drivers/STM32F1xx_HAL_Driver/Src/stm32f1xx_hal_tim_ex.c ****   assert_param(IS_TIM_AUTORELOAD_PRELOAD(htim->Init.AutoReloadPreload));
 181:Drivers/STM32F1xx_HAL_Driver/Src/stm32f1xx_hal_tim_ex.c ****   assert_param(IS_TIM_IC_POLARITY(sConfig->IC1Polarity));
 182:Drivers/STM32F1xx_HAL_Driver/Src/stm32f1xx_hal_tim_ex.c ****   assert_param(IS_TIM_IC_PRESCALER(sConfig->IC1Prescaler));
 183:Drivers/STM32F1xx_HAL_Driver/Src/stm32f1xx_hal_tim_ex.c ****   assert_param(IS_TIM_IC_FILTER(sConfig->IC1Filter));
 184:Drivers/STM32F1xx_HAL_Driver/Src/stm32f1xx_hal_tim_ex.c **** 
 185:Drivers/STM32F1xx_HAL_Driver/Src/stm32f1xx_hal_tim_ex.c ****   if(htim->State == HAL_TIM_STATE_RESET)
  51              		.loc 1 185 0
  52 0014 7B68     		ldr	r3, [r7, #4]
  53 0016 93F83D30 		ldrb	r3, [r3, #61]
  54 001a DBB2     		uxtb	r3, r3
  55 001c 002B     		cmp	r3, #0
  56 001e 06D1     		bne	.L4
 186:Drivers/STM32F1xx_HAL_Driver/Src/stm32f1xx_hal_tim_ex.c ****   {
 187:Drivers/STM32F1xx_HAL_Driver/Src/stm32f1xx_hal_tim_ex.c ****     /* Allocate lock resource and initialize it */
 188:Drivers/STM32F1xx_HAL_Driver/Src/stm32f1xx_hal_tim_ex.c ****     htim->Lock = HAL_UNLOCKED;
  57              		.loc 1 188 0
  58 0020 7B68     		ldr	r3, [r7, #4]
  59 0022 0022     		movs	r2, #0
  60 0024 83F83C20 		strb	r2, [r3, #60]
 189:Drivers/STM32F1xx_HAL_Driver/Src/stm32f1xx_hal_tim_ex.c ****     
 190:Drivers/STM32F1xx_HAL_Driver/Src/stm32f1xx_hal_tim_ex.c ****     /* Init the low level hardware : GPIO, CLOCK, NVIC and DMA */
 191:Drivers/STM32F1xx_HAL_Driver/Src/stm32f1xx_hal_tim_ex.c ****     HAL_TIMEx_HallSensor_MspInit(htim);
  61              		.loc 1 191 0
  62 0028 7868     		ldr	r0, [r7, #4]
  63 002a FFF7FEFF 		bl	HAL_TIMEx_HallSensor_MspInit
  64              	.L4:
 192:Drivers/STM32F1xx_HAL_Driver/Src/stm32f1xx_hal_tim_ex.c ****   }
 193:Drivers/STM32F1xx_HAL_Driver/Src/stm32f1xx_hal_tim_ex.c **** 
 194:Drivers/STM32F1xx_HAL_Driver/Src/stm32f1xx_hal_tim_ex.c ****   /* Set the TIM state */
 195:Drivers/STM32F1xx_HAL_Driver/Src/stm32f1xx_hal_tim_ex.c ****   htim->State= HAL_TIM_STATE_BUSY;
  65              		.loc 1 195 0
  66 002e 7B68     		ldr	r3, [r7, #4]
  67 0030 0222     		movs	r2, #2
  68 0032 83F83D20 		strb	r2, [r3, #61]
 196:Drivers/STM32F1xx_HAL_Driver/Src/stm32f1xx_hal_tim_ex.c **** 
 197:Drivers/STM32F1xx_HAL_Driver/Src/stm32f1xx_hal_tim_ex.c ****   /* Configure the Time base in the Encoder Mode */
 198:Drivers/STM32F1xx_HAL_Driver/Src/stm32f1xx_hal_tim_ex.c ****   TIM_Base_SetConfig(htim->Instance, &htim->Init);
  69              		.loc 1 198 0
  70 0036 7B68     		ldr	r3, [r7, #4]
  71 0038 1A68     		ldr	r2, [r3]
  72 003a 7B68     		ldr	r3, [r7, #4]
  73 003c 0433     		adds	r3, r3, #4
  74 003e 1946     		mov	r1, r3
  75 0040 1046     		mov	r0, r2
  76 0042 FFF7FEFF 		bl	TIM_Base_SetConfig
 199:Drivers/STM32F1xx_HAL_Driver/Src/stm32f1xx_hal_tim_ex.c **** 
 200:Drivers/STM32F1xx_HAL_Driver/Src/stm32f1xx_hal_tim_ex.c ****   /* Configure the Channel 1 as Input Channel to interface with the three Outputs of the  Hall sens
 201:Drivers/STM32F1xx_HAL_Driver/Src/stm32f1xx_hal_tim_ex.c ****   TIM_TI1_SetConfig(htim->Instance, sConfig->IC1Polarity, TIM_ICSELECTION_TRC, sConfig->IC1Filter);
  77              		.loc 1 201 0
  78 0046 7B68     		ldr	r3, [r7, #4]
  79 0048 1868     		ldr	r0, [r3]
  80 004a 3B68     		ldr	r3, [r7]
  81 004c 1968     		ldr	r1, [r3]
  82 004e 3B68     		ldr	r3, [r7]
  83 0050 9B68     		ldr	r3, [r3, #8]
  84 0052 0322     		movs	r2, #3
  85 0054 FFF7FEFF 		bl	TIM_TI1_SetConfig
ARM GAS  /tmp/ccpgqo2Y.s 			page 6


 202:Drivers/STM32F1xx_HAL_Driver/Src/stm32f1xx_hal_tim_ex.c **** 
 203:Drivers/STM32F1xx_HAL_Driver/Src/stm32f1xx_hal_tim_ex.c ****   /* Reset the IC1PSC Bits */
 204:Drivers/STM32F1xx_HAL_Driver/Src/stm32f1xx_hal_tim_ex.c ****   htim->Instance->CCMR1 &= ~TIM_CCMR1_IC1PSC;
  86              		.loc 1 204 0
  87 0058 7B68     		ldr	r3, [r7, #4]
  88 005a 1B68     		ldr	r3, [r3]
  89 005c 9A69     		ldr	r2, [r3, #24]
  90 005e 7B68     		ldr	r3, [r7, #4]
  91 0060 1B68     		ldr	r3, [r3]
  92 0062 22F00C02 		bic	r2, r2, #12
  93 0066 9A61     		str	r2, [r3, #24]
 205:Drivers/STM32F1xx_HAL_Driver/Src/stm32f1xx_hal_tim_ex.c ****   /* Set the IC1PSC value */
 206:Drivers/STM32F1xx_HAL_Driver/Src/stm32f1xx_hal_tim_ex.c ****   htim->Instance->CCMR1 |= sConfig->IC1Prescaler;
  94              		.loc 1 206 0
  95 0068 7B68     		ldr	r3, [r7, #4]
  96 006a 1B68     		ldr	r3, [r3]
  97 006c 9969     		ldr	r1, [r3, #24]
  98 006e 3B68     		ldr	r3, [r7]
  99 0070 5A68     		ldr	r2, [r3, #4]
 100 0072 7B68     		ldr	r3, [r7, #4]
 101 0074 1B68     		ldr	r3, [r3]
 102 0076 0A43     		orrs	r2, r2, r1
 103 0078 9A61     		str	r2, [r3, #24]
 207:Drivers/STM32F1xx_HAL_Driver/Src/stm32f1xx_hal_tim_ex.c **** 
 208:Drivers/STM32F1xx_HAL_Driver/Src/stm32f1xx_hal_tim_ex.c ****   /* Enable the Hall sensor interface (XOR function of the three inputs) */
 209:Drivers/STM32F1xx_HAL_Driver/Src/stm32f1xx_hal_tim_ex.c ****   htim->Instance->CR2 |= TIM_CR2_TI1S;
 104              		.loc 1 209 0
 105 007a 7B68     		ldr	r3, [r7, #4]
 106 007c 1B68     		ldr	r3, [r3]
 107 007e 5A68     		ldr	r2, [r3, #4]
 108 0080 7B68     		ldr	r3, [r7, #4]
 109 0082 1B68     		ldr	r3, [r3]
 110 0084 42F08002 		orr	r2, r2, #128
 111 0088 5A60     		str	r2, [r3, #4]
 210:Drivers/STM32F1xx_HAL_Driver/Src/stm32f1xx_hal_tim_ex.c **** 
 211:Drivers/STM32F1xx_HAL_Driver/Src/stm32f1xx_hal_tim_ex.c ****   /* Select the TIM_TS_TI1F_ED signal as Input trigger for the TIM */
 212:Drivers/STM32F1xx_HAL_Driver/Src/stm32f1xx_hal_tim_ex.c ****   htim->Instance->SMCR &= ~TIM_SMCR_TS;
 112              		.loc 1 212 0
 113 008a 7B68     		ldr	r3, [r7, #4]
 114 008c 1B68     		ldr	r3, [r3]
 115 008e 9A68     		ldr	r2, [r3, #8]
 116 0090 7B68     		ldr	r3, [r7, #4]
 117 0092 1B68     		ldr	r3, [r3]
 118 0094 22F07002 		bic	r2, r2, #112
 119 0098 9A60     		str	r2, [r3, #8]
 213:Drivers/STM32F1xx_HAL_Driver/Src/stm32f1xx_hal_tim_ex.c ****   htim->Instance->SMCR |= TIM_TS_TI1F_ED;
 120              		.loc 1 213 0
 121 009a 7B68     		ldr	r3, [r7, #4]
 122 009c 1B68     		ldr	r3, [r3]
 123 009e 9A68     		ldr	r2, [r3, #8]
 124 00a0 7B68     		ldr	r3, [r7, #4]
 125 00a2 1B68     		ldr	r3, [r3]
 126 00a4 42F04002 		orr	r2, r2, #64
 127 00a8 9A60     		str	r2, [r3, #8]
 214:Drivers/STM32F1xx_HAL_Driver/Src/stm32f1xx_hal_tim_ex.c **** 
 215:Drivers/STM32F1xx_HAL_Driver/Src/stm32f1xx_hal_tim_ex.c ****   /* Use the TIM_TS_TI1F_ED signal to reset the TIM counter each edge detection */
 216:Drivers/STM32F1xx_HAL_Driver/Src/stm32f1xx_hal_tim_ex.c ****   htim->Instance->SMCR &= ~TIM_SMCR_SMS;
ARM GAS  /tmp/ccpgqo2Y.s 			page 7


 128              		.loc 1 216 0
 129 00aa 7B68     		ldr	r3, [r7, #4]
 130 00ac 1B68     		ldr	r3, [r3]
 131 00ae 9A68     		ldr	r2, [r3, #8]
 132 00b0 7B68     		ldr	r3, [r7, #4]
 133 00b2 1B68     		ldr	r3, [r3]
 134 00b4 22F00702 		bic	r2, r2, #7
 135 00b8 9A60     		str	r2, [r3, #8]
 217:Drivers/STM32F1xx_HAL_Driver/Src/stm32f1xx_hal_tim_ex.c ****   htim->Instance->SMCR |= TIM_SLAVEMODE_RESET;
 136              		.loc 1 217 0
 137 00ba 7B68     		ldr	r3, [r7, #4]
 138 00bc 1B68     		ldr	r3, [r3]
 139 00be 9A68     		ldr	r2, [r3, #8]
 140 00c0 7B68     		ldr	r3, [r7, #4]
 141 00c2 1B68     		ldr	r3, [r3]
 142 00c4 42F00402 		orr	r2, r2, #4
 143 00c8 9A60     		str	r2, [r3, #8]
 218:Drivers/STM32F1xx_HAL_Driver/Src/stm32f1xx_hal_tim_ex.c **** 
 219:Drivers/STM32F1xx_HAL_Driver/Src/stm32f1xx_hal_tim_ex.c ****   /* Program channel 2 in PWM 2 mode with the desired Commutation_Delay*/
 220:Drivers/STM32F1xx_HAL_Driver/Src/stm32f1xx_hal_tim_ex.c ****   OC_Config.OCFastMode = TIM_OCFAST_DISABLE;
 144              		.loc 1 220 0
 145 00ca 0023     		movs	r3, #0
 146 00cc FB61     		str	r3, [r7, #28]
 221:Drivers/STM32F1xx_HAL_Driver/Src/stm32f1xx_hal_tim_ex.c ****   OC_Config.OCIdleState = TIM_OCIDLESTATE_RESET;
 147              		.loc 1 221 0
 148 00ce 0023     		movs	r3, #0
 149 00d0 3B62     		str	r3, [r7, #32]
 222:Drivers/STM32F1xx_HAL_Driver/Src/stm32f1xx_hal_tim_ex.c ****   OC_Config.OCMode = TIM_OCMODE_PWM2;
 150              		.loc 1 222 0
 151 00d2 7023     		movs	r3, #112
 152 00d4 FB60     		str	r3, [r7, #12]
 223:Drivers/STM32F1xx_HAL_Driver/Src/stm32f1xx_hal_tim_ex.c ****   OC_Config.OCNIdleState = TIM_OCNIDLESTATE_RESET;
 153              		.loc 1 223 0
 154 00d6 0023     		movs	r3, #0
 155 00d8 7B62     		str	r3, [r7, #36]
 224:Drivers/STM32F1xx_HAL_Driver/Src/stm32f1xx_hal_tim_ex.c ****   OC_Config.OCNPolarity = TIM_OCNPOLARITY_HIGH;
 156              		.loc 1 224 0
 157 00da 0023     		movs	r3, #0
 158 00dc BB61     		str	r3, [r7, #24]
 225:Drivers/STM32F1xx_HAL_Driver/Src/stm32f1xx_hal_tim_ex.c ****   OC_Config.OCPolarity = TIM_OCPOLARITY_HIGH;
 159              		.loc 1 225 0
 160 00de 0023     		movs	r3, #0
 161 00e0 7B61     		str	r3, [r7, #20]
 226:Drivers/STM32F1xx_HAL_Driver/Src/stm32f1xx_hal_tim_ex.c ****   OC_Config.Pulse = sConfig->Commutation_Delay;
 162              		.loc 1 226 0
 163 00e2 3B68     		ldr	r3, [r7]
 164 00e4 DB68     		ldr	r3, [r3, #12]
 165 00e6 3B61     		str	r3, [r7, #16]
 227:Drivers/STM32F1xx_HAL_Driver/Src/stm32f1xx_hal_tim_ex.c **** 
 228:Drivers/STM32F1xx_HAL_Driver/Src/stm32f1xx_hal_tim_ex.c ****   TIM_OC2_SetConfig(htim->Instance, &OC_Config);
 166              		.loc 1 228 0
 167 00e8 7B68     		ldr	r3, [r7, #4]
 168 00ea 1B68     		ldr	r3, [r3]
 169 00ec 07F10C02 		add	r2, r7, #12
 170 00f0 1146     		mov	r1, r2
 171 00f2 1846     		mov	r0, r3
 172 00f4 FFF7FEFF 		bl	TIM_OC2_SetConfig
ARM GAS  /tmp/ccpgqo2Y.s 			page 8


 229:Drivers/STM32F1xx_HAL_Driver/Src/stm32f1xx_hal_tim_ex.c **** 
 230:Drivers/STM32F1xx_HAL_Driver/Src/stm32f1xx_hal_tim_ex.c ****   /* Select OC2REF as trigger output on TRGO: write the MMS bits in the TIMx_CR2
 231:Drivers/STM32F1xx_HAL_Driver/Src/stm32f1xx_hal_tim_ex.c ****     register to 101 */
 232:Drivers/STM32F1xx_HAL_Driver/Src/stm32f1xx_hal_tim_ex.c ****   htim->Instance->CR2 &= ~TIM_CR2_MMS;
 173              		.loc 1 232 0
 174 00f8 7B68     		ldr	r3, [r7, #4]
 175 00fa 1B68     		ldr	r3, [r3]
 176 00fc 5A68     		ldr	r2, [r3, #4]
 177 00fe 7B68     		ldr	r3, [r7, #4]
 178 0100 1B68     		ldr	r3, [r3]
 179 0102 22F07002 		bic	r2, r2, #112
 180 0106 5A60     		str	r2, [r3, #4]
 233:Drivers/STM32F1xx_HAL_Driver/Src/stm32f1xx_hal_tim_ex.c ****   htim->Instance->CR2 |= TIM_TRGO_OC2REF;
 181              		.loc 1 233 0
 182 0108 7B68     		ldr	r3, [r7, #4]
 183 010a 1B68     		ldr	r3, [r3]
 184 010c 5A68     		ldr	r2, [r3, #4]
 185 010e 7B68     		ldr	r3, [r7, #4]
 186 0110 1B68     		ldr	r3, [r3]
 187 0112 42F05002 		orr	r2, r2, #80
 188 0116 5A60     		str	r2, [r3, #4]
 234:Drivers/STM32F1xx_HAL_Driver/Src/stm32f1xx_hal_tim_ex.c **** 
 235:Drivers/STM32F1xx_HAL_Driver/Src/stm32f1xx_hal_tim_ex.c ****   /* Initialize the TIM state*/
 236:Drivers/STM32F1xx_HAL_Driver/Src/stm32f1xx_hal_tim_ex.c ****   htim->State= HAL_TIM_STATE_READY;
 189              		.loc 1 236 0
 190 0118 7B68     		ldr	r3, [r7, #4]
 191 011a 0122     		movs	r2, #1
 192 011c 83F83D20 		strb	r2, [r3, #61]
 237:Drivers/STM32F1xx_HAL_Driver/Src/stm32f1xx_hal_tim_ex.c **** 
 238:Drivers/STM32F1xx_HAL_Driver/Src/stm32f1xx_hal_tim_ex.c ****   return HAL_OK;
 193              		.loc 1 238 0
 194 0120 0023     		movs	r3, #0
 195              	.L5:
 239:Drivers/STM32F1xx_HAL_Driver/Src/stm32f1xx_hal_tim_ex.c **** }
 196              		.loc 1 239 0 discriminator 1
 197 0122 1846     		mov	r0, r3
 198 0124 2837     		adds	r7, r7, #40
 199              	.LCFI3:
 200              		.cfi_def_cfa_offset 8
 201 0126 BD46     		mov	sp, r7
 202              	.LCFI4:
 203              		.cfi_def_cfa_register 13
 204              		@ sp needed
 205 0128 80BD     		pop	{r7, pc}
 206              		.cfi_endproc
 207              	.LFE66:
 209              		.section	.text.HAL_TIMEx_HallSensor_DeInit,"ax",%progbits
 210              		.align	1
 211              		.global	HAL_TIMEx_HallSensor_DeInit
 212              		.syntax unified
 213              		.thumb
 214              		.thumb_func
 215              		.fpu softvfp
 217              	HAL_TIMEx_HallSensor_DeInit:
 218              	.LFB67:
 240:Drivers/STM32F1xx_HAL_Driver/Src/stm32f1xx_hal_tim_ex.c **** 
 241:Drivers/STM32F1xx_HAL_Driver/Src/stm32f1xx_hal_tim_ex.c **** /**
ARM GAS  /tmp/ccpgqo2Y.s 			page 9


 242:Drivers/STM32F1xx_HAL_Driver/Src/stm32f1xx_hal_tim_ex.c ****   * @brief  DeInitializes the TIM Hall Sensor interface
 243:Drivers/STM32F1xx_HAL_Driver/Src/stm32f1xx_hal_tim_ex.c ****   * @param  htim : TIM Hall Sensor handle
 244:Drivers/STM32F1xx_HAL_Driver/Src/stm32f1xx_hal_tim_ex.c ****   * @retval HAL status
 245:Drivers/STM32F1xx_HAL_Driver/Src/stm32f1xx_hal_tim_ex.c ****   */
 246:Drivers/STM32F1xx_HAL_Driver/Src/stm32f1xx_hal_tim_ex.c **** HAL_StatusTypeDef HAL_TIMEx_HallSensor_DeInit(TIM_HandleTypeDef *htim)
 247:Drivers/STM32F1xx_HAL_Driver/Src/stm32f1xx_hal_tim_ex.c **** {
 219              		.loc 1 247 0
 220              		.cfi_startproc
 221              		@ args = 0, pretend = 0, frame = 8
 222              		@ frame_needed = 1, uses_anonymous_args = 0
 223 0000 80B5     		push	{r7, lr}
 224              	.LCFI5:
 225              		.cfi_def_cfa_offset 8
 226              		.cfi_offset 7, -8
 227              		.cfi_offset 14, -4
 228 0002 82B0     		sub	sp, sp, #8
 229              	.LCFI6:
 230              		.cfi_def_cfa_offset 16
 231 0004 00AF     		add	r7, sp, #0
 232              	.LCFI7:
 233              		.cfi_def_cfa_register 7
 234 0006 7860     		str	r0, [r7, #4]
 248:Drivers/STM32F1xx_HAL_Driver/Src/stm32f1xx_hal_tim_ex.c ****   /* Check the parameters */
 249:Drivers/STM32F1xx_HAL_Driver/Src/stm32f1xx_hal_tim_ex.c ****   assert_param(IS_TIM_INSTANCE(htim->Instance));
 250:Drivers/STM32F1xx_HAL_Driver/Src/stm32f1xx_hal_tim_ex.c **** 
 251:Drivers/STM32F1xx_HAL_Driver/Src/stm32f1xx_hal_tim_ex.c ****   htim->State = HAL_TIM_STATE_BUSY;
 235              		.loc 1 251 0
 236 0008 7B68     		ldr	r3, [r7, #4]
 237 000a 0222     		movs	r2, #2
 238 000c 83F83D20 		strb	r2, [r3, #61]
 252:Drivers/STM32F1xx_HAL_Driver/Src/stm32f1xx_hal_tim_ex.c **** 
 253:Drivers/STM32F1xx_HAL_Driver/Src/stm32f1xx_hal_tim_ex.c ****   /* Disable the TIM Peripheral Clock */
 254:Drivers/STM32F1xx_HAL_Driver/Src/stm32f1xx_hal_tim_ex.c ****   __HAL_TIM_DISABLE(htim);
 239              		.loc 1 254 0
 240 0010 7B68     		ldr	r3, [r7, #4]
 241 0012 1B68     		ldr	r3, [r3]
 242 0014 1A6A     		ldr	r2, [r3, #32]
 243 0016 41F21113 		movw	r3, #4369
 244 001a 1340     		ands	r3, r3, r2
 245 001c 002B     		cmp	r3, #0
 246 001e 0FD1     		bne	.L7
 247              		.loc 1 254 0 is_stmt 0 discriminator 1
 248 0020 7B68     		ldr	r3, [r7, #4]
 249 0022 1B68     		ldr	r3, [r3]
 250 0024 1A6A     		ldr	r2, [r3, #32]
 251 0026 40F24443 		movw	r3, #1092
 252 002a 1340     		ands	r3, r3, r2
 253 002c 002B     		cmp	r3, #0
 254 002e 07D1     		bne	.L7
 255              		.loc 1 254 0 discriminator 2
 256 0030 7B68     		ldr	r3, [r7, #4]
 257 0032 1B68     		ldr	r3, [r3]
 258 0034 1A68     		ldr	r2, [r3]
 259 0036 7B68     		ldr	r3, [r7, #4]
 260 0038 1B68     		ldr	r3, [r3]
 261 003a 22F00102 		bic	r2, r2, #1
 262 003e 1A60     		str	r2, [r3]
ARM GAS  /tmp/ccpgqo2Y.s 			page 10


 263              	.L7:
 255:Drivers/STM32F1xx_HAL_Driver/Src/stm32f1xx_hal_tim_ex.c **** 
 256:Drivers/STM32F1xx_HAL_Driver/Src/stm32f1xx_hal_tim_ex.c ****   /* DeInit the low level hardware: GPIO, CLOCK, NVIC */
 257:Drivers/STM32F1xx_HAL_Driver/Src/stm32f1xx_hal_tim_ex.c ****   HAL_TIMEx_HallSensor_MspDeInit(htim);
 264              		.loc 1 257 0 is_stmt 1
 265 0040 7868     		ldr	r0, [r7, #4]
 266 0042 FFF7FEFF 		bl	HAL_TIMEx_HallSensor_MspDeInit
 258:Drivers/STM32F1xx_HAL_Driver/Src/stm32f1xx_hal_tim_ex.c **** 
 259:Drivers/STM32F1xx_HAL_Driver/Src/stm32f1xx_hal_tim_ex.c ****   /* Change TIM state */
 260:Drivers/STM32F1xx_HAL_Driver/Src/stm32f1xx_hal_tim_ex.c ****   htim->State = HAL_TIM_STATE_RESET;
 267              		.loc 1 260 0
 268 0046 7B68     		ldr	r3, [r7, #4]
 269 0048 0022     		movs	r2, #0
 270 004a 83F83D20 		strb	r2, [r3, #61]
 261:Drivers/STM32F1xx_HAL_Driver/Src/stm32f1xx_hal_tim_ex.c **** 
 262:Drivers/STM32F1xx_HAL_Driver/Src/stm32f1xx_hal_tim_ex.c ****   /* Release Lock */
 263:Drivers/STM32F1xx_HAL_Driver/Src/stm32f1xx_hal_tim_ex.c ****   __HAL_UNLOCK(htim);
 271              		.loc 1 263 0
 272 004e 7B68     		ldr	r3, [r7, #4]
 273 0050 0022     		movs	r2, #0
 274 0052 83F83C20 		strb	r2, [r3, #60]
 264:Drivers/STM32F1xx_HAL_Driver/Src/stm32f1xx_hal_tim_ex.c **** 
 265:Drivers/STM32F1xx_HAL_Driver/Src/stm32f1xx_hal_tim_ex.c ****   return HAL_OK;
 275              		.loc 1 265 0
 276 0056 0023     		movs	r3, #0
 266:Drivers/STM32F1xx_HAL_Driver/Src/stm32f1xx_hal_tim_ex.c **** }
 277              		.loc 1 266 0
 278 0058 1846     		mov	r0, r3
 279 005a 0837     		adds	r7, r7, #8
 280              	.LCFI8:
 281              		.cfi_def_cfa_offset 8
 282 005c BD46     		mov	sp, r7
 283              	.LCFI9:
 284              		.cfi_def_cfa_register 13
 285              		@ sp needed
 286 005e 80BD     		pop	{r7, pc}
 287              		.cfi_endproc
 288              	.LFE67:
 290              		.section	.text.HAL_TIMEx_HallSensor_MspInit,"ax",%progbits
 291              		.align	1
 292              		.weak	HAL_TIMEx_HallSensor_MspInit
 293              		.syntax unified
 294              		.thumb
 295              		.thumb_func
 296              		.fpu softvfp
 298              	HAL_TIMEx_HallSensor_MspInit:
 299              	.LFB68:
 267:Drivers/STM32F1xx_HAL_Driver/Src/stm32f1xx_hal_tim_ex.c **** 
 268:Drivers/STM32F1xx_HAL_Driver/Src/stm32f1xx_hal_tim_ex.c **** /**
 269:Drivers/STM32F1xx_HAL_Driver/Src/stm32f1xx_hal_tim_ex.c ****   * @brief  Initializes the TIM Hall Sensor MSP.
 270:Drivers/STM32F1xx_HAL_Driver/Src/stm32f1xx_hal_tim_ex.c ****   * @param  htim : TIM handle
 271:Drivers/STM32F1xx_HAL_Driver/Src/stm32f1xx_hal_tim_ex.c ****   * @retval None
 272:Drivers/STM32F1xx_HAL_Driver/Src/stm32f1xx_hal_tim_ex.c ****   */
 273:Drivers/STM32F1xx_HAL_Driver/Src/stm32f1xx_hal_tim_ex.c **** __weak void HAL_TIMEx_HallSensor_MspInit(TIM_HandleTypeDef *htim)
 274:Drivers/STM32F1xx_HAL_Driver/Src/stm32f1xx_hal_tim_ex.c **** {
 300              		.loc 1 274 0
 301              		.cfi_startproc
ARM GAS  /tmp/ccpgqo2Y.s 			page 11


 302              		@ args = 0, pretend = 0, frame = 8
 303              		@ frame_needed = 1, uses_anonymous_args = 0
 304              		@ link register save eliminated.
 305 0000 80B4     		push	{r7}
 306              	.LCFI10:
 307              		.cfi_def_cfa_offset 4
 308              		.cfi_offset 7, -4
 309 0002 83B0     		sub	sp, sp, #12
 310              	.LCFI11:
 311              		.cfi_def_cfa_offset 16
 312 0004 00AF     		add	r7, sp, #0
 313              	.LCFI12:
 314              		.cfi_def_cfa_register 7
 315 0006 7860     		str	r0, [r7, #4]
 275:Drivers/STM32F1xx_HAL_Driver/Src/stm32f1xx_hal_tim_ex.c ****   /* Prevent unused argument(s) compilation warning */
 276:Drivers/STM32F1xx_HAL_Driver/Src/stm32f1xx_hal_tim_ex.c ****   UNUSED(htim);
 277:Drivers/STM32F1xx_HAL_Driver/Src/stm32f1xx_hal_tim_ex.c ****   /* NOTE : This function Should not be modified, when the callback is needed,
 278:Drivers/STM32F1xx_HAL_Driver/Src/stm32f1xx_hal_tim_ex.c ****             the HAL_TIMEx_HallSensor_MspInit could be implemented in the user file
 279:Drivers/STM32F1xx_HAL_Driver/Src/stm32f1xx_hal_tim_ex.c ****    */
 280:Drivers/STM32F1xx_HAL_Driver/Src/stm32f1xx_hal_tim_ex.c **** }
 316              		.loc 1 280 0
 317 0008 00BF     		nop
 318 000a 0C37     		adds	r7, r7, #12
 319              	.LCFI13:
 320              		.cfi_def_cfa_offset 4
 321 000c BD46     		mov	sp, r7
 322              	.LCFI14:
 323              		.cfi_def_cfa_register 13
 324              		@ sp needed
 325 000e 80BC     		pop	{r7}
 326              	.LCFI15:
 327              		.cfi_restore 7
 328              		.cfi_def_cfa_offset 0
 329 0010 7047     		bx	lr
 330              		.cfi_endproc
 331              	.LFE68:
 333              		.section	.text.HAL_TIMEx_HallSensor_MspDeInit,"ax",%progbits
 334              		.align	1
 335              		.weak	HAL_TIMEx_HallSensor_MspDeInit
 336              		.syntax unified
 337              		.thumb
 338              		.thumb_func
 339              		.fpu softvfp
 341              	HAL_TIMEx_HallSensor_MspDeInit:
 342              	.LFB69:
 281:Drivers/STM32F1xx_HAL_Driver/Src/stm32f1xx_hal_tim_ex.c **** 
 282:Drivers/STM32F1xx_HAL_Driver/Src/stm32f1xx_hal_tim_ex.c **** /**
 283:Drivers/STM32F1xx_HAL_Driver/Src/stm32f1xx_hal_tim_ex.c ****   * @brief  DeInitializes TIM Hall Sensor MSP.
 284:Drivers/STM32F1xx_HAL_Driver/Src/stm32f1xx_hal_tim_ex.c ****   * @param  htim : TIM handle
 285:Drivers/STM32F1xx_HAL_Driver/Src/stm32f1xx_hal_tim_ex.c ****   * @retval None
 286:Drivers/STM32F1xx_HAL_Driver/Src/stm32f1xx_hal_tim_ex.c ****   */
 287:Drivers/STM32F1xx_HAL_Driver/Src/stm32f1xx_hal_tim_ex.c **** __weak void HAL_TIMEx_HallSensor_MspDeInit(TIM_HandleTypeDef *htim)
 288:Drivers/STM32F1xx_HAL_Driver/Src/stm32f1xx_hal_tim_ex.c **** {
 343              		.loc 1 288 0
 344              		.cfi_startproc
 345              		@ args = 0, pretend = 0, frame = 8
 346              		@ frame_needed = 1, uses_anonymous_args = 0
ARM GAS  /tmp/ccpgqo2Y.s 			page 12


 347              		@ link register save eliminated.
 348 0000 80B4     		push	{r7}
 349              	.LCFI16:
 350              		.cfi_def_cfa_offset 4
 351              		.cfi_offset 7, -4
 352 0002 83B0     		sub	sp, sp, #12
 353              	.LCFI17:
 354              		.cfi_def_cfa_offset 16
 355 0004 00AF     		add	r7, sp, #0
 356              	.LCFI18:
 357              		.cfi_def_cfa_register 7
 358 0006 7860     		str	r0, [r7, #4]
 289:Drivers/STM32F1xx_HAL_Driver/Src/stm32f1xx_hal_tim_ex.c ****   /* Prevent unused argument(s) compilation warning */
 290:Drivers/STM32F1xx_HAL_Driver/Src/stm32f1xx_hal_tim_ex.c ****   UNUSED(htim);
 291:Drivers/STM32F1xx_HAL_Driver/Src/stm32f1xx_hal_tim_ex.c ****   /* NOTE : This function Should not be modified, when the callback is needed,
 292:Drivers/STM32F1xx_HAL_Driver/Src/stm32f1xx_hal_tim_ex.c ****             the HAL_TIMEx_HallSensor_MspDeInit could be implemented in the user file
 293:Drivers/STM32F1xx_HAL_Driver/Src/stm32f1xx_hal_tim_ex.c ****    */
 294:Drivers/STM32F1xx_HAL_Driver/Src/stm32f1xx_hal_tim_ex.c **** }
 359              		.loc 1 294 0
 360 0008 00BF     		nop
 361 000a 0C37     		adds	r7, r7, #12
 362              	.LCFI19:
 363              		.cfi_def_cfa_offset 4
 364 000c BD46     		mov	sp, r7
 365              	.LCFI20:
 366              		.cfi_def_cfa_register 13
 367              		@ sp needed
 368 000e 80BC     		pop	{r7}
 369              	.LCFI21:
 370              		.cfi_restore 7
 371              		.cfi_def_cfa_offset 0
 372 0010 7047     		bx	lr
 373              		.cfi_endproc
 374              	.LFE69:
 376              		.section	.text.HAL_TIMEx_HallSensor_Start,"ax",%progbits
 377              		.align	1
 378              		.global	HAL_TIMEx_HallSensor_Start
 379              		.syntax unified
 380              		.thumb
 381              		.thumb_func
 382              		.fpu softvfp
 384              	HAL_TIMEx_HallSensor_Start:
 385              	.LFB70:
 295:Drivers/STM32F1xx_HAL_Driver/Src/stm32f1xx_hal_tim_ex.c **** 
 296:Drivers/STM32F1xx_HAL_Driver/Src/stm32f1xx_hal_tim_ex.c **** /**
 297:Drivers/STM32F1xx_HAL_Driver/Src/stm32f1xx_hal_tim_ex.c ****   * @brief  Starts the TIM Hall Sensor Interface.
 298:Drivers/STM32F1xx_HAL_Driver/Src/stm32f1xx_hal_tim_ex.c ****   * @param  htim : TIM Hall Sensor handle
 299:Drivers/STM32F1xx_HAL_Driver/Src/stm32f1xx_hal_tim_ex.c ****   * @retval HAL status
 300:Drivers/STM32F1xx_HAL_Driver/Src/stm32f1xx_hal_tim_ex.c ****   */
 301:Drivers/STM32F1xx_HAL_Driver/Src/stm32f1xx_hal_tim_ex.c **** HAL_StatusTypeDef HAL_TIMEx_HallSensor_Start(TIM_HandleTypeDef *htim)
 302:Drivers/STM32F1xx_HAL_Driver/Src/stm32f1xx_hal_tim_ex.c **** {
 386              		.loc 1 302 0
 387              		.cfi_startproc
 388              		@ args = 0, pretend = 0, frame = 8
 389              		@ frame_needed = 1, uses_anonymous_args = 0
 390 0000 80B5     		push	{r7, lr}
 391              	.LCFI22:
ARM GAS  /tmp/ccpgqo2Y.s 			page 13


 392              		.cfi_def_cfa_offset 8
 393              		.cfi_offset 7, -8
 394              		.cfi_offset 14, -4
 395 0002 82B0     		sub	sp, sp, #8
 396              	.LCFI23:
 397              		.cfi_def_cfa_offset 16
 398 0004 00AF     		add	r7, sp, #0
 399              	.LCFI24:
 400              		.cfi_def_cfa_register 7
 401 0006 7860     		str	r0, [r7, #4]
 303:Drivers/STM32F1xx_HAL_Driver/Src/stm32f1xx_hal_tim_ex.c ****   /* Check the parameters */
 304:Drivers/STM32F1xx_HAL_Driver/Src/stm32f1xx_hal_tim_ex.c ****   assert_param(IS_TIM_XOR_INSTANCE(htim->Instance));
 305:Drivers/STM32F1xx_HAL_Driver/Src/stm32f1xx_hal_tim_ex.c **** 
 306:Drivers/STM32F1xx_HAL_Driver/Src/stm32f1xx_hal_tim_ex.c ****   /* Enable the Input Capture channel 1
 307:Drivers/STM32F1xx_HAL_Driver/Src/stm32f1xx_hal_tim_ex.c ****     (in the Hall Sensor Interface the 3 possible channels that are used are TIM_CHANNEL_1, TIM_CHAN
 308:Drivers/STM32F1xx_HAL_Driver/Src/stm32f1xx_hal_tim_ex.c ****   TIM_CCxChannelCmd(htim->Instance, TIM_CHANNEL_1, TIM_CCx_ENABLE);
 402              		.loc 1 308 0
 403 0008 7B68     		ldr	r3, [r7, #4]
 404 000a 1B68     		ldr	r3, [r3]
 405 000c 0122     		movs	r2, #1
 406 000e 0021     		movs	r1, #0
 407 0010 1846     		mov	r0, r3
 408 0012 FFF7FEFF 		bl	TIM_CCxChannelCmd
 309:Drivers/STM32F1xx_HAL_Driver/Src/stm32f1xx_hal_tim_ex.c **** 
 310:Drivers/STM32F1xx_HAL_Driver/Src/stm32f1xx_hal_tim_ex.c ****   /* Enable the Peripheral */
 311:Drivers/STM32F1xx_HAL_Driver/Src/stm32f1xx_hal_tim_ex.c ****   __HAL_TIM_ENABLE(htim);
 409              		.loc 1 311 0
 410 0016 7B68     		ldr	r3, [r7, #4]
 411 0018 1B68     		ldr	r3, [r3]
 412 001a 1A68     		ldr	r2, [r3]
 413 001c 7B68     		ldr	r3, [r7, #4]
 414 001e 1B68     		ldr	r3, [r3]
 415 0020 42F00102 		orr	r2, r2, #1
 416 0024 1A60     		str	r2, [r3]
 312:Drivers/STM32F1xx_HAL_Driver/Src/stm32f1xx_hal_tim_ex.c **** 
 313:Drivers/STM32F1xx_HAL_Driver/Src/stm32f1xx_hal_tim_ex.c ****   /* Return function status */
 314:Drivers/STM32F1xx_HAL_Driver/Src/stm32f1xx_hal_tim_ex.c ****   return HAL_OK;
 417              		.loc 1 314 0
 418 0026 0023     		movs	r3, #0
 315:Drivers/STM32F1xx_HAL_Driver/Src/stm32f1xx_hal_tim_ex.c **** }
 419              		.loc 1 315 0
 420 0028 1846     		mov	r0, r3
 421 002a 0837     		adds	r7, r7, #8
 422              	.LCFI25:
 423              		.cfi_def_cfa_offset 8
 424 002c BD46     		mov	sp, r7
 425              	.LCFI26:
 426              		.cfi_def_cfa_register 13
 427              		@ sp needed
 428 002e 80BD     		pop	{r7, pc}
 429              		.cfi_endproc
 430              	.LFE70:
 432              		.section	.text.HAL_TIMEx_HallSensor_Stop,"ax",%progbits
 433              		.align	1
 434              		.global	HAL_TIMEx_HallSensor_Stop
 435              		.syntax unified
 436              		.thumb
ARM GAS  /tmp/ccpgqo2Y.s 			page 14


 437              		.thumb_func
 438              		.fpu softvfp
 440              	HAL_TIMEx_HallSensor_Stop:
 441              	.LFB71:
 316:Drivers/STM32F1xx_HAL_Driver/Src/stm32f1xx_hal_tim_ex.c **** 
 317:Drivers/STM32F1xx_HAL_Driver/Src/stm32f1xx_hal_tim_ex.c **** /**
 318:Drivers/STM32F1xx_HAL_Driver/Src/stm32f1xx_hal_tim_ex.c ****   * @brief  Stops the TIM Hall sensor Interface.
 319:Drivers/STM32F1xx_HAL_Driver/Src/stm32f1xx_hal_tim_ex.c ****   * @param  htim : TIM Hall Sensor handle
 320:Drivers/STM32F1xx_HAL_Driver/Src/stm32f1xx_hal_tim_ex.c ****   * @retval HAL status
 321:Drivers/STM32F1xx_HAL_Driver/Src/stm32f1xx_hal_tim_ex.c ****   */
 322:Drivers/STM32F1xx_HAL_Driver/Src/stm32f1xx_hal_tim_ex.c **** HAL_StatusTypeDef HAL_TIMEx_HallSensor_Stop(TIM_HandleTypeDef *htim)
 323:Drivers/STM32F1xx_HAL_Driver/Src/stm32f1xx_hal_tim_ex.c **** {
 442              		.loc 1 323 0
 443              		.cfi_startproc
 444              		@ args = 0, pretend = 0, frame = 8
 445              		@ frame_needed = 1, uses_anonymous_args = 0
 446 0000 80B5     		push	{r7, lr}
 447              	.LCFI27:
 448              		.cfi_def_cfa_offset 8
 449              		.cfi_offset 7, -8
 450              		.cfi_offset 14, -4
 451 0002 82B0     		sub	sp, sp, #8
 452              	.LCFI28:
 453              		.cfi_def_cfa_offset 16
 454 0004 00AF     		add	r7, sp, #0
 455              	.LCFI29:
 456              		.cfi_def_cfa_register 7
 457 0006 7860     		str	r0, [r7, #4]
 324:Drivers/STM32F1xx_HAL_Driver/Src/stm32f1xx_hal_tim_ex.c ****   /* Check the parameters */
 325:Drivers/STM32F1xx_HAL_Driver/Src/stm32f1xx_hal_tim_ex.c ****   assert_param(IS_TIM_XOR_INSTANCE(htim->Instance));
 326:Drivers/STM32F1xx_HAL_Driver/Src/stm32f1xx_hal_tim_ex.c **** 
 327:Drivers/STM32F1xx_HAL_Driver/Src/stm32f1xx_hal_tim_ex.c ****   /* Disable the Input Capture channel 1
 328:Drivers/STM32F1xx_HAL_Driver/Src/stm32f1xx_hal_tim_ex.c ****     (in the Hall Sensor Interface the 3 possible channels that are used are TIM_CHANNEL_1, TIM_CHAN
 329:Drivers/STM32F1xx_HAL_Driver/Src/stm32f1xx_hal_tim_ex.c ****   TIM_CCxChannelCmd(htim->Instance, TIM_CHANNEL_1, TIM_CCx_DISABLE);
 458              		.loc 1 329 0
 459 0008 7B68     		ldr	r3, [r7, #4]
 460 000a 1B68     		ldr	r3, [r3]
 461 000c 0022     		movs	r2, #0
 462 000e 0021     		movs	r1, #0
 463 0010 1846     		mov	r0, r3
 464 0012 FFF7FEFF 		bl	TIM_CCxChannelCmd
 330:Drivers/STM32F1xx_HAL_Driver/Src/stm32f1xx_hal_tim_ex.c **** 
 331:Drivers/STM32F1xx_HAL_Driver/Src/stm32f1xx_hal_tim_ex.c ****   /* Disable the Peripheral */
 332:Drivers/STM32F1xx_HAL_Driver/Src/stm32f1xx_hal_tim_ex.c ****   __HAL_TIM_DISABLE(htim);
 465              		.loc 1 332 0
 466 0016 7B68     		ldr	r3, [r7, #4]
 467 0018 1B68     		ldr	r3, [r3]
 468 001a 1A6A     		ldr	r2, [r3, #32]
 469 001c 41F21113 		movw	r3, #4369
 470 0020 1340     		ands	r3, r3, r2
 471 0022 002B     		cmp	r3, #0
 472 0024 0FD1     		bne	.L14
 473              		.loc 1 332 0 is_stmt 0 discriminator 1
 474 0026 7B68     		ldr	r3, [r7, #4]
 475 0028 1B68     		ldr	r3, [r3]
 476 002a 1A6A     		ldr	r2, [r3, #32]
 477 002c 40F24443 		movw	r3, #1092
ARM GAS  /tmp/ccpgqo2Y.s 			page 15


 478 0030 1340     		ands	r3, r3, r2
 479 0032 002B     		cmp	r3, #0
 480 0034 07D1     		bne	.L14
 481              		.loc 1 332 0 discriminator 2
 482 0036 7B68     		ldr	r3, [r7, #4]
 483 0038 1B68     		ldr	r3, [r3]
 484 003a 1A68     		ldr	r2, [r3]
 485 003c 7B68     		ldr	r3, [r7, #4]
 486 003e 1B68     		ldr	r3, [r3]
 487 0040 22F00102 		bic	r2, r2, #1
 488 0044 1A60     		str	r2, [r3]
 489              	.L14:
 333:Drivers/STM32F1xx_HAL_Driver/Src/stm32f1xx_hal_tim_ex.c **** 
 334:Drivers/STM32F1xx_HAL_Driver/Src/stm32f1xx_hal_tim_ex.c ****   /* Return function status */
 335:Drivers/STM32F1xx_HAL_Driver/Src/stm32f1xx_hal_tim_ex.c ****   return HAL_OK;
 490              		.loc 1 335 0 is_stmt 1
 491 0046 0023     		movs	r3, #0
 336:Drivers/STM32F1xx_HAL_Driver/Src/stm32f1xx_hal_tim_ex.c **** }
 492              		.loc 1 336 0
 493 0048 1846     		mov	r0, r3
 494 004a 0837     		adds	r7, r7, #8
 495              	.LCFI30:
 496              		.cfi_def_cfa_offset 8
 497 004c BD46     		mov	sp, r7
 498              	.LCFI31:
 499              		.cfi_def_cfa_register 13
 500              		@ sp needed
 501 004e 80BD     		pop	{r7, pc}
 502              		.cfi_endproc
 503              	.LFE71:
 505              		.section	.text.HAL_TIMEx_HallSensor_Start_IT,"ax",%progbits
 506              		.align	1
 507              		.global	HAL_TIMEx_HallSensor_Start_IT
 508              		.syntax unified
 509              		.thumb
 510              		.thumb_func
 511              		.fpu softvfp
 513              	HAL_TIMEx_HallSensor_Start_IT:
 514              	.LFB72:
 337:Drivers/STM32F1xx_HAL_Driver/Src/stm32f1xx_hal_tim_ex.c **** 
 338:Drivers/STM32F1xx_HAL_Driver/Src/stm32f1xx_hal_tim_ex.c **** /**
 339:Drivers/STM32F1xx_HAL_Driver/Src/stm32f1xx_hal_tim_ex.c ****   * @brief  Starts the TIM Hall Sensor Interface in interrupt mode.
 340:Drivers/STM32F1xx_HAL_Driver/Src/stm32f1xx_hal_tim_ex.c ****   * @param  htim : TIM Hall Sensor handle
 341:Drivers/STM32F1xx_HAL_Driver/Src/stm32f1xx_hal_tim_ex.c ****   * @retval HAL status
 342:Drivers/STM32F1xx_HAL_Driver/Src/stm32f1xx_hal_tim_ex.c ****   */
 343:Drivers/STM32F1xx_HAL_Driver/Src/stm32f1xx_hal_tim_ex.c **** HAL_StatusTypeDef HAL_TIMEx_HallSensor_Start_IT(TIM_HandleTypeDef *htim)
 344:Drivers/STM32F1xx_HAL_Driver/Src/stm32f1xx_hal_tim_ex.c **** {
 515              		.loc 1 344 0
 516              		.cfi_startproc
 517              		@ args = 0, pretend = 0, frame = 8
 518              		@ frame_needed = 1, uses_anonymous_args = 0
 519 0000 80B5     		push	{r7, lr}
 520              	.LCFI32:
 521              		.cfi_def_cfa_offset 8
 522              		.cfi_offset 7, -8
 523              		.cfi_offset 14, -4
 524 0002 82B0     		sub	sp, sp, #8
ARM GAS  /tmp/ccpgqo2Y.s 			page 16


 525              	.LCFI33:
 526              		.cfi_def_cfa_offset 16
 527 0004 00AF     		add	r7, sp, #0
 528              	.LCFI34:
 529              		.cfi_def_cfa_register 7
 530 0006 7860     		str	r0, [r7, #4]
 345:Drivers/STM32F1xx_HAL_Driver/Src/stm32f1xx_hal_tim_ex.c ****   /* Check the parameters */
 346:Drivers/STM32F1xx_HAL_Driver/Src/stm32f1xx_hal_tim_ex.c ****   assert_param(IS_TIM_XOR_INSTANCE(htim->Instance));
 347:Drivers/STM32F1xx_HAL_Driver/Src/stm32f1xx_hal_tim_ex.c **** 
 348:Drivers/STM32F1xx_HAL_Driver/Src/stm32f1xx_hal_tim_ex.c ****   /* Enable the capture compare Interrupts 1 event */
 349:Drivers/STM32F1xx_HAL_Driver/Src/stm32f1xx_hal_tim_ex.c ****   __HAL_TIM_ENABLE_IT(htim, TIM_IT_CC1);
 531              		.loc 1 349 0
 532 0008 7B68     		ldr	r3, [r7, #4]
 533 000a 1B68     		ldr	r3, [r3]
 534 000c DA68     		ldr	r2, [r3, #12]
 535 000e 7B68     		ldr	r3, [r7, #4]
 536 0010 1B68     		ldr	r3, [r3]
 537 0012 42F00202 		orr	r2, r2, #2
 538 0016 DA60     		str	r2, [r3, #12]
 350:Drivers/STM32F1xx_HAL_Driver/Src/stm32f1xx_hal_tim_ex.c **** 
 351:Drivers/STM32F1xx_HAL_Driver/Src/stm32f1xx_hal_tim_ex.c ****   /* Enable the Input Capture channel 1
 352:Drivers/STM32F1xx_HAL_Driver/Src/stm32f1xx_hal_tim_ex.c ****     (in the Hall Sensor Interface the 3 possible channels that are used are TIM_CHANNEL_1, TIM_CHAN
 353:Drivers/STM32F1xx_HAL_Driver/Src/stm32f1xx_hal_tim_ex.c ****   TIM_CCxChannelCmd(htim->Instance, TIM_CHANNEL_1, TIM_CCx_ENABLE);
 539              		.loc 1 353 0
 540 0018 7B68     		ldr	r3, [r7, #4]
 541 001a 1B68     		ldr	r3, [r3]
 542 001c 0122     		movs	r2, #1
 543 001e 0021     		movs	r1, #0
 544 0020 1846     		mov	r0, r3
 545 0022 FFF7FEFF 		bl	TIM_CCxChannelCmd
 354:Drivers/STM32F1xx_HAL_Driver/Src/stm32f1xx_hal_tim_ex.c **** 
 355:Drivers/STM32F1xx_HAL_Driver/Src/stm32f1xx_hal_tim_ex.c ****   /* Enable the Peripheral */
 356:Drivers/STM32F1xx_HAL_Driver/Src/stm32f1xx_hal_tim_ex.c ****   __HAL_TIM_ENABLE(htim);
 546              		.loc 1 356 0
 547 0026 7B68     		ldr	r3, [r7, #4]
 548 0028 1B68     		ldr	r3, [r3]
 549 002a 1A68     		ldr	r2, [r3]
 550 002c 7B68     		ldr	r3, [r7, #4]
 551 002e 1B68     		ldr	r3, [r3]
 552 0030 42F00102 		orr	r2, r2, #1
 553 0034 1A60     		str	r2, [r3]
 357:Drivers/STM32F1xx_HAL_Driver/Src/stm32f1xx_hal_tim_ex.c **** 
 358:Drivers/STM32F1xx_HAL_Driver/Src/stm32f1xx_hal_tim_ex.c ****   /* Return function status */
 359:Drivers/STM32F1xx_HAL_Driver/Src/stm32f1xx_hal_tim_ex.c ****   return HAL_OK;
 554              		.loc 1 359 0
 555 0036 0023     		movs	r3, #0
 360:Drivers/STM32F1xx_HAL_Driver/Src/stm32f1xx_hal_tim_ex.c **** }
 556              		.loc 1 360 0
 557 0038 1846     		mov	r0, r3
 558 003a 0837     		adds	r7, r7, #8
 559              	.LCFI35:
 560              		.cfi_def_cfa_offset 8
 561 003c BD46     		mov	sp, r7
 562              	.LCFI36:
 563              		.cfi_def_cfa_register 13
 564              		@ sp needed
 565 003e 80BD     		pop	{r7, pc}
ARM GAS  /tmp/ccpgqo2Y.s 			page 17


 566              		.cfi_endproc
 567              	.LFE72:
 569              		.section	.text.HAL_TIMEx_HallSensor_Stop_IT,"ax",%progbits
 570              		.align	1
 571              		.global	HAL_TIMEx_HallSensor_Stop_IT
 572              		.syntax unified
 573              		.thumb
 574              		.thumb_func
 575              		.fpu softvfp
 577              	HAL_TIMEx_HallSensor_Stop_IT:
 578              	.LFB73:
 361:Drivers/STM32F1xx_HAL_Driver/Src/stm32f1xx_hal_tim_ex.c **** 
 362:Drivers/STM32F1xx_HAL_Driver/Src/stm32f1xx_hal_tim_ex.c **** /**
 363:Drivers/STM32F1xx_HAL_Driver/Src/stm32f1xx_hal_tim_ex.c ****   * @brief  Stops the TIM Hall Sensor Interface in interrupt mode.
 364:Drivers/STM32F1xx_HAL_Driver/Src/stm32f1xx_hal_tim_ex.c ****   * @param  htim : TIM handle
 365:Drivers/STM32F1xx_HAL_Driver/Src/stm32f1xx_hal_tim_ex.c ****   * @retval HAL status
 366:Drivers/STM32F1xx_HAL_Driver/Src/stm32f1xx_hal_tim_ex.c ****   */
 367:Drivers/STM32F1xx_HAL_Driver/Src/stm32f1xx_hal_tim_ex.c **** HAL_StatusTypeDef HAL_TIMEx_HallSensor_Stop_IT(TIM_HandleTypeDef *htim)
 368:Drivers/STM32F1xx_HAL_Driver/Src/stm32f1xx_hal_tim_ex.c **** {
 579              		.loc 1 368 0
 580              		.cfi_startproc
 581              		@ args = 0, pretend = 0, frame = 8
 582              		@ frame_needed = 1, uses_anonymous_args = 0
 583 0000 80B5     		push	{r7, lr}
 584              	.LCFI37:
 585              		.cfi_def_cfa_offset 8
 586              		.cfi_offset 7, -8
 587              		.cfi_offset 14, -4
 588 0002 82B0     		sub	sp, sp, #8
 589              	.LCFI38:
 590              		.cfi_def_cfa_offset 16
 591 0004 00AF     		add	r7, sp, #0
 592              	.LCFI39:
 593              		.cfi_def_cfa_register 7
 594 0006 7860     		str	r0, [r7, #4]
 369:Drivers/STM32F1xx_HAL_Driver/Src/stm32f1xx_hal_tim_ex.c ****   /* Check the parameters */
 370:Drivers/STM32F1xx_HAL_Driver/Src/stm32f1xx_hal_tim_ex.c ****   assert_param(IS_TIM_XOR_INSTANCE(htim->Instance));
 371:Drivers/STM32F1xx_HAL_Driver/Src/stm32f1xx_hal_tim_ex.c **** 
 372:Drivers/STM32F1xx_HAL_Driver/Src/stm32f1xx_hal_tim_ex.c ****   /* Disable the Input Capture channel 1
 373:Drivers/STM32F1xx_HAL_Driver/Src/stm32f1xx_hal_tim_ex.c ****     (in the Hall Sensor Interface the 3 possible channels that are used are TIM_CHANNEL_1, TIM_CHAN
 374:Drivers/STM32F1xx_HAL_Driver/Src/stm32f1xx_hal_tim_ex.c ****   TIM_CCxChannelCmd(htim->Instance, TIM_CHANNEL_1, TIM_CCx_DISABLE);
 595              		.loc 1 374 0
 596 0008 7B68     		ldr	r3, [r7, #4]
 597 000a 1B68     		ldr	r3, [r3]
 598 000c 0022     		movs	r2, #0
 599 000e 0021     		movs	r1, #0
 600 0010 1846     		mov	r0, r3
 601 0012 FFF7FEFF 		bl	TIM_CCxChannelCmd
 375:Drivers/STM32F1xx_HAL_Driver/Src/stm32f1xx_hal_tim_ex.c **** 
 376:Drivers/STM32F1xx_HAL_Driver/Src/stm32f1xx_hal_tim_ex.c ****   /* Disable the capture compare Interrupts event */
 377:Drivers/STM32F1xx_HAL_Driver/Src/stm32f1xx_hal_tim_ex.c ****   __HAL_TIM_DISABLE_IT(htim, TIM_IT_CC1);
 602              		.loc 1 377 0
 603 0016 7B68     		ldr	r3, [r7, #4]
 604 0018 1B68     		ldr	r3, [r3]
 605 001a DA68     		ldr	r2, [r3, #12]
 606 001c 7B68     		ldr	r3, [r7, #4]
 607 001e 1B68     		ldr	r3, [r3]
ARM GAS  /tmp/ccpgqo2Y.s 			page 18


 608 0020 22F00202 		bic	r2, r2, #2
 609 0024 DA60     		str	r2, [r3, #12]
 378:Drivers/STM32F1xx_HAL_Driver/Src/stm32f1xx_hal_tim_ex.c **** 
 379:Drivers/STM32F1xx_HAL_Driver/Src/stm32f1xx_hal_tim_ex.c ****   /* Disable the Peripheral */
 380:Drivers/STM32F1xx_HAL_Driver/Src/stm32f1xx_hal_tim_ex.c ****   __HAL_TIM_DISABLE(htim);
 610              		.loc 1 380 0
 611 0026 7B68     		ldr	r3, [r7, #4]
 612 0028 1B68     		ldr	r3, [r3]
 613 002a 1A6A     		ldr	r2, [r3, #32]
 614 002c 41F21113 		movw	r3, #4369
 615 0030 1340     		ands	r3, r3, r2
 616 0032 002B     		cmp	r3, #0
 617 0034 0FD1     		bne	.L19
 618              		.loc 1 380 0 is_stmt 0 discriminator 1
 619 0036 7B68     		ldr	r3, [r7, #4]
 620 0038 1B68     		ldr	r3, [r3]
 621 003a 1A6A     		ldr	r2, [r3, #32]
 622 003c 40F24443 		movw	r3, #1092
 623 0040 1340     		ands	r3, r3, r2
 624 0042 002B     		cmp	r3, #0
 625 0044 07D1     		bne	.L19
 626              		.loc 1 380 0 discriminator 2
 627 0046 7B68     		ldr	r3, [r7, #4]
 628 0048 1B68     		ldr	r3, [r3]
 629 004a 1A68     		ldr	r2, [r3]
 630 004c 7B68     		ldr	r3, [r7, #4]
 631 004e 1B68     		ldr	r3, [r3]
 632 0050 22F00102 		bic	r2, r2, #1
 633 0054 1A60     		str	r2, [r3]
 634              	.L19:
 381:Drivers/STM32F1xx_HAL_Driver/Src/stm32f1xx_hal_tim_ex.c **** 
 382:Drivers/STM32F1xx_HAL_Driver/Src/stm32f1xx_hal_tim_ex.c ****   /* Return function status */
 383:Drivers/STM32F1xx_HAL_Driver/Src/stm32f1xx_hal_tim_ex.c ****   return HAL_OK;
 635              		.loc 1 383 0 is_stmt 1
 636 0056 0023     		movs	r3, #0
 384:Drivers/STM32F1xx_HAL_Driver/Src/stm32f1xx_hal_tim_ex.c **** }
 637              		.loc 1 384 0
 638 0058 1846     		mov	r0, r3
 639 005a 0837     		adds	r7, r7, #8
 640              	.LCFI40:
 641              		.cfi_def_cfa_offset 8
 642 005c BD46     		mov	sp, r7
 643              	.LCFI41:
 644              		.cfi_def_cfa_register 13
 645              		@ sp needed
 646 005e 80BD     		pop	{r7, pc}
 647              		.cfi_endproc
 648              	.LFE73:
 650              		.section	.text.HAL_TIMEx_HallSensor_Start_DMA,"ax",%progbits
 651              		.align	1
 652              		.global	HAL_TIMEx_HallSensor_Start_DMA
 653              		.syntax unified
 654              		.thumb
 655              		.thumb_func
 656              		.fpu softvfp
 658              	HAL_TIMEx_HallSensor_Start_DMA:
 659              	.LFB74:
ARM GAS  /tmp/ccpgqo2Y.s 			page 19


 385:Drivers/STM32F1xx_HAL_Driver/Src/stm32f1xx_hal_tim_ex.c **** 
 386:Drivers/STM32F1xx_HAL_Driver/Src/stm32f1xx_hal_tim_ex.c **** /**
 387:Drivers/STM32F1xx_HAL_Driver/Src/stm32f1xx_hal_tim_ex.c ****   * @brief  Starts the TIM Hall Sensor Interface in DMA mode.
 388:Drivers/STM32F1xx_HAL_Driver/Src/stm32f1xx_hal_tim_ex.c ****   * @param  htim : TIM Hall Sensor handle
 389:Drivers/STM32F1xx_HAL_Driver/Src/stm32f1xx_hal_tim_ex.c ****   * @param  pData : The destination Buffer address.
 390:Drivers/STM32F1xx_HAL_Driver/Src/stm32f1xx_hal_tim_ex.c ****   * @param  Length : The length of data to be transferred from TIM peripheral to memory.
 391:Drivers/STM32F1xx_HAL_Driver/Src/stm32f1xx_hal_tim_ex.c ****   * @retval HAL status
 392:Drivers/STM32F1xx_HAL_Driver/Src/stm32f1xx_hal_tim_ex.c ****   */
 393:Drivers/STM32F1xx_HAL_Driver/Src/stm32f1xx_hal_tim_ex.c **** HAL_StatusTypeDef HAL_TIMEx_HallSensor_Start_DMA(TIM_HandleTypeDef *htim, uint32_t *pData, uint16_t
 394:Drivers/STM32F1xx_HAL_Driver/Src/stm32f1xx_hal_tim_ex.c **** {
 660              		.loc 1 394 0
 661              		.cfi_startproc
 662              		@ args = 0, pretend = 0, frame = 16
 663              		@ frame_needed = 1, uses_anonymous_args = 0
 664 0000 80B5     		push	{r7, lr}
 665              	.LCFI42:
 666              		.cfi_def_cfa_offset 8
 667              		.cfi_offset 7, -8
 668              		.cfi_offset 14, -4
 669 0002 84B0     		sub	sp, sp, #16
 670              	.LCFI43:
 671              		.cfi_def_cfa_offset 24
 672 0004 00AF     		add	r7, sp, #0
 673              	.LCFI44:
 674              		.cfi_def_cfa_register 7
 675 0006 F860     		str	r0, [r7, #12]
 676 0008 B960     		str	r1, [r7, #8]
 677 000a 1346     		mov	r3, r2
 678 000c FB80     		strh	r3, [r7, #6]	@ movhi
 395:Drivers/STM32F1xx_HAL_Driver/Src/stm32f1xx_hal_tim_ex.c ****   /* Check the parameters */
 396:Drivers/STM32F1xx_HAL_Driver/Src/stm32f1xx_hal_tim_ex.c ****   assert_param(IS_TIM_XOR_INSTANCE(htim->Instance));
 397:Drivers/STM32F1xx_HAL_Driver/Src/stm32f1xx_hal_tim_ex.c **** 
 398:Drivers/STM32F1xx_HAL_Driver/Src/stm32f1xx_hal_tim_ex.c ****    if((htim->State == HAL_TIM_STATE_BUSY))
 679              		.loc 1 398 0
 680 000e FB68     		ldr	r3, [r7, #12]
 681 0010 93F83D30 		ldrb	r3, [r3, #61]
 682 0014 DBB2     		uxtb	r3, r3
 683 0016 022B     		cmp	r3, #2
 684 0018 01D1     		bne	.L22
 399:Drivers/STM32F1xx_HAL_Driver/Src/stm32f1xx_hal_tim_ex.c ****   {
 400:Drivers/STM32F1xx_HAL_Driver/Src/stm32f1xx_hal_tim_ex.c ****      return HAL_BUSY;
 685              		.loc 1 400 0
 686 001a 0223     		movs	r3, #2
 687 001c 3BE0     		b	.L23
 688              	.L22:
 401:Drivers/STM32F1xx_HAL_Driver/Src/stm32f1xx_hal_tim_ex.c ****   }
 402:Drivers/STM32F1xx_HAL_Driver/Src/stm32f1xx_hal_tim_ex.c ****   else if((htim->State == HAL_TIM_STATE_READY))
 689              		.loc 1 402 0
 690 001e FB68     		ldr	r3, [r7, #12]
 691 0020 93F83D30 		ldrb	r3, [r3, #61]
 692 0024 DBB2     		uxtb	r3, r3
 693 0026 012B     		cmp	r3, #1
 694 0028 0BD1     		bne	.L24
 403:Drivers/STM32F1xx_HAL_Driver/Src/stm32f1xx_hal_tim_ex.c ****   {
 404:Drivers/STM32F1xx_HAL_Driver/Src/stm32f1xx_hal_tim_ex.c ****     if(((uint32_t)pData == 0U) && (Length > 0U))
 695              		.loc 1 404 0
 696 002a BB68     		ldr	r3, [r7, #8]
ARM GAS  /tmp/ccpgqo2Y.s 			page 20


 697 002c 002B     		cmp	r3, #0
 698 002e 04D1     		bne	.L25
 699              		.loc 1 404 0 is_stmt 0 discriminator 1
 700 0030 FB88     		ldrh	r3, [r7, #6]
 701 0032 002B     		cmp	r3, #0
 702 0034 01D0     		beq	.L25
 405:Drivers/STM32F1xx_HAL_Driver/Src/stm32f1xx_hal_tim_ex.c ****     {
 406:Drivers/STM32F1xx_HAL_Driver/Src/stm32f1xx_hal_tim_ex.c ****       return HAL_ERROR;
 703              		.loc 1 406 0 is_stmt 1
 704 0036 0123     		movs	r3, #1
 705 0038 2DE0     		b	.L23
 706              	.L25:
 407:Drivers/STM32F1xx_HAL_Driver/Src/stm32f1xx_hal_tim_ex.c ****     }
 408:Drivers/STM32F1xx_HAL_Driver/Src/stm32f1xx_hal_tim_ex.c ****     else
 409:Drivers/STM32F1xx_HAL_Driver/Src/stm32f1xx_hal_tim_ex.c ****     {
 410:Drivers/STM32F1xx_HAL_Driver/Src/stm32f1xx_hal_tim_ex.c ****       htim->State = HAL_TIM_STATE_BUSY;
 707              		.loc 1 410 0
 708 003a FB68     		ldr	r3, [r7, #12]
 709 003c 0222     		movs	r2, #2
 710 003e 83F83D20 		strb	r2, [r3, #61]
 711              	.L24:
 411:Drivers/STM32F1xx_HAL_Driver/Src/stm32f1xx_hal_tim_ex.c ****     }
 412:Drivers/STM32F1xx_HAL_Driver/Src/stm32f1xx_hal_tim_ex.c ****   }
 413:Drivers/STM32F1xx_HAL_Driver/Src/stm32f1xx_hal_tim_ex.c ****   /* Enable the Input Capture channel 1
 414:Drivers/STM32F1xx_HAL_Driver/Src/stm32f1xx_hal_tim_ex.c ****     (in the Hall Sensor Interface the 3 possible channels that are used are TIM_CHANNEL_1, TIM_CHAN
 415:Drivers/STM32F1xx_HAL_Driver/Src/stm32f1xx_hal_tim_ex.c ****   TIM_CCxChannelCmd(htim->Instance, TIM_CHANNEL_1, TIM_CCx_ENABLE);
 712              		.loc 1 415 0
 713 0042 FB68     		ldr	r3, [r7, #12]
 714 0044 1B68     		ldr	r3, [r3]
 715 0046 0122     		movs	r2, #1
 716 0048 0021     		movs	r1, #0
 717 004a 1846     		mov	r0, r3
 718 004c FFF7FEFF 		bl	TIM_CCxChannelCmd
 416:Drivers/STM32F1xx_HAL_Driver/Src/stm32f1xx_hal_tim_ex.c **** 
 417:Drivers/STM32F1xx_HAL_Driver/Src/stm32f1xx_hal_tim_ex.c ****   /* Set the DMA Input Capture 1 Callback */
 418:Drivers/STM32F1xx_HAL_Driver/Src/stm32f1xx_hal_tim_ex.c ****   htim->hdma[TIM_DMA_ID_CC1]->XferCpltCallback = TIM_DMACaptureCplt;
 719              		.loc 1 418 0
 720 0050 FB68     		ldr	r3, [r7, #12]
 721 0052 5B6A     		ldr	r3, [r3, #36]
 722 0054 124A     		ldr	r2, .L26
 723 0056 9A62     		str	r2, [r3, #40]
 419:Drivers/STM32F1xx_HAL_Driver/Src/stm32f1xx_hal_tim_ex.c ****   /* Set the DMA error callback */
 420:Drivers/STM32F1xx_HAL_Driver/Src/stm32f1xx_hal_tim_ex.c ****   htim->hdma[TIM_DMA_ID_CC1]->XferErrorCallback = TIM_DMAError ;
 724              		.loc 1 420 0
 725 0058 FB68     		ldr	r3, [r7, #12]
 726 005a 5B6A     		ldr	r3, [r3, #36]
 727 005c 114A     		ldr	r2, .L26+4
 728 005e 1A63     		str	r2, [r3, #48]
 421:Drivers/STM32F1xx_HAL_Driver/Src/stm32f1xx_hal_tim_ex.c **** 
 422:Drivers/STM32F1xx_HAL_Driver/Src/stm32f1xx_hal_tim_ex.c ****   /* Enable the DMA channel for Capture 1*/
 423:Drivers/STM32F1xx_HAL_Driver/Src/stm32f1xx_hal_tim_ex.c ****   HAL_DMA_Start_IT(htim->hdma[TIM_DMA_ID_CC1], (uint32_t)&htim->Instance->CCR1, (uint32_t)pData, Le
 729              		.loc 1 423 0
 730 0060 FB68     		ldr	r3, [r7, #12]
 731 0062 586A     		ldr	r0, [r3, #36]
 732 0064 FB68     		ldr	r3, [r7, #12]
 733 0066 1B68     		ldr	r3, [r3]
 734 0068 3433     		adds	r3, r3, #52
ARM GAS  /tmp/ccpgqo2Y.s 			page 21


 735 006a 1946     		mov	r1, r3
 736 006c BA68     		ldr	r2, [r7, #8]
 737 006e FB88     		ldrh	r3, [r7, #6]
 738 0070 FFF7FEFF 		bl	HAL_DMA_Start_IT
 424:Drivers/STM32F1xx_HAL_Driver/Src/stm32f1xx_hal_tim_ex.c **** 
 425:Drivers/STM32F1xx_HAL_Driver/Src/stm32f1xx_hal_tim_ex.c ****   /* Enable the capture compare 1 Interrupt */
 426:Drivers/STM32F1xx_HAL_Driver/Src/stm32f1xx_hal_tim_ex.c ****   __HAL_TIM_ENABLE_DMA(htim, TIM_DMA_CC1);
 739              		.loc 1 426 0
 740 0074 FB68     		ldr	r3, [r7, #12]
 741 0076 1B68     		ldr	r3, [r3]
 742 0078 DA68     		ldr	r2, [r3, #12]
 743 007a FB68     		ldr	r3, [r7, #12]
 744 007c 1B68     		ldr	r3, [r3]
 745 007e 42F40072 		orr	r2, r2, #512
 746 0082 DA60     		str	r2, [r3, #12]
 427:Drivers/STM32F1xx_HAL_Driver/Src/stm32f1xx_hal_tim_ex.c **** 
 428:Drivers/STM32F1xx_HAL_Driver/Src/stm32f1xx_hal_tim_ex.c ****   /* Enable the Peripheral */
 429:Drivers/STM32F1xx_HAL_Driver/Src/stm32f1xx_hal_tim_ex.c ****   __HAL_TIM_ENABLE(htim);
 747              		.loc 1 429 0
 748 0084 FB68     		ldr	r3, [r7, #12]
 749 0086 1B68     		ldr	r3, [r3]
 750 0088 1A68     		ldr	r2, [r3]
 751 008a FB68     		ldr	r3, [r7, #12]
 752 008c 1B68     		ldr	r3, [r3]
 753 008e 42F00102 		orr	r2, r2, #1
 754 0092 1A60     		str	r2, [r3]
 430:Drivers/STM32F1xx_HAL_Driver/Src/stm32f1xx_hal_tim_ex.c **** 
 431:Drivers/STM32F1xx_HAL_Driver/Src/stm32f1xx_hal_tim_ex.c ****   /* Return function status */
 432:Drivers/STM32F1xx_HAL_Driver/Src/stm32f1xx_hal_tim_ex.c ****   return HAL_OK;
 755              		.loc 1 432 0
 756 0094 0023     		movs	r3, #0
 757              	.L23:
 433:Drivers/STM32F1xx_HAL_Driver/Src/stm32f1xx_hal_tim_ex.c **** }
 758              		.loc 1 433 0
 759 0096 1846     		mov	r0, r3
 760 0098 1037     		adds	r7, r7, #16
 761              	.LCFI45:
 762              		.cfi_def_cfa_offset 8
 763 009a BD46     		mov	sp, r7
 764              	.LCFI46:
 765              		.cfi_def_cfa_register 13
 766              		@ sp needed
 767 009c 80BD     		pop	{r7, pc}
 768              	.L27:
 769 009e 00BF     		.align	2
 770              	.L26:
 771 00a0 00000000 		.word	TIM_DMACaptureCplt
 772 00a4 00000000 		.word	TIM_DMAError
 773              		.cfi_endproc
 774              	.LFE74:
 776              		.section	.text.HAL_TIMEx_HallSensor_Stop_DMA,"ax",%progbits
 777              		.align	1
 778              		.global	HAL_TIMEx_HallSensor_Stop_DMA
 779              		.syntax unified
 780              		.thumb
 781              		.thumb_func
 782              		.fpu softvfp
ARM GAS  /tmp/ccpgqo2Y.s 			page 22


 784              	HAL_TIMEx_HallSensor_Stop_DMA:
 785              	.LFB75:
 434:Drivers/STM32F1xx_HAL_Driver/Src/stm32f1xx_hal_tim_ex.c **** 
 435:Drivers/STM32F1xx_HAL_Driver/Src/stm32f1xx_hal_tim_ex.c **** /**
 436:Drivers/STM32F1xx_HAL_Driver/Src/stm32f1xx_hal_tim_ex.c ****   * @brief  Stops the TIM Hall Sensor Interface in DMA mode.
 437:Drivers/STM32F1xx_HAL_Driver/Src/stm32f1xx_hal_tim_ex.c ****   * @param  htim : TIM handle
 438:Drivers/STM32F1xx_HAL_Driver/Src/stm32f1xx_hal_tim_ex.c ****   * @retval HAL status
 439:Drivers/STM32F1xx_HAL_Driver/Src/stm32f1xx_hal_tim_ex.c ****   */
 440:Drivers/STM32F1xx_HAL_Driver/Src/stm32f1xx_hal_tim_ex.c **** HAL_StatusTypeDef HAL_TIMEx_HallSensor_Stop_DMA(TIM_HandleTypeDef *htim)
 441:Drivers/STM32F1xx_HAL_Driver/Src/stm32f1xx_hal_tim_ex.c **** {
 786              		.loc 1 441 0
 787              		.cfi_startproc
 788              		@ args = 0, pretend = 0, frame = 8
 789              		@ frame_needed = 1, uses_anonymous_args = 0
 790 0000 80B5     		push	{r7, lr}
 791              	.LCFI47:
 792              		.cfi_def_cfa_offset 8
 793              		.cfi_offset 7, -8
 794              		.cfi_offset 14, -4
 795 0002 82B0     		sub	sp, sp, #8
 796              	.LCFI48:
 797              		.cfi_def_cfa_offset 16
 798 0004 00AF     		add	r7, sp, #0
 799              	.LCFI49:
 800              		.cfi_def_cfa_register 7
 801 0006 7860     		str	r0, [r7, #4]
 442:Drivers/STM32F1xx_HAL_Driver/Src/stm32f1xx_hal_tim_ex.c ****   /* Check the parameters */
 443:Drivers/STM32F1xx_HAL_Driver/Src/stm32f1xx_hal_tim_ex.c ****   assert_param(IS_TIM_XOR_INSTANCE(htim->Instance));
 444:Drivers/STM32F1xx_HAL_Driver/Src/stm32f1xx_hal_tim_ex.c **** 
 445:Drivers/STM32F1xx_HAL_Driver/Src/stm32f1xx_hal_tim_ex.c ****   /* Disable the Input Capture channel 1
 446:Drivers/STM32F1xx_HAL_Driver/Src/stm32f1xx_hal_tim_ex.c ****     (in the Hall Sensor Interface the 3 possible channels that are used are TIM_CHANNEL_1, TIM_CHAN
 447:Drivers/STM32F1xx_HAL_Driver/Src/stm32f1xx_hal_tim_ex.c ****   TIM_CCxChannelCmd(htim->Instance, TIM_CHANNEL_1, TIM_CCx_DISABLE);
 802              		.loc 1 447 0
 803 0008 7B68     		ldr	r3, [r7, #4]
 804 000a 1B68     		ldr	r3, [r3]
 805 000c 0022     		movs	r2, #0
 806 000e 0021     		movs	r1, #0
 807 0010 1846     		mov	r0, r3
 808 0012 FFF7FEFF 		bl	TIM_CCxChannelCmd
 448:Drivers/STM32F1xx_HAL_Driver/Src/stm32f1xx_hal_tim_ex.c **** 
 449:Drivers/STM32F1xx_HAL_Driver/Src/stm32f1xx_hal_tim_ex.c **** 
 450:Drivers/STM32F1xx_HAL_Driver/Src/stm32f1xx_hal_tim_ex.c ****   /* Disable the capture compare Interrupts 1 event */
 451:Drivers/STM32F1xx_HAL_Driver/Src/stm32f1xx_hal_tim_ex.c ****   __HAL_TIM_DISABLE_DMA(htim, TIM_DMA_CC1);
 809              		.loc 1 451 0
 810 0016 7B68     		ldr	r3, [r7, #4]
 811 0018 1B68     		ldr	r3, [r3]
 812 001a DA68     		ldr	r2, [r3, #12]
 813 001c 7B68     		ldr	r3, [r7, #4]
 814 001e 1B68     		ldr	r3, [r3]
 815 0020 22F40072 		bic	r2, r2, #512
 816 0024 DA60     		str	r2, [r3, #12]
 452:Drivers/STM32F1xx_HAL_Driver/Src/stm32f1xx_hal_tim_ex.c **** 
 453:Drivers/STM32F1xx_HAL_Driver/Src/stm32f1xx_hal_tim_ex.c ****   /* Disable the Peripheral */
 454:Drivers/STM32F1xx_HAL_Driver/Src/stm32f1xx_hal_tim_ex.c ****   __HAL_TIM_DISABLE(htim);
 817              		.loc 1 454 0
 818 0026 7B68     		ldr	r3, [r7, #4]
 819 0028 1B68     		ldr	r3, [r3]
ARM GAS  /tmp/ccpgqo2Y.s 			page 23


 820 002a 1A6A     		ldr	r2, [r3, #32]
 821 002c 41F21113 		movw	r3, #4369
 822 0030 1340     		ands	r3, r3, r2
 823 0032 002B     		cmp	r3, #0
 824 0034 0FD1     		bne	.L29
 825              		.loc 1 454 0 is_stmt 0 discriminator 1
 826 0036 7B68     		ldr	r3, [r7, #4]
 827 0038 1B68     		ldr	r3, [r3]
 828 003a 1A6A     		ldr	r2, [r3, #32]
 829 003c 40F24443 		movw	r3, #1092
 830 0040 1340     		ands	r3, r3, r2
 831 0042 002B     		cmp	r3, #0
 832 0044 07D1     		bne	.L29
 833              		.loc 1 454 0 discriminator 2
 834 0046 7B68     		ldr	r3, [r7, #4]
 835 0048 1B68     		ldr	r3, [r3]
 836 004a 1A68     		ldr	r2, [r3]
 837 004c 7B68     		ldr	r3, [r7, #4]
 838 004e 1B68     		ldr	r3, [r3]
 839 0050 22F00102 		bic	r2, r2, #1
 840 0054 1A60     		str	r2, [r3]
 841              	.L29:
 455:Drivers/STM32F1xx_HAL_Driver/Src/stm32f1xx_hal_tim_ex.c **** 
 456:Drivers/STM32F1xx_HAL_Driver/Src/stm32f1xx_hal_tim_ex.c ****   /* Return function status */
 457:Drivers/STM32F1xx_HAL_Driver/Src/stm32f1xx_hal_tim_ex.c ****   return HAL_OK;
 842              		.loc 1 457 0 is_stmt 1
 843 0056 0023     		movs	r3, #0
 458:Drivers/STM32F1xx_HAL_Driver/Src/stm32f1xx_hal_tim_ex.c **** }
 844              		.loc 1 458 0
 845 0058 1846     		mov	r0, r3
 846 005a 0837     		adds	r7, r7, #8
 847              	.LCFI50:
 848              		.cfi_def_cfa_offset 8
 849 005c BD46     		mov	sp, r7
 850              	.LCFI51:
 851              		.cfi_def_cfa_register 13
 852              		@ sp needed
 853 005e 80BD     		pop	{r7, pc}
 854              		.cfi_endproc
 855              	.LFE75:
 857              		.section	.text.HAL_TIMEx_OCN_Start,"ax",%progbits
 858              		.align	1
 859              		.global	HAL_TIMEx_OCN_Start
 860              		.syntax unified
 861              		.thumb
 862              		.thumb_func
 863              		.fpu softvfp
 865              	HAL_TIMEx_OCN_Start:
 866              	.LFB76:
 459:Drivers/STM32F1xx_HAL_Driver/Src/stm32f1xx_hal_tim_ex.c **** 
 460:Drivers/STM32F1xx_HAL_Driver/Src/stm32f1xx_hal_tim_ex.c **** /**
 461:Drivers/STM32F1xx_HAL_Driver/Src/stm32f1xx_hal_tim_ex.c ****   * @}
 462:Drivers/STM32F1xx_HAL_Driver/Src/stm32f1xx_hal_tim_ex.c ****   */
 463:Drivers/STM32F1xx_HAL_Driver/Src/stm32f1xx_hal_tim_ex.c **** 
 464:Drivers/STM32F1xx_HAL_Driver/Src/stm32f1xx_hal_tim_ex.c **** #if defined (STM32F100xB) || defined (STM32F100xE) ||                                              
 465:Drivers/STM32F1xx_HAL_Driver/Src/stm32f1xx_hal_tim_ex.c ****     defined (STM32F103x6) || defined (STM32F103xB) || defined (STM32F103xE) || defined (STM32F103xG
 466:Drivers/STM32F1xx_HAL_Driver/Src/stm32f1xx_hal_tim_ex.c ****     defined (STM32F105xC) || defined (STM32F107xC)
ARM GAS  /tmp/ccpgqo2Y.s 			page 24


 467:Drivers/STM32F1xx_HAL_Driver/Src/stm32f1xx_hal_tim_ex.c **** 
 468:Drivers/STM32F1xx_HAL_Driver/Src/stm32f1xx_hal_tim_ex.c **** /** @defgroup TIMEx_Exported_Functions_Group2 Timer Complementary Output Compare functions
 469:Drivers/STM32F1xx_HAL_Driver/Src/stm32f1xx_hal_tim_ex.c ****  *  @brief    Timer Complementary Output Compare functions
 470:Drivers/STM32F1xx_HAL_Driver/Src/stm32f1xx_hal_tim_ex.c ****  *
 471:Drivers/STM32F1xx_HAL_Driver/Src/stm32f1xx_hal_tim_ex.c **** @verbatim
 472:Drivers/STM32F1xx_HAL_Driver/Src/stm32f1xx_hal_tim_ex.c ****   ==============================================================================
 473:Drivers/STM32F1xx_HAL_Driver/Src/stm32f1xx_hal_tim_ex.c ****               ##### Timer Complementary Output Compare functions #####
 474:Drivers/STM32F1xx_HAL_Driver/Src/stm32f1xx_hal_tim_ex.c ****   ==============================================================================
 475:Drivers/STM32F1xx_HAL_Driver/Src/stm32f1xx_hal_tim_ex.c ****   [..]
 476:Drivers/STM32F1xx_HAL_Driver/Src/stm32f1xx_hal_tim_ex.c ****     This section provides functions allowing to:
 477:Drivers/STM32F1xx_HAL_Driver/Src/stm32f1xx_hal_tim_ex.c ****     (+) Start the Complementary Output Compare/PWM.
 478:Drivers/STM32F1xx_HAL_Driver/Src/stm32f1xx_hal_tim_ex.c ****     (+) Stop the Complementary Output Compare/PWM.
 479:Drivers/STM32F1xx_HAL_Driver/Src/stm32f1xx_hal_tim_ex.c ****     (+) Start the Complementary Output Compare/PWM and enable interrupts.
 480:Drivers/STM32F1xx_HAL_Driver/Src/stm32f1xx_hal_tim_ex.c ****     (+) Stop the Complementary Output Compare/PWM and disable interrupts.
 481:Drivers/STM32F1xx_HAL_Driver/Src/stm32f1xx_hal_tim_ex.c ****     (+) Start the Complementary Output Compare/PWM and enable DMA transfers.
 482:Drivers/STM32F1xx_HAL_Driver/Src/stm32f1xx_hal_tim_ex.c ****     (+) Stop the Complementary Output Compare/PWM and disable DMA transfers.
 483:Drivers/STM32F1xx_HAL_Driver/Src/stm32f1xx_hal_tim_ex.c **** 
 484:Drivers/STM32F1xx_HAL_Driver/Src/stm32f1xx_hal_tim_ex.c **** @endverbatim
 485:Drivers/STM32F1xx_HAL_Driver/Src/stm32f1xx_hal_tim_ex.c ****   * @{
 486:Drivers/STM32F1xx_HAL_Driver/Src/stm32f1xx_hal_tim_ex.c ****   */
 487:Drivers/STM32F1xx_HAL_Driver/Src/stm32f1xx_hal_tim_ex.c **** 
 488:Drivers/STM32F1xx_HAL_Driver/Src/stm32f1xx_hal_tim_ex.c **** /**
 489:Drivers/STM32F1xx_HAL_Driver/Src/stm32f1xx_hal_tim_ex.c ****   * @brief  Starts the TIM Output Compare signal generation on the complementary
 490:Drivers/STM32F1xx_HAL_Driver/Src/stm32f1xx_hal_tim_ex.c ****   *         output.
 491:Drivers/STM32F1xx_HAL_Driver/Src/stm32f1xx_hal_tim_ex.c ****   * @param  htim : TIM Output Compare handle
 492:Drivers/STM32F1xx_HAL_Driver/Src/stm32f1xx_hal_tim_ex.c ****   * @param  Channel : TIM Channel to be enabled
 493:Drivers/STM32F1xx_HAL_Driver/Src/stm32f1xx_hal_tim_ex.c ****   *          This parameter can be one of the following values:
 494:Drivers/STM32F1xx_HAL_Driver/Src/stm32f1xx_hal_tim_ex.c ****   *            @arg TIM_CHANNEL_1: TIM Channel 1 selected
 495:Drivers/STM32F1xx_HAL_Driver/Src/stm32f1xx_hal_tim_ex.c ****   *            @arg TIM_CHANNEL_2: TIM Channel 2 selected
 496:Drivers/STM32F1xx_HAL_Driver/Src/stm32f1xx_hal_tim_ex.c ****   *            @arg TIM_CHANNEL_3: TIM Channel 3 selected
 497:Drivers/STM32F1xx_HAL_Driver/Src/stm32f1xx_hal_tim_ex.c ****   *            @arg TIM_CHANNEL_4: TIM Channel 4 selected
 498:Drivers/STM32F1xx_HAL_Driver/Src/stm32f1xx_hal_tim_ex.c ****   * @retval HAL status
 499:Drivers/STM32F1xx_HAL_Driver/Src/stm32f1xx_hal_tim_ex.c ****   */
 500:Drivers/STM32F1xx_HAL_Driver/Src/stm32f1xx_hal_tim_ex.c **** HAL_StatusTypeDef HAL_TIMEx_OCN_Start(TIM_HandleTypeDef *htim, uint32_t Channel)
 501:Drivers/STM32F1xx_HAL_Driver/Src/stm32f1xx_hal_tim_ex.c **** {
 867              		.loc 1 501 0
 868              		.cfi_startproc
 869              		@ args = 0, pretend = 0, frame = 8
 870              		@ frame_needed = 1, uses_anonymous_args = 0
 871 0000 80B5     		push	{r7, lr}
 872              	.LCFI52:
 873              		.cfi_def_cfa_offset 8
 874              		.cfi_offset 7, -8
 875              		.cfi_offset 14, -4
 876 0002 82B0     		sub	sp, sp, #8
 877              	.LCFI53:
 878              		.cfi_def_cfa_offset 16
 879 0004 00AF     		add	r7, sp, #0
 880              	.LCFI54:
 881              		.cfi_def_cfa_register 7
 882 0006 7860     		str	r0, [r7, #4]
 883 0008 3960     		str	r1, [r7]
 502:Drivers/STM32F1xx_HAL_Driver/Src/stm32f1xx_hal_tim_ex.c ****   /* Check the parameters */
 503:Drivers/STM32F1xx_HAL_Driver/Src/stm32f1xx_hal_tim_ex.c ****   assert_param(IS_TIM_CCXN_INSTANCE(htim->Instance, Channel));
 504:Drivers/STM32F1xx_HAL_Driver/Src/stm32f1xx_hal_tim_ex.c **** 
 505:Drivers/STM32F1xx_HAL_Driver/Src/stm32f1xx_hal_tim_ex.c ****   /* Enable the Capture compare channel N */
 506:Drivers/STM32F1xx_HAL_Driver/Src/stm32f1xx_hal_tim_ex.c ****   TIM_CCxNChannelCmd(htim->Instance, Channel, TIM_CCxN_ENABLE);
ARM GAS  /tmp/ccpgqo2Y.s 			page 25


 884              		.loc 1 506 0
 885 000a 7B68     		ldr	r3, [r7, #4]
 886 000c 1B68     		ldr	r3, [r3]
 887 000e 0422     		movs	r2, #4
 888 0010 3968     		ldr	r1, [r7]
 889 0012 1846     		mov	r0, r3
 890 0014 FFF7FEFF 		bl	TIM_CCxNChannelCmd
 507:Drivers/STM32F1xx_HAL_Driver/Src/stm32f1xx_hal_tim_ex.c **** 
 508:Drivers/STM32F1xx_HAL_Driver/Src/stm32f1xx_hal_tim_ex.c ****   /* Enable the Main Ouput */
 509:Drivers/STM32F1xx_HAL_Driver/Src/stm32f1xx_hal_tim_ex.c ****   __HAL_TIM_MOE_ENABLE(htim);
 891              		.loc 1 509 0
 892 0018 7B68     		ldr	r3, [r7, #4]
 893 001a 1B68     		ldr	r3, [r3]
 894 001c 5A6C     		ldr	r2, [r3, #68]
 895 001e 7B68     		ldr	r3, [r7, #4]
 896 0020 1B68     		ldr	r3, [r3]
 897 0022 42F40042 		orr	r2, r2, #32768
 898 0026 5A64     		str	r2, [r3, #68]
 510:Drivers/STM32F1xx_HAL_Driver/Src/stm32f1xx_hal_tim_ex.c **** 
 511:Drivers/STM32F1xx_HAL_Driver/Src/stm32f1xx_hal_tim_ex.c ****   /* Enable the Peripheral */
 512:Drivers/STM32F1xx_HAL_Driver/Src/stm32f1xx_hal_tim_ex.c ****   __HAL_TIM_ENABLE(htim);
 899              		.loc 1 512 0
 900 0028 7B68     		ldr	r3, [r7, #4]
 901 002a 1B68     		ldr	r3, [r3]
 902 002c 1A68     		ldr	r2, [r3]
 903 002e 7B68     		ldr	r3, [r7, #4]
 904 0030 1B68     		ldr	r3, [r3]
 905 0032 42F00102 		orr	r2, r2, #1
 906 0036 1A60     		str	r2, [r3]
 513:Drivers/STM32F1xx_HAL_Driver/Src/stm32f1xx_hal_tim_ex.c **** 
 514:Drivers/STM32F1xx_HAL_Driver/Src/stm32f1xx_hal_tim_ex.c ****   /* Return function status */
 515:Drivers/STM32F1xx_HAL_Driver/Src/stm32f1xx_hal_tim_ex.c ****   return HAL_OK;
 907              		.loc 1 515 0
 908 0038 0023     		movs	r3, #0
 516:Drivers/STM32F1xx_HAL_Driver/Src/stm32f1xx_hal_tim_ex.c **** }
 909              		.loc 1 516 0
 910 003a 1846     		mov	r0, r3
 911 003c 0837     		adds	r7, r7, #8
 912              	.LCFI55:
 913              		.cfi_def_cfa_offset 8
 914 003e BD46     		mov	sp, r7
 915              	.LCFI56:
 916              		.cfi_def_cfa_register 13
 917              		@ sp needed
 918 0040 80BD     		pop	{r7, pc}
 919              		.cfi_endproc
 920              	.LFE76:
 922              		.section	.text.HAL_TIMEx_OCN_Stop,"ax",%progbits
 923              		.align	1
 924              		.global	HAL_TIMEx_OCN_Stop
 925              		.syntax unified
 926              		.thumb
 927              		.thumb_func
 928              		.fpu softvfp
 930              	HAL_TIMEx_OCN_Stop:
 931              	.LFB77:
 517:Drivers/STM32F1xx_HAL_Driver/Src/stm32f1xx_hal_tim_ex.c **** 
ARM GAS  /tmp/ccpgqo2Y.s 			page 26


 518:Drivers/STM32F1xx_HAL_Driver/Src/stm32f1xx_hal_tim_ex.c **** /**
 519:Drivers/STM32F1xx_HAL_Driver/Src/stm32f1xx_hal_tim_ex.c ****   * @brief  Stops the TIM Output Compare signal generation on the complementary
 520:Drivers/STM32F1xx_HAL_Driver/Src/stm32f1xx_hal_tim_ex.c ****   *         output.
 521:Drivers/STM32F1xx_HAL_Driver/Src/stm32f1xx_hal_tim_ex.c ****   * @param  htim : TIM handle
 522:Drivers/STM32F1xx_HAL_Driver/Src/stm32f1xx_hal_tim_ex.c ****   * @param  Channel : TIM Channel to be disabled
 523:Drivers/STM32F1xx_HAL_Driver/Src/stm32f1xx_hal_tim_ex.c ****   *          This parameter can be one of the following values:
 524:Drivers/STM32F1xx_HAL_Driver/Src/stm32f1xx_hal_tim_ex.c ****   *            @arg TIM_CHANNEL_1: TIM Channel 1 selected
 525:Drivers/STM32F1xx_HAL_Driver/Src/stm32f1xx_hal_tim_ex.c ****   *            @arg TIM_CHANNEL_2: TIM Channel 2 selected
 526:Drivers/STM32F1xx_HAL_Driver/Src/stm32f1xx_hal_tim_ex.c ****   *            @arg TIM_CHANNEL_3: TIM Channel 3 selected
 527:Drivers/STM32F1xx_HAL_Driver/Src/stm32f1xx_hal_tim_ex.c ****   *            @arg TIM_CHANNEL_4: TIM Channel 4 selected
 528:Drivers/STM32F1xx_HAL_Driver/Src/stm32f1xx_hal_tim_ex.c ****   * @retval HAL status
 529:Drivers/STM32F1xx_HAL_Driver/Src/stm32f1xx_hal_tim_ex.c ****   */
 530:Drivers/STM32F1xx_HAL_Driver/Src/stm32f1xx_hal_tim_ex.c **** HAL_StatusTypeDef HAL_TIMEx_OCN_Stop(TIM_HandleTypeDef *htim, uint32_t Channel)
 531:Drivers/STM32F1xx_HAL_Driver/Src/stm32f1xx_hal_tim_ex.c **** {
 932              		.loc 1 531 0
 933              		.cfi_startproc
 934              		@ args = 0, pretend = 0, frame = 8
 935              		@ frame_needed = 1, uses_anonymous_args = 0
 936 0000 80B5     		push	{r7, lr}
 937              	.LCFI57:
 938              		.cfi_def_cfa_offset 8
 939              		.cfi_offset 7, -8
 940              		.cfi_offset 14, -4
 941 0002 82B0     		sub	sp, sp, #8
 942              	.LCFI58:
 943              		.cfi_def_cfa_offset 16
 944 0004 00AF     		add	r7, sp, #0
 945              	.LCFI59:
 946              		.cfi_def_cfa_register 7
 947 0006 7860     		str	r0, [r7, #4]
 948 0008 3960     		str	r1, [r7]
 532:Drivers/STM32F1xx_HAL_Driver/Src/stm32f1xx_hal_tim_ex.c ****   /* Check the parameters */
 533:Drivers/STM32F1xx_HAL_Driver/Src/stm32f1xx_hal_tim_ex.c ****   assert_param(IS_TIM_CCXN_INSTANCE(htim->Instance, Channel));
 534:Drivers/STM32F1xx_HAL_Driver/Src/stm32f1xx_hal_tim_ex.c **** 
 535:Drivers/STM32F1xx_HAL_Driver/Src/stm32f1xx_hal_tim_ex.c ****   /* Disable the Capture compare channel N */
 536:Drivers/STM32F1xx_HAL_Driver/Src/stm32f1xx_hal_tim_ex.c ****   TIM_CCxNChannelCmd(htim->Instance, Channel, TIM_CCxN_DISABLE);
 949              		.loc 1 536 0
 950 000a 7B68     		ldr	r3, [r7, #4]
 951 000c 1B68     		ldr	r3, [r3]
 952 000e 0022     		movs	r2, #0
 953 0010 3968     		ldr	r1, [r7]
 954 0012 1846     		mov	r0, r3
 955 0014 FFF7FEFF 		bl	TIM_CCxNChannelCmd
 537:Drivers/STM32F1xx_HAL_Driver/Src/stm32f1xx_hal_tim_ex.c **** 
 538:Drivers/STM32F1xx_HAL_Driver/Src/stm32f1xx_hal_tim_ex.c ****   /* Disable the Main Ouput */
 539:Drivers/STM32F1xx_HAL_Driver/Src/stm32f1xx_hal_tim_ex.c ****   __HAL_TIM_MOE_DISABLE(htim);
 956              		.loc 1 539 0
 957 0018 7B68     		ldr	r3, [r7, #4]
 958 001a 1B68     		ldr	r3, [r3]
 959 001c 1A6A     		ldr	r2, [r3, #32]
 960 001e 41F21113 		movw	r3, #4369
 961 0022 1340     		ands	r3, r3, r2
 962 0024 002B     		cmp	r3, #0
 963 0026 0FD1     		bne	.L34
 964              		.loc 1 539 0 is_stmt 0 discriminator 1
 965 0028 7B68     		ldr	r3, [r7, #4]
 966 002a 1B68     		ldr	r3, [r3]
ARM GAS  /tmp/ccpgqo2Y.s 			page 27


 967 002c 1A6A     		ldr	r2, [r3, #32]
 968 002e 40F24443 		movw	r3, #1092
 969 0032 1340     		ands	r3, r3, r2
 970 0034 002B     		cmp	r3, #0
 971 0036 07D1     		bne	.L34
 972              		.loc 1 539 0 discriminator 2
 973 0038 7B68     		ldr	r3, [r7, #4]
 974 003a 1B68     		ldr	r3, [r3]
 975 003c 5A6C     		ldr	r2, [r3, #68]
 976 003e 7B68     		ldr	r3, [r7, #4]
 977 0040 1B68     		ldr	r3, [r3]
 978 0042 22F40042 		bic	r2, r2, #32768
 979 0046 5A64     		str	r2, [r3, #68]
 980              	.L34:
 540:Drivers/STM32F1xx_HAL_Driver/Src/stm32f1xx_hal_tim_ex.c **** 
 541:Drivers/STM32F1xx_HAL_Driver/Src/stm32f1xx_hal_tim_ex.c ****   /* Disable the Peripheral */
 542:Drivers/STM32F1xx_HAL_Driver/Src/stm32f1xx_hal_tim_ex.c ****   __HAL_TIM_DISABLE(htim);
 981              		.loc 1 542 0 is_stmt 1
 982 0048 7B68     		ldr	r3, [r7, #4]
 983 004a 1B68     		ldr	r3, [r3]
 984 004c 1A6A     		ldr	r2, [r3, #32]
 985 004e 41F21113 		movw	r3, #4369
 986 0052 1340     		ands	r3, r3, r2
 987 0054 002B     		cmp	r3, #0
 988 0056 0FD1     		bne	.L35
 989              		.loc 1 542 0 is_stmt 0 discriminator 1
 990 0058 7B68     		ldr	r3, [r7, #4]
 991 005a 1B68     		ldr	r3, [r3]
 992 005c 1A6A     		ldr	r2, [r3, #32]
 993 005e 40F24443 		movw	r3, #1092
 994 0062 1340     		ands	r3, r3, r2
 995 0064 002B     		cmp	r3, #0
 996 0066 07D1     		bne	.L35
 997              		.loc 1 542 0 discriminator 2
 998 0068 7B68     		ldr	r3, [r7, #4]
 999 006a 1B68     		ldr	r3, [r3]
 1000 006c 1A68     		ldr	r2, [r3]
 1001 006e 7B68     		ldr	r3, [r7, #4]
 1002 0070 1B68     		ldr	r3, [r3]
 1003 0072 22F00102 		bic	r2, r2, #1
 1004 0076 1A60     		str	r2, [r3]
 1005              	.L35:
 543:Drivers/STM32F1xx_HAL_Driver/Src/stm32f1xx_hal_tim_ex.c **** 
 544:Drivers/STM32F1xx_HAL_Driver/Src/stm32f1xx_hal_tim_ex.c ****   /* Return function status */
 545:Drivers/STM32F1xx_HAL_Driver/Src/stm32f1xx_hal_tim_ex.c ****   return HAL_OK;
 1006              		.loc 1 545 0 is_stmt 1
 1007 0078 0023     		movs	r3, #0
 546:Drivers/STM32F1xx_HAL_Driver/Src/stm32f1xx_hal_tim_ex.c **** }
 1008              		.loc 1 546 0
 1009 007a 1846     		mov	r0, r3
 1010 007c 0837     		adds	r7, r7, #8
 1011              	.LCFI60:
 1012              		.cfi_def_cfa_offset 8
 1013 007e BD46     		mov	sp, r7
 1014              	.LCFI61:
 1015              		.cfi_def_cfa_register 13
 1016              		@ sp needed
ARM GAS  /tmp/ccpgqo2Y.s 			page 28


 1017 0080 80BD     		pop	{r7, pc}
 1018              		.cfi_endproc
 1019              	.LFE77:
 1021              		.section	.text.HAL_TIMEx_OCN_Start_IT,"ax",%progbits
 1022              		.align	1
 1023              		.global	HAL_TIMEx_OCN_Start_IT
 1024              		.syntax unified
 1025              		.thumb
 1026              		.thumb_func
 1027              		.fpu softvfp
 1029              	HAL_TIMEx_OCN_Start_IT:
 1030              	.LFB78:
 547:Drivers/STM32F1xx_HAL_Driver/Src/stm32f1xx_hal_tim_ex.c **** 
 548:Drivers/STM32F1xx_HAL_Driver/Src/stm32f1xx_hal_tim_ex.c **** /**
 549:Drivers/STM32F1xx_HAL_Driver/Src/stm32f1xx_hal_tim_ex.c ****   * @brief  Starts the TIM Output Compare signal generation in interrupt mode
 550:Drivers/STM32F1xx_HAL_Driver/Src/stm32f1xx_hal_tim_ex.c ****   *         on the complementary output.
 551:Drivers/STM32F1xx_HAL_Driver/Src/stm32f1xx_hal_tim_ex.c ****   * @param  htim : TIM OC handle
 552:Drivers/STM32F1xx_HAL_Driver/Src/stm32f1xx_hal_tim_ex.c ****   * @param  Channel : TIM Channel to be enabled
 553:Drivers/STM32F1xx_HAL_Driver/Src/stm32f1xx_hal_tim_ex.c ****   *          This parameter can be one of the following values:
 554:Drivers/STM32F1xx_HAL_Driver/Src/stm32f1xx_hal_tim_ex.c ****   *            @arg TIM_CHANNEL_1: TIM Channel 1 selected
 555:Drivers/STM32F1xx_HAL_Driver/Src/stm32f1xx_hal_tim_ex.c ****   *            @arg TIM_CHANNEL_2: TIM Channel 2 selected
 556:Drivers/STM32F1xx_HAL_Driver/Src/stm32f1xx_hal_tim_ex.c ****   *            @arg TIM_CHANNEL_3: TIM Channel 3 selected
 557:Drivers/STM32F1xx_HAL_Driver/Src/stm32f1xx_hal_tim_ex.c ****   *            @arg TIM_CHANNEL_4: TIM Channel 4 selected
 558:Drivers/STM32F1xx_HAL_Driver/Src/stm32f1xx_hal_tim_ex.c ****   * @retval HAL status
 559:Drivers/STM32F1xx_HAL_Driver/Src/stm32f1xx_hal_tim_ex.c ****   */
 560:Drivers/STM32F1xx_HAL_Driver/Src/stm32f1xx_hal_tim_ex.c **** HAL_StatusTypeDef HAL_TIMEx_OCN_Start_IT(TIM_HandleTypeDef *htim, uint32_t Channel)
 561:Drivers/STM32F1xx_HAL_Driver/Src/stm32f1xx_hal_tim_ex.c **** {
 1031              		.loc 1 561 0
 1032              		.cfi_startproc
 1033              		@ args = 0, pretend = 0, frame = 8
 1034              		@ frame_needed = 1, uses_anonymous_args = 0
 1035 0000 80B5     		push	{r7, lr}
 1036              	.LCFI62:
 1037              		.cfi_def_cfa_offset 8
 1038              		.cfi_offset 7, -8
 1039              		.cfi_offset 14, -4
 1040 0002 82B0     		sub	sp, sp, #8
 1041              	.LCFI63:
 1042              		.cfi_def_cfa_offset 16
 1043 0004 00AF     		add	r7, sp, #0
 1044              	.LCFI64:
 1045              		.cfi_def_cfa_register 7
 1046 0006 7860     		str	r0, [r7, #4]
 1047 0008 3960     		str	r1, [r7]
 562:Drivers/STM32F1xx_HAL_Driver/Src/stm32f1xx_hal_tim_ex.c ****   /* Check the parameters */
 563:Drivers/STM32F1xx_HAL_Driver/Src/stm32f1xx_hal_tim_ex.c ****   assert_param(IS_TIM_CCXN_INSTANCE(htim->Instance, Channel));
 564:Drivers/STM32F1xx_HAL_Driver/Src/stm32f1xx_hal_tim_ex.c **** 
 565:Drivers/STM32F1xx_HAL_Driver/Src/stm32f1xx_hal_tim_ex.c ****   switch (Channel)
 1048              		.loc 1 565 0
 1049 000a 3B68     		ldr	r3, [r7]
 1050 000c 0C2B     		cmp	r3, #12
 1051 000e 41D8     		bhi	.L46
 1052 0010 01A2     		adr	r2, .L40
 1053 0012 52F823F0 		ldr	pc, [r2, r3, lsl #2]
 1054 0016 00BF     		.p2align 2
 1055              	.L40:
 1056 0018 4D000000 		.word	.L39+1
ARM GAS  /tmp/ccpgqo2Y.s 			page 29


 1057 001c 95000000 		.word	.L46+1
 1058 0020 95000000 		.word	.L46+1
 1059 0024 95000000 		.word	.L46+1
 1060 0028 5F000000 		.word	.L41+1
 1061 002c 95000000 		.word	.L46+1
 1062 0030 95000000 		.word	.L46+1
 1063 0034 95000000 		.word	.L46+1
 1064 0038 71000000 		.word	.L42+1
 1065 003c 95000000 		.word	.L46+1
 1066 0040 95000000 		.word	.L46+1
 1067 0044 95000000 		.word	.L46+1
 1068 0048 83000000 		.word	.L43+1
 1069              		.p2align 1
 1070              	.L39:
 566:Drivers/STM32F1xx_HAL_Driver/Src/stm32f1xx_hal_tim_ex.c ****   {
 567:Drivers/STM32F1xx_HAL_Driver/Src/stm32f1xx_hal_tim_ex.c ****     case TIM_CHANNEL_1:
 568:Drivers/STM32F1xx_HAL_Driver/Src/stm32f1xx_hal_tim_ex.c ****     {
 569:Drivers/STM32F1xx_HAL_Driver/Src/stm32f1xx_hal_tim_ex.c ****       /* Enable the TIM Output Compare interrupt */
 570:Drivers/STM32F1xx_HAL_Driver/Src/stm32f1xx_hal_tim_ex.c ****       __HAL_TIM_ENABLE_IT(htim, TIM_IT_CC1);
 1071              		.loc 1 570 0
 1072 004c 7B68     		ldr	r3, [r7, #4]
 1073 004e 1B68     		ldr	r3, [r3]
 1074 0050 DA68     		ldr	r2, [r3, #12]
 1075 0052 7B68     		ldr	r3, [r7, #4]
 1076 0054 1B68     		ldr	r3, [r3]
 1077 0056 42F00202 		orr	r2, r2, #2
 1078 005a DA60     		str	r2, [r3, #12]
 571:Drivers/STM32F1xx_HAL_Driver/Src/stm32f1xx_hal_tim_ex.c ****     }
 572:Drivers/STM32F1xx_HAL_Driver/Src/stm32f1xx_hal_tim_ex.c ****     break;
 1079              		.loc 1 572 0
 1080 005c 1BE0     		b	.L44
 1081              	.L41:
 573:Drivers/STM32F1xx_HAL_Driver/Src/stm32f1xx_hal_tim_ex.c **** 
 574:Drivers/STM32F1xx_HAL_Driver/Src/stm32f1xx_hal_tim_ex.c ****     case TIM_CHANNEL_2:
 575:Drivers/STM32F1xx_HAL_Driver/Src/stm32f1xx_hal_tim_ex.c ****     {
 576:Drivers/STM32F1xx_HAL_Driver/Src/stm32f1xx_hal_tim_ex.c ****       /* Enable the TIM Output Compare interrupt */
 577:Drivers/STM32F1xx_HAL_Driver/Src/stm32f1xx_hal_tim_ex.c ****       __HAL_TIM_ENABLE_IT(htim, TIM_IT_CC2);
 1082              		.loc 1 577 0
 1083 005e 7B68     		ldr	r3, [r7, #4]
 1084 0060 1B68     		ldr	r3, [r3]
 1085 0062 DA68     		ldr	r2, [r3, #12]
 1086 0064 7B68     		ldr	r3, [r7, #4]
 1087 0066 1B68     		ldr	r3, [r3]
 1088 0068 42F00402 		orr	r2, r2, #4
 1089 006c DA60     		str	r2, [r3, #12]
 578:Drivers/STM32F1xx_HAL_Driver/Src/stm32f1xx_hal_tim_ex.c ****     }
 579:Drivers/STM32F1xx_HAL_Driver/Src/stm32f1xx_hal_tim_ex.c ****     break;
 1090              		.loc 1 579 0
 1091 006e 12E0     		b	.L44
 1092              	.L42:
 580:Drivers/STM32F1xx_HAL_Driver/Src/stm32f1xx_hal_tim_ex.c **** 
 581:Drivers/STM32F1xx_HAL_Driver/Src/stm32f1xx_hal_tim_ex.c ****     case TIM_CHANNEL_3:
 582:Drivers/STM32F1xx_HAL_Driver/Src/stm32f1xx_hal_tim_ex.c ****     {
 583:Drivers/STM32F1xx_HAL_Driver/Src/stm32f1xx_hal_tim_ex.c ****       /* Enable the TIM Output Compare interrupt */
 584:Drivers/STM32F1xx_HAL_Driver/Src/stm32f1xx_hal_tim_ex.c ****       __HAL_TIM_ENABLE_IT(htim, TIM_IT_CC3);
 1093              		.loc 1 584 0
 1094 0070 7B68     		ldr	r3, [r7, #4]
ARM GAS  /tmp/ccpgqo2Y.s 			page 30


 1095 0072 1B68     		ldr	r3, [r3]
 1096 0074 DA68     		ldr	r2, [r3, #12]
 1097 0076 7B68     		ldr	r3, [r7, #4]
 1098 0078 1B68     		ldr	r3, [r3]
 1099 007a 42F00802 		orr	r2, r2, #8
 1100 007e DA60     		str	r2, [r3, #12]
 585:Drivers/STM32F1xx_HAL_Driver/Src/stm32f1xx_hal_tim_ex.c ****     }
 586:Drivers/STM32F1xx_HAL_Driver/Src/stm32f1xx_hal_tim_ex.c ****     break;
 1101              		.loc 1 586 0
 1102 0080 09E0     		b	.L44
 1103              	.L43:
 587:Drivers/STM32F1xx_HAL_Driver/Src/stm32f1xx_hal_tim_ex.c **** 
 588:Drivers/STM32F1xx_HAL_Driver/Src/stm32f1xx_hal_tim_ex.c ****     case TIM_CHANNEL_4:
 589:Drivers/STM32F1xx_HAL_Driver/Src/stm32f1xx_hal_tim_ex.c ****     {
 590:Drivers/STM32F1xx_HAL_Driver/Src/stm32f1xx_hal_tim_ex.c ****       /* Enable the TIM Output Compare interrupt */
 591:Drivers/STM32F1xx_HAL_Driver/Src/stm32f1xx_hal_tim_ex.c ****       __HAL_TIM_ENABLE_IT(htim, TIM_IT_CC4);
 1104              		.loc 1 591 0
 1105 0082 7B68     		ldr	r3, [r7, #4]
 1106 0084 1B68     		ldr	r3, [r3]
 1107 0086 DA68     		ldr	r2, [r3, #12]
 1108 0088 7B68     		ldr	r3, [r7, #4]
 1109 008a 1B68     		ldr	r3, [r3]
 1110 008c 42F01002 		orr	r2, r2, #16
 1111 0090 DA60     		str	r2, [r3, #12]
 592:Drivers/STM32F1xx_HAL_Driver/Src/stm32f1xx_hal_tim_ex.c ****     }
 593:Drivers/STM32F1xx_HAL_Driver/Src/stm32f1xx_hal_tim_ex.c ****     break;
 1112              		.loc 1 593 0
 1113 0092 00E0     		b	.L44
 1114              	.L46:
 594:Drivers/STM32F1xx_HAL_Driver/Src/stm32f1xx_hal_tim_ex.c **** 
 595:Drivers/STM32F1xx_HAL_Driver/Src/stm32f1xx_hal_tim_ex.c ****     default:
 596:Drivers/STM32F1xx_HAL_Driver/Src/stm32f1xx_hal_tim_ex.c ****     break;
 1115              		.loc 1 596 0
 1116 0094 00BF     		nop
 1117              	.L44:
 597:Drivers/STM32F1xx_HAL_Driver/Src/stm32f1xx_hal_tim_ex.c ****   }
 598:Drivers/STM32F1xx_HAL_Driver/Src/stm32f1xx_hal_tim_ex.c **** 
 599:Drivers/STM32F1xx_HAL_Driver/Src/stm32f1xx_hal_tim_ex.c ****   /* Enable the TIM Break interrupt */
 600:Drivers/STM32F1xx_HAL_Driver/Src/stm32f1xx_hal_tim_ex.c ****   __HAL_TIM_ENABLE_IT(htim, TIM_IT_BREAK);
 1118              		.loc 1 600 0
 1119 0096 7B68     		ldr	r3, [r7, #4]
 1120 0098 1B68     		ldr	r3, [r3]
 1121 009a DA68     		ldr	r2, [r3, #12]
 1122 009c 7B68     		ldr	r3, [r7, #4]
 1123 009e 1B68     		ldr	r3, [r3]
 1124 00a0 42F08002 		orr	r2, r2, #128
 1125 00a4 DA60     		str	r2, [r3, #12]
 601:Drivers/STM32F1xx_HAL_Driver/Src/stm32f1xx_hal_tim_ex.c **** 
 602:Drivers/STM32F1xx_HAL_Driver/Src/stm32f1xx_hal_tim_ex.c ****   /* Enable the Capture compare channel N */
 603:Drivers/STM32F1xx_HAL_Driver/Src/stm32f1xx_hal_tim_ex.c ****   TIM_CCxNChannelCmd(htim->Instance, Channel, TIM_CCxN_ENABLE);
 1126              		.loc 1 603 0
 1127 00a6 7B68     		ldr	r3, [r7, #4]
 1128 00a8 1B68     		ldr	r3, [r3]
 1129 00aa 0422     		movs	r2, #4
 1130 00ac 3968     		ldr	r1, [r7]
 1131 00ae 1846     		mov	r0, r3
 1132 00b0 FFF7FEFF 		bl	TIM_CCxNChannelCmd
ARM GAS  /tmp/ccpgqo2Y.s 			page 31


 604:Drivers/STM32F1xx_HAL_Driver/Src/stm32f1xx_hal_tim_ex.c **** 
 605:Drivers/STM32F1xx_HAL_Driver/Src/stm32f1xx_hal_tim_ex.c ****   /* Enable the Main Ouput */
 606:Drivers/STM32F1xx_HAL_Driver/Src/stm32f1xx_hal_tim_ex.c ****   __HAL_TIM_MOE_ENABLE(htim);
 1133              		.loc 1 606 0
 1134 00b4 7B68     		ldr	r3, [r7, #4]
 1135 00b6 1B68     		ldr	r3, [r3]
 1136 00b8 5A6C     		ldr	r2, [r3, #68]
 1137 00ba 7B68     		ldr	r3, [r7, #4]
 1138 00bc 1B68     		ldr	r3, [r3]
 1139 00be 42F40042 		orr	r2, r2, #32768
 1140 00c2 5A64     		str	r2, [r3, #68]
 607:Drivers/STM32F1xx_HAL_Driver/Src/stm32f1xx_hal_tim_ex.c **** 
 608:Drivers/STM32F1xx_HAL_Driver/Src/stm32f1xx_hal_tim_ex.c ****   /* Enable the Peripheral */
 609:Drivers/STM32F1xx_HAL_Driver/Src/stm32f1xx_hal_tim_ex.c ****   __HAL_TIM_ENABLE(htim);
 1141              		.loc 1 609 0
 1142 00c4 7B68     		ldr	r3, [r7, #4]
 1143 00c6 1B68     		ldr	r3, [r3]
 1144 00c8 1A68     		ldr	r2, [r3]
 1145 00ca 7B68     		ldr	r3, [r7, #4]
 1146 00cc 1B68     		ldr	r3, [r3]
 1147 00ce 42F00102 		orr	r2, r2, #1
 1148 00d2 1A60     		str	r2, [r3]
 610:Drivers/STM32F1xx_HAL_Driver/Src/stm32f1xx_hal_tim_ex.c **** 
 611:Drivers/STM32F1xx_HAL_Driver/Src/stm32f1xx_hal_tim_ex.c ****   /* Return function status */
 612:Drivers/STM32F1xx_HAL_Driver/Src/stm32f1xx_hal_tim_ex.c ****   return HAL_OK;
 1149              		.loc 1 612 0
 1150 00d4 0023     		movs	r3, #0
 613:Drivers/STM32F1xx_HAL_Driver/Src/stm32f1xx_hal_tim_ex.c **** }
 1151              		.loc 1 613 0
 1152 00d6 1846     		mov	r0, r3
 1153 00d8 0837     		adds	r7, r7, #8
 1154              	.LCFI65:
 1155              		.cfi_def_cfa_offset 8
 1156 00da BD46     		mov	sp, r7
 1157              	.LCFI66:
 1158              		.cfi_def_cfa_register 13
 1159              		@ sp needed
 1160 00dc 80BD     		pop	{r7, pc}
 1161              		.cfi_endproc
 1162              	.LFE78:
 1164 00de 00BF     		.section	.text.HAL_TIMEx_OCN_Stop_IT,"ax",%progbits
 1165              		.align	1
 1166              		.global	HAL_TIMEx_OCN_Stop_IT
 1167              		.syntax unified
 1168              		.thumb
 1169              		.thumb_func
 1170              		.fpu softvfp
 1172              	HAL_TIMEx_OCN_Stop_IT:
 1173              	.LFB79:
 614:Drivers/STM32F1xx_HAL_Driver/Src/stm32f1xx_hal_tim_ex.c **** 
 615:Drivers/STM32F1xx_HAL_Driver/Src/stm32f1xx_hal_tim_ex.c **** /**
 616:Drivers/STM32F1xx_HAL_Driver/Src/stm32f1xx_hal_tim_ex.c ****   * @brief  Stops the TIM Output Compare signal generation in interrupt mode
 617:Drivers/STM32F1xx_HAL_Driver/Src/stm32f1xx_hal_tim_ex.c ****   *         on the complementary output.
 618:Drivers/STM32F1xx_HAL_Driver/Src/stm32f1xx_hal_tim_ex.c ****   * @param  htim : TIM Output Compare handle
 619:Drivers/STM32F1xx_HAL_Driver/Src/stm32f1xx_hal_tim_ex.c ****   * @param  Channel : TIM Channel to be disabled
 620:Drivers/STM32F1xx_HAL_Driver/Src/stm32f1xx_hal_tim_ex.c ****   *          This parameter can be one of the following values:
 621:Drivers/STM32F1xx_HAL_Driver/Src/stm32f1xx_hal_tim_ex.c ****   *            @arg TIM_CHANNEL_1: TIM Channel 1 selected
ARM GAS  /tmp/ccpgqo2Y.s 			page 32


 622:Drivers/STM32F1xx_HAL_Driver/Src/stm32f1xx_hal_tim_ex.c ****   *            @arg TIM_CHANNEL_2: TIM Channel 2 selected
 623:Drivers/STM32F1xx_HAL_Driver/Src/stm32f1xx_hal_tim_ex.c ****   *            @arg TIM_CHANNEL_3: TIM Channel 3 selected
 624:Drivers/STM32F1xx_HAL_Driver/Src/stm32f1xx_hal_tim_ex.c ****   *            @arg TIM_CHANNEL_4: TIM Channel 4 selected
 625:Drivers/STM32F1xx_HAL_Driver/Src/stm32f1xx_hal_tim_ex.c ****   * @retval HAL status
 626:Drivers/STM32F1xx_HAL_Driver/Src/stm32f1xx_hal_tim_ex.c ****   */
 627:Drivers/STM32F1xx_HAL_Driver/Src/stm32f1xx_hal_tim_ex.c **** HAL_StatusTypeDef HAL_TIMEx_OCN_Stop_IT(TIM_HandleTypeDef *htim, uint32_t Channel)
 628:Drivers/STM32F1xx_HAL_Driver/Src/stm32f1xx_hal_tim_ex.c **** {
 1174              		.loc 1 628 0
 1175              		.cfi_startproc
 1176              		@ args = 0, pretend = 0, frame = 16
 1177              		@ frame_needed = 1, uses_anonymous_args = 0
 1178 0000 80B5     		push	{r7, lr}
 1179              	.LCFI67:
 1180              		.cfi_def_cfa_offset 8
 1181              		.cfi_offset 7, -8
 1182              		.cfi_offset 14, -4
 1183 0002 84B0     		sub	sp, sp, #16
 1184              	.LCFI68:
 1185              		.cfi_def_cfa_offset 24
 1186 0004 00AF     		add	r7, sp, #0
 1187              	.LCFI69:
 1188              		.cfi_def_cfa_register 7
 1189 0006 7860     		str	r0, [r7, #4]
 1190 0008 3960     		str	r1, [r7]
 629:Drivers/STM32F1xx_HAL_Driver/Src/stm32f1xx_hal_tim_ex.c ****   uint32_t tmpccer = 0U;
 1191              		.loc 1 629 0
 1192 000a 0023     		movs	r3, #0
 1193 000c FB60     		str	r3, [r7, #12]
 630:Drivers/STM32F1xx_HAL_Driver/Src/stm32f1xx_hal_tim_ex.c **** 
 631:Drivers/STM32F1xx_HAL_Driver/Src/stm32f1xx_hal_tim_ex.c ****   /* Check the parameters */
 632:Drivers/STM32F1xx_HAL_Driver/Src/stm32f1xx_hal_tim_ex.c ****   assert_param(IS_TIM_CCXN_INSTANCE(htim->Instance, Channel));
 633:Drivers/STM32F1xx_HAL_Driver/Src/stm32f1xx_hal_tim_ex.c **** 
 634:Drivers/STM32F1xx_HAL_Driver/Src/stm32f1xx_hal_tim_ex.c ****   switch (Channel)
 1194              		.loc 1 634 0
 1195 000e 3B68     		ldr	r3, [r7]
 1196 0010 0C2B     		cmp	r3, #12
 1197 0012 41D8     		bhi	.L59
 1198 0014 01A2     		adr	r2, .L50
 1199 0016 52F823F0 		ldr	pc, [r2, r3, lsl #2]
 1200 001a 00BF     		.p2align 2
 1201              	.L50:
 1202 001c 51000000 		.word	.L49+1
 1203 0020 99000000 		.word	.L59+1
 1204 0024 99000000 		.word	.L59+1
 1205 0028 99000000 		.word	.L59+1
 1206 002c 63000000 		.word	.L51+1
 1207 0030 99000000 		.word	.L59+1
 1208 0034 99000000 		.word	.L59+1
 1209 0038 99000000 		.word	.L59+1
 1210 003c 75000000 		.word	.L52+1
 1211 0040 99000000 		.word	.L59+1
 1212 0044 99000000 		.word	.L59+1
 1213 0048 99000000 		.word	.L59+1
 1214 004c 87000000 		.word	.L53+1
 1215              		.p2align 1
 1216              	.L49:
 635:Drivers/STM32F1xx_HAL_Driver/Src/stm32f1xx_hal_tim_ex.c ****   {
ARM GAS  /tmp/ccpgqo2Y.s 			page 33


 636:Drivers/STM32F1xx_HAL_Driver/Src/stm32f1xx_hal_tim_ex.c ****     case TIM_CHANNEL_1:
 637:Drivers/STM32F1xx_HAL_Driver/Src/stm32f1xx_hal_tim_ex.c ****     {
 638:Drivers/STM32F1xx_HAL_Driver/Src/stm32f1xx_hal_tim_ex.c ****       /* Disable the TIM Output Compare interrupt */
 639:Drivers/STM32F1xx_HAL_Driver/Src/stm32f1xx_hal_tim_ex.c ****       __HAL_TIM_DISABLE_IT(htim, TIM_IT_CC1);
 1217              		.loc 1 639 0
 1218 0050 7B68     		ldr	r3, [r7, #4]
 1219 0052 1B68     		ldr	r3, [r3]
 1220 0054 DA68     		ldr	r2, [r3, #12]
 1221 0056 7B68     		ldr	r3, [r7, #4]
 1222 0058 1B68     		ldr	r3, [r3]
 1223 005a 22F00202 		bic	r2, r2, #2
 1224 005e DA60     		str	r2, [r3, #12]
 640:Drivers/STM32F1xx_HAL_Driver/Src/stm32f1xx_hal_tim_ex.c ****     }
 641:Drivers/STM32F1xx_HAL_Driver/Src/stm32f1xx_hal_tim_ex.c ****     break;
 1225              		.loc 1 641 0
 1226 0060 1BE0     		b	.L54
 1227              	.L51:
 642:Drivers/STM32F1xx_HAL_Driver/Src/stm32f1xx_hal_tim_ex.c **** 
 643:Drivers/STM32F1xx_HAL_Driver/Src/stm32f1xx_hal_tim_ex.c ****     case TIM_CHANNEL_2:
 644:Drivers/STM32F1xx_HAL_Driver/Src/stm32f1xx_hal_tim_ex.c ****     {
 645:Drivers/STM32F1xx_HAL_Driver/Src/stm32f1xx_hal_tim_ex.c ****       /* Disable the TIM Output Compare interrupt */
 646:Drivers/STM32F1xx_HAL_Driver/Src/stm32f1xx_hal_tim_ex.c ****       __HAL_TIM_DISABLE_IT(htim, TIM_IT_CC2);
 1228              		.loc 1 646 0
 1229 0062 7B68     		ldr	r3, [r7, #4]
 1230 0064 1B68     		ldr	r3, [r3]
 1231 0066 DA68     		ldr	r2, [r3, #12]
 1232 0068 7B68     		ldr	r3, [r7, #4]
 1233 006a 1B68     		ldr	r3, [r3]
 1234 006c 22F00402 		bic	r2, r2, #4
 1235 0070 DA60     		str	r2, [r3, #12]
 647:Drivers/STM32F1xx_HAL_Driver/Src/stm32f1xx_hal_tim_ex.c ****     }
 648:Drivers/STM32F1xx_HAL_Driver/Src/stm32f1xx_hal_tim_ex.c ****     break;
 1236              		.loc 1 648 0
 1237 0072 12E0     		b	.L54
 1238              	.L52:
 649:Drivers/STM32F1xx_HAL_Driver/Src/stm32f1xx_hal_tim_ex.c **** 
 650:Drivers/STM32F1xx_HAL_Driver/Src/stm32f1xx_hal_tim_ex.c ****     case TIM_CHANNEL_3:
 651:Drivers/STM32F1xx_HAL_Driver/Src/stm32f1xx_hal_tim_ex.c ****     {
 652:Drivers/STM32F1xx_HAL_Driver/Src/stm32f1xx_hal_tim_ex.c ****       /* Disable the TIM Output Compare interrupt */
 653:Drivers/STM32F1xx_HAL_Driver/Src/stm32f1xx_hal_tim_ex.c ****       __HAL_TIM_DISABLE_IT(htim, TIM_IT_CC3);
 1239              		.loc 1 653 0
 1240 0074 7B68     		ldr	r3, [r7, #4]
 1241 0076 1B68     		ldr	r3, [r3]
 1242 0078 DA68     		ldr	r2, [r3, #12]
 1243 007a 7B68     		ldr	r3, [r7, #4]
 1244 007c 1B68     		ldr	r3, [r3]
 1245 007e 22F00802 		bic	r2, r2, #8
 1246 0082 DA60     		str	r2, [r3, #12]
 654:Drivers/STM32F1xx_HAL_Driver/Src/stm32f1xx_hal_tim_ex.c ****     }
 655:Drivers/STM32F1xx_HAL_Driver/Src/stm32f1xx_hal_tim_ex.c ****     break;
 1247              		.loc 1 655 0
 1248 0084 09E0     		b	.L54
 1249              	.L53:
 656:Drivers/STM32F1xx_HAL_Driver/Src/stm32f1xx_hal_tim_ex.c **** 
 657:Drivers/STM32F1xx_HAL_Driver/Src/stm32f1xx_hal_tim_ex.c ****     case TIM_CHANNEL_4:
 658:Drivers/STM32F1xx_HAL_Driver/Src/stm32f1xx_hal_tim_ex.c ****     {
 659:Drivers/STM32F1xx_HAL_Driver/Src/stm32f1xx_hal_tim_ex.c ****       /* Disable the TIM Output Compare interrupt */
ARM GAS  /tmp/ccpgqo2Y.s 			page 34


 660:Drivers/STM32F1xx_HAL_Driver/Src/stm32f1xx_hal_tim_ex.c ****       __HAL_TIM_DISABLE_IT(htim, TIM_IT_CC4);
 1250              		.loc 1 660 0
 1251 0086 7B68     		ldr	r3, [r7, #4]
 1252 0088 1B68     		ldr	r3, [r3]
 1253 008a DA68     		ldr	r2, [r3, #12]
 1254 008c 7B68     		ldr	r3, [r7, #4]
 1255 008e 1B68     		ldr	r3, [r3]
 1256 0090 22F01002 		bic	r2, r2, #16
 1257 0094 DA60     		str	r2, [r3, #12]
 661:Drivers/STM32F1xx_HAL_Driver/Src/stm32f1xx_hal_tim_ex.c ****     }
 662:Drivers/STM32F1xx_HAL_Driver/Src/stm32f1xx_hal_tim_ex.c ****     break;
 1258              		.loc 1 662 0
 1259 0096 00E0     		b	.L54
 1260              	.L59:
 663:Drivers/STM32F1xx_HAL_Driver/Src/stm32f1xx_hal_tim_ex.c **** 
 664:Drivers/STM32F1xx_HAL_Driver/Src/stm32f1xx_hal_tim_ex.c ****     default:
 665:Drivers/STM32F1xx_HAL_Driver/Src/stm32f1xx_hal_tim_ex.c ****     break;
 1261              		.loc 1 665 0
 1262 0098 00BF     		nop
 1263              	.L54:
 666:Drivers/STM32F1xx_HAL_Driver/Src/stm32f1xx_hal_tim_ex.c ****   }
 667:Drivers/STM32F1xx_HAL_Driver/Src/stm32f1xx_hal_tim_ex.c **** 
 668:Drivers/STM32F1xx_HAL_Driver/Src/stm32f1xx_hal_tim_ex.c ****   /* Disable the Capture compare channel N */
 669:Drivers/STM32F1xx_HAL_Driver/Src/stm32f1xx_hal_tim_ex.c ****   TIM_CCxNChannelCmd(htim->Instance, Channel, TIM_CCxN_DISABLE);
 1264              		.loc 1 669 0
 1265 009a 7B68     		ldr	r3, [r7, #4]
 1266 009c 1B68     		ldr	r3, [r3]
 1267 009e 0022     		movs	r2, #0
 1268 00a0 3968     		ldr	r1, [r7]
 1269 00a2 1846     		mov	r0, r3
 1270 00a4 FFF7FEFF 		bl	TIM_CCxNChannelCmd
 670:Drivers/STM32F1xx_HAL_Driver/Src/stm32f1xx_hal_tim_ex.c **** 
 671:Drivers/STM32F1xx_HAL_Driver/Src/stm32f1xx_hal_tim_ex.c ****   /* Disable the TIM Break interrupt (only if no more channel is active) */
 672:Drivers/STM32F1xx_HAL_Driver/Src/stm32f1xx_hal_tim_ex.c ****   tmpccer = htim->Instance->CCER;
 1271              		.loc 1 672 0
 1272 00a8 7B68     		ldr	r3, [r7, #4]
 1273 00aa 1B68     		ldr	r3, [r3]
 1274 00ac 1B6A     		ldr	r3, [r3, #32]
 1275 00ae FB60     		str	r3, [r7, #12]
 673:Drivers/STM32F1xx_HAL_Driver/Src/stm32f1xx_hal_tim_ex.c ****   if ((tmpccer & (TIM_CCER_CC1NE | TIM_CCER_CC2NE | TIM_CCER_CC3NE)) == RESET)
 1276              		.loc 1 673 0
 1277 00b0 FA68     		ldr	r2, [r7, #12]
 1278 00b2 40F24443 		movw	r3, #1092
 1279 00b6 1340     		ands	r3, r3, r2
 1280 00b8 002B     		cmp	r3, #0
 1281 00ba 07D1     		bne	.L55
 674:Drivers/STM32F1xx_HAL_Driver/Src/stm32f1xx_hal_tim_ex.c ****   {
 675:Drivers/STM32F1xx_HAL_Driver/Src/stm32f1xx_hal_tim_ex.c ****     __HAL_TIM_DISABLE_IT(htim, TIM_IT_BREAK);
 1282              		.loc 1 675 0
 1283 00bc 7B68     		ldr	r3, [r7, #4]
 1284 00be 1B68     		ldr	r3, [r3]
 1285 00c0 DA68     		ldr	r2, [r3, #12]
 1286 00c2 7B68     		ldr	r3, [r7, #4]
 1287 00c4 1B68     		ldr	r3, [r3]
 1288 00c6 22F08002 		bic	r2, r2, #128
 1289 00ca DA60     		str	r2, [r3, #12]
 1290              	.L55:
ARM GAS  /tmp/ccpgqo2Y.s 			page 35


 676:Drivers/STM32F1xx_HAL_Driver/Src/stm32f1xx_hal_tim_ex.c ****   }
 677:Drivers/STM32F1xx_HAL_Driver/Src/stm32f1xx_hal_tim_ex.c **** 
 678:Drivers/STM32F1xx_HAL_Driver/Src/stm32f1xx_hal_tim_ex.c ****   /* Disable the Main Ouput */
 679:Drivers/STM32F1xx_HAL_Driver/Src/stm32f1xx_hal_tim_ex.c ****   __HAL_TIM_MOE_DISABLE(htim);
 1291              		.loc 1 679 0
 1292 00cc 7B68     		ldr	r3, [r7, #4]
 1293 00ce 1B68     		ldr	r3, [r3]
 1294 00d0 1A6A     		ldr	r2, [r3, #32]
 1295 00d2 41F21113 		movw	r3, #4369
 1296 00d6 1340     		ands	r3, r3, r2
 1297 00d8 002B     		cmp	r3, #0
 1298 00da 0FD1     		bne	.L56
 1299              		.loc 1 679 0 is_stmt 0 discriminator 1
 1300 00dc 7B68     		ldr	r3, [r7, #4]
 1301 00de 1B68     		ldr	r3, [r3]
 1302 00e0 1A6A     		ldr	r2, [r3, #32]
 1303 00e2 40F24443 		movw	r3, #1092
 1304 00e6 1340     		ands	r3, r3, r2
 1305 00e8 002B     		cmp	r3, #0
 1306 00ea 07D1     		bne	.L56
 1307              		.loc 1 679 0 discriminator 2
 1308 00ec 7B68     		ldr	r3, [r7, #4]
 1309 00ee 1B68     		ldr	r3, [r3]
 1310 00f0 5A6C     		ldr	r2, [r3, #68]
 1311 00f2 7B68     		ldr	r3, [r7, #4]
 1312 00f4 1B68     		ldr	r3, [r3]
 1313 00f6 22F40042 		bic	r2, r2, #32768
 1314 00fa 5A64     		str	r2, [r3, #68]
 1315              	.L56:
 680:Drivers/STM32F1xx_HAL_Driver/Src/stm32f1xx_hal_tim_ex.c **** 
 681:Drivers/STM32F1xx_HAL_Driver/Src/stm32f1xx_hal_tim_ex.c ****   /* Disable the Peripheral */
 682:Drivers/STM32F1xx_HAL_Driver/Src/stm32f1xx_hal_tim_ex.c ****   __HAL_TIM_DISABLE(htim);
 1316              		.loc 1 682 0 is_stmt 1
 1317 00fc 7B68     		ldr	r3, [r7, #4]
 1318 00fe 1B68     		ldr	r3, [r3]
 1319 0100 1A6A     		ldr	r2, [r3, #32]
 1320 0102 41F21113 		movw	r3, #4369
 1321 0106 1340     		ands	r3, r3, r2
 1322 0108 002B     		cmp	r3, #0
 1323 010a 0FD1     		bne	.L57
 1324              		.loc 1 682 0 is_stmt 0 discriminator 1
 1325 010c 7B68     		ldr	r3, [r7, #4]
 1326 010e 1B68     		ldr	r3, [r3]
 1327 0110 1A6A     		ldr	r2, [r3, #32]
 1328 0112 40F24443 		movw	r3, #1092
 1329 0116 1340     		ands	r3, r3, r2
 1330 0118 002B     		cmp	r3, #0
 1331 011a 07D1     		bne	.L57
 1332              		.loc 1 682 0 discriminator 2
 1333 011c 7B68     		ldr	r3, [r7, #4]
 1334 011e 1B68     		ldr	r3, [r3]
 1335 0120 1A68     		ldr	r2, [r3]
 1336 0122 7B68     		ldr	r3, [r7, #4]
 1337 0124 1B68     		ldr	r3, [r3]
 1338 0126 22F00102 		bic	r2, r2, #1
 1339 012a 1A60     		str	r2, [r3]
 1340              	.L57:
ARM GAS  /tmp/ccpgqo2Y.s 			page 36


 683:Drivers/STM32F1xx_HAL_Driver/Src/stm32f1xx_hal_tim_ex.c **** 
 684:Drivers/STM32F1xx_HAL_Driver/Src/stm32f1xx_hal_tim_ex.c ****   /* Return function status */
 685:Drivers/STM32F1xx_HAL_Driver/Src/stm32f1xx_hal_tim_ex.c ****   return HAL_OK;
 1341              		.loc 1 685 0 is_stmt 1
 1342 012c 0023     		movs	r3, #0
 686:Drivers/STM32F1xx_HAL_Driver/Src/stm32f1xx_hal_tim_ex.c **** }
 1343              		.loc 1 686 0
 1344 012e 1846     		mov	r0, r3
 1345 0130 1037     		adds	r7, r7, #16
 1346              	.LCFI70:
 1347              		.cfi_def_cfa_offset 8
 1348 0132 BD46     		mov	sp, r7
 1349              	.LCFI71:
 1350              		.cfi_def_cfa_register 13
 1351              		@ sp needed
 1352 0134 80BD     		pop	{r7, pc}
 1353              		.cfi_endproc
 1354              	.LFE79:
 1356              		.section	.text.HAL_TIMEx_OCN_Start_DMA,"ax",%progbits
 1357              		.align	1
 1358              		.global	HAL_TIMEx_OCN_Start_DMA
 1359              		.syntax unified
 1360              		.thumb
 1361              		.thumb_func
 1362              		.fpu softvfp
 1364              	HAL_TIMEx_OCN_Start_DMA:
 1365              	.LFB80:
 687:Drivers/STM32F1xx_HAL_Driver/Src/stm32f1xx_hal_tim_ex.c **** 
 688:Drivers/STM32F1xx_HAL_Driver/Src/stm32f1xx_hal_tim_ex.c **** /**
 689:Drivers/STM32F1xx_HAL_Driver/Src/stm32f1xx_hal_tim_ex.c ****   * @brief  Starts the TIM Output Compare signal generation in DMA mode
 690:Drivers/STM32F1xx_HAL_Driver/Src/stm32f1xx_hal_tim_ex.c ****   *         on the complementary output.
 691:Drivers/STM32F1xx_HAL_Driver/Src/stm32f1xx_hal_tim_ex.c ****   * @param  htim : TIM Output Compare handle
 692:Drivers/STM32F1xx_HAL_Driver/Src/stm32f1xx_hal_tim_ex.c ****   * @param  Channel : TIM Channel to be enabled
 693:Drivers/STM32F1xx_HAL_Driver/Src/stm32f1xx_hal_tim_ex.c ****   *          This parameter can be one of the following values:
 694:Drivers/STM32F1xx_HAL_Driver/Src/stm32f1xx_hal_tim_ex.c ****   *            @arg TIM_CHANNEL_1: TIM Channel 1 selected
 695:Drivers/STM32F1xx_HAL_Driver/Src/stm32f1xx_hal_tim_ex.c ****   *            @arg TIM_CHANNEL_2: TIM Channel 2 selected
 696:Drivers/STM32F1xx_HAL_Driver/Src/stm32f1xx_hal_tim_ex.c ****   *            @arg TIM_CHANNEL_3: TIM Channel 3 selected
 697:Drivers/STM32F1xx_HAL_Driver/Src/stm32f1xx_hal_tim_ex.c ****   *            @arg TIM_CHANNEL_4: TIM Channel 4 selected
 698:Drivers/STM32F1xx_HAL_Driver/Src/stm32f1xx_hal_tim_ex.c ****   * @param  pData : The source Buffer address.
 699:Drivers/STM32F1xx_HAL_Driver/Src/stm32f1xx_hal_tim_ex.c ****   * @param  Length : The length of data to be transferred from memory to TIM peripheral
 700:Drivers/STM32F1xx_HAL_Driver/Src/stm32f1xx_hal_tim_ex.c ****   * @retval HAL status
 701:Drivers/STM32F1xx_HAL_Driver/Src/stm32f1xx_hal_tim_ex.c ****   */
 702:Drivers/STM32F1xx_HAL_Driver/Src/stm32f1xx_hal_tim_ex.c **** HAL_StatusTypeDef HAL_TIMEx_OCN_Start_DMA(TIM_HandleTypeDef *htim, uint32_t Channel, uint32_t *pDat
 703:Drivers/STM32F1xx_HAL_Driver/Src/stm32f1xx_hal_tim_ex.c **** {
 1366              		.loc 1 703 0
 1367              		.cfi_startproc
 1368              		@ args = 0, pretend = 0, frame = 16
 1369              		@ frame_needed = 1, uses_anonymous_args = 0
 1370 0000 80B5     		push	{r7, lr}
 1371              	.LCFI72:
 1372              		.cfi_def_cfa_offset 8
 1373              		.cfi_offset 7, -8
 1374              		.cfi_offset 14, -4
 1375 0002 84B0     		sub	sp, sp, #16
 1376              	.LCFI73:
 1377              		.cfi_def_cfa_offset 24
 1378 0004 00AF     		add	r7, sp, #0
ARM GAS  /tmp/ccpgqo2Y.s 			page 37


 1379              	.LCFI74:
 1380              		.cfi_def_cfa_register 7
 1381 0006 F860     		str	r0, [r7, #12]
 1382 0008 B960     		str	r1, [r7, #8]
 1383 000a 7A60     		str	r2, [r7, #4]
 1384 000c 7B80     		strh	r3, [r7, #2]	@ movhi
 704:Drivers/STM32F1xx_HAL_Driver/Src/stm32f1xx_hal_tim_ex.c ****   /* Check the parameters */
 705:Drivers/STM32F1xx_HAL_Driver/Src/stm32f1xx_hal_tim_ex.c ****   assert_param(IS_TIM_CCXN_INSTANCE(htim->Instance, Channel));
 706:Drivers/STM32F1xx_HAL_Driver/Src/stm32f1xx_hal_tim_ex.c **** 
 707:Drivers/STM32F1xx_HAL_Driver/Src/stm32f1xx_hal_tim_ex.c ****   if((htim->State == HAL_TIM_STATE_BUSY))
 1385              		.loc 1 707 0
 1386 000e FB68     		ldr	r3, [r7, #12]
 1387 0010 93F83D30 		ldrb	r3, [r3, #61]
 1388 0014 DBB2     		uxtb	r3, r3
 1389 0016 022B     		cmp	r3, #2
 1390 0018 01D1     		bne	.L61
 708:Drivers/STM32F1xx_HAL_Driver/Src/stm32f1xx_hal_tim_ex.c ****   {
 709:Drivers/STM32F1xx_HAL_Driver/Src/stm32f1xx_hal_tim_ex.c ****      return HAL_BUSY;
 1391              		.loc 1 709 0
 1392 001a 0223     		movs	r3, #2
 1393 001c B7E0     		b	.L62
 1394              	.L61:
 710:Drivers/STM32F1xx_HAL_Driver/Src/stm32f1xx_hal_tim_ex.c ****   }
 711:Drivers/STM32F1xx_HAL_Driver/Src/stm32f1xx_hal_tim_ex.c ****   else if((htim->State == HAL_TIM_STATE_READY))
 1395              		.loc 1 711 0
 1396 001e FB68     		ldr	r3, [r7, #12]
 1397 0020 93F83D30 		ldrb	r3, [r3, #61]
 1398 0024 DBB2     		uxtb	r3, r3
 1399 0026 012B     		cmp	r3, #1
 1400 0028 0BD1     		bne	.L63
 712:Drivers/STM32F1xx_HAL_Driver/Src/stm32f1xx_hal_tim_ex.c ****   {
 713:Drivers/STM32F1xx_HAL_Driver/Src/stm32f1xx_hal_tim_ex.c ****     if(((uint32_t)pData == 0U) && (Length > 0U))
 1401              		.loc 1 713 0
 1402 002a 7B68     		ldr	r3, [r7, #4]
 1403 002c 002B     		cmp	r3, #0
 1404 002e 04D1     		bne	.L64
 1405              		.loc 1 713 0 is_stmt 0 discriminator 1
 1406 0030 7B88     		ldrh	r3, [r7, #2]
 1407 0032 002B     		cmp	r3, #0
 1408 0034 01D0     		beq	.L64
 714:Drivers/STM32F1xx_HAL_Driver/Src/stm32f1xx_hal_tim_ex.c ****     {
 715:Drivers/STM32F1xx_HAL_Driver/Src/stm32f1xx_hal_tim_ex.c ****       return HAL_ERROR;
 1409              		.loc 1 715 0 is_stmt 1
 1410 0036 0123     		movs	r3, #1
 1411 0038 A9E0     		b	.L62
 1412              	.L64:
 716:Drivers/STM32F1xx_HAL_Driver/Src/stm32f1xx_hal_tim_ex.c ****     }
 717:Drivers/STM32F1xx_HAL_Driver/Src/stm32f1xx_hal_tim_ex.c ****     else
 718:Drivers/STM32F1xx_HAL_Driver/Src/stm32f1xx_hal_tim_ex.c ****     {
 719:Drivers/STM32F1xx_HAL_Driver/Src/stm32f1xx_hal_tim_ex.c ****       htim->State = HAL_TIM_STATE_BUSY;
 1413              		.loc 1 719 0
 1414 003a FB68     		ldr	r3, [r7, #12]
 1415 003c 0222     		movs	r2, #2
 1416 003e 83F83D20 		strb	r2, [r3, #61]
 1417              	.L63:
 720:Drivers/STM32F1xx_HAL_Driver/Src/stm32f1xx_hal_tim_ex.c ****     }
 721:Drivers/STM32F1xx_HAL_Driver/Src/stm32f1xx_hal_tim_ex.c ****   }
ARM GAS  /tmp/ccpgqo2Y.s 			page 38


 722:Drivers/STM32F1xx_HAL_Driver/Src/stm32f1xx_hal_tim_ex.c ****   switch (Channel)
 1418              		.loc 1 722 0
 1419 0042 BB68     		ldr	r3, [r7, #8]
 1420 0044 0C2B     		cmp	r3, #12
 1421 0046 00F28980 		bhi	.L72
 1422 004a 01A2     		adr	r2, .L67
 1423 004c 52F823F0 		ldr	pc, [r2, r3, lsl #2]
 1424              		.p2align 2
 1425              	.L67:
 1426 0050 85000000 		.word	.L66+1
 1427 0054 5D010000 		.word	.L72+1
 1428 0058 5D010000 		.word	.L72+1
 1429 005c 5D010000 		.word	.L72+1
 1430 0060 BB000000 		.word	.L68+1
 1431 0064 5D010000 		.word	.L72+1
 1432 0068 5D010000 		.word	.L72+1
 1433 006c 5D010000 		.word	.L72+1
 1434 0070 F1000000 		.word	.L69+1
 1435 0074 5D010000 		.word	.L72+1
 1436 0078 5D010000 		.word	.L72+1
 1437 007c 5D010000 		.word	.L72+1
 1438 0080 27010000 		.word	.L70+1
 1439              		.p2align 1
 1440              	.L66:
 723:Drivers/STM32F1xx_HAL_Driver/Src/stm32f1xx_hal_tim_ex.c ****   {
 724:Drivers/STM32F1xx_HAL_Driver/Src/stm32f1xx_hal_tim_ex.c ****     case TIM_CHANNEL_1:
 725:Drivers/STM32F1xx_HAL_Driver/Src/stm32f1xx_hal_tim_ex.c ****     {
 726:Drivers/STM32F1xx_HAL_Driver/Src/stm32f1xx_hal_tim_ex.c ****       /* Set the DMA Period elapsed callback */
 727:Drivers/STM32F1xx_HAL_Driver/Src/stm32f1xx_hal_tim_ex.c ****       htim->hdma[TIM_DMA_ID_CC1]->XferCpltCallback = TIM_DMADelayPulseCplt;
 1441              		.loc 1 727 0
 1442 0084 FB68     		ldr	r3, [r7, #12]
 1443 0086 5B6A     		ldr	r3, [r3, #36]
 1444 0088 434A     		ldr	r2, .L73
 1445 008a 9A62     		str	r2, [r3, #40]
 728:Drivers/STM32F1xx_HAL_Driver/Src/stm32f1xx_hal_tim_ex.c **** 
 729:Drivers/STM32F1xx_HAL_Driver/Src/stm32f1xx_hal_tim_ex.c ****       /* Set the DMA error callback */
 730:Drivers/STM32F1xx_HAL_Driver/Src/stm32f1xx_hal_tim_ex.c ****       htim->hdma[TIM_DMA_ID_CC1]->XferErrorCallback = TIM_DMAError ;
 1446              		.loc 1 730 0
 1447 008c FB68     		ldr	r3, [r7, #12]
 1448 008e 5B6A     		ldr	r3, [r3, #36]
 1449 0090 424A     		ldr	r2, .L73+4
 1450 0092 1A63     		str	r2, [r3, #48]
 731:Drivers/STM32F1xx_HAL_Driver/Src/stm32f1xx_hal_tim_ex.c **** 
 732:Drivers/STM32F1xx_HAL_Driver/Src/stm32f1xx_hal_tim_ex.c ****       /* Enable the DMA channel */
 733:Drivers/STM32F1xx_HAL_Driver/Src/stm32f1xx_hal_tim_ex.c ****       HAL_DMA_Start_IT(htim->hdma[TIM_DMA_ID_CC1], (uint32_t)pData, (uint32_t)&htim->Instance->CCR1
 1451              		.loc 1 733 0
 1452 0094 FB68     		ldr	r3, [r7, #12]
 1453 0096 586A     		ldr	r0, [r3, #36]
 1454 0098 7968     		ldr	r1, [r7, #4]
 1455 009a FB68     		ldr	r3, [r7, #12]
 1456 009c 1B68     		ldr	r3, [r3]
 1457 009e 3433     		adds	r3, r3, #52
 1458 00a0 1A46     		mov	r2, r3
 1459 00a2 7B88     		ldrh	r3, [r7, #2]
 1460 00a4 FFF7FEFF 		bl	HAL_DMA_Start_IT
 734:Drivers/STM32F1xx_HAL_Driver/Src/stm32f1xx_hal_tim_ex.c **** 
 735:Drivers/STM32F1xx_HAL_Driver/Src/stm32f1xx_hal_tim_ex.c ****       /* Enable the TIM Output Compare DMA request */
ARM GAS  /tmp/ccpgqo2Y.s 			page 39


 736:Drivers/STM32F1xx_HAL_Driver/Src/stm32f1xx_hal_tim_ex.c ****       __HAL_TIM_ENABLE_DMA(htim, TIM_DMA_CC1);
 1461              		.loc 1 736 0
 1462 00a8 FB68     		ldr	r3, [r7, #12]
 1463 00aa 1B68     		ldr	r3, [r3]
 1464 00ac DA68     		ldr	r2, [r3, #12]
 1465 00ae FB68     		ldr	r3, [r7, #12]
 1466 00b0 1B68     		ldr	r3, [r3]
 1467 00b2 42F40072 		orr	r2, r2, #512
 1468 00b6 DA60     		str	r2, [r3, #12]
 737:Drivers/STM32F1xx_HAL_Driver/Src/stm32f1xx_hal_tim_ex.c ****     }
 738:Drivers/STM32F1xx_HAL_Driver/Src/stm32f1xx_hal_tim_ex.c ****     break;
 1469              		.loc 1 738 0
 1470 00b8 51E0     		b	.L71
 1471              	.L68:
 739:Drivers/STM32F1xx_HAL_Driver/Src/stm32f1xx_hal_tim_ex.c **** 
 740:Drivers/STM32F1xx_HAL_Driver/Src/stm32f1xx_hal_tim_ex.c ****     case TIM_CHANNEL_2:
 741:Drivers/STM32F1xx_HAL_Driver/Src/stm32f1xx_hal_tim_ex.c ****     {
 742:Drivers/STM32F1xx_HAL_Driver/Src/stm32f1xx_hal_tim_ex.c ****       /* Set the DMA Period elapsed callback */
 743:Drivers/STM32F1xx_HAL_Driver/Src/stm32f1xx_hal_tim_ex.c ****       htim->hdma[TIM_DMA_ID_CC2]->XferCpltCallback = TIM_DMADelayPulseCplt;
 1472              		.loc 1 743 0
 1473 00ba FB68     		ldr	r3, [r7, #12]
 1474 00bc 9B6A     		ldr	r3, [r3, #40]
 1475 00be 364A     		ldr	r2, .L73
 1476 00c0 9A62     		str	r2, [r3, #40]
 744:Drivers/STM32F1xx_HAL_Driver/Src/stm32f1xx_hal_tim_ex.c **** 
 745:Drivers/STM32F1xx_HAL_Driver/Src/stm32f1xx_hal_tim_ex.c ****       /* Set the DMA error callback */
 746:Drivers/STM32F1xx_HAL_Driver/Src/stm32f1xx_hal_tim_ex.c ****       htim->hdma[TIM_DMA_ID_CC2]->XferErrorCallback = TIM_DMAError ;
 1477              		.loc 1 746 0
 1478 00c2 FB68     		ldr	r3, [r7, #12]
 1479 00c4 9B6A     		ldr	r3, [r3, #40]
 1480 00c6 354A     		ldr	r2, .L73+4
 1481 00c8 1A63     		str	r2, [r3, #48]
 747:Drivers/STM32F1xx_HAL_Driver/Src/stm32f1xx_hal_tim_ex.c **** 
 748:Drivers/STM32F1xx_HAL_Driver/Src/stm32f1xx_hal_tim_ex.c ****       /* Enable the DMA channel */
 749:Drivers/STM32F1xx_HAL_Driver/Src/stm32f1xx_hal_tim_ex.c ****       HAL_DMA_Start_IT(htim->hdma[TIM_DMA_ID_CC2], (uint32_t)pData, (uint32_t)&htim->Instance->CCR2
 1482              		.loc 1 749 0
 1483 00ca FB68     		ldr	r3, [r7, #12]
 1484 00cc 986A     		ldr	r0, [r3, #40]
 1485 00ce 7968     		ldr	r1, [r7, #4]
 1486 00d0 FB68     		ldr	r3, [r7, #12]
 1487 00d2 1B68     		ldr	r3, [r3]
 1488 00d4 3833     		adds	r3, r3, #56
 1489 00d6 1A46     		mov	r2, r3
 1490 00d8 7B88     		ldrh	r3, [r7, #2]
 1491 00da FFF7FEFF 		bl	HAL_DMA_Start_IT
 750:Drivers/STM32F1xx_HAL_Driver/Src/stm32f1xx_hal_tim_ex.c **** 
 751:Drivers/STM32F1xx_HAL_Driver/Src/stm32f1xx_hal_tim_ex.c ****       /* Enable the TIM Output Compare DMA request */
 752:Drivers/STM32F1xx_HAL_Driver/Src/stm32f1xx_hal_tim_ex.c ****       __HAL_TIM_ENABLE_DMA(htim, TIM_DMA_CC2);
 1492              		.loc 1 752 0
 1493 00de FB68     		ldr	r3, [r7, #12]
 1494 00e0 1B68     		ldr	r3, [r3]
 1495 00e2 DA68     		ldr	r2, [r3, #12]
 1496 00e4 FB68     		ldr	r3, [r7, #12]
 1497 00e6 1B68     		ldr	r3, [r3]
 1498 00e8 42F48062 		orr	r2, r2, #1024
 1499 00ec DA60     		str	r2, [r3, #12]
 753:Drivers/STM32F1xx_HAL_Driver/Src/stm32f1xx_hal_tim_ex.c ****     }
ARM GAS  /tmp/ccpgqo2Y.s 			page 40


 754:Drivers/STM32F1xx_HAL_Driver/Src/stm32f1xx_hal_tim_ex.c ****     break;
 1500              		.loc 1 754 0
 1501 00ee 36E0     		b	.L71
 1502              	.L69:
 755:Drivers/STM32F1xx_HAL_Driver/Src/stm32f1xx_hal_tim_ex.c **** 
 756:Drivers/STM32F1xx_HAL_Driver/Src/stm32f1xx_hal_tim_ex.c ****     case TIM_CHANNEL_3:
 757:Drivers/STM32F1xx_HAL_Driver/Src/stm32f1xx_hal_tim_ex.c **** {
 758:Drivers/STM32F1xx_HAL_Driver/Src/stm32f1xx_hal_tim_ex.c ****       /* Set the DMA Period elapsed callback */
 759:Drivers/STM32F1xx_HAL_Driver/Src/stm32f1xx_hal_tim_ex.c ****       htim->hdma[TIM_DMA_ID_CC3]->XferCpltCallback = TIM_DMADelayPulseCplt;
 1503              		.loc 1 759 0
 1504 00f0 FB68     		ldr	r3, [r7, #12]
 1505 00f2 DB6A     		ldr	r3, [r3, #44]
 1506 00f4 284A     		ldr	r2, .L73
 1507 00f6 9A62     		str	r2, [r3, #40]
 760:Drivers/STM32F1xx_HAL_Driver/Src/stm32f1xx_hal_tim_ex.c **** 
 761:Drivers/STM32F1xx_HAL_Driver/Src/stm32f1xx_hal_tim_ex.c ****       /* Set the DMA error callback */
 762:Drivers/STM32F1xx_HAL_Driver/Src/stm32f1xx_hal_tim_ex.c ****       htim->hdma[TIM_DMA_ID_CC3]->XferErrorCallback = TIM_DMAError ;
 1508              		.loc 1 762 0
 1509 00f8 FB68     		ldr	r3, [r7, #12]
 1510 00fa DB6A     		ldr	r3, [r3, #44]
 1511 00fc 274A     		ldr	r2, .L73+4
 1512 00fe 1A63     		str	r2, [r3, #48]
 763:Drivers/STM32F1xx_HAL_Driver/Src/stm32f1xx_hal_tim_ex.c **** 
 764:Drivers/STM32F1xx_HAL_Driver/Src/stm32f1xx_hal_tim_ex.c ****       /* Enable the DMA channel */
 765:Drivers/STM32F1xx_HAL_Driver/Src/stm32f1xx_hal_tim_ex.c ****       HAL_DMA_Start_IT(htim->hdma[TIM_DMA_ID_CC3], (uint32_t)pData, (uint32_t)&htim->Instance->CCR3
 1513              		.loc 1 765 0
 1514 0100 FB68     		ldr	r3, [r7, #12]
 1515 0102 D86A     		ldr	r0, [r3, #44]
 1516 0104 7968     		ldr	r1, [r7, #4]
 1517 0106 FB68     		ldr	r3, [r7, #12]
 1518 0108 1B68     		ldr	r3, [r3]
 1519 010a 3C33     		adds	r3, r3, #60
 1520 010c 1A46     		mov	r2, r3
 1521 010e 7B88     		ldrh	r3, [r7, #2]
 1522 0110 FFF7FEFF 		bl	HAL_DMA_Start_IT
 766:Drivers/STM32F1xx_HAL_Driver/Src/stm32f1xx_hal_tim_ex.c **** 
 767:Drivers/STM32F1xx_HAL_Driver/Src/stm32f1xx_hal_tim_ex.c ****       /* Enable the TIM Output Compare DMA request */
 768:Drivers/STM32F1xx_HAL_Driver/Src/stm32f1xx_hal_tim_ex.c ****       __HAL_TIM_ENABLE_DMA(htim, TIM_DMA_CC3);
 1523              		.loc 1 768 0
 1524 0114 FB68     		ldr	r3, [r7, #12]
 1525 0116 1B68     		ldr	r3, [r3]
 1526 0118 DA68     		ldr	r2, [r3, #12]
 1527 011a FB68     		ldr	r3, [r7, #12]
 1528 011c 1B68     		ldr	r3, [r3]
 1529 011e 42F40062 		orr	r2, r2, #2048
 1530 0122 DA60     		str	r2, [r3, #12]
 769:Drivers/STM32F1xx_HAL_Driver/Src/stm32f1xx_hal_tim_ex.c ****     }
 770:Drivers/STM32F1xx_HAL_Driver/Src/stm32f1xx_hal_tim_ex.c ****     break;
 1531              		.loc 1 770 0
 1532 0124 1BE0     		b	.L71
 1533              	.L70:
 771:Drivers/STM32F1xx_HAL_Driver/Src/stm32f1xx_hal_tim_ex.c **** 
 772:Drivers/STM32F1xx_HAL_Driver/Src/stm32f1xx_hal_tim_ex.c ****     case TIM_CHANNEL_4:
 773:Drivers/STM32F1xx_HAL_Driver/Src/stm32f1xx_hal_tim_ex.c ****     {
 774:Drivers/STM32F1xx_HAL_Driver/Src/stm32f1xx_hal_tim_ex.c ****      /* Set the DMA Period elapsed callback */
 775:Drivers/STM32F1xx_HAL_Driver/Src/stm32f1xx_hal_tim_ex.c ****       htim->hdma[TIM_DMA_ID_CC4]->XferCpltCallback = TIM_DMADelayPulseCplt;
 1534              		.loc 1 775 0
ARM GAS  /tmp/ccpgqo2Y.s 			page 41


 1535 0126 FB68     		ldr	r3, [r7, #12]
 1536 0128 1B6B     		ldr	r3, [r3, #48]
 1537 012a 1B4A     		ldr	r2, .L73
 1538 012c 9A62     		str	r2, [r3, #40]
 776:Drivers/STM32F1xx_HAL_Driver/Src/stm32f1xx_hal_tim_ex.c **** 
 777:Drivers/STM32F1xx_HAL_Driver/Src/stm32f1xx_hal_tim_ex.c ****       /* Set the DMA error callback */
 778:Drivers/STM32F1xx_HAL_Driver/Src/stm32f1xx_hal_tim_ex.c ****       htim->hdma[TIM_DMA_ID_CC4]->XferErrorCallback = TIM_DMAError ;
 1539              		.loc 1 778 0
 1540 012e FB68     		ldr	r3, [r7, #12]
 1541 0130 1B6B     		ldr	r3, [r3, #48]
 1542 0132 1A4A     		ldr	r2, .L73+4
 1543 0134 1A63     		str	r2, [r3, #48]
 779:Drivers/STM32F1xx_HAL_Driver/Src/stm32f1xx_hal_tim_ex.c **** 
 780:Drivers/STM32F1xx_HAL_Driver/Src/stm32f1xx_hal_tim_ex.c ****       /* Enable the DMA channel */
 781:Drivers/STM32F1xx_HAL_Driver/Src/stm32f1xx_hal_tim_ex.c ****       HAL_DMA_Start_IT(htim->hdma[TIM_DMA_ID_CC4], (uint32_t)pData, (uint32_t)&htim->Instance->CCR4
 1544              		.loc 1 781 0
 1545 0136 FB68     		ldr	r3, [r7, #12]
 1546 0138 186B     		ldr	r0, [r3, #48]
 1547 013a 7968     		ldr	r1, [r7, #4]
 1548 013c FB68     		ldr	r3, [r7, #12]
 1549 013e 1B68     		ldr	r3, [r3]
 1550 0140 4033     		adds	r3, r3, #64
 1551 0142 1A46     		mov	r2, r3
 1552 0144 7B88     		ldrh	r3, [r7, #2]
 1553 0146 FFF7FEFF 		bl	HAL_DMA_Start_IT
 782:Drivers/STM32F1xx_HAL_Driver/Src/stm32f1xx_hal_tim_ex.c **** 
 783:Drivers/STM32F1xx_HAL_Driver/Src/stm32f1xx_hal_tim_ex.c ****       /* Enable the TIM Output Compare DMA request */
 784:Drivers/STM32F1xx_HAL_Driver/Src/stm32f1xx_hal_tim_ex.c ****       __HAL_TIM_ENABLE_DMA(htim, TIM_DMA_CC4);
 1554              		.loc 1 784 0
 1555 014a FB68     		ldr	r3, [r7, #12]
 1556 014c 1B68     		ldr	r3, [r3]
 1557 014e DA68     		ldr	r2, [r3, #12]
 1558 0150 FB68     		ldr	r3, [r7, #12]
 1559 0152 1B68     		ldr	r3, [r3]
 1560 0154 42F48052 		orr	r2, r2, #4096
 1561 0158 DA60     		str	r2, [r3, #12]
 785:Drivers/STM32F1xx_HAL_Driver/Src/stm32f1xx_hal_tim_ex.c ****     }
 786:Drivers/STM32F1xx_HAL_Driver/Src/stm32f1xx_hal_tim_ex.c ****     break;
 1562              		.loc 1 786 0
 1563 015a 00E0     		b	.L71
 1564              	.L72:
 787:Drivers/STM32F1xx_HAL_Driver/Src/stm32f1xx_hal_tim_ex.c **** 
 788:Drivers/STM32F1xx_HAL_Driver/Src/stm32f1xx_hal_tim_ex.c ****     default:
 789:Drivers/STM32F1xx_HAL_Driver/Src/stm32f1xx_hal_tim_ex.c ****     break;
 1565              		.loc 1 789 0
 1566 015c 00BF     		nop
 1567              	.L71:
 790:Drivers/STM32F1xx_HAL_Driver/Src/stm32f1xx_hal_tim_ex.c ****   }
 791:Drivers/STM32F1xx_HAL_Driver/Src/stm32f1xx_hal_tim_ex.c **** 
 792:Drivers/STM32F1xx_HAL_Driver/Src/stm32f1xx_hal_tim_ex.c ****   /* Enable the Capture compare channel N */
 793:Drivers/STM32F1xx_HAL_Driver/Src/stm32f1xx_hal_tim_ex.c ****   TIM_CCxNChannelCmd(htim->Instance, Channel, TIM_CCxN_ENABLE);
 1568              		.loc 1 793 0
 1569 015e FB68     		ldr	r3, [r7, #12]
 1570 0160 1B68     		ldr	r3, [r3]
 1571 0162 0422     		movs	r2, #4
 1572 0164 B968     		ldr	r1, [r7, #8]
 1573 0166 1846     		mov	r0, r3
ARM GAS  /tmp/ccpgqo2Y.s 			page 42


 1574 0168 FFF7FEFF 		bl	TIM_CCxNChannelCmd
 794:Drivers/STM32F1xx_HAL_Driver/Src/stm32f1xx_hal_tim_ex.c **** 
 795:Drivers/STM32F1xx_HAL_Driver/Src/stm32f1xx_hal_tim_ex.c ****   /* Enable the Main Ouput */
 796:Drivers/STM32F1xx_HAL_Driver/Src/stm32f1xx_hal_tim_ex.c ****   __HAL_TIM_MOE_ENABLE(htim);
 1575              		.loc 1 796 0
 1576 016c FB68     		ldr	r3, [r7, #12]
 1577 016e 1B68     		ldr	r3, [r3]
 1578 0170 5A6C     		ldr	r2, [r3, #68]
 1579 0172 FB68     		ldr	r3, [r7, #12]
 1580 0174 1B68     		ldr	r3, [r3]
 1581 0176 42F40042 		orr	r2, r2, #32768
 1582 017a 5A64     		str	r2, [r3, #68]
 797:Drivers/STM32F1xx_HAL_Driver/Src/stm32f1xx_hal_tim_ex.c **** 
 798:Drivers/STM32F1xx_HAL_Driver/Src/stm32f1xx_hal_tim_ex.c ****   /* Enable the Peripheral */
 799:Drivers/STM32F1xx_HAL_Driver/Src/stm32f1xx_hal_tim_ex.c ****   __HAL_TIM_ENABLE(htim);
 1583              		.loc 1 799 0
 1584 017c FB68     		ldr	r3, [r7, #12]
 1585 017e 1B68     		ldr	r3, [r3]
 1586 0180 1A68     		ldr	r2, [r3]
 1587 0182 FB68     		ldr	r3, [r7, #12]
 1588 0184 1B68     		ldr	r3, [r3]
 1589 0186 42F00102 		orr	r2, r2, #1
 1590 018a 1A60     		str	r2, [r3]
 800:Drivers/STM32F1xx_HAL_Driver/Src/stm32f1xx_hal_tim_ex.c **** 
 801:Drivers/STM32F1xx_HAL_Driver/Src/stm32f1xx_hal_tim_ex.c ****   /* Return function status */
 802:Drivers/STM32F1xx_HAL_Driver/Src/stm32f1xx_hal_tim_ex.c ****   return HAL_OK;
 1591              		.loc 1 802 0
 1592 018c 0023     		movs	r3, #0
 1593              	.L62:
 803:Drivers/STM32F1xx_HAL_Driver/Src/stm32f1xx_hal_tim_ex.c **** }
 1594              		.loc 1 803 0
 1595 018e 1846     		mov	r0, r3
 1596 0190 1037     		adds	r7, r7, #16
 1597              	.LCFI75:
 1598              		.cfi_def_cfa_offset 8
 1599 0192 BD46     		mov	sp, r7
 1600              	.LCFI76:
 1601              		.cfi_def_cfa_register 13
 1602              		@ sp needed
 1603 0194 80BD     		pop	{r7, pc}
 1604              	.L74:
 1605 0196 00BF     		.align	2
 1606              	.L73:
 1607 0198 00000000 		.word	TIM_DMADelayPulseCplt
 1608 019c 00000000 		.word	TIM_DMAError
 1609              		.cfi_endproc
 1610              	.LFE80:
 1612              		.section	.text.HAL_TIMEx_OCN_Stop_DMA,"ax",%progbits
 1613              		.align	1
 1614              		.global	HAL_TIMEx_OCN_Stop_DMA
 1615              		.syntax unified
 1616              		.thumb
 1617              		.thumb_func
 1618              		.fpu softvfp
 1620              	HAL_TIMEx_OCN_Stop_DMA:
 1621              	.LFB81:
 804:Drivers/STM32F1xx_HAL_Driver/Src/stm32f1xx_hal_tim_ex.c **** 
ARM GAS  /tmp/ccpgqo2Y.s 			page 43


 805:Drivers/STM32F1xx_HAL_Driver/Src/stm32f1xx_hal_tim_ex.c **** /**
 806:Drivers/STM32F1xx_HAL_Driver/Src/stm32f1xx_hal_tim_ex.c ****   * @brief  Stops the TIM Output Compare signal generation in DMA mode
 807:Drivers/STM32F1xx_HAL_Driver/Src/stm32f1xx_hal_tim_ex.c ****   *         on the complementary output.
 808:Drivers/STM32F1xx_HAL_Driver/Src/stm32f1xx_hal_tim_ex.c ****   * @param  htim : TIM Output Compare handle
 809:Drivers/STM32F1xx_HAL_Driver/Src/stm32f1xx_hal_tim_ex.c ****   * @param  Channel : TIM Channel to be disabled
 810:Drivers/STM32F1xx_HAL_Driver/Src/stm32f1xx_hal_tim_ex.c ****   *          This parameter can be one of the following values:
 811:Drivers/STM32F1xx_HAL_Driver/Src/stm32f1xx_hal_tim_ex.c ****   *            @arg TIM_CHANNEL_1: TIM Channel 1 selected
 812:Drivers/STM32F1xx_HAL_Driver/Src/stm32f1xx_hal_tim_ex.c ****   *            @arg TIM_CHANNEL_2: TIM Channel 2 selected
 813:Drivers/STM32F1xx_HAL_Driver/Src/stm32f1xx_hal_tim_ex.c ****   *            @arg TIM_CHANNEL_3: TIM Channel 3 selected
 814:Drivers/STM32F1xx_HAL_Driver/Src/stm32f1xx_hal_tim_ex.c ****   *            @arg TIM_CHANNEL_4: TIM Channel 4 selected
 815:Drivers/STM32F1xx_HAL_Driver/Src/stm32f1xx_hal_tim_ex.c ****   * @retval HAL status
 816:Drivers/STM32F1xx_HAL_Driver/Src/stm32f1xx_hal_tim_ex.c ****   */
 817:Drivers/STM32F1xx_HAL_Driver/Src/stm32f1xx_hal_tim_ex.c **** HAL_StatusTypeDef HAL_TIMEx_OCN_Stop_DMA(TIM_HandleTypeDef *htim, uint32_t Channel)
 818:Drivers/STM32F1xx_HAL_Driver/Src/stm32f1xx_hal_tim_ex.c **** {
 1622              		.loc 1 818 0
 1623              		.cfi_startproc
 1624              		@ args = 0, pretend = 0, frame = 8
 1625              		@ frame_needed = 1, uses_anonymous_args = 0
 1626 0000 80B5     		push	{r7, lr}
 1627              	.LCFI77:
 1628              		.cfi_def_cfa_offset 8
 1629              		.cfi_offset 7, -8
 1630              		.cfi_offset 14, -4
 1631 0002 82B0     		sub	sp, sp, #8
 1632              	.LCFI78:
 1633              		.cfi_def_cfa_offset 16
 1634 0004 00AF     		add	r7, sp, #0
 1635              	.LCFI79:
 1636              		.cfi_def_cfa_register 7
 1637 0006 7860     		str	r0, [r7, #4]
 1638 0008 3960     		str	r1, [r7]
 819:Drivers/STM32F1xx_HAL_Driver/Src/stm32f1xx_hal_tim_ex.c ****   /* Check the parameters */
 820:Drivers/STM32F1xx_HAL_Driver/Src/stm32f1xx_hal_tim_ex.c ****   assert_param(IS_TIM_CCXN_INSTANCE(htim->Instance, Channel));
 821:Drivers/STM32F1xx_HAL_Driver/Src/stm32f1xx_hal_tim_ex.c **** 
 822:Drivers/STM32F1xx_HAL_Driver/Src/stm32f1xx_hal_tim_ex.c ****   switch (Channel)
 1639              		.loc 1 822 0
 1640 000a 3B68     		ldr	r3, [r7]
 1641 000c 0C2B     		cmp	r3, #12
 1642 000e 41D8     		bhi	.L86
 1643 0010 01A2     		adr	r2, .L78
 1644 0012 52F823F0 		ldr	pc, [r2, r3, lsl #2]
 1645 0016 00BF     		.p2align 2
 1646              	.L78:
 1647 0018 4D000000 		.word	.L77+1
 1648 001c 95000000 		.word	.L86+1
 1649 0020 95000000 		.word	.L86+1
 1650 0024 95000000 		.word	.L86+1
 1651 0028 5F000000 		.word	.L79+1
 1652 002c 95000000 		.word	.L86+1
 1653 0030 95000000 		.word	.L86+1
 1654 0034 95000000 		.word	.L86+1
 1655 0038 71000000 		.word	.L80+1
 1656 003c 95000000 		.word	.L86+1
 1657 0040 95000000 		.word	.L86+1
 1658 0044 95000000 		.word	.L86+1
 1659 0048 83000000 		.word	.L81+1
 1660              		.p2align 1
ARM GAS  /tmp/ccpgqo2Y.s 			page 44


 1661              	.L77:
 823:Drivers/STM32F1xx_HAL_Driver/Src/stm32f1xx_hal_tim_ex.c ****   {
 824:Drivers/STM32F1xx_HAL_Driver/Src/stm32f1xx_hal_tim_ex.c ****     case TIM_CHANNEL_1:
 825:Drivers/STM32F1xx_HAL_Driver/Src/stm32f1xx_hal_tim_ex.c ****     {
 826:Drivers/STM32F1xx_HAL_Driver/Src/stm32f1xx_hal_tim_ex.c ****       /* Disable the TIM Output Compare DMA request */
 827:Drivers/STM32F1xx_HAL_Driver/Src/stm32f1xx_hal_tim_ex.c ****       __HAL_TIM_DISABLE_DMA(htim, TIM_DMA_CC1);
 1662              		.loc 1 827 0
 1663 004c 7B68     		ldr	r3, [r7, #4]
 1664 004e 1B68     		ldr	r3, [r3]
 1665 0050 DA68     		ldr	r2, [r3, #12]
 1666 0052 7B68     		ldr	r3, [r7, #4]
 1667 0054 1B68     		ldr	r3, [r3]
 1668 0056 22F40072 		bic	r2, r2, #512
 1669 005a DA60     		str	r2, [r3, #12]
 828:Drivers/STM32F1xx_HAL_Driver/Src/stm32f1xx_hal_tim_ex.c ****     }
 829:Drivers/STM32F1xx_HAL_Driver/Src/stm32f1xx_hal_tim_ex.c ****     break;
 1670              		.loc 1 829 0
 1671 005c 1BE0     		b	.L82
 1672              	.L79:
 830:Drivers/STM32F1xx_HAL_Driver/Src/stm32f1xx_hal_tim_ex.c **** 
 831:Drivers/STM32F1xx_HAL_Driver/Src/stm32f1xx_hal_tim_ex.c ****     case TIM_CHANNEL_2:
 832:Drivers/STM32F1xx_HAL_Driver/Src/stm32f1xx_hal_tim_ex.c ****     {
 833:Drivers/STM32F1xx_HAL_Driver/Src/stm32f1xx_hal_tim_ex.c ****       /* Disable the TIM Output Compare DMA request */
 834:Drivers/STM32F1xx_HAL_Driver/Src/stm32f1xx_hal_tim_ex.c ****       __HAL_TIM_DISABLE_DMA(htim, TIM_DMA_CC2);
 1673              		.loc 1 834 0
 1674 005e 7B68     		ldr	r3, [r7, #4]
 1675 0060 1B68     		ldr	r3, [r3]
 1676 0062 DA68     		ldr	r2, [r3, #12]
 1677 0064 7B68     		ldr	r3, [r7, #4]
 1678 0066 1B68     		ldr	r3, [r3]
 1679 0068 22F48062 		bic	r2, r2, #1024
 1680 006c DA60     		str	r2, [r3, #12]
 835:Drivers/STM32F1xx_HAL_Driver/Src/stm32f1xx_hal_tim_ex.c ****     }
 836:Drivers/STM32F1xx_HAL_Driver/Src/stm32f1xx_hal_tim_ex.c ****     break;
 1681              		.loc 1 836 0
 1682 006e 12E0     		b	.L82
 1683              	.L80:
 837:Drivers/STM32F1xx_HAL_Driver/Src/stm32f1xx_hal_tim_ex.c **** 
 838:Drivers/STM32F1xx_HAL_Driver/Src/stm32f1xx_hal_tim_ex.c ****     case TIM_CHANNEL_3:
 839:Drivers/STM32F1xx_HAL_Driver/Src/stm32f1xx_hal_tim_ex.c ****     {
 840:Drivers/STM32F1xx_HAL_Driver/Src/stm32f1xx_hal_tim_ex.c ****       /* Disable the TIM Output Compare DMA request */
 841:Drivers/STM32F1xx_HAL_Driver/Src/stm32f1xx_hal_tim_ex.c ****       __HAL_TIM_DISABLE_DMA(htim, TIM_DMA_CC3);
 1684              		.loc 1 841 0
 1685 0070 7B68     		ldr	r3, [r7, #4]
 1686 0072 1B68     		ldr	r3, [r3]
 1687 0074 DA68     		ldr	r2, [r3, #12]
 1688 0076 7B68     		ldr	r3, [r7, #4]
 1689 0078 1B68     		ldr	r3, [r3]
 1690 007a 22F40062 		bic	r2, r2, #2048
 1691 007e DA60     		str	r2, [r3, #12]
 842:Drivers/STM32F1xx_HAL_Driver/Src/stm32f1xx_hal_tim_ex.c ****     }
 843:Drivers/STM32F1xx_HAL_Driver/Src/stm32f1xx_hal_tim_ex.c ****     break;
 1692              		.loc 1 843 0
 1693 0080 09E0     		b	.L82
 1694              	.L81:
 844:Drivers/STM32F1xx_HAL_Driver/Src/stm32f1xx_hal_tim_ex.c **** 
 845:Drivers/STM32F1xx_HAL_Driver/Src/stm32f1xx_hal_tim_ex.c ****     case TIM_CHANNEL_4:
ARM GAS  /tmp/ccpgqo2Y.s 			page 45


 846:Drivers/STM32F1xx_HAL_Driver/Src/stm32f1xx_hal_tim_ex.c ****     {
 847:Drivers/STM32F1xx_HAL_Driver/Src/stm32f1xx_hal_tim_ex.c ****       /* Disable the TIM Output Compare interrupt */
 848:Drivers/STM32F1xx_HAL_Driver/Src/stm32f1xx_hal_tim_ex.c ****       __HAL_TIM_DISABLE_DMA(htim, TIM_DMA_CC4);
 1695              		.loc 1 848 0
 1696 0082 7B68     		ldr	r3, [r7, #4]
 1697 0084 1B68     		ldr	r3, [r3]
 1698 0086 DA68     		ldr	r2, [r3, #12]
 1699 0088 7B68     		ldr	r3, [r7, #4]
 1700 008a 1B68     		ldr	r3, [r3]
 1701 008c 22F48052 		bic	r2, r2, #4096
 1702 0090 DA60     		str	r2, [r3, #12]
 849:Drivers/STM32F1xx_HAL_Driver/Src/stm32f1xx_hal_tim_ex.c ****     }
 850:Drivers/STM32F1xx_HAL_Driver/Src/stm32f1xx_hal_tim_ex.c ****     break;
 1703              		.loc 1 850 0
 1704 0092 00E0     		b	.L82
 1705              	.L86:
 851:Drivers/STM32F1xx_HAL_Driver/Src/stm32f1xx_hal_tim_ex.c **** 
 852:Drivers/STM32F1xx_HAL_Driver/Src/stm32f1xx_hal_tim_ex.c ****     default:
 853:Drivers/STM32F1xx_HAL_Driver/Src/stm32f1xx_hal_tim_ex.c ****     break;
 1706              		.loc 1 853 0
 1707 0094 00BF     		nop
 1708              	.L82:
 854:Drivers/STM32F1xx_HAL_Driver/Src/stm32f1xx_hal_tim_ex.c ****   }
 855:Drivers/STM32F1xx_HAL_Driver/Src/stm32f1xx_hal_tim_ex.c **** 
 856:Drivers/STM32F1xx_HAL_Driver/Src/stm32f1xx_hal_tim_ex.c ****   /* Disable the Capture compare channel N */
 857:Drivers/STM32F1xx_HAL_Driver/Src/stm32f1xx_hal_tim_ex.c ****   TIM_CCxNChannelCmd(htim->Instance, Channel, TIM_CCxN_DISABLE);
 1709              		.loc 1 857 0
 1710 0096 7B68     		ldr	r3, [r7, #4]
 1711 0098 1B68     		ldr	r3, [r3]
 1712 009a 0022     		movs	r2, #0
 1713 009c 3968     		ldr	r1, [r7]
 1714 009e 1846     		mov	r0, r3
 1715 00a0 FFF7FEFF 		bl	TIM_CCxNChannelCmd
 858:Drivers/STM32F1xx_HAL_Driver/Src/stm32f1xx_hal_tim_ex.c **** 
 859:Drivers/STM32F1xx_HAL_Driver/Src/stm32f1xx_hal_tim_ex.c ****   /* Disable the Main Ouput */
 860:Drivers/STM32F1xx_HAL_Driver/Src/stm32f1xx_hal_tim_ex.c ****   __HAL_TIM_MOE_DISABLE(htim);
 1716              		.loc 1 860 0
 1717 00a4 7B68     		ldr	r3, [r7, #4]
 1718 00a6 1B68     		ldr	r3, [r3]
 1719 00a8 1A6A     		ldr	r2, [r3, #32]
 1720 00aa 41F21113 		movw	r3, #4369
 1721 00ae 1340     		ands	r3, r3, r2
 1722 00b0 002B     		cmp	r3, #0
 1723 00b2 0FD1     		bne	.L83
 1724              		.loc 1 860 0 is_stmt 0 discriminator 1
 1725 00b4 7B68     		ldr	r3, [r7, #4]
 1726 00b6 1B68     		ldr	r3, [r3]
 1727 00b8 1A6A     		ldr	r2, [r3, #32]
 1728 00ba 40F24443 		movw	r3, #1092
 1729 00be 1340     		ands	r3, r3, r2
 1730 00c0 002B     		cmp	r3, #0
 1731 00c2 07D1     		bne	.L83
 1732              		.loc 1 860 0 discriminator 2
 1733 00c4 7B68     		ldr	r3, [r7, #4]
 1734 00c6 1B68     		ldr	r3, [r3]
 1735 00c8 5A6C     		ldr	r2, [r3, #68]
 1736 00ca 7B68     		ldr	r3, [r7, #4]
ARM GAS  /tmp/ccpgqo2Y.s 			page 46


 1737 00cc 1B68     		ldr	r3, [r3]
 1738 00ce 22F40042 		bic	r2, r2, #32768
 1739 00d2 5A64     		str	r2, [r3, #68]
 1740              	.L83:
 861:Drivers/STM32F1xx_HAL_Driver/Src/stm32f1xx_hal_tim_ex.c **** 
 862:Drivers/STM32F1xx_HAL_Driver/Src/stm32f1xx_hal_tim_ex.c ****   /* Disable the Peripheral */
 863:Drivers/STM32F1xx_HAL_Driver/Src/stm32f1xx_hal_tim_ex.c ****   __HAL_TIM_DISABLE(htim);
 1741              		.loc 1 863 0 is_stmt 1
 1742 00d4 7B68     		ldr	r3, [r7, #4]
 1743 00d6 1B68     		ldr	r3, [r3]
 1744 00d8 1A6A     		ldr	r2, [r3, #32]
 1745 00da 41F21113 		movw	r3, #4369
 1746 00de 1340     		ands	r3, r3, r2
 1747 00e0 002B     		cmp	r3, #0
 1748 00e2 0FD1     		bne	.L84
 1749              		.loc 1 863 0 is_stmt 0 discriminator 1
 1750 00e4 7B68     		ldr	r3, [r7, #4]
 1751 00e6 1B68     		ldr	r3, [r3]
 1752 00e8 1A6A     		ldr	r2, [r3, #32]
 1753 00ea 40F24443 		movw	r3, #1092
 1754 00ee 1340     		ands	r3, r3, r2
 1755 00f0 002B     		cmp	r3, #0
 1756 00f2 07D1     		bne	.L84
 1757              		.loc 1 863 0 discriminator 2
 1758 00f4 7B68     		ldr	r3, [r7, #4]
 1759 00f6 1B68     		ldr	r3, [r3]
 1760 00f8 1A68     		ldr	r2, [r3]
 1761 00fa 7B68     		ldr	r3, [r7, #4]
 1762 00fc 1B68     		ldr	r3, [r3]
 1763 00fe 22F00102 		bic	r2, r2, #1
 1764 0102 1A60     		str	r2, [r3]
 1765              	.L84:
 864:Drivers/STM32F1xx_HAL_Driver/Src/stm32f1xx_hal_tim_ex.c **** 
 865:Drivers/STM32F1xx_HAL_Driver/Src/stm32f1xx_hal_tim_ex.c ****   /* Change the htim state */
 866:Drivers/STM32F1xx_HAL_Driver/Src/stm32f1xx_hal_tim_ex.c ****   htim->State = HAL_TIM_STATE_READY;
 1766              		.loc 1 866 0 is_stmt 1
 1767 0104 7B68     		ldr	r3, [r7, #4]
 1768 0106 0122     		movs	r2, #1
 1769 0108 83F83D20 		strb	r2, [r3, #61]
 867:Drivers/STM32F1xx_HAL_Driver/Src/stm32f1xx_hal_tim_ex.c **** 
 868:Drivers/STM32F1xx_HAL_Driver/Src/stm32f1xx_hal_tim_ex.c ****   /* Return function status */
 869:Drivers/STM32F1xx_HAL_Driver/Src/stm32f1xx_hal_tim_ex.c ****   return HAL_OK;
 1770              		.loc 1 869 0
 1771 010c 0023     		movs	r3, #0
 870:Drivers/STM32F1xx_HAL_Driver/Src/stm32f1xx_hal_tim_ex.c **** }
 1772              		.loc 1 870 0
 1773 010e 1846     		mov	r0, r3
 1774 0110 0837     		adds	r7, r7, #8
 1775              	.LCFI80:
 1776              		.cfi_def_cfa_offset 8
 1777 0112 BD46     		mov	sp, r7
 1778              	.LCFI81:
 1779              		.cfi_def_cfa_register 13
 1780              		@ sp needed
 1781 0114 80BD     		pop	{r7, pc}
 1782              		.cfi_endproc
 1783              	.LFE81:
ARM GAS  /tmp/ccpgqo2Y.s 			page 47


 1785 0116 00BF     		.section	.text.HAL_TIMEx_PWMN_Start,"ax",%progbits
 1786              		.align	1
 1787              		.global	HAL_TIMEx_PWMN_Start
 1788              		.syntax unified
 1789              		.thumb
 1790              		.thumb_func
 1791              		.fpu softvfp
 1793              	HAL_TIMEx_PWMN_Start:
 1794              	.LFB82:
 871:Drivers/STM32F1xx_HAL_Driver/Src/stm32f1xx_hal_tim_ex.c **** 
 872:Drivers/STM32F1xx_HAL_Driver/Src/stm32f1xx_hal_tim_ex.c **** /**
 873:Drivers/STM32F1xx_HAL_Driver/Src/stm32f1xx_hal_tim_ex.c ****   * @}
 874:Drivers/STM32F1xx_HAL_Driver/Src/stm32f1xx_hal_tim_ex.c ****   */
 875:Drivers/STM32F1xx_HAL_Driver/Src/stm32f1xx_hal_tim_ex.c **** 
 876:Drivers/STM32F1xx_HAL_Driver/Src/stm32f1xx_hal_tim_ex.c **** /** @defgroup TIMEx_Exported_Functions_Group3 Timer Complementary PWM functions
 877:Drivers/STM32F1xx_HAL_Driver/Src/stm32f1xx_hal_tim_ex.c ****  *  @brief    Timer Complementary PWM functions
 878:Drivers/STM32F1xx_HAL_Driver/Src/stm32f1xx_hal_tim_ex.c ****  *
 879:Drivers/STM32F1xx_HAL_Driver/Src/stm32f1xx_hal_tim_ex.c **** @verbatim
 880:Drivers/STM32F1xx_HAL_Driver/Src/stm32f1xx_hal_tim_ex.c ****   ==============================================================================
 881:Drivers/STM32F1xx_HAL_Driver/Src/stm32f1xx_hal_tim_ex.c ****                  ##### Timer Complementary PWM functions #####
 882:Drivers/STM32F1xx_HAL_Driver/Src/stm32f1xx_hal_tim_ex.c ****   ==============================================================================
 883:Drivers/STM32F1xx_HAL_Driver/Src/stm32f1xx_hal_tim_ex.c ****   [..]
 884:Drivers/STM32F1xx_HAL_Driver/Src/stm32f1xx_hal_tim_ex.c ****     This section provides functions allowing to:
 885:Drivers/STM32F1xx_HAL_Driver/Src/stm32f1xx_hal_tim_ex.c ****     (+) Start the Complementary PWM.
 886:Drivers/STM32F1xx_HAL_Driver/Src/stm32f1xx_hal_tim_ex.c ****     (+) Stop the Complementary PWM.
 887:Drivers/STM32F1xx_HAL_Driver/Src/stm32f1xx_hal_tim_ex.c ****     (+) Start the Complementary PWM and enable interrupts.
 888:Drivers/STM32F1xx_HAL_Driver/Src/stm32f1xx_hal_tim_ex.c ****     (+) Stop the Complementary PWM and disable interrupts.
 889:Drivers/STM32F1xx_HAL_Driver/Src/stm32f1xx_hal_tim_ex.c ****     (+) Start the Complementary PWM and enable DMA transfers.
 890:Drivers/STM32F1xx_HAL_Driver/Src/stm32f1xx_hal_tim_ex.c ****     (+) Stop the Complementary PWM and disable DMA transfers.
 891:Drivers/STM32F1xx_HAL_Driver/Src/stm32f1xx_hal_tim_ex.c ****     (+) Start the Complementary Input Capture measurement.
 892:Drivers/STM32F1xx_HAL_Driver/Src/stm32f1xx_hal_tim_ex.c ****     (+) Stop the Complementary Input Capture.
 893:Drivers/STM32F1xx_HAL_Driver/Src/stm32f1xx_hal_tim_ex.c ****     (+) Start the Complementary Input Capture and enable interrupts.
 894:Drivers/STM32F1xx_HAL_Driver/Src/stm32f1xx_hal_tim_ex.c ****     (+) Stop the Complementary Input Capture and disable interrupts.
 895:Drivers/STM32F1xx_HAL_Driver/Src/stm32f1xx_hal_tim_ex.c ****     (+) Start the Complementary Input Capture and enable DMA transfers.
 896:Drivers/STM32F1xx_HAL_Driver/Src/stm32f1xx_hal_tim_ex.c ****     (+) Stop the Complementary Input Capture and disable DMA transfers.
 897:Drivers/STM32F1xx_HAL_Driver/Src/stm32f1xx_hal_tim_ex.c ****     (+) Start the Complementary One Pulse generation.
 898:Drivers/STM32F1xx_HAL_Driver/Src/stm32f1xx_hal_tim_ex.c ****     (+) Stop the Complementary One Pulse.
 899:Drivers/STM32F1xx_HAL_Driver/Src/stm32f1xx_hal_tim_ex.c ****     (+) Start the Complementary One Pulse and enable interrupts.
 900:Drivers/STM32F1xx_HAL_Driver/Src/stm32f1xx_hal_tim_ex.c ****     (+) Stop the Complementary One Pulse and disable interrupts.
 901:Drivers/STM32F1xx_HAL_Driver/Src/stm32f1xx_hal_tim_ex.c **** 
 902:Drivers/STM32F1xx_HAL_Driver/Src/stm32f1xx_hal_tim_ex.c **** @endverbatim
 903:Drivers/STM32F1xx_HAL_Driver/Src/stm32f1xx_hal_tim_ex.c ****   * @{
 904:Drivers/STM32F1xx_HAL_Driver/Src/stm32f1xx_hal_tim_ex.c ****   */
 905:Drivers/STM32F1xx_HAL_Driver/Src/stm32f1xx_hal_tim_ex.c **** 
 906:Drivers/STM32F1xx_HAL_Driver/Src/stm32f1xx_hal_tim_ex.c **** /**
 907:Drivers/STM32F1xx_HAL_Driver/Src/stm32f1xx_hal_tim_ex.c ****   * @brief  Starts the PWM signal generation on the complementary output.
 908:Drivers/STM32F1xx_HAL_Driver/Src/stm32f1xx_hal_tim_ex.c ****   * @param  htim : TIM handle
 909:Drivers/STM32F1xx_HAL_Driver/Src/stm32f1xx_hal_tim_ex.c ****   * @param  Channel : TIM Channel to be enabled
 910:Drivers/STM32F1xx_HAL_Driver/Src/stm32f1xx_hal_tim_ex.c ****   *          This parameter can be one of the following values:
 911:Drivers/STM32F1xx_HAL_Driver/Src/stm32f1xx_hal_tim_ex.c ****   *            @arg TIM_CHANNEL_1: TIM Channel 1 selected
 912:Drivers/STM32F1xx_HAL_Driver/Src/stm32f1xx_hal_tim_ex.c ****   *            @arg TIM_CHANNEL_2: TIM Channel 2 selected
 913:Drivers/STM32F1xx_HAL_Driver/Src/stm32f1xx_hal_tim_ex.c ****   *            @arg TIM_CHANNEL_3: TIM Channel 3 selected
 914:Drivers/STM32F1xx_HAL_Driver/Src/stm32f1xx_hal_tim_ex.c ****   *            @arg TIM_CHANNEL_4: TIM Channel 4 selected
 915:Drivers/STM32F1xx_HAL_Driver/Src/stm32f1xx_hal_tim_ex.c ****   * @retval HAL status
 916:Drivers/STM32F1xx_HAL_Driver/Src/stm32f1xx_hal_tim_ex.c ****   */
 917:Drivers/STM32F1xx_HAL_Driver/Src/stm32f1xx_hal_tim_ex.c **** HAL_StatusTypeDef HAL_TIMEx_PWMN_Start(TIM_HandleTypeDef *htim, uint32_t Channel)
 918:Drivers/STM32F1xx_HAL_Driver/Src/stm32f1xx_hal_tim_ex.c **** {
ARM GAS  /tmp/ccpgqo2Y.s 			page 48


 1795              		.loc 1 918 0
 1796              		.cfi_startproc
 1797              		@ args = 0, pretend = 0, frame = 8
 1798              		@ frame_needed = 1, uses_anonymous_args = 0
 1799 0000 80B5     		push	{r7, lr}
 1800              	.LCFI82:
 1801              		.cfi_def_cfa_offset 8
 1802              		.cfi_offset 7, -8
 1803              		.cfi_offset 14, -4
 1804 0002 82B0     		sub	sp, sp, #8
 1805              	.LCFI83:
 1806              		.cfi_def_cfa_offset 16
 1807 0004 00AF     		add	r7, sp, #0
 1808              	.LCFI84:
 1809              		.cfi_def_cfa_register 7
 1810 0006 7860     		str	r0, [r7, #4]
 1811 0008 3960     		str	r1, [r7]
 919:Drivers/STM32F1xx_HAL_Driver/Src/stm32f1xx_hal_tim_ex.c ****   /* Check the parameters */
 920:Drivers/STM32F1xx_HAL_Driver/Src/stm32f1xx_hal_tim_ex.c ****   assert_param(IS_TIM_CCXN_INSTANCE(htim->Instance, Channel));
 921:Drivers/STM32F1xx_HAL_Driver/Src/stm32f1xx_hal_tim_ex.c **** 
 922:Drivers/STM32F1xx_HAL_Driver/Src/stm32f1xx_hal_tim_ex.c ****   /* Enable the complementary PWM output  */
 923:Drivers/STM32F1xx_HAL_Driver/Src/stm32f1xx_hal_tim_ex.c ****   TIM_CCxNChannelCmd(htim->Instance, Channel, TIM_CCxN_ENABLE);
 1812              		.loc 1 923 0
 1813 000a 7B68     		ldr	r3, [r7, #4]
 1814 000c 1B68     		ldr	r3, [r3]
 1815 000e 0422     		movs	r2, #4
 1816 0010 3968     		ldr	r1, [r7]
 1817 0012 1846     		mov	r0, r3
 1818 0014 FFF7FEFF 		bl	TIM_CCxNChannelCmd
 924:Drivers/STM32F1xx_HAL_Driver/Src/stm32f1xx_hal_tim_ex.c **** 
 925:Drivers/STM32F1xx_HAL_Driver/Src/stm32f1xx_hal_tim_ex.c ****   /* Enable the Main Ouput */
 926:Drivers/STM32F1xx_HAL_Driver/Src/stm32f1xx_hal_tim_ex.c ****   __HAL_TIM_MOE_ENABLE(htim);
 1819              		.loc 1 926 0
 1820 0018 7B68     		ldr	r3, [r7, #4]
 1821 001a 1B68     		ldr	r3, [r3]
 1822 001c 5A6C     		ldr	r2, [r3, #68]
 1823 001e 7B68     		ldr	r3, [r7, #4]
 1824 0020 1B68     		ldr	r3, [r3]
 1825 0022 42F40042 		orr	r2, r2, #32768
 1826 0026 5A64     		str	r2, [r3, #68]
 927:Drivers/STM32F1xx_HAL_Driver/Src/stm32f1xx_hal_tim_ex.c **** 
 928:Drivers/STM32F1xx_HAL_Driver/Src/stm32f1xx_hal_tim_ex.c ****   /* Enable the Peripheral */
 929:Drivers/STM32F1xx_HAL_Driver/Src/stm32f1xx_hal_tim_ex.c ****   __HAL_TIM_ENABLE(htim);
 1827              		.loc 1 929 0
 1828 0028 7B68     		ldr	r3, [r7, #4]
 1829 002a 1B68     		ldr	r3, [r3]
 1830 002c 1A68     		ldr	r2, [r3]
 1831 002e 7B68     		ldr	r3, [r7, #4]
 1832 0030 1B68     		ldr	r3, [r3]
 1833 0032 42F00102 		orr	r2, r2, #1
 1834 0036 1A60     		str	r2, [r3]
 930:Drivers/STM32F1xx_HAL_Driver/Src/stm32f1xx_hal_tim_ex.c **** 
 931:Drivers/STM32F1xx_HAL_Driver/Src/stm32f1xx_hal_tim_ex.c ****   /* Return function status */
 932:Drivers/STM32F1xx_HAL_Driver/Src/stm32f1xx_hal_tim_ex.c ****   return HAL_OK;
 1835              		.loc 1 932 0
 1836 0038 0023     		movs	r3, #0
 933:Drivers/STM32F1xx_HAL_Driver/Src/stm32f1xx_hal_tim_ex.c **** }
ARM GAS  /tmp/ccpgqo2Y.s 			page 49


 1837              		.loc 1 933 0
 1838 003a 1846     		mov	r0, r3
 1839 003c 0837     		adds	r7, r7, #8
 1840              	.LCFI85:
 1841              		.cfi_def_cfa_offset 8
 1842 003e BD46     		mov	sp, r7
 1843              	.LCFI86:
 1844              		.cfi_def_cfa_register 13
 1845              		@ sp needed
 1846 0040 80BD     		pop	{r7, pc}
 1847              		.cfi_endproc
 1848              	.LFE82:
 1850              		.section	.text.HAL_TIMEx_PWMN_Stop,"ax",%progbits
 1851              		.align	1
 1852              		.global	HAL_TIMEx_PWMN_Stop
 1853              		.syntax unified
 1854              		.thumb
 1855              		.thumb_func
 1856              		.fpu softvfp
 1858              	HAL_TIMEx_PWMN_Stop:
 1859              	.LFB83:
 934:Drivers/STM32F1xx_HAL_Driver/Src/stm32f1xx_hal_tim_ex.c **** 
 935:Drivers/STM32F1xx_HAL_Driver/Src/stm32f1xx_hal_tim_ex.c **** /**
 936:Drivers/STM32F1xx_HAL_Driver/Src/stm32f1xx_hal_tim_ex.c ****   * @brief  Stops the PWM signal generation on the complementary output.
 937:Drivers/STM32F1xx_HAL_Driver/Src/stm32f1xx_hal_tim_ex.c ****   * @param  htim : TIM handle
 938:Drivers/STM32F1xx_HAL_Driver/Src/stm32f1xx_hal_tim_ex.c ****   * @param  Channel : TIM Channel to be disabled
 939:Drivers/STM32F1xx_HAL_Driver/Src/stm32f1xx_hal_tim_ex.c ****   *          This parameter can be one of the following values:
 940:Drivers/STM32F1xx_HAL_Driver/Src/stm32f1xx_hal_tim_ex.c ****   *            @arg TIM_CHANNEL_1: TIM Channel 1 selected
 941:Drivers/STM32F1xx_HAL_Driver/Src/stm32f1xx_hal_tim_ex.c ****   *            @arg TIM_CHANNEL_2: TIM Channel 2 selected
 942:Drivers/STM32F1xx_HAL_Driver/Src/stm32f1xx_hal_tim_ex.c ****   *            @arg TIM_CHANNEL_3: TIM Channel 3 selected
 943:Drivers/STM32F1xx_HAL_Driver/Src/stm32f1xx_hal_tim_ex.c ****   *            @arg TIM_CHANNEL_4: TIM Channel 4 selected
 944:Drivers/STM32F1xx_HAL_Driver/Src/stm32f1xx_hal_tim_ex.c ****   * @retval HAL status
 945:Drivers/STM32F1xx_HAL_Driver/Src/stm32f1xx_hal_tim_ex.c ****   */
 946:Drivers/STM32F1xx_HAL_Driver/Src/stm32f1xx_hal_tim_ex.c **** HAL_StatusTypeDef HAL_TIMEx_PWMN_Stop(TIM_HandleTypeDef *htim, uint32_t Channel)
 947:Drivers/STM32F1xx_HAL_Driver/Src/stm32f1xx_hal_tim_ex.c **** {
 1860              		.loc 1 947 0
 1861              		.cfi_startproc
 1862              		@ args = 0, pretend = 0, frame = 8
 1863              		@ frame_needed = 1, uses_anonymous_args = 0
 1864 0000 80B5     		push	{r7, lr}
 1865              	.LCFI87:
 1866              		.cfi_def_cfa_offset 8
 1867              		.cfi_offset 7, -8
 1868              		.cfi_offset 14, -4
 1869 0002 82B0     		sub	sp, sp, #8
 1870              	.LCFI88:
 1871              		.cfi_def_cfa_offset 16
 1872 0004 00AF     		add	r7, sp, #0
 1873              	.LCFI89:
 1874              		.cfi_def_cfa_register 7
 1875 0006 7860     		str	r0, [r7, #4]
 1876 0008 3960     		str	r1, [r7]
 948:Drivers/STM32F1xx_HAL_Driver/Src/stm32f1xx_hal_tim_ex.c ****   /* Check the parameters */
 949:Drivers/STM32F1xx_HAL_Driver/Src/stm32f1xx_hal_tim_ex.c ****   assert_param(IS_TIM_CCXN_INSTANCE(htim->Instance, Channel));
 950:Drivers/STM32F1xx_HAL_Driver/Src/stm32f1xx_hal_tim_ex.c **** 
 951:Drivers/STM32F1xx_HAL_Driver/Src/stm32f1xx_hal_tim_ex.c ****   /* Disable the complementary PWM output  */
 952:Drivers/STM32F1xx_HAL_Driver/Src/stm32f1xx_hal_tim_ex.c ****   TIM_CCxNChannelCmd(htim->Instance, Channel, TIM_CCxN_DISABLE);
ARM GAS  /tmp/ccpgqo2Y.s 			page 50


 1877              		.loc 1 952 0
 1878 000a 7B68     		ldr	r3, [r7, #4]
 1879 000c 1B68     		ldr	r3, [r3]
 1880 000e 0022     		movs	r2, #0
 1881 0010 3968     		ldr	r1, [r7]
 1882 0012 1846     		mov	r0, r3
 1883 0014 FFF7FEFF 		bl	TIM_CCxNChannelCmd
 953:Drivers/STM32F1xx_HAL_Driver/Src/stm32f1xx_hal_tim_ex.c **** 
 954:Drivers/STM32F1xx_HAL_Driver/Src/stm32f1xx_hal_tim_ex.c ****   /* Disable the Main Ouput */
 955:Drivers/STM32F1xx_HAL_Driver/Src/stm32f1xx_hal_tim_ex.c ****   __HAL_TIM_MOE_DISABLE(htim);
 1884              		.loc 1 955 0
 1885 0018 7B68     		ldr	r3, [r7, #4]
 1886 001a 1B68     		ldr	r3, [r3]
 1887 001c 1A6A     		ldr	r2, [r3, #32]
 1888 001e 41F21113 		movw	r3, #4369
 1889 0022 1340     		ands	r3, r3, r2
 1890 0024 002B     		cmp	r3, #0
 1891 0026 0FD1     		bne	.L90
 1892              		.loc 1 955 0 is_stmt 0 discriminator 1
 1893 0028 7B68     		ldr	r3, [r7, #4]
 1894 002a 1B68     		ldr	r3, [r3]
 1895 002c 1A6A     		ldr	r2, [r3, #32]
 1896 002e 40F24443 		movw	r3, #1092
 1897 0032 1340     		ands	r3, r3, r2
 1898 0034 002B     		cmp	r3, #0
 1899 0036 07D1     		bne	.L90
 1900              		.loc 1 955 0 discriminator 2
 1901 0038 7B68     		ldr	r3, [r7, #4]
 1902 003a 1B68     		ldr	r3, [r3]
 1903 003c 5A6C     		ldr	r2, [r3, #68]
 1904 003e 7B68     		ldr	r3, [r7, #4]
 1905 0040 1B68     		ldr	r3, [r3]
 1906 0042 22F40042 		bic	r2, r2, #32768
 1907 0046 5A64     		str	r2, [r3, #68]
 1908              	.L90:
 956:Drivers/STM32F1xx_HAL_Driver/Src/stm32f1xx_hal_tim_ex.c **** 
 957:Drivers/STM32F1xx_HAL_Driver/Src/stm32f1xx_hal_tim_ex.c ****   /* Disable the Peripheral */
 958:Drivers/STM32F1xx_HAL_Driver/Src/stm32f1xx_hal_tim_ex.c ****   __HAL_TIM_DISABLE(htim);
 1909              		.loc 1 958 0 is_stmt 1
 1910 0048 7B68     		ldr	r3, [r7, #4]
 1911 004a 1B68     		ldr	r3, [r3]
 1912 004c 1A6A     		ldr	r2, [r3, #32]
 1913 004e 41F21113 		movw	r3, #4369
 1914 0052 1340     		ands	r3, r3, r2
 1915 0054 002B     		cmp	r3, #0
 1916 0056 0FD1     		bne	.L91
 1917              		.loc 1 958 0 is_stmt 0 discriminator 1
 1918 0058 7B68     		ldr	r3, [r7, #4]
 1919 005a 1B68     		ldr	r3, [r3]
 1920 005c 1A6A     		ldr	r2, [r3, #32]
 1921 005e 40F24443 		movw	r3, #1092
 1922 0062 1340     		ands	r3, r3, r2
 1923 0064 002B     		cmp	r3, #0
 1924 0066 07D1     		bne	.L91
 1925              		.loc 1 958 0 discriminator 2
 1926 0068 7B68     		ldr	r3, [r7, #4]
 1927 006a 1B68     		ldr	r3, [r3]
ARM GAS  /tmp/ccpgqo2Y.s 			page 51


 1928 006c 1A68     		ldr	r2, [r3]
 1929 006e 7B68     		ldr	r3, [r7, #4]
 1930 0070 1B68     		ldr	r3, [r3]
 1931 0072 22F00102 		bic	r2, r2, #1
 1932 0076 1A60     		str	r2, [r3]
 1933              	.L91:
 959:Drivers/STM32F1xx_HAL_Driver/Src/stm32f1xx_hal_tim_ex.c **** 
 960:Drivers/STM32F1xx_HAL_Driver/Src/stm32f1xx_hal_tim_ex.c ****   /* Return function status */
 961:Drivers/STM32F1xx_HAL_Driver/Src/stm32f1xx_hal_tim_ex.c ****   return HAL_OK;
 1934              		.loc 1 961 0 is_stmt 1
 1935 0078 0023     		movs	r3, #0
 962:Drivers/STM32F1xx_HAL_Driver/Src/stm32f1xx_hal_tim_ex.c **** }
 1936              		.loc 1 962 0
 1937 007a 1846     		mov	r0, r3
 1938 007c 0837     		adds	r7, r7, #8
 1939              	.LCFI90:
 1940              		.cfi_def_cfa_offset 8
 1941 007e BD46     		mov	sp, r7
 1942              	.LCFI91:
 1943              		.cfi_def_cfa_register 13
 1944              		@ sp needed
 1945 0080 80BD     		pop	{r7, pc}
 1946              		.cfi_endproc
 1947              	.LFE83:
 1949              		.section	.text.HAL_TIMEx_PWMN_Start_IT,"ax",%progbits
 1950              		.align	1
 1951              		.global	HAL_TIMEx_PWMN_Start_IT
 1952              		.syntax unified
 1953              		.thumb
 1954              		.thumb_func
 1955              		.fpu softvfp
 1957              	HAL_TIMEx_PWMN_Start_IT:
 1958              	.LFB84:
 963:Drivers/STM32F1xx_HAL_Driver/Src/stm32f1xx_hal_tim_ex.c **** 
 964:Drivers/STM32F1xx_HAL_Driver/Src/stm32f1xx_hal_tim_ex.c **** /**
 965:Drivers/STM32F1xx_HAL_Driver/Src/stm32f1xx_hal_tim_ex.c ****   * @brief  Starts the PWM signal generation in interrupt mode on the
 966:Drivers/STM32F1xx_HAL_Driver/Src/stm32f1xx_hal_tim_ex.c ****   *         complementary output.
 967:Drivers/STM32F1xx_HAL_Driver/Src/stm32f1xx_hal_tim_ex.c ****   * @param  htim : TIM handle
 968:Drivers/STM32F1xx_HAL_Driver/Src/stm32f1xx_hal_tim_ex.c ****   * @param  Channel : TIM Channel to be disabled
 969:Drivers/STM32F1xx_HAL_Driver/Src/stm32f1xx_hal_tim_ex.c ****   *          This parameter can be one of the following values:
 970:Drivers/STM32F1xx_HAL_Driver/Src/stm32f1xx_hal_tim_ex.c ****   *            @arg TIM_CHANNEL_1: TIM Channel 1 selected
 971:Drivers/STM32F1xx_HAL_Driver/Src/stm32f1xx_hal_tim_ex.c ****   *            @arg TIM_CHANNEL_2: TIM Channel 2 selected
 972:Drivers/STM32F1xx_HAL_Driver/Src/stm32f1xx_hal_tim_ex.c ****   *            @arg TIM_CHANNEL_3: TIM Channel 3 selected
 973:Drivers/STM32F1xx_HAL_Driver/Src/stm32f1xx_hal_tim_ex.c ****   *            @arg TIM_CHANNEL_4: TIM Channel 4 selected
 974:Drivers/STM32F1xx_HAL_Driver/Src/stm32f1xx_hal_tim_ex.c ****   * @retval HAL status
 975:Drivers/STM32F1xx_HAL_Driver/Src/stm32f1xx_hal_tim_ex.c ****   */
 976:Drivers/STM32F1xx_HAL_Driver/Src/stm32f1xx_hal_tim_ex.c **** HAL_StatusTypeDef HAL_TIMEx_PWMN_Start_IT(TIM_HandleTypeDef *htim, uint32_t Channel)
 977:Drivers/STM32F1xx_HAL_Driver/Src/stm32f1xx_hal_tim_ex.c **** {
 1959              		.loc 1 977 0
 1960              		.cfi_startproc
 1961              		@ args = 0, pretend = 0, frame = 8
 1962              		@ frame_needed = 1, uses_anonymous_args = 0
 1963 0000 80B5     		push	{r7, lr}
 1964              	.LCFI92:
 1965              		.cfi_def_cfa_offset 8
 1966              		.cfi_offset 7, -8
 1967              		.cfi_offset 14, -4
ARM GAS  /tmp/ccpgqo2Y.s 			page 52


 1968 0002 82B0     		sub	sp, sp, #8
 1969              	.LCFI93:
 1970              		.cfi_def_cfa_offset 16
 1971 0004 00AF     		add	r7, sp, #0
 1972              	.LCFI94:
 1973              		.cfi_def_cfa_register 7
 1974 0006 7860     		str	r0, [r7, #4]
 1975 0008 3960     		str	r1, [r7]
 978:Drivers/STM32F1xx_HAL_Driver/Src/stm32f1xx_hal_tim_ex.c ****   /* Check the parameters */
 979:Drivers/STM32F1xx_HAL_Driver/Src/stm32f1xx_hal_tim_ex.c ****   assert_param(IS_TIM_CCXN_INSTANCE(htim->Instance, Channel));
 980:Drivers/STM32F1xx_HAL_Driver/Src/stm32f1xx_hal_tim_ex.c **** 
 981:Drivers/STM32F1xx_HAL_Driver/Src/stm32f1xx_hal_tim_ex.c ****   switch (Channel)
 1976              		.loc 1 981 0
 1977 000a 3B68     		ldr	r3, [r7]
 1978 000c 0C2B     		cmp	r3, #12
 1979 000e 41D8     		bhi	.L102
 1980 0010 01A2     		adr	r2, .L96
 1981 0012 52F823F0 		ldr	pc, [r2, r3, lsl #2]
 1982 0016 00BF     		.p2align 2
 1983              	.L96:
 1984 0018 4D000000 		.word	.L95+1
 1985 001c 95000000 		.word	.L102+1
 1986 0020 95000000 		.word	.L102+1
 1987 0024 95000000 		.word	.L102+1
 1988 0028 5F000000 		.word	.L97+1
 1989 002c 95000000 		.word	.L102+1
 1990 0030 95000000 		.word	.L102+1
 1991 0034 95000000 		.word	.L102+1
 1992 0038 71000000 		.word	.L98+1
 1993 003c 95000000 		.word	.L102+1
 1994 0040 95000000 		.word	.L102+1
 1995 0044 95000000 		.word	.L102+1
 1996 0048 83000000 		.word	.L99+1
 1997              		.p2align 1
 1998              	.L95:
 982:Drivers/STM32F1xx_HAL_Driver/Src/stm32f1xx_hal_tim_ex.c ****   {
 983:Drivers/STM32F1xx_HAL_Driver/Src/stm32f1xx_hal_tim_ex.c ****     case TIM_CHANNEL_1:
 984:Drivers/STM32F1xx_HAL_Driver/Src/stm32f1xx_hal_tim_ex.c ****     {
 985:Drivers/STM32F1xx_HAL_Driver/Src/stm32f1xx_hal_tim_ex.c ****       /* Enable the TIM Capture/Compare 1 interrupt */
 986:Drivers/STM32F1xx_HAL_Driver/Src/stm32f1xx_hal_tim_ex.c ****       __HAL_TIM_ENABLE_IT(htim, TIM_IT_CC1);
 1999              		.loc 1 986 0
 2000 004c 7B68     		ldr	r3, [r7, #4]
 2001 004e 1B68     		ldr	r3, [r3]
 2002 0050 DA68     		ldr	r2, [r3, #12]
 2003 0052 7B68     		ldr	r3, [r7, #4]
 2004 0054 1B68     		ldr	r3, [r3]
 2005 0056 42F00202 		orr	r2, r2, #2
 2006 005a DA60     		str	r2, [r3, #12]
 987:Drivers/STM32F1xx_HAL_Driver/Src/stm32f1xx_hal_tim_ex.c ****     }
 988:Drivers/STM32F1xx_HAL_Driver/Src/stm32f1xx_hal_tim_ex.c ****     break;
 2007              		.loc 1 988 0
 2008 005c 1BE0     		b	.L100
 2009              	.L97:
 989:Drivers/STM32F1xx_HAL_Driver/Src/stm32f1xx_hal_tim_ex.c **** 
 990:Drivers/STM32F1xx_HAL_Driver/Src/stm32f1xx_hal_tim_ex.c ****     case TIM_CHANNEL_2:
 991:Drivers/STM32F1xx_HAL_Driver/Src/stm32f1xx_hal_tim_ex.c ****     {
 992:Drivers/STM32F1xx_HAL_Driver/Src/stm32f1xx_hal_tim_ex.c ****       /* Enable the TIM Capture/Compare 2 interrupt */
ARM GAS  /tmp/ccpgqo2Y.s 			page 53


 993:Drivers/STM32F1xx_HAL_Driver/Src/stm32f1xx_hal_tim_ex.c ****       __HAL_TIM_ENABLE_IT(htim, TIM_IT_CC2);
 2010              		.loc 1 993 0
 2011 005e 7B68     		ldr	r3, [r7, #4]
 2012 0060 1B68     		ldr	r3, [r3]
 2013 0062 DA68     		ldr	r2, [r3, #12]
 2014 0064 7B68     		ldr	r3, [r7, #4]
 2015 0066 1B68     		ldr	r3, [r3]
 2016 0068 42F00402 		orr	r2, r2, #4
 2017 006c DA60     		str	r2, [r3, #12]
 994:Drivers/STM32F1xx_HAL_Driver/Src/stm32f1xx_hal_tim_ex.c ****     }
 995:Drivers/STM32F1xx_HAL_Driver/Src/stm32f1xx_hal_tim_ex.c ****     break;
 2018              		.loc 1 995 0
 2019 006e 12E0     		b	.L100
 2020              	.L98:
 996:Drivers/STM32F1xx_HAL_Driver/Src/stm32f1xx_hal_tim_ex.c **** 
 997:Drivers/STM32F1xx_HAL_Driver/Src/stm32f1xx_hal_tim_ex.c ****     case TIM_CHANNEL_3:
 998:Drivers/STM32F1xx_HAL_Driver/Src/stm32f1xx_hal_tim_ex.c ****     {
 999:Drivers/STM32F1xx_HAL_Driver/Src/stm32f1xx_hal_tim_ex.c ****       /* Enable the TIM Capture/Compare 3 interrupt */
1000:Drivers/STM32F1xx_HAL_Driver/Src/stm32f1xx_hal_tim_ex.c ****       __HAL_TIM_ENABLE_IT(htim, TIM_IT_CC3);
 2021              		.loc 1 1000 0
 2022 0070 7B68     		ldr	r3, [r7, #4]
 2023 0072 1B68     		ldr	r3, [r3]
 2024 0074 DA68     		ldr	r2, [r3, #12]
 2025 0076 7B68     		ldr	r3, [r7, #4]
 2026 0078 1B68     		ldr	r3, [r3]
 2027 007a 42F00802 		orr	r2, r2, #8
 2028 007e DA60     		str	r2, [r3, #12]
1001:Drivers/STM32F1xx_HAL_Driver/Src/stm32f1xx_hal_tim_ex.c ****     }
1002:Drivers/STM32F1xx_HAL_Driver/Src/stm32f1xx_hal_tim_ex.c ****     break;
 2029              		.loc 1 1002 0
 2030 0080 09E0     		b	.L100
 2031              	.L99:
1003:Drivers/STM32F1xx_HAL_Driver/Src/stm32f1xx_hal_tim_ex.c **** 
1004:Drivers/STM32F1xx_HAL_Driver/Src/stm32f1xx_hal_tim_ex.c ****     case TIM_CHANNEL_4:
1005:Drivers/STM32F1xx_HAL_Driver/Src/stm32f1xx_hal_tim_ex.c ****     {
1006:Drivers/STM32F1xx_HAL_Driver/Src/stm32f1xx_hal_tim_ex.c ****       /* Enable the TIM Capture/Compare 4 interrupt */
1007:Drivers/STM32F1xx_HAL_Driver/Src/stm32f1xx_hal_tim_ex.c ****       __HAL_TIM_ENABLE_IT(htim, TIM_IT_CC4);
 2032              		.loc 1 1007 0
 2033 0082 7B68     		ldr	r3, [r7, #4]
 2034 0084 1B68     		ldr	r3, [r3]
 2035 0086 DA68     		ldr	r2, [r3, #12]
 2036 0088 7B68     		ldr	r3, [r7, #4]
 2037 008a 1B68     		ldr	r3, [r3]
 2038 008c 42F01002 		orr	r2, r2, #16
 2039 0090 DA60     		str	r2, [r3, #12]
1008:Drivers/STM32F1xx_HAL_Driver/Src/stm32f1xx_hal_tim_ex.c ****     }
1009:Drivers/STM32F1xx_HAL_Driver/Src/stm32f1xx_hal_tim_ex.c ****     break;
 2040              		.loc 1 1009 0
 2041 0092 00E0     		b	.L100
 2042              	.L102:
1010:Drivers/STM32F1xx_HAL_Driver/Src/stm32f1xx_hal_tim_ex.c **** 
1011:Drivers/STM32F1xx_HAL_Driver/Src/stm32f1xx_hal_tim_ex.c ****     default:
1012:Drivers/STM32F1xx_HAL_Driver/Src/stm32f1xx_hal_tim_ex.c ****     break;
 2043              		.loc 1 1012 0
 2044 0094 00BF     		nop
 2045              	.L100:
1013:Drivers/STM32F1xx_HAL_Driver/Src/stm32f1xx_hal_tim_ex.c ****   }
ARM GAS  /tmp/ccpgqo2Y.s 			page 54


1014:Drivers/STM32F1xx_HAL_Driver/Src/stm32f1xx_hal_tim_ex.c **** 
1015:Drivers/STM32F1xx_HAL_Driver/Src/stm32f1xx_hal_tim_ex.c ****   /* Enable the TIM Break interrupt */
1016:Drivers/STM32F1xx_HAL_Driver/Src/stm32f1xx_hal_tim_ex.c ****   __HAL_TIM_ENABLE_IT(htim, TIM_IT_BREAK);
 2046              		.loc 1 1016 0
 2047 0096 7B68     		ldr	r3, [r7, #4]
 2048 0098 1B68     		ldr	r3, [r3]
 2049 009a DA68     		ldr	r2, [r3, #12]
 2050 009c 7B68     		ldr	r3, [r7, #4]
 2051 009e 1B68     		ldr	r3, [r3]
 2052 00a0 42F08002 		orr	r2, r2, #128
 2053 00a4 DA60     		str	r2, [r3, #12]
1017:Drivers/STM32F1xx_HAL_Driver/Src/stm32f1xx_hal_tim_ex.c **** 
1018:Drivers/STM32F1xx_HAL_Driver/Src/stm32f1xx_hal_tim_ex.c ****   /* Enable the complementary PWM output  */
1019:Drivers/STM32F1xx_HAL_Driver/Src/stm32f1xx_hal_tim_ex.c ****   TIM_CCxNChannelCmd(htim->Instance, Channel, TIM_CCxN_ENABLE);
 2054              		.loc 1 1019 0
 2055 00a6 7B68     		ldr	r3, [r7, #4]
 2056 00a8 1B68     		ldr	r3, [r3]
 2057 00aa 0422     		movs	r2, #4
 2058 00ac 3968     		ldr	r1, [r7]
 2059 00ae 1846     		mov	r0, r3
 2060 00b0 FFF7FEFF 		bl	TIM_CCxNChannelCmd
1020:Drivers/STM32F1xx_HAL_Driver/Src/stm32f1xx_hal_tim_ex.c **** 
1021:Drivers/STM32F1xx_HAL_Driver/Src/stm32f1xx_hal_tim_ex.c ****   /* Enable the Main Ouput */
1022:Drivers/STM32F1xx_HAL_Driver/Src/stm32f1xx_hal_tim_ex.c ****   __HAL_TIM_MOE_ENABLE(htim);
 2061              		.loc 1 1022 0
 2062 00b4 7B68     		ldr	r3, [r7, #4]
 2063 00b6 1B68     		ldr	r3, [r3]
 2064 00b8 5A6C     		ldr	r2, [r3, #68]
 2065 00ba 7B68     		ldr	r3, [r7, #4]
 2066 00bc 1B68     		ldr	r3, [r3]
 2067 00be 42F40042 		orr	r2, r2, #32768
 2068 00c2 5A64     		str	r2, [r3, #68]
1023:Drivers/STM32F1xx_HAL_Driver/Src/stm32f1xx_hal_tim_ex.c **** 
1024:Drivers/STM32F1xx_HAL_Driver/Src/stm32f1xx_hal_tim_ex.c ****   /* Enable the Peripheral */
1025:Drivers/STM32F1xx_HAL_Driver/Src/stm32f1xx_hal_tim_ex.c ****   __HAL_TIM_ENABLE(htim);
 2069              		.loc 1 1025 0
 2070 00c4 7B68     		ldr	r3, [r7, #4]
 2071 00c6 1B68     		ldr	r3, [r3]
 2072 00c8 1A68     		ldr	r2, [r3]
 2073 00ca 7B68     		ldr	r3, [r7, #4]
 2074 00cc 1B68     		ldr	r3, [r3]
 2075 00ce 42F00102 		orr	r2, r2, #1
 2076 00d2 1A60     		str	r2, [r3]
1026:Drivers/STM32F1xx_HAL_Driver/Src/stm32f1xx_hal_tim_ex.c **** 
1027:Drivers/STM32F1xx_HAL_Driver/Src/stm32f1xx_hal_tim_ex.c ****   /* Return function status */
1028:Drivers/STM32F1xx_HAL_Driver/Src/stm32f1xx_hal_tim_ex.c ****   return HAL_OK;
 2077              		.loc 1 1028 0
 2078 00d4 0023     		movs	r3, #0
1029:Drivers/STM32F1xx_HAL_Driver/Src/stm32f1xx_hal_tim_ex.c **** }
 2079              		.loc 1 1029 0
 2080 00d6 1846     		mov	r0, r3
 2081 00d8 0837     		adds	r7, r7, #8
 2082              	.LCFI95:
 2083              		.cfi_def_cfa_offset 8
 2084 00da BD46     		mov	sp, r7
 2085              	.LCFI96:
 2086              		.cfi_def_cfa_register 13
ARM GAS  /tmp/ccpgqo2Y.s 			page 55


 2087              		@ sp needed
 2088 00dc 80BD     		pop	{r7, pc}
 2089              		.cfi_endproc
 2090              	.LFE84:
 2092 00de 00BF     		.section	.text.HAL_TIMEx_PWMN_Stop_IT,"ax",%progbits
 2093              		.align	1
 2094              		.global	HAL_TIMEx_PWMN_Stop_IT
 2095              		.syntax unified
 2096              		.thumb
 2097              		.thumb_func
 2098              		.fpu softvfp
 2100              	HAL_TIMEx_PWMN_Stop_IT:
 2101              	.LFB85:
1030:Drivers/STM32F1xx_HAL_Driver/Src/stm32f1xx_hal_tim_ex.c **** 
1031:Drivers/STM32F1xx_HAL_Driver/Src/stm32f1xx_hal_tim_ex.c **** /**
1032:Drivers/STM32F1xx_HAL_Driver/Src/stm32f1xx_hal_tim_ex.c ****   * @brief  Stops the PWM signal generation in interrupt mode on the
1033:Drivers/STM32F1xx_HAL_Driver/Src/stm32f1xx_hal_tim_ex.c ****   *         complementary output.
1034:Drivers/STM32F1xx_HAL_Driver/Src/stm32f1xx_hal_tim_ex.c ****   * @param  htim : TIM handle
1035:Drivers/STM32F1xx_HAL_Driver/Src/stm32f1xx_hal_tim_ex.c ****   * @param  Channel : TIM Channel to be disabled
1036:Drivers/STM32F1xx_HAL_Driver/Src/stm32f1xx_hal_tim_ex.c ****   *          This parameter can be one of the following values:
1037:Drivers/STM32F1xx_HAL_Driver/Src/stm32f1xx_hal_tim_ex.c ****   *            @arg TIM_CHANNEL_1: TIM Channel 1 selected
1038:Drivers/STM32F1xx_HAL_Driver/Src/stm32f1xx_hal_tim_ex.c ****   *            @arg TIM_CHANNEL_2: TIM Channel 2 selected
1039:Drivers/STM32F1xx_HAL_Driver/Src/stm32f1xx_hal_tim_ex.c ****   *            @arg TIM_CHANNEL_3: TIM Channel 3 selected
1040:Drivers/STM32F1xx_HAL_Driver/Src/stm32f1xx_hal_tim_ex.c ****   *            @arg TIM_CHANNEL_4: TIM Channel 4 selected
1041:Drivers/STM32F1xx_HAL_Driver/Src/stm32f1xx_hal_tim_ex.c ****   * @retval HAL status
1042:Drivers/STM32F1xx_HAL_Driver/Src/stm32f1xx_hal_tim_ex.c ****   */
1043:Drivers/STM32F1xx_HAL_Driver/Src/stm32f1xx_hal_tim_ex.c **** HAL_StatusTypeDef HAL_TIMEx_PWMN_Stop_IT (TIM_HandleTypeDef *htim, uint32_t Channel)
1044:Drivers/STM32F1xx_HAL_Driver/Src/stm32f1xx_hal_tim_ex.c **** {
 2102              		.loc 1 1044 0
 2103              		.cfi_startproc
 2104              		@ args = 0, pretend = 0, frame = 16
 2105              		@ frame_needed = 1, uses_anonymous_args = 0
 2106 0000 80B5     		push	{r7, lr}
 2107              	.LCFI97:
 2108              		.cfi_def_cfa_offset 8
 2109              		.cfi_offset 7, -8
 2110              		.cfi_offset 14, -4
 2111 0002 84B0     		sub	sp, sp, #16
 2112              	.LCFI98:
 2113              		.cfi_def_cfa_offset 24
 2114 0004 00AF     		add	r7, sp, #0
 2115              	.LCFI99:
 2116              		.cfi_def_cfa_register 7
 2117 0006 7860     		str	r0, [r7, #4]
 2118 0008 3960     		str	r1, [r7]
1045:Drivers/STM32F1xx_HAL_Driver/Src/stm32f1xx_hal_tim_ex.c ****   uint32_t tmpccer = 0U;
 2119              		.loc 1 1045 0
 2120 000a 0023     		movs	r3, #0
 2121 000c FB60     		str	r3, [r7, #12]
1046:Drivers/STM32F1xx_HAL_Driver/Src/stm32f1xx_hal_tim_ex.c **** 
1047:Drivers/STM32F1xx_HAL_Driver/Src/stm32f1xx_hal_tim_ex.c ****   /* Check the parameters */
1048:Drivers/STM32F1xx_HAL_Driver/Src/stm32f1xx_hal_tim_ex.c ****   assert_param(IS_TIM_CCXN_INSTANCE(htim->Instance, Channel));
1049:Drivers/STM32F1xx_HAL_Driver/Src/stm32f1xx_hal_tim_ex.c **** 
1050:Drivers/STM32F1xx_HAL_Driver/Src/stm32f1xx_hal_tim_ex.c ****   switch (Channel)
 2122              		.loc 1 1050 0
 2123 000e 3B68     		ldr	r3, [r7]
 2124 0010 0C2B     		cmp	r3, #12
ARM GAS  /tmp/ccpgqo2Y.s 			page 56


 2125 0012 41D8     		bhi	.L115
 2126 0014 01A2     		adr	r2, .L106
 2127 0016 52F823F0 		ldr	pc, [r2, r3, lsl #2]
 2128 001a 00BF     		.p2align 2
 2129              	.L106:
 2130 001c 51000000 		.word	.L105+1
 2131 0020 99000000 		.word	.L115+1
 2132 0024 99000000 		.word	.L115+1
 2133 0028 99000000 		.word	.L115+1
 2134 002c 63000000 		.word	.L107+1
 2135 0030 99000000 		.word	.L115+1
 2136 0034 99000000 		.word	.L115+1
 2137 0038 99000000 		.word	.L115+1
 2138 003c 75000000 		.word	.L108+1
 2139 0040 99000000 		.word	.L115+1
 2140 0044 99000000 		.word	.L115+1
 2141 0048 99000000 		.word	.L115+1
 2142 004c 87000000 		.word	.L109+1
 2143              		.p2align 1
 2144              	.L105:
1051:Drivers/STM32F1xx_HAL_Driver/Src/stm32f1xx_hal_tim_ex.c ****   {
1052:Drivers/STM32F1xx_HAL_Driver/Src/stm32f1xx_hal_tim_ex.c ****     case TIM_CHANNEL_1:
1053:Drivers/STM32F1xx_HAL_Driver/Src/stm32f1xx_hal_tim_ex.c ****     {
1054:Drivers/STM32F1xx_HAL_Driver/Src/stm32f1xx_hal_tim_ex.c ****       /* Disable the TIM Capture/Compare 1 interrupt */
1055:Drivers/STM32F1xx_HAL_Driver/Src/stm32f1xx_hal_tim_ex.c ****       __HAL_TIM_DISABLE_IT(htim, TIM_IT_CC1);
 2145              		.loc 1 1055 0
 2146 0050 7B68     		ldr	r3, [r7, #4]
 2147 0052 1B68     		ldr	r3, [r3]
 2148 0054 DA68     		ldr	r2, [r3, #12]
 2149 0056 7B68     		ldr	r3, [r7, #4]
 2150 0058 1B68     		ldr	r3, [r3]
 2151 005a 22F00202 		bic	r2, r2, #2
 2152 005e DA60     		str	r2, [r3, #12]
1056:Drivers/STM32F1xx_HAL_Driver/Src/stm32f1xx_hal_tim_ex.c ****     }
1057:Drivers/STM32F1xx_HAL_Driver/Src/stm32f1xx_hal_tim_ex.c ****     break;
 2153              		.loc 1 1057 0
 2154 0060 1BE0     		b	.L110
 2155              	.L107:
1058:Drivers/STM32F1xx_HAL_Driver/Src/stm32f1xx_hal_tim_ex.c **** 
1059:Drivers/STM32F1xx_HAL_Driver/Src/stm32f1xx_hal_tim_ex.c ****     case TIM_CHANNEL_2:
1060:Drivers/STM32F1xx_HAL_Driver/Src/stm32f1xx_hal_tim_ex.c ****     {
1061:Drivers/STM32F1xx_HAL_Driver/Src/stm32f1xx_hal_tim_ex.c ****       /* Disable the TIM Capture/Compare 2 interrupt */
1062:Drivers/STM32F1xx_HAL_Driver/Src/stm32f1xx_hal_tim_ex.c ****       __HAL_TIM_DISABLE_IT(htim, TIM_IT_CC2);
 2156              		.loc 1 1062 0
 2157 0062 7B68     		ldr	r3, [r7, #4]
 2158 0064 1B68     		ldr	r3, [r3]
 2159 0066 DA68     		ldr	r2, [r3, #12]
 2160 0068 7B68     		ldr	r3, [r7, #4]
 2161 006a 1B68     		ldr	r3, [r3]
 2162 006c 22F00402 		bic	r2, r2, #4
 2163 0070 DA60     		str	r2, [r3, #12]
1063:Drivers/STM32F1xx_HAL_Driver/Src/stm32f1xx_hal_tim_ex.c ****     }
1064:Drivers/STM32F1xx_HAL_Driver/Src/stm32f1xx_hal_tim_ex.c ****     break;
 2164              		.loc 1 1064 0
 2165 0072 12E0     		b	.L110
 2166              	.L108:
1065:Drivers/STM32F1xx_HAL_Driver/Src/stm32f1xx_hal_tim_ex.c **** 
ARM GAS  /tmp/ccpgqo2Y.s 			page 57


1066:Drivers/STM32F1xx_HAL_Driver/Src/stm32f1xx_hal_tim_ex.c ****     case TIM_CHANNEL_3:
1067:Drivers/STM32F1xx_HAL_Driver/Src/stm32f1xx_hal_tim_ex.c ****     {
1068:Drivers/STM32F1xx_HAL_Driver/Src/stm32f1xx_hal_tim_ex.c ****       /* Disable the TIM Capture/Compare 3 interrupt */
1069:Drivers/STM32F1xx_HAL_Driver/Src/stm32f1xx_hal_tim_ex.c ****       __HAL_TIM_DISABLE_IT(htim, TIM_IT_CC3);
 2167              		.loc 1 1069 0
 2168 0074 7B68     		ldr	r3, [r7, #4]
 2169 0076 1B68     		ldr	r3, [r3]
 2170 0078 DA68     		ldr	r2, [r3, #12]
 2171 007a 7B68     		ldr	r3, [r7, #4]
 2172 007c 1B68     		ldr	r3, [r3]
 2173 007e 22F00802 		bic	r2, r2, #8
 2174 0082 DA60     		str	r2, [r3, #12]
1070:Drivers/STM32F1xx_HAL_Driver/Src/stm32f1xx_hal_tim_ex.c ****     }
1071:Drivers/STM32F1xx_HAL_Driver/Src/stm32f1xx_hal_tim_ex.c ****     break;
 2175              		.loc 1 1071 0
 2176 0084 09E0     		b	.L110
 2177              	.L109:
1072:Drivers/STM32F1xx_HAL_Driver/Src/stm32f1xx_hal_tim_ex.c **** 
1073:Drivers/STM32F1xx_HAL_Driver/Src/stm32f1xx_hal_tim_ex.c ****     case TIM_CHANNEL_4:
1074:Drivers/STM32F1xx_HAL_Driver/Src/stm32f1xx_hal_tim_ex.c ****     {
1075:Drivers/STM32F1xx_HAL_Driver/Src/stm32f1xx_hal_tim_ex.c ****       /* Disable the TIM Capture/Compare 3 interrupt */
1076:Drivers/STM32F1xx_HAL_Driver/Src/stm32f1xx_hal_tim_ex.c ****       __HAL_TIM_DISABLE_IT(htim, TIM_IT_CC4);
 2178              		.loc 1 1076 0
 2179 0086 7B68     		ldr	r3, [r7, #4]
 2180 0088 1B68     		ldr	r3, [r3]
 2181 008a DA68     		ldr	r2, [r3, #12]
 2182 008c 7B68     		ldr	r3, [r7, #4]
 2183 008e 1B68     		ldr	r3, [r3]
 2184 0090 22F01002 		bic	r2, r2, #16
 2185 0094 DA60     		str	r2, [r3, #12]
1077:Drivers/STM32F1xx_HAL_Driver/Src/stm32f1xx_hal_tim_ex.c ****     }
1078:Drivers/STM32F1xx_HAL_Driver/Src/stm32f1xx_hal_tim_ex.c ****     break;
 2186              		.loc 1 1078 0
 2187 0096 00E0     		b	.L110
 2188              	.L115:
1079:Drivers/STM32F1xx_HAL_Driver/Src/stm32f1xx_hal_tim_ex.c **** 
1080:Drivers/STM32F1xx_HAL_Driver/Src/stm32f1xx_hal_tim_ex.c ****     default:
1081:Drivers/STM32F1xx_HAL_Driver/Src/stm32f1xx_hal_tim_ex.c ****     break;
 2189              		.loc 1 1081 0
 2190 0098 00BF     		nop
 2191              	.L110:
1082:Drivers/STM32F1xx_HAL_Driver/Src/stm32f1xx_hal_tim_ex.c ****   }
1083:Drivers/STM32F1xx_HAL_Driver/Src/stm32f1xx_hal_tim_ex.c **** 
1084:Drivers/STM32F1xx_HAL_Driver/Src/stm32f1xx_hal_tim_ex.c ****   /* Disable the complementary PWM output  */
1085:Drivers/STM32F1xx_HAL_Driver/Src/stm32f1xx_hal_tim_ex.c ****   TIM_CCxNChannelCmd(htim->Instance, Channel, TIM_CCxN_DISABLE);
 2192              		.loc 1 1085 0
 2193 009a 7B68     		ldr	r3, [r7, #4]
 2194 009c 1B68     		ldr	r3, [r3]
 2195 009e 0022     		movs	r2, #0
 2196 00a0 3968     		ldr	r1, [r7]
 2197 00a2 1846     		mov	r0, r3
 2198 00a4 FFF7FEFF 		bl	TIM_CCxNChannelCmd
1086:Drivers/STM32F1xx_HAL_Driver/Src/stm32f1xx_hal_tim_ex.c **** 
1087:Drivers/STM32F1xx_HAL_Driver/Src/stm32f1xx_hal_tim_ex.c ****   /* Disable the TIM Break interrupt (only if no more channel is active) */
1088:Drivers/STM32F1xx_HAL_Driver/Src/stm32f1xx_hal_tim_ex.c ****   tmpccer = htim->Instance->CCER;
 2199              		.loc 1 1088 0
 2200 00a8 7B68     		ldr	r3, [r7, #4]
ARM GAS  /tmp/ccpgqo2Y.s 			page 58


 2201 00aa 1B68     		ldr	r3, [r3]
 2202 00ac 1B6A     		ldr	r3, [r3, #32]
 2203 00ae FB60     		str	r3, [r7, #12]
1089:Drivers/STM32F1xx_HAL_Driver/Src/stm32f1xx_hal_tim_ex.c ****   if ((tmpccer & (TIM_CCER_CC1NE | TIM_CCER_CC2NE | TIM_CCER_CC3NE)) == RESET)
 2204              		.loc 1 1089 0
 2205 00b0 FA68     		ldr	r2, [r7, #12]
 2206 00b2 40F24443 		movw	r3, #1092
 2207 00b6 1340     		ands	r3, r3, r2
 2208 00b8 002B     		cmp	r3, #0
 2209 00ba 07D1     		bne	.L111
1090:Drivers/STM32F1xx_HAL_Driver/Src/stm32f1xx_hal_tim_ex.c ****   {
1091:Drivers/STM32F1xx_HAL_Driver/Src/stm32f1xx_hal_tim_ex.c ****     __HAL_TIM_DISABLE_IT(htim, TIM_IT_BREAK);
 2210              		.loc 1 1091 0
 2211 00bc 7B68     		ldr	r3, [r7, #4]
 2212 00be 1B68     		ldr	r3, [r3]
 2213 00c0 DA68     		ldr	r2, [r3, #12]
 2214 00c2 7B68     		ldr	r3, [r7, #4]
 2215 00c4 1B68     		ldr	r3, [r3]
 2216 00c6 22F08002 		bic	r2, r2, #128
 2217 00ca DA60     		str	r2, [r3, #12]
 2218              	.L111:
1092:Drivers/STM32F1xx_HAL_Driver/Src/stm32f1xx_hal_tim_ex.c ****   }
1093:Drivers/STM32F1xx_HAL_Driver/Src/stm32f1xx_hal_tim_ex.c **** 
1094:Drivers/STM32F1xx_HAL_Driver/Src/stm32f1xx_hal_tim_ex.c ****   /* Disable the Main Ouput */
1095:Drivers/STM32F1xx_HAL_Driver/Src/stm32f1xx_hal_tim_ex.c ****   __HAL_TIM_MOE_DISABLE(htim);
 2219              		.loc 1 1095 0
 2220 00cc 7B68     		ldr	r3, [r7, #4]
 2221 00ce 1B68     		ldr	r3, [r3]
 2222 00d0 1A6A     		ldr	r2, [r3, #32]
 2223 00d2 41F21113 		movw	r3, #4369
 2224 00d6 1340     		ands	r3, r3, r2
 2225 00d8 002B     		cmp	r3, #0
 2226 00da 0FD1     		bne	.L112
 2227              		.loc 1 1095 0 is_stmt 0 discriminator 1
 2228 00dc 7B68     		ldr	r3, [r7, #4]
 2229 00de 1B68     		ldr	r3, [r3]
 2230 00e0 1A6A     		ldr	r2, [r3, #32]
 2231 00e2 40F24443 		movw	r3, #1092
 2232 00e6 1340     		ands	r3, r3, r2
 2233 00e8 002B     		cmp	r3, #0
 2234 00ea 07D1     		bne	.L112
 2235              		.loc 1 1095 0 discriminator 2
 2236 00ec 7B68     		ldr	r3, [r7, #4]
 2237 00ee 1B68     		ldr	r3, [r3]
 2238 00f0 5A6C     		ldr	r2, [r3, #68]
 2239 00f2 7B68     		ldr	r3, [r7, #4]
 2240 00f4 1B68     		ldr	r3, [r3]
 2241 00f6 22F40042 		bic	r2, r2, #32768
 2242 00fa 5A64     		str	r2, [r3, #68]
 2243              	.L112:
1096:Drivers/STM32F1xx_HAL_Driver/Src/stm32f1xx_hal_tim_ex.c **** 
1097:Drivers/STM32F1xx_HAL_Driver/Src/stm32f1xx_hal_tim_ex.c ****   /* Disable the Peripheral */
1098:Drivers/STM32F1xx_HAL_Driver/Src/stm32f1xx_hal_tim_ex.c ****   __HAL_TIM_DISABLE(htim);
 2244              		.loc 1 1098 0 is_stmt 1
 2245 00fc 7B68     		ldr	r3, [r7, #4]
 2246 00fe 1B68     		ldr	r3, [r3]
 2247 0100 1A6A     		ldr	r2, [r3, #32]
ARM GAS  /tmp/ccpgqo2Y.s 			page 59


 2248 0102 41F21113 		movw	r3, #4369
 2249 0106 1340     		ands	r3, r3, r2
 2250 0108 002B     		cmp	r3, #0
 2251 010a 0FD1     		bne	.L113
 2252              		.loc 1 1098 0 is_stmt 0 discriminator 1
 2253 010c 7B68     		ldr	r3, [r7, #4]
 2254 010e 1B68     		ldr	r3, [r3]
 2255 0110 1A6A     		ldr	r2, [r3, #32]
 2256 0112 40F24443 		movw	r3, #1092
 2257 0116 1340     		ands	r3, r3, r2
 2258 0118 002B     		cmp	r3, #0
 2259 011a 07D1     		bne	.L113
 2260              		.loc 1 1098 0 discriminator 2
 2261 011c 7B68     		ldr	r3, [r7, #4]
 2262 011e 1B68     		ldr	r3, [r3]
 2263 0120 1A68     		ldr	r2, [r3]
 2264 0122 7B68     		ldr	r3, [r7, #4]
 2265 0124 1B68     		ldr	r3, [r3]
 2266 0126 22F00102 		bic	r2, r2, #1
 2267 012a 1A60     		str	r2, [r3]
 2268              	.L113:
1099:Drivers/STM32F1xx_HAL_Driver/Src/stm32f1xx_hal_tim_ex.c **** 
1100:Drivers/STM32F1xx_HAL_Driver/Src/stm32f1xx_hal_tim_ex.c ****   /* Return function status */
1101:Drivers/STM32F1xx_HAL_Driver/Src/stm32f1xx_hal_tim_ex.c ****   return HAL_OK;
 2269              		.loc 1 1101 0 is_stmt 1
 2270 012c 0023     		movs	r3, #0
1102:Drivers/STM32F1xx_HAL_Driver/Src/stm32f1xx_hal_tim_ex.c **** }
 2271              		.loc 1 1102 0
 2272 012e 1846     		mov	r0, r3
 2273 0130 1037     		adds	r7, r7, #16
 2274              	.LCFI100:
 2275              		.cfi_def_cfa_offset 8
 2276 0132 BD46     		mov	sp, r7
 2277              	.LCFI101:
 2278              		.cfi_def_cfa_register 13
 2279              		@ sp needed
 2280 0134 80BD     		pop	{r7, pc}
 2281              		.cfi_endproc
 2282              	.LFE85:
 2284              		.section	.text.HAL_TIMEx_PWMN_Start_DMA,"ax",%progbits
 2285              		.align	1
 2286              		.global	HAL_TIMEx_PWMN_Start_DMA
 2287              		.syntax unified
 2288              		.thumb
 2289              		.thumb_func
 2290              		.fpu softvfp
 2292              	HAL_TIMEx_PWMN_Start_DMA:
 2293              	.LFB86:
1103:Drivers/STM32F1xx_HAL_Driver/Src/stm32f1xx_hal_tim_ex.c **** 
1104:Drivers/STM32F1xx_HAL_Driver/Src/stm32f1xx_hal_tim_ex.c **** /**
1105:Drivers/STM32F1xx_HAL_Driver/Src/stm32f1xx_hal_tim_ex.c ****   * @brief  Starts the TIM PWM signal generation in DMA mode on the
1106:Drivers/STM32F1xx_HAL_Driver/Src/stm32f1xx_hal_tim_ex.c ****   *         complementary output
1107:Drivers/STM32F1xx_HAL_Driver/Src/stm32f1xx_hal_tim_ex.c ****   * @param  htim : TIM handle
1108:Drivers/STM32F1xx_HAL_Driver/Src/stm32f1xx_hal_tim_ex.c ****   * @param  Channel : TIM Channel to be enabled
1109:Drivers/STM32F1xx_HAL_Driver/Src/stm32f1xx_hal_tim_ex.c ****   *          This parameter can be one of the following values:
1110:Drivers/STM32F1xx_HAL_Driver/Src/stm32f1xx_hal_tim_ex.c ****   *            @arg TIM_CHANNEL_1: TIM Channel 1 selected
1111:Drivers/STM32F1xx_HAL_Driver/Src/stm32f1xx_hal_tim_ex.c ****   *            @arg TIM_CHANNEL_2: TIM Channel 2 selected
ARM GAS  /tmp/ccpgqo2Y.s 			page 60


1112:Drivers/STM32F1xx_HAL_Driver/Src/stm32f1xx_hal_tim_ex.c ****   *            @arg TIM_CHANNEL_3: TIM Channel 3 selected
1113:Drivers/STM32F1xx_HAL_Driver/Src/stm32f1xx_hal_tim_ex.c ****   *            @arg TIM_CHANNEL_4: TIM Channel 4 selected
1114:Drivers/STM32F1xx_HAL_Driver/Src/stm32f1xx_hal_tim_ex.c ****   * @param  pData : The source Buffer address.
1115:Drivers/STM32F1xx_HAL_Driver/Src/stm32f1xx_hal_tim_ex.c ****   * @param  Length : The length of data to be transferred from memory to TIM peripheral
1116:Drivers/STM32F1xx_HAL_Driver/Src/stm32f1xx_hal_tim_ex.c ****   * @retval HAL status
1117:Drivers/STM32F1xx_HAL_Driver/Src/stm32f1xx_hal_tim_ex.c ****   */
1118:Drivers/STM32F1xx_HAL_Driver/Src/stm32f1xx_hal_tim_ex.c **** HAL_StatusTypeDef HAL_TIMEx_PWMN_Start_DMA(TIM_HandleTypeDef *htim, uint32_t Channel, uint32_t *pDa
1119:Drivers/STM32F1xx_HAL_Driver/Src/stm32f1xx_hal_tim_ex.c **** {
 2294              		.loc 1 1119 0
 2295              		.cfi_startproc
 2296              		@ args = 0, pretend = 0, frame = 16
 2297              		@ frame_needed = 1, uses_anonymous_args = 0
 2298 0000 80B5     		push	{r7, lr}
 2299              	.LCFI102:
 2300              		.cfi_def_cfa_offset 8
 2301              		.cfi_offset 7, -8
 2302              		.cfi_offset 14, -4
 2303 0002 84B0     		sub	sp, sp, #16
 2304              	.LCFI103:
 2305              		.cfi_def_cfa_offset 24
 2306 0004 00AF     		add	r7, sp, #0
 2307              	.LCFI104:
 2308              		.cfi_def_cfa_register 7
 2309 0006 F860     		str	r0, [r7, #12]
 2310 0008 B960     		str	r1, [r7, #8]
 2311 000a 7A60     		str	r2, [r7, #4]
 2312 000c 7B80     		strh	r3, [r7, #2]	@ movhi
1120:Drivers/STM32F1xx_HAL_Driver/Src/stm32f1xx_hal_tim_ex.c ****   /* Check the parameters */
1121:Drivers/STM32F1xx_HAL_Driver/Src/stm32f1xx_hal_tim_ex.c ****   assert_param(IS_TIM_CCXN_INSTANCE(htim->Instance, Channel));
1122:Drivers/STM32F1xx_HAL_Driver/Src/stm32f1xx_hal_tim_ex.c **** 
1123:Drivers/STM32F1xx_HAL_Driver/Src/stm32f1xx_hal_tim_ex.c ****   if((htim->State == HAL_TIM_STATE_BUSY))
 2313              		.loc 1 1123 0
 2314 000e FB68     		ldr	r3, [r7, #12]
 2315 0010 93F83D30 		ldrb	r3, [r3, #61]
 2316 0014 DBB2     		uxtb	r3, r3
 2317 0016 022B     		cmp	r3, #2
 2318 0018 01D1     		bne	.L117
1124:Drivers/STM32F1xx_HAL_Driver/Src/stm32f1xx_hal_tim_ex.c ****   {
1125:Drivers/STM32F1xx_HAL_Driver/Src/stm32f1xx_hal_tim_ex.c ****      return HAL_BUSY;
 2319              		.loc 1 1125 0
 2320 001a 0223     		movs	r3, #2
 2321 001c B7E0     		b	.L118
 2322              	.L117:
1126:Drivers/STM32F1xx_HAL_Driver/Src/stm32f1xx_hal_tim_ex.c ****   }
1127:Drivers/STM32F1xx_HAL_Driver/Src/stm32f1xx_hal_tim_ex.c ****   else if((htim->State == HAL_TIM_STATE_READY))
 2323              		.loc 1 1127 0
 2324 001e FB68     		ldr	r3, [r7, #12]
 2325 0020 93F83D30 		ldrb	r3, [r3, #61]
 2326 0024 DBB2     		uxtb	r3, r3
 2327 0026 012B     		cmp	r3, #1
 2328 0028 0BD1     		bne	.L119
1128:Drivers/STM32F1xx_HAL_Driver/Src/stm32f1xx_hal_tim_ex.c ****   {
1129:Drivers/STM32F1xx_HAL_Driver/Src/stm32f1xx_hal_tim_ex.c ****     if(((uint32_t)pData == 0U) && (Length > 0U))
 2329              		.loc 1 1129 0
 2330 002a 7B68     		ldr	r3, [r7, #4]
 2331 002c 002B     		cmp	r3, #0
 2332 002e 04D1     		bne	.L120
ARM GAS  /tmp/ccpgqo2Y.s 			page 61


 2333              		.loc 1 1129 0 is_stmt 0 discriminator 1
 2334 0030 7B88     		ldrh	r3, [r7, #2]
 2335 0032 002B     		cmp	r3, #0
 2336 0034 01D0     		beq	.L120
1130:Drivers/STM32F1xx_HAL_Driver/Src/stm32f1xx_hal_tim_ex.c ****     {
1131:Drivers/STM32F1xx_HAL_Driver/Src/stm32f1xx_hal_tim_ex.c ****       return HAL_ERROR;
 2337              		.loc 1 1131 0 is_stmt 1
 2338 0036 0123     		movs	r3, #1
 2339 0038 A9E0     		b	.L118
 2340              	.L120:
1132:Drivers/STM32F1xx_HAL_Driver/Src/stm32f1xx_hal_tim_ex.c ****     }
1133:Drivers/STM32F1xx_HAL_Driver/Src/stm32f1xx_hal_tim_ex.c ****     else
1134:Drivers/STM32F1xx_HAL_Driver/Src/stm32f1xx_hal_tim_ex.c ****     {
1135:Drivers/STM32F1xx_HAL_Driver/Src/stm32f1xx_hal_tim_ex.c ****       htim->State = HAL_TIM_STATE_BUSY;
 2341              		.loc 1 1135 0
 2342 003a FB68     		ldr	r3, [r7, #12]
 2343 003c 0222     		movs	r2, #2
 2344 003e 83F83D20 		strb	r2, [r3, #61]
 2345              	.L119:
1136:Drivers/STM32F1xx_HAL_Driver/Src/stm32f1xx_hal_tim_ex.c ****     }
1137:Drivers/STM32F1xx_HAL_Driver/Src/stm32f1xx_hal_tim_ex.c ****   }
1138:Drivers/STM32F1xx_HAL_Driver/Src/stm32f1xx_hal_tim_ex.c ****   switch (Channel)
 2346              		.loc 1 1138 0
 2347 0042 BB68     		ldr	r3, [r7, #8]
 2348 0044 0C2B     		cmp	r3, #12
 2349 0046 00F28980 		bhi	.L128
 2350 004a 01A2     		adr	r2, .L123
 2351 004c 52F823F0 		ldr	pc, [r2, r3, lsl #2]
 2352              		.p2align 2
 2353              	.L123:
 2354 0050 85000000 		.word	.L122+1
 2355 0054 5D010000 		.word	.L128+1
 2356 0058 5D010000 		.word	.L128+1
 2357 005c 5D010000 		.word	.L128+1
 2358 0060 BB000000 		.word	.L124+1
 2359 0064 5D010000 		.word	.L128+1
 2360 0068 5D010000 		.word	.L128+1
 2361 006c 5D010000 		.word	.L128+1
 2362 0070 F1000000 		.word	.L125+1
 2363 0074 5D010000 		.word	.L128+1
 2364 0078 5D010000 		.word	.L128+1
 2365 007c 5D010000 		.word	.L128+1
 2366 0080 27010000 		.word	.L126+1
 2367              		.p2align 1
 2368              	.L122:
1139:Drivers/STM32F1xx_HAL_Driver/Src/stm32f1xx_hal_tim_ex.c ****   {
1140:Drivers/STM32F1xx_HAL_Driver/Src/stm32f1xx_hal_tim_ex.c ****     case TIM_CHANNEL_1:
1141:Drivers/STM32F1xx_HAL_Driver/Src/stm32f1xx_hal_tim_ex.c ****     {
1142:Drivers/STM32F1xx_HAL_Driver/Src/stm32f1xx_hal_tim_ex.c ****       /* Set the DMA Period elapsed callback */
1143:Drivers/STM32F1xx_HAL_Driver/Src/stm32f1xx_hal_tim_ex.c ****       htim->hdma[TIM_DMA_ID_CC1]->XferCpltCallback = TIM_DMADelayPulseCplt;
 2369              		.loc 1 1143 0
 2370 0084 FB68     		ldr	r3, [r7, #12]
 2371 0086 5B6A     		ldr	r3, [r3, #36]
 2372 0088 434A     		ldr	r2, .L129
 2373 008a 9A62     		str	r2, [r3, #40]
1144:Drivers/STM32F1xx_HAL_Driver/Src/stm32f1xx_hal_tim_ex.c **** 
1145:Drivers/STM32F1xx_HAL_Driver/Src/stm32f1xx_hal_tim_ex.c ****       /* Set the DMA error callback */
ARM GAS  /tmp/ccpgqo2Y.s 			page 62


1146:Drivers/STM32F1xx_HAL_Driver/Src/stm32f1xx_hal_tim_ex.c ****       htim->hdma[TIM_DMA_ID_CC1]->XferErrorCallback = TIM_DMAError ;
 2374              		.loc 1 1146 0
 2375 008c FB68     		ldr	r3, [r7, #12]
 2376 008e 5B6A     		ldr	r3, [r3, #36]
 2377 0090 424A     		ldr	r2, .L129+4
 2378 0092 1A63     		str	r2, [r3, #48]
1147:Drivers/STM32F1xx_HAL_Driver/Src/stm32f1xx_hal_tim_ex.c **** 
1148:Drivers/STM32F1xx_HAL_Driver/Src/stm32f1xx_hal_tim_ex.c ****       /* Enable the DMA channel */
1149:Drivers/STM32F1xx_HAL_Driver/Src/stm32f1xx_hal_tim_ex.c ****       HAL_DMA_Start_IT(htim->hdma[TIM_DMA_ID_CC1], (uint32_t)pData, (uint32_t)&htim->Instance->CCR1
 2379              		.loc 1 1149 0
 2380 0094 FB68     		ldr	r3, [r7, #12]
 2381 0096 586A     		ldr	r0, [r3, #36]
 2382 0098 7968     		ldr	r1, [r7, #4]
 2383 009a FB68     		ldr	r3, [r7, #12]
 2384 009c 1B68     		ldr	r3, [r3]
 2385 009e 3433     		adds	r3, r3, #52
 2386 00a0 1A46     		mov	r2, r3
 2387 00a2 7B88     		ldrh	r3, [r7, #2]
 2388 00a4 FFF7FEFF 		bl	HAL_DMA_Start_IT
1150:Drivers/STM32F1xx_HAL_Driver/Src/stm32f1xx_hal_tim_ex.c **** 
1151:Drivers/STM32F1xx_HAL_Driver/Src/stm32f1xx_hal_tim_ex.c ****       /* Enable the TIM Capture/Compare 1 DMA request */
1152:Drivers/STM32F1xx_HAL_Driver/Src/stm32f1xx_hal_tim_ex.c ****       __HAL_TIM_ENABLE_DMA(htim, TIM_DMA_CC1);
 2389              		.loc 1 1152 0
 2390 00a8 FB68     		ldr	r3, [r7, #12]
 2391 00aa 1B68     		ldr	r3, [r3]
 2392 00ac DA68     		ldr	r2, [r3, #12]
 2393 00ae FB68     		ldr	r3, [r7, #12]
 2394 00b0 1B68     		ldr	r3, [r3]
 2395 00b2 42F40072 		orr	r2, r2, #512
 2396 00b6 DA60     		str	r2, [r3, #12]
1153:Drivers/STM32F1xx_HAL_Driver/Src/stm32f1xx_hal_tim_ex.c ****     }
1154:Drivers/STM32F1xx_HAL_Driver/Src/stm32f1xx_hal_tim_ex.c ****     break;
 2397              		.loc 1 1154 0
 2398 00b8 51E0     		b	.L127
 2399              	.L124:
1155:Drivers/STM32F1xx_HAL_Driver/Src/stm32f1xx_hal_tim_ex.c **** 
1156:Drivers/STM32F1xx_HAL_Driver/Src/stm32f1xx_hal_tim_ex.c ****     case TIM_CHANNEL_2:
1157:Drivers/STM32F1xx_HAL_Driver/Src/stm32f1xx_hal_tim_ex.c ****     {
1158:Drivers/STM32F1xx_HAL_Driver/Src/stm32f1xx_hal_tim_ex.c ****       /* Set the DMA Period elapsed callback */
1159:Drivers/STM32F1xx_HAL_Driver/Src/stm32f1xx_hal_tim_ex.c ****       htim->hdma[TIM_DMA_ID_CC2]->XferCpltCallback = TIM_DMADelayPulseCplt;
 2400              		.loc 1 1159 0
 2401 00ba FB68     		ldr	r3, [r7, #12]
 2402 00bc 9B6A     		ldr	r3, [r3, #40]
 2403 00be 364A     		ldr	r2, .L129
 2404 00c0 9A62     		str	r2, [r3, #40]
1160:Drivers/STM32F1xx_HAL_Driver/Src/stm32f1xx_hal_tim_ex.c **** 
1161:Drivers/STM32F1xx_HAL_Driver/Src/stm32f1xx_hal_tim_ex.c ****       /* Set the DMA error callback */
1162:Drivers/STM32F1xx_HAL_Driver/Src/stm32f1xx_hal_tim_ex.c ****       htim->hdma[TIM_DMA_ID_CC2]->XferErrorCallback = TIM_DMAError ;
 2405              		.loc 1 1162 0
 2406 00c2 FB68     		ldr	r3, [r7, #12]
 2407 00c4 9B6A     		ldr	r3, [r3, #40]
 2408 00c6 354A     		ldr	r2, .L129+4
 2409 00c8 1A63     		str	r2, [r3, #48]
1163:Drivers/STM32F1xx_HAL_Driver/Src/stm32f1xx_hal_tim_ex.c **** 
1164:Drivers/STM32F1xx_HAL_Driver/Src/stm32f1xx_hal_tim_ex.c ****       /* Enable the DMA channel */
1165:Drivers/STM32F1xx_HAL_Driver/Src/stm32f1xx_hal_tim_ex.c ****       HAL_DMA_Start_IT(htim->hdma[TIM_DMA_ID_CC2], (uint32_t)pData, (uint32_t)&htim->Instance->CCR2
 2410              		.loc 1 1165 0
ARM GAS  /tmp/ccpgqo2Y.s 			page 63


 2411 00ca FB68     		ldr	r3, [r7, #12]
 2412 00cc 986A     		ldr	r0, [r3, #40]
 2413 00ce 7968     		ldr	r1, [r7, #4]
 2414 00d0 FB68     		ldr	r3, [r7, #12]
 2415 00d2 1B68     		ldr	r3, [r3]
 2416 00d4 3833     		adds	r3, r3, #56
 2417 00d6 1A46     		mov	r2, r3
 2418 00d8 7B88     		ldrh	r3, [r7, #2]
 2419 00da FFF7FEFF 		bl	HAL_DMA_Start_IT
1166:Drivers/STM32F1xx_HAL_Driver/Src/stm32f1xx_hal_tim_ex.c **** 
1167:Drivers/STM32F1xx_HAL_Driver/Src/stm32f1xx_hal_tim_ex.c ****       /* Enable the TIM Capture/Compare 2 DMA request */
1168:Drivers/STM32F1xx_HAL_Driver/Src/stm32f1xx_hal_tim_ex.c ****       __HAL_TIM_ENABLE_DMA(htim, TIM_DMA_CC2);
 2420              		.loc 1 1168 0
 2421 00de FB68     		ldr	r3, [r7, #12]
 2422 00e0 1B68     		ldr	r3, [r3]
 2423 00e2 DA68     		ldr	r2, [r3, #12]
 2424 00e4 FB68     		ldr	r3, [r7, #12]
 2425 00e6 1B68     		ldr	r3, [r3]
 2426 00e8 42F48062 		orr	r2, r2, #1024
 2427 00ec DA60     		str	r2, [r3, #12]
1169:Drivers/STM32F1xx_HAL_Driver/Src/stm32f1xx_hal_tim_ex.c ****     }
1170:Drivers/STM32F1xx_HAL_Driver/Src/stm32f1xx_hal_tim_ex.c ****     break;
 2428              		.loc 1 1170 0
 2429 00ee 36E0     		b	.L127
 2430              	.L125:
1171:Drivers/STM32F1xx_HAL_Driver/Src/stm32f1xx_hal_tim_ex.c **** 
1172:Drivers/STM32F1xx_HAL_Driver/Src/stm32f1xx_hal_tim_ex.c ****     case TIM_CHANNEL_3:
1173:Drivers/STM32F1xx_HAL_Driver/Src/stm32f1xx_hal_tim_ex.c ****     {
1174:Drivers/STM32F1xx_HAL_Driver/Src/stm32f1xx_hal_tim_ex.c ****       /* Set the DMA Period elapsed callback */
1175:Drivers/STM32F1xx_HAL_Driver/Src/stm32f1xx_hal_tim_ex.c ****       htim->hdma[TIM_DMA_ID_CC3]->XferCpltCallback = TIM_DMADelayPulseCplt;
 2431              		.loc 1 1175 0
 2432 00f0 FB68     		ldr	r3, [r7, #12]
 2433 00f2 DB6A     		ldr	r3, [r3, #44]
 2434 00f4 284A     		ldr	r2, .L129
 2435 00f6 9A62     		str	r2, [r3, #40]
1176:Drivers/STM32F1xx_HAL_Driver/Src/stm32f1xx_hal_tim_ex.c **** 
1177:Drivers/STM32F1xx_HAL_Driver/Src/stm32f1xx_hal_tim_ex.c ****       /* Set the DMA error callback */
1178:Drivers/STM32F1xx_HAL_Driver/Src/stm32f1xx_hal_tim_ex.c ****       htim->hdma[TIM_DMA_ID_CC3]->XferErrorCallback = TIM_DMAError ;
 2436              		.loc 1 1178 0
 2437 00f8 FB68     		ldr	r3, [r7, #12]
 2438 00fa DB6A     		ldr	r3, [r3, #44]
 2439 00fc 274A     		ldr	r2, .L129+4
 2440 00fe 1A63     		str	r2, [r3, #48]
1179:Drivers/STM32F1xx_HAL_Driver/Src/stm32f1xx_hal_tim_ex.c **** 
1180:Drivers/STM32F1xx_HAL_Driver/Src/stm32f1xx_hal_tim_ex.c ****       /* Enable the DMA channel */
1181:Drivers/STM32F1xx_HAL_Driver/Src/stm32f1xx_hal_tim_ex.c ****       HAL_DMA_Start_IT(htim->hdma[TIM_DMA_ID_CC3], (uint32_t)pData, (uint32_t)&htim->Instance->CCR3
 2441              		.loc 1 1181 0
 2442 0100 FB68     		ldr	r3, [r7, #12]
 2443 0102 D86A     		ldr	r0, [r3, #44]
 2444 0104 7968     		ldr	r1, [r7, #4]
 2445 0106 FB68     		ldr	r3, [r7, #12]
 2446 0108 1B68     		ldr	r3, [r3]
 2447 010a 3C33     		adds	r3, r3, #60
 2448 010c 1A46     		mov	r2, r3
 2449 010e 7B88     		ldrh	r3, [r7, #2]
 2450 0110 FFF7FEFF 		bl	HAL_DMA_Start_IT
1182:Drivers/STM32F1xx_HAL_Driver/Src/stm32f1xx_hal_tim_ex.c **** 
ARM GAS  /tmp/ccpgqo2Y.s 			page 64


1183:Drivers/STM32F1xx_HAL_Driver/Src/stm32f1xx_hal_tim_ex.c ****       /* Enable the TIM Capture/Compare 3 DMA request */
1184:Drivers/STM32F1xx_HAL_Driver/Src/stm32f1xx_hal_tim_ex.c ****       __HAL_TIM_ENABLE_DMA(htim, TIM_DMA_CC3);
 2451              		.loc 1 1184 0
 2452 0114 FB68     		ldr	r3, [r7, #12]
 2453 0116 1B68     		ldr	r3, [r3]
 2454 0118 DA68     		ldr	r2, [r3, #12]
 2455 011a FB68     		ldr	r3, [r7, #12]
 2456 011c 1B68     		ldr	r3, [r3]
 2457 011e 42F40062 		orr	r2, r2, #2048
 2458 0122 DA60     		str	r2, [r3, #12]
1185:Drivers/STM32F1xx_HAL_Driver/Src/stm32f1xx_hal_tim_ex.c ****     }
1186:Drivers/STM32F1xx_HAL_Driver/Src/stm32f1xx_hal_tim_ex.c ****     break;
 2459              		.loc 1 1186 0
 2460 0124 1BE0     		b	.L127
 2461              	.L126:
1187:Drivers/STM32F1xx_HAL_Driver/Src/stm32f1xx_hal_tim_ex.c **** 
1188:Drivers/STM32F1xx_HAL_Driver/Src/stm32f1xx_hal_tim_ex.c ****     case TIM_CHANNEL_4:
1189:Drivers/STM32F1xx_HAL_Driver/Src/stm32f1xx_hal_tim_ex.c ****     {
1190:Drivers/STM32F1xx_HAL_Driver/Src/stm32f1xx_hal_tim_ex.c ****      /* Set the DMA Period elapsed callback */
1191:Drivers/STM32F1xx_HAL_Driver/Src/stm32f1xx_hal_tim_ex.c ****       htim->hdma[TIM_DMA_ID_CC4]->XferCpltCallback = TIM_DMADelayPulseCplt;
 2462              		.loc 1 1191 0
 2463 0126 FB68     		ldr	r3, [r7, #12]
 2464 0128 1B6B     		ldr	r3, [r3, #48]
 2465 012a 1B4A     		ldr	r2, .L129
 2466 012c 9A62     		str	r2, [r3, #40]
1192:Drivers/STM32F1xx_HAL_Driver/Src/stm32f1xx_hal_tim_ex.c **** 
1193:Drivers/STM32F1xx_HAL_Driver/Src/stm32f1xx_hal_tim_ex.c ****       /* Set the DMA error callback */
1194:Drivers/STM32F1xx_HAL_Driver/Src/stm32f1xx_hal_tim_ex.c ****       htim->hdma[TIM_DMA_ID_CC4]->XferErrorCallback = TIM_DMAError ;
 2467              		.loc 1 1194 0
 2468 012e FB68     		ldr	r3, [r7, #12]
 2469 0130 1B6B     		ldr	r3, [r3, #48]
 2470 0132 1A4A     		ldr	r2, .L129+4
 2471 0134 1A63     		str	r2, [r3, #48]
1195:Drivers/STM32F1xx_HAL_Driver/Src/stm32f1xx_hal_tim_ex.c **** 
1196:Drivers/STM32F1xx_HAL_Driver/Src/stm32f1xx_hal_tim_ex.c ****       /* Enable the DMA channel */
1197:Drivers/STM32F1xx_HAL_Driver/Src/stm32f1xx_hal_tim_ex.c ****       HAL_DMA_Start_IT(htim->hdma[TIM_DMA_ID_CC4], (uint32_t)pData, (uint32_t)&htim->Instance->CCR4
 2472              		.loc 1 1197 0
 2473 0136 FB68     		ldr	r3, [r7, #12]
 2474 0138 186B     		ldr	r0, [r3, #48]
 2475 013a 7968     		ldr	r1, [r7, #4]
 2476 013c FB68     		ldr	r3, [r7, #12]
 2477 013e 1B68     		ldr	r3, [r3]
 2478 0140 4033     		adds	r3, r3, #64
 2479 0142 1A46     		mov	r2, r3
 2480 0144 7B88     		ldrh	r3, [r7, #2]
 2481 0146 FFF7FEFF 		bl	HAL_DMA_Start_IT
1198:Drivers/STM32F1xx_HAL_Driver/Src/stm32f1xx_hal_tim_ex.c **** 
1199:Drivers/STM32F1xx_HAL_Driver/Src/stm32f1xx_hal_tim_ex.c ****       /* Enable the TIM Capture/Compare 4 DMA request */
1200:Drivers/STM32F1xx_HAL_Driver/Src/stm32f1xx_hal_tim_ex.c ****       __HAL_TIM_ENABLE_DMA(htim, TIM_DMA_CC4);
 2482              		.loc 1 1200 0
 2483 014a FB68     		ldr	r3, [r7, #12]
 2484 014c 1B68     		ldr	r3, [r3]
 2485 014e DA68     		ldr	r2, [r3, #12]
 2486 0150 FB68     		ldr	r3, [r7, #12]
 2487 0152 1B68     		ldr	r3, [r3]
 2488 0154 42F48052 		orr	r2, r2, #4096
 2489 0158 DA60     		str	r2, [r3, #12]
ARM GAS  /tmp/ccpgqo2Y.s 			page 65


1201:Drivers/STM32F1xx_HAL_Driver/Src/stm32f1xx_hal_tim_ex.c ****     }
1202:Drivers/STM32F1xx_HAL_Driver/Src/stm32f1xx_hal_tim_ex.c ****     break;
 2490              		.loc 1 1202 0
 2491 015a 00E0     		b	.L127
 2492              	.L128:
1203:Drivers/STM32F1xx_HAL_Driver/Src/stm32f1xx_hal_tim_ex.c **** 
1204:Drivers/STM32F1xx_HAL_Driver/Src/stm32f1xx_hal_tim_ex.c ****     default:
1205:Drivers/STM32F1xx_HAL_Driver/Src/stm32f1xx_hal_tim_ex.c ****     break;
 2493              		.loc 1 1205 0
 2494 015c 00BF     		nop
 2495              	.L127:
1206:Drivers/STM32F1xx_HAL_Driver/Src/stm32f1xx_hal_tim_ex.c ****   }
1207:Drivers/STM32F1xx_HAL_Driver/Src/stm32f1xx_hal_tim_ex.c **** 
1208:Drivers/STM32F1xx_HAL_Driver/Src/stm32f1xx_hal_tim_ex.c ****   /* Enable the complementary PWM output  */
1209:Drivers/STM32F1xx_HAL_Driver/Src/stm32f1xx_hal_tim_ex.c ****      TIM_CCxNChannelCmd(htim->Instance, Channel, TIM_CCxN_ENABLE);
 2496              		.loc 1 1209 0
 2497 015e FB68     		ldr	r3, [r7, #12]
 2498 0160 1B68     		ldr	r3, [r3]
 2499 0162 0422     		movs	r2, #4
 2500 0164 B968     		ldr	r1, [r7, #8]
 2501 0166 1846     		mov	r0, r3
 2502 0168 FFF7FEFF 		bl	TIM_CCxNChannelCmd
1210:Drivers/STM32F1xx_HAL_Driver/Src/stm32f1xx_hal_tim_ex.c **** 
1211:Drivers/STM32F1xx_HAL_Driver/Src/stm32f1xx_hal_tim_ex.c ****   /* Enable the Main Ouput */
1212:Drivers/STM32F1xx_HAL_Driver/Src/stm32f1xx_hal_tim_ex.c ****     __HAL_TIM_MOE_ENABLE(htim);
 2503              		.loc 1 1212 0
 2504 016c FB68     		ldr	r3, [r7, #12]
 2505 016e 1B68     		ldr	r3, [r3]
 2506 0170 5A6C     		ldr	r2, [r3, #68]
 2507 0172 FB68     		ldr	r3, [r7, #12]
 2508 0174 1B68     		ldr	r3, [r3]
 2509 0176 42F40042 		orr	r2, r2, #32768
 2510 017a 5A64     		str	r2, [r3, #68]
1213:Drivers/STM32F1xx_HAL_Driver/Src/stm32f1xx_hal_tim_ex.c **** 
1214:Drivers/STM32F1xx_HAL_Driver/Src/stm32f1xx_hal_tim_ex.c ****   /* Enable the Peripheral */
1215:Drivers/STM32F1xx_HAL_Driver/Src/stm32f1xx_hal_tim_ex.c ****   __HAL_TIM_ENABLE(htim);
 2511              		.loc 1 1215 0
 2512 017c FB68     		ldr	r3, [r7, #12]
 2513 017e 1B68     		ldr	r3, [r3]
 2514 0180 1A68     		ldr	r2, [r3]
 2515 0182 FB68     		ldr	r3, [r7, #12]
 2516 0184 1B68     		ldr	r3, [r3]
 2517 0186 42F00102 		orr	r2, r2, #1
 2518 018a 1A60     		str	r2, [r3]
1216:Drivers/STM32F1xx_HAL_Driver/Src/stm32f1xx_hal_tim_ex.c **** 
1217:Drivers/STM32F1xx_HAL_Driver/Src/stm32f1xx_hal_tim_ex.c ****   /* Return function status */
1218:Drivers/STM32F1xx_HAL_Driver/Src/stm32f1xx_hal_tim_ex.c ****   return HAL_OK;
 2519              		.loc 1 1218 0
 2520 018c 0023     		movs	r3, #0
 2521              	.L118:
1219:Drivers/STM32F1xx_HAL_Driver/Src/stm32f1xx_hal_tim_ex.c **** }
 2522              		.loc 1 1219 0
 2523 018e 1846     		mov	r0, r3
 2524 0190 1037     		adds	r7, r7, #16
 2525              	.LCFI105:
 2526              		.cfi_def_cfa_offset 8
 2527 0192 BD46     		mov	sp, r7
ARM GAS  /tmp/ccpgqo2Y.s 			page 66


 2528              	.LCFI106:
 2529              		.cfi_def_cfa_register 13
 2530              		@ sp needed
 2531 0194 80BD     		pop	{r7, pc}
 2532              	.L130:
 2533 0196 00BF     		.align	2
 2534              	.L129:
 2535 0198 00000000 		.word	TIM_DMADelayPulseCplt
 2536 019c 00000000 		.word	TIM_DMAError
 2537              		.cfi_endproc
 2538              	.LFE86:
 2540              		.section	.text.HAL_TIMEx_PWMN_Stop_DMA,"ax",%progbits
 2541              		.align	1
 2542              		.global	HAL_TIMEx_PWMN_Stop_DMA
 2543              		.syntax unified
 2544              		.thumb
 2545              		.thumb_func
 2546              		.fpu softvfp
 2548              	HAL_TIMEx_PWMN_Stop_DMA:
 2549              	.LFB87:
1220:Drivers/STM32F1xx_HAL_Driver/Src/stm32f1xx_hal_tim_ex.c **** 
1221:Drivers/STM32F1xx_HAL_Driver/Src/stm32f1xx_hal_tim_ex.c **** /**
1222:Drivers/STM32F1xx_HAL_Driver/Src/stm32f1xx_hal_tim_ex.c ****   * @brief  Stops the TIM PWM signal generation in DMA mode on the complementary
1223:Drivers/STM32F1xx_HAL_Driver/Src/stm32f1xx_hal_tim_ex.c ****   *         output
1224:Drivers/STM32F1xx_HAL_Driver/Src/stm32f1xx_hal_tim_ex.c ****   * @param  htim : TIM handle
1225:Drivers/STM32F1xx_HAL_Driver/Src/stm32f1xx_hal_tim_ex.c ****   * @param  Channel : TIM Channel to be disabled
1226:Drivers/STM32F1xx_HAL_Driver/Src/stm32f1xx_hal_tim_ex.c ****   *          This parameter can be one of the following values:
1227:Drivers/STM32F1xx_HAL_Driver/Src/stm32f1xx_hal_tim_ex.c ****   *            @arg TIM_CHANNEL_1: TIM Channel 1 selected
1228:Drivers/STM32F1xx_HAL_Driver/Src/stm32f1xx_hal_tim_ex.c ****   *            @arg TIM_CHANNEL_2: TIM Channel 2 selected
1229:Drivers/STM32F1xx_HAL_Driver/Src/stm32f1xx_hal_tim_ex.c ****   *            @arg TIM_CHANNEL_3: TIM Channel 3 selected
1230:Drivers/STM32F1xx_HAL_Driver/Src/stm32f1xx_hal_tim_ex.c ****   *            @arg TIM_CHANNEL_4: TIM Channel 4 selected
1231:Drivers/STM32F1xx_HAL_Driver/Src/stm32f1xx_hal_tim_ex.c ****   * @retval HAL status
1232:Drivers/STM32F1xx_HAL_Driver/Src/stm32f1xx_hal_tim_ex.c ****   */
1233:Drivers/STM32F1xx_HAL_Driver/Src/stm32f1xx_hal_tim_ex.c **** HAL_StatusTypeDef HAL_TIMEx_PWMN_Stop_DMA(TIM_HandleTypeDef *htim, uint32_t Channel)
1234:Drivers/STM32F1xx_HAL_Driver/Src/stm32f1xx_hal_tim_ex.c **** {
 2550              		.loc 1 1234 0
 2551              		.cfi_startproc
 2552              		@ args = 0, pretend = 0, frame = 8
 2553              		@ frame_needed = 1, uses_anonymous_args = 0
 2554 0000 80B5     		push	{r7, lr}
 2555              	.LCFI107:
 2556              		.cfi_def_cfa_offset 8
 2557              		.cfi_offset 7, -8
 2558              		.cfi_offset 14, -4
 2559 0002 82B0     		sub	sp, sp, #8
 2560              	.LCFI108:
 2561              		.cfi_def_cfa_offset 16
 2562 0004 00AF     		add	r7, sp, #0
 2563              	.LCFI109:
 2564              		.cfi_def_cfa_register 7
 2565 0006 7860     		str	r0, [r7, #4]
 2566 0008 3960     		str	r1, [r7]
1235:Drivers/STM32F1xx_HAL_Driver/Src/stm32f1xx_hal_tim_ex.c ****   /* Check the parameters */
1236:Drivers/STM32F1xx_HAL_Driver/Src/stm32f1xx_hal_tim_ex.c ****   assert_param(IS_TIM_CCXN_INSTANCE(htim->Instance, Channel));
1237:Drivers/STM32F1xx_HAL_Driver/Src/stm32f1xx_hal_tim_ex.c **** 
1238:Drivers/STM32F1xx_HAL_Driver/Src/stm32f1xx_hal_tim_ex.c ****   switch (Channel)
 2567              		.loc 1 1238 0
ARM GAS  /tmp/ccpgqo2Y.s 			page 67


 2568 000a 3B68     		ldr	r3, [r7]
 2569 000c 0C2B     		cmp	r3, #12
 2570 000e 41D8     		bhi	.L142
 2571 0010 01A2     		adr	r2, .L134
 2572 0012 52F823F0 		ldr	pc, [r2, r3, lsl #2]
 2573 0016 00BF     		.p2align 2
 2574              	.L134:
 2575 0018 4D000000 		.word	.L133+1
 2576 001c 95000000 		.word	.L142+1
 2577 0020 95000000 		.word	.L142+1
 2578 0024 95000000 		.word	.L142+1
 2579 0028 5F000000 		.word	.L135+1
 2580 002c 95000000 		.word	.L142+1
 2581 0030 95000000 		.word	.L142+1
 2582 0034 95000000 		.word	.L142+1
 2583 0038 71000000 		.word	.L136+1
 2584 003c 95000000 		.word	.L142+1
 2585 0040 95000000 		.word	.L142+1
 2586 0044 95000000 		.word	.L142+1
 2587 0048 83000000 		.word	.L137+1
 2588              		.p2align 1
 2589              	.L133:
1239:Drivers/STM32F1xx_HAL_Driver/Src/stm32f1xx_hal_tim_ex.c ****   {
1240:Drivers/STM32F1xx_HAL_Driver/Src/stm32f1xx_hal_tim_ex.c ****     case TIM_CHANNEL_1:
1241:Drivers/STM32F1xx_HAL_Driver/Src/stm32f1xx_hal_tim_ex.c ****     {
1242:Drivers/STM32F1xx_HAL_Driver/Src/stm32f1xx_hal_tim_ex.c ****       /* Disable the TIM Capture/Compare 1 DMA request */
1243:Drivers/STM32F1xx_HAL_Driver/Src/stm32f1xx_hal_tim_ex.c ****       __HAL_TIM_DISABLE_DMA(htim, TIM_DMA_CC1);
 2590              		.loc 1 1243 0
 2591 004c 7B68     		ldr	r3, [r7, #4]
 2592 004e 1B68     		ldr	r3, [r3]
 2593 0050 DA68     		ldr	r2, [r3, #12]
 2594 0052 7B68     		ldr	r3, [r7, #4]
 2595 0054 1B68     		ldr	r3, [r3]
 2596 0056 22F40072 		bic	r2, r2, #512
 2597 005a DA60     		str	r2, [r3, #12]
1244:Drivers/STM32F1xx_HAL_Driver/Src/stm32f1xx_hal_tim_ex.c ****     }
1245:Drivers/STM32F1xx_HAL_Driver/Src/stm32f1xx_hal_tim_ex.c ****     break;
 2598              		.loc 1 1245 0
 2599 005c 1BE0     		b	.L138
 2600              	.L135:
1246:Drivers/STM32F1xx_HAL_Driver/Src/stm32f1xx_hal_tim_ex.c **** 
1247:Drivers/STM32F1xx_HAL_Driver/Src/stm32f1xx_hal_tim_ex.c ****     case TIM_CHANNEL_2:
1248:Drivers/STM32F1xx_HAL_Driver/Src/stm32f1xx_hal_tim_ex.c ****     {
1249:Drivers/STM32F1xx_HAL_Driver/Src/stm32f1xx_hal_tim_ex.c ****       /* Disable the TIM Capture/Compare 2 DMA request */
1250:Drivers/STM32F1xx_HAL_Driver/Src/stm32f1xx_hal_tim_ex.c ****       __HAL_TIM_DISABLE_DMA(htim, TIM_DMA_CC2);
 2601              		.loc 1 1250 0
 2602 005e 7B68     		ldr	r3, [r7, #4]
 2603 0060 1B68     		ldr	r3, [r3]
 2604 0062 DA68     		ldr	r2, [r3, #12]
 2605 0064 7B68     		ldr	r3, [r7, #4]
 2606 0066 1B68     		ldr	r3, [r3]
 2607 0068 22F48062 		bic	r2, r2, #1024
 2608 006c DA60     		str	r2, [r3, #12]
1251:Drivers/STM32F1xx_HAL_Driver/Src/stm32f1xx_hal_tim_ex.c ****     }
1252:Drivers/STM32F1xx_HAL_Driver/Src/stm32f1xx_hal_tim_ex.c ****     break;
 2609              		.loc 1 1252 0
 2610 006e 12E0     		b	.L138
ARM GAS  /tmp/ccpgqo2Y.s 			page 68


 2611              	.L136:
1253:Drivers/STM32F1xx_HAL_Driver/Src/stm32f1xx_hal_tim_ex.c **** 
1254:Drivers/STM32F1xx_HAL_Driver/Src/stm32f1xx_hal_tim_ex.c ****     case TIM_CHANNEL_3:
1255:Drivers/STM32F1xx_HAL_Driver/Src/stm32f1xx_hal_tim_ex.c ****     {
1256:Drivers/STM32F1xx_HAL_Driver/Src/stm32f1xx_hal_tim_ex.c ****       /* Disable the TIM Capture/Compare 3 DMA request */
1257:Drivers/STM32F1xx_HAL_Driver/Src/stm32f1xx_hal_tim_ex.c ****       __HAL_TIM_DISABLE_DMA(htim, TIM_DMA_CC3);
 2612              		.loc 1 1257 0
 2613 0070 7B68     		ldr	r3, [r7, #4]
 2614 0072 1B68     		ldr	r3, [r3]
 2615 0074 DA68     		ldr	r2, [r3, #12]
 2616 0076 7B68     		ldr	r3, [r7, #4]
 2617 0078 1B68     		ldr	r3, [r3]
 2618 007a 22F40062 		bic	r2, r2, #2048
 2619 007e DA60     		str	r2, [r3, #12]
1258:Drivers/STM32F1xx_HAL_Driver/Src/stm32f1xx_hal_tim_ex.c ****     }
1259:Drivers/STM32F1xx_HAL_Driver/Src/stm32f1xx_hal_tim_ex.c ****     break;
 2620              		.loc 1 1259 0
 2621 0080 09E0     		b	.L138
 2622              	.L137:
1260:Drivers/STM32F1xx_HAL_Driver/Src/stm32f1xx_hal_tim_ex.c **** 
1261:Drivers/STM32F1xx_HAL_Driver/Src/stm32f1xx_hal_tim_ex.c ****     case TIM_CHANNEL_4:
1262:Drivers/STM32F1xx_HAL_Driver/Src/stm32f1xx_hal_tim_ex.c ****     {
1263:Drivers/STM32F1xx_HAL_Driver/Src/stm32f1xx_hal_tim_ex.c ****       /* Disable the TIM Capture/Compare 4 DMA request */
1264:Drivers/STM32F1xx_HAL_Driver/Src/stm32f1xx_hal_tim_ex.c ****       __HAL_TIM_DISABLE_DMA(htim, TIM_DMA_CC4);
 2623              		.loc 1 1264 0
 2624 0082 7B68     		ldr	r3, [r7, #4]
 2625 0084 1B68     		ldr	r3, [r3]
 2626 0086 DA68     		ldr	r2, [r3, #12]
 2627 0088 7B68     		ldr	r3, [r7, #4]
 2628 008a 1B68     		ldr	r3, [r3]
 2629 008c 22F48052 		bic	r2, r2, #4096
 2630 0090 DA60     		str	r2, [r3, #12]
1265:Drivers/STM32F1xx_HAL_Driver/Src/stm32f1xx_hal_tim_ex.c ****     }
1266:Drivers/STM32F1xx_HAL_Driver/Src/stm32f1xx_hal_tim_ex.c ****     break;
 2631              		.loc 1 1266 0
 2632 0092 00E0     		b	.L138
 2633              	.L142:
1267:Drivers/STM32F1xx_HAL_Driver/Src/stm32f1xx_hal_tim_ex.c **** 
1268:Drivers/STM32F1xx_HAL_Driver/Src/stm32f1xx_hal_tim_ex.c ****     default:
1269:Drivers/STM32F1xx_HAL_Driver/Src/stm32f1xx_hal_tim_ex.c ****     break;
 2634              		.loc 1 1269 0
 2635 0094 00BF     		nop
 2636              	.L138:
1270:Drivers/STM32F1xx_HAL_Driver/Src/stm32f1xx_hal_tim_ex.c ****   }
1271:Drivers/STM32F1xx_HAL_Driver/Src/stm32f1xx_hal_tim_ex.c **** 
1272:Drivers/STM32F1xx_HAL_Driver/Src/stm32f1xx_hal_tim_ex.c ****   /* Disable the complementary PWM output */
1273:Drivers/STM32F1xx_HAL_Driver/Src/stm32f1xx_hal_tim_ex.c ****     TIM_CCxNChannelCmd(htim->Instance, Channel, TIM_CCxN_DISABLE);
 2637              		.loc 1 1273 0
 2638 0096 7B68     		ldr	r3, [r7, #4]
 2639 0098 1B68     		ldr	r3, [r3]
 2640 009a 0022     		movs	r2, #0
 2641 009c 3968     		ldr	r1, [r7]
 2642 009e 1846     		mov	r0, r3
 2643 00a0 FFF7FEFF 		bl	TIM_CCxNChannelCmd
1274:Drivers/STM32F1xx_HAL_Driver/Src/stm32f1xx_hal_tim_ex.c **** 
1275:Drivers/STM32F1xx_HAL_Driver/Src/stm32f1xx_hal_tim_ex.c ****   /* Disable the Main Ouput */
1276:Drivers/STM32F1xx_HAL_Driver/Src/stm32f1xx_hal_tim_ex.c ****     __HAL_TIM_MOE_DISABLE(htim);
ARM GAS  /tmp/ccpgqo2Y.s 			page 69


 2644              		.loc 1 1276 0
 2645 00a4 7B68     		ldr	r3, [r7, #4]
 2646 00a6 1B68     		ldr	r3, [r3]
 2647 00a8 1A6A     		ldr	r2, [r3, #32]
 2648 00aa 41F21113 		movw	r3, #4369
 2649 00ae 1340     		ands	r3, r3, r2
 2650 00b0 002B     		cmp	r3, #0
 2651 00b2 0FD1     		bne	.L139
 2652              		.loc 1 1276 0 is_stmt 0 discriminator 1
 2653 00b4 7B68     		ldr	r3, [r7, #4]
 2654 00b6 1B68     		ldr	r3, [r3]
 2655 00b8 1A6A     		ldr	r2, [r3, #32]
 2656 00ba 40F24443 		movw	r3, #1092
 2657 00be 1340     		ands	r3, r3, r2
 2658 00c0 002B     		cmp	r3, #0
 2659 00c2 07D1     		bne	.L139
 2660              		.loc 1 1276 0 discriminator 2
 2661 00c4 7B68     		ldr	r3, [r7, #4]
 2662 00c6 1B68     		ldr	r3, [r3]
 2663 00c8 5A6C     		ldr	r2, [r3, #68]
 2664 00ca 7B68     		ldr	r3, [r7, #4]
 2665 00cc 1B68     		ldr	r3, [r3]
 2666 00ce 22F40042 		bic	r2, r2, #32768
 2667 00d2 5A64     		str	r2, [r3, #68]
 2668              	.L139:
1277:Drivers/STM32F1xx_HAL_Driver/Src/stm32f1xx_hal_tim_ex.c **** 
1278:Drivers/STM32F1xx_HAL_Driver/Src/stm32f1xx_hal_tim_ex.c ****   /* Disable the Peripheral */
1279:Drivers/STM32F1xx_HAL_Driver/Src/stm32f1xx_hal_tim_ex.c ****   __HAL_TIM_DISABLE(htim);
 2669              		.loc 1 1279 0 is_stmt 1
 2670 00d4 7B68     		ldr	r3, [r7, #4]
 2671 00d6 1B68     		ldr	r3, [r3]
 2672 00d8 1A6A     		ldr	r2, [r3, #32]
 2673 00da 41F21113 		movw	r3, #4369
 2674 00de 1340     		ands	r3, r3, r2
 2675 00e0 002B     		cmp	r3, #0
 2676 00e2 0FD1     		bne	.L140
 2677              		.loc 1 1279 0 is_stmt 0 discriminator 1
 2678 00e4 7B68     		ldr	r3, [r7, #4]
 2679 00e6 1B68     		ldr	r3, [r3]
 2680 00e8 1A6A     		ldr	r2, [r3, #32]
 2681 00ea 40F24443 		movw	r3, #1092
 2682 00ee 1340     		ands	r3, r3, r2
 2683 00f0 002B     		cmp	r3, #0
 2684 00f2 07D1     		bne	.L140
 2685              		.loc 1 1279 0 discriminator 2
 2686 00f4 7B68     		ldr	r3, [r7, #4]
 2687 00f6 1B68     		ldr	r3, [r3]
 2688 00f8 1A68     		ldr	r2, [r3]
 2689 00fa 7B68     		ldr	r3, [r7, #4]
 2690 00fc 1B68     		ldr	r3, [r3]
 2691 00fe 22F00102 		bic	r2, r2, #1
 2692 0102 1A60     		str	r2, [r3]
 2693              	.L140:
1280:Drivers/STM32F1xx_HAL_Driver/Src/stm32f1xx_hal_tim_ex.c **** 
1281:Drivers/STM32F1xx_HAL_Driver/Src/stm32f1xx_hal_tim_ex.c ****   /* Change the htim state */
1282:Drivers/STM32F1xx_HAL_Driver/Src/stm32f1xx_hal_tim_ex.c ****   htim->State = HAL_TIM_STATE_READY;
 2694              		.loc 1 1282 0 is_stmt 1
ARM GAS  /tmp/ccpgqo2Y.s 			page 70


 2695 0104 7B68     		ldr	r3, [r7, #4]
 2696 0106 0122     		movs	r2, #1
 2697 0108 83F83D20 		strb	r2, [r3, #61]
1283:Drivers/STM32F1xx_HAL_Driver/Src/stm32f1xx_hal_tim_ex.c **** 
1284:Drivers/STM32F1xx_HAL_Driver/Src/stm32f1xx_hal_tim_ex.c ****   /* Return function status */
1285:Drivers/STM32F1xx_HAL_Driver/Src/stm32f1xx_hal_tim_ex.c ****   return HAL_OK;
 2698              		.loc 1 1285 0
 2699 010c 0023     		movs	r3, #0
1286:Drivers/STM32F1xx_HAL_Driver/Src/stm32f1xx_hal_tim_ex.c **** }
 2700              		.loc 1 1286 0
 2701 010e 1846     		mov	r0, r3
 2702 0110 0837     		adds	r7, r7, #8
 2703              	.LCFI110:
 2704              		.cfi_def_cfa_offset 8
 2705 0112 BD46     		mov	sp, r7
 2706              	.LCFI111:
 2707              		.cfi_def_cfa_register 13
 2708              		@ sp needed
 2709 0114 80BD     		pop	{r7, pc}
 2710              		.cfi_endproc
 2711              	.LFE87:
 2713 0116 00BF     		.section	.text.HAL_TIMEx_OnePulseN_Start,"ax",%progbits
 2714              		.align	1
 2715              		.global	HAL_TIMEx_OnePulseN_Start
 2716              		.syntax unified
 2717              		.thumb
 2718              		.thumb_func
 2719              		.fpu softvfp
 2721              	HAL_TIMEx_OnePulseN_Start:
 2722              	.LFB88:
1287:Drivers/STM32F1xx_HAL_Driver/Src/stm32f1xx_hal_tim_ex.c **** 
1288:Drivers/STM32F1xx_HAL_Driver/Src/stm32f1xx_hal_tim_ex.c **** /**
1289:Drivers/STM32F1xx_HAL_Driver/Src/stm32f1xx_hal_tim_ex.c ****   * @}
1290:Drivers/STM32F1xx_HAL_Driver/Src/stm32f1xx_hal_tim_ex.c ****   */
1291:Drivers/STM32F1xx_HAL_Driver/Src/stm32f1xx_hal_tim_ex.c **** 
1292:Drivers/STM32F1xx_HAL_Driver/Src/stm32f1xx_hal_tim_ex.c **** /** @defgroup TIMEx_Exported_Functions_Group4 Timer Complementary One Pulse functions
1293:Drivers/STM32F1xx_HAL_Driver/Src/stm32f1xx_hal_tim_ex.c ****  *  @brief    Timer Complementary One Pulse functions
1294:Drivers/STM32F1xx_HAL_Driver/Src/stm32f1xx_hal_tim_ex.c ****  *
1295:Drivers/STM32F1xx_HAL_Driver/Src/stm32f1xx_hal_tim_ex.c **** @verbatim
1296:Drivers/STM32F1xx_HAL_Driver/Src/stm32f1xx_hal_tim_ex.c ****   ==============================================================================
1297:Drivers/STM32F1xx_HAL_Driver/Src/stm32f1xx_hal_tim_ex.c ****                 ##### Timer Complementary One Pulse functions #####
1298:Drivers/STM32F1xx_HAL_Driver/Src/stm32f1xx_hal_tim_ex.c ****   ==============================================================================
1299:Drivers/STM32F1xx_HAL_Driver/Src/stm32f1xx_hal_tim_ex.c ****   [..]
1300:Drivers/STM32F1xx_HAL_Driver/Src/stm32f1xx_hal_tim_ex.c ****     This section provides functions allowing to:
1301:Drivers/STM32F1xx_HAL_Driver/Src/stm32f1xx_hal_tim_ex.c ****     (+) Start the Complementary One Pulse generation.
1302:Drivers/STM32F1xx_HAL_Driver/Src/stm32f1xx_hal_tim_ex.c ****     (+) Stop the Complementary One Pulse.
1303:Drivers/STM32F1xx_HAL_Driver/Src/stm32f1xx_hal_tim_ex.c ****     (+) Start the Complementary One Pulse and enable interrupts.
1304:Drivers/STM32F1xx_HAL_Driver/Src/stm32f1xx_hal_tim_ex.c ****     (+) Stop the Complementary One Pulse and disable interrupts.
1305:Drivers/STM32F1xx_HAL_Driver/Src/stm32f1xx_hal_tim_ex.c **** 
1306:Drivers/STM32F1xx_HAL_Driver/Src/stm32f1xx_hal_tim_ex.c **** @endverbatim
1307:Drivers/STM32F1xx_HAL_Driver/Src/stm32f1xx_hal_tim_ex.c ****   * @{
1308:Drivers/STM32F1xx_HAL_Driver/Src/stm32f1xx_hal_tim_ex.c ****   */
1309:Drivers/STM32F1xx_HAL_Driver/Src/stm32f1xx_hal_tim_ex.c **** 
1310:Drivers/STM32F1xx_HAL_Driver/Src/stm32f1xx_hal_tim_ex.c **** /**
1311:Drivers/STM32F1xx_HAL_Driver/Src/stm32f1xx_hal_tim_ex.c ****   * @brief  Starts the TIM One Pulse signal generation on the complemetary
1312:Drivers/STM32F1xx_HAL_Driver/Src/stm32f1xx_hal_tim_ex.c ****   *         output.
1313:Drivers/STM32F1xx_HAL_Driver/Src/stm32f1xx_hal_tim_ex.c ****   * @param  htim : TIM One Pulse handle
ARM GAS  /tmp/ccpgqo2Y.s 			page 71


1314:Drivers/STM32F1xx_HAL_Driver/Src/stm32f1xx_hal_tim_ex.c ****   * @param  OutputChannel : TIM Channel to be enabled
1315:Drivers/STM32F1xx_HAL_Driver/Src/stm32f1xx_hal_tim_ex.c ****   *          This parameter can be one of the following values:
1316:Drivers/STM32F1xx_HAL_Driver/Src/stm32f1xx_hal_tim_ex.c ****   *            @arg TIM_CHANNEL_1: TIM Channel 1 selected
1317:Drivers/STM32F1xx_HAL_Driver/Src/stm32f1xx_hal_tim_ex.c ****   *            @arg TIM_CHANNEL_2: TIM Channel 2 selected
1318:Drivers/STM32F1xx_HAL_Driver/Src/stm32f1xx_hal_tim_ex.c ****   * @retval HAL status
1319:Drivers/STM32F1xx_HAL_Driver/Src/stm32f1xx_hal_tim_ex.c ****   */
1320:Drivers/STM32F1xx_HAL_Driver/Src/stm32f1xx_hal_tim_ex.c **** HAL_StatusTypeDef HAL_TIMEx_OnePulseN_Start(TIM_HandleTypeDef *htim, uint32_t OutputChannel)
1321:Drivers/STM32F1xx_HAL_Driver/Src/stm32f1xx_hal_tim_ex.c ****   {
 2723              		.loc 1 1321 0
 2724              		.cfi_startproc
 2725              		@ args = 0, pretend = 0, frame = 8
 2726              		@ frame_needed = 1, uses_anonymous_args = 0
 2727 0000 80B5     		push	{r7, lr}
 2728              	.LCFI112:
 2729              		.cfi_def_cfa_offset 8
 2730              		.cfi_offset 7, -8
 2731              		.cfi_offset 14, -4
 2732 0002 82B0     		sub	sp, sp, #8
 2733              	.LCFI113:
 2734              		.cfi_def_cfa_offset 16
 2735 0004 00AF     		add	r7, sp, #0
 2736              	.LCFI114:
 2737              		.cfi_def_cfa_register 7
 2738 0006 7860     		str	r0, [r7, #4]
 2739 0008 3960     		str	r1, [r7]
1322:Drivers/STM32F1xx_HAL_Driver/Src/stm32f1xx_hal_tim_ex.c ****   /* Check the parameters */
1323:Drivers/STM32F1xx_HAL_Driver/Src/stm32f1xx_hal_tim_ex.c ****   assert_param(IS_TIM_CCXN_INSTANCE(htim->Instance, OutputChannel));
1324:Drivers/STM32F1xx_HAL_Driver/Src/stm32f1xx_hal_tim_ex.c **** 
1325:Drivers/STM32F1xx_HAL_Driver/Src/stm32f1xx_hal_tim_ex.c ****   /* Enable the complementary One Pulse output */
1326:Drivers/STM32F1xx_HAL_Driver/Src/stm32f1xx_hal_tim_ex.c ****   TIM_CCxNChannelCmd(htim->Instance, OutputChannel, TIM_CCxN_ENABLE);
 2740              		.loc 1 1326 0
 2741 000a 7B68     		ldr	r3, [r7, #4]
 2742 000c 1B68     		ldr	r3, [r3]
 2743 000e 0422     		movs	r2, #4
 2744 0010 3968     		ldr	r1, [r7]
 2745 0012 1846     		mov	r0, r3
 2746 0014 FFF7FEFF 		bl	TIM_CCxNChannelCmd
1327:Drivers/STM32F1xx_HAL_Driver/Src/stm32f1xx_hal_tim_ex.c **** 
1328:Drivers/STM32F1xx_HAL_Driver/Src/stm32f1xx_hal_tim_ex.c ****   /* Enable the Main Ouput */
1329:Drivers/STM32F1xx_HAL_Driver/Src/stm32f1xx_hal_tim_ex.c ****   __HAL_TIM_MOE_ENABLE(htim);
 2747              		.loc 1 1329 0
 2748 0018 7B68     		ldr	r3, [r7, #4]
 2749 001a 1B68     		ldr	r3, [r3]
 2750 001c 5A6C     		ldr	r2, [r3, #68]
 2751 001e 7B68     		ldr	r3, [r7, #4]
 2752 0020 1B68     		ldr	r3, [r3]
 2753 0022 42F40042 		orr	r2, r2, #32768
 2754 0026 5A64     		str	r2, [r3, #68]
1330:Drivers/STM32F1xx_HAL_Driver/Src/stm32f1xx_hal_tim_ex.c **** 
1331:Drivers/STM32F1xx_HAL_Driver/Src/stm32f1xx_hal_tim_ex.c ****   /* Return function status */
1332:Drivers/STM32F1xx_HAL_Driver/Src/stm32f1xx_hal_tim_ex.c ****   return HAL_OK;
 2755              		.loc 1 1332 0
 2756 0028 0023     		movs	r3, #0
1333:Drivers/STM32F1xx_HAL_Driver/Src/stm32f1xx_hal_tim_ex.c **** }
 2757              		.loc 1 1333 0
 2758 002a 1846     		mov	r0, r3
 2759 002c 0837     		adds	r7, r7, #8
ARM GAS  /tmp/ccpgqo2Y.s 			page 72


 2760              	.LCFI115:
 2761              		.cfi_def_cfa_offset 8
 2762 002e BD46     		mov	sp, r7
 2763              	.LCFI116:
 2764              		.cfi_def_cfa_register 13
 2765              		@ sp needed
 2766 0030 80BD     		pop	{r7, pc}
 2767              		.cfi_endproc
 2768              	.LFE88:
 2770              		.section	.text.HAL_TIMEx_OnePulseN_Stop,"ax",%progbits
 2771              		.align	1
 2772              		.global	HAL_TIMEx_OnePulseN_Stop
 2773              		.syntax unified
 2774              		.thumb
 2775              		.thumb_func
 2776              		.fpu softvfp
 2778              	HAL_TIMEx_OnePulseN_Stop:
 2779              	.LFB89:
1334:Drivers/STM32F1xx_HAL_Driver/Src/stm32f1xx_hal_tim_ex.c **** 
1335:Drivers/STM32F1xx_HAL_Driver/Src/stm32f1xx_hal_tim_ex.c **** /**
1336:Drivers/STM32F1xx_HAL_Driver/Src/stm32f1xx_hal_tim_ex.c ****   * @brief  Stops the TIM One Pulse signal generation on the complementary
1337:Drivers/STM32F1xx_HAL_Driver/Src/stm32f1xx_hal_tim_ex.c ****   *         output.
1338:Drivers/STM32F1xx_HAL_Driver/Src/stm32f1xx_hal_tim_ex.c ****   * @param  htim : TIM One Pulse handle
1339:Drivers/STM32F1xx_HAL_Driver/Src/stm32f1xx_hal_tim_ex.c ****   * @param  OutputChannel : TIM Channel to be disabled
1340:Drivers/STM32F1xx_HAL_Driver/Src/stm32f1xx_hal_tim_ex.c ****   *          This parameter can be one of the following values:
1341:Drivers/STM32F1xx_HAL_Driver/Src/stm32f1xx_hal_tim_ex.c ****   *            @arg TIM_CHANNEL_1: TIM Channel 1 selected
1342:Drivers/STM32F1xx_HAL_Driver/Src/stm32f1xx_hal_tim_ex.c ****   *            @arg TIM_CHANNEL_2: TIM Channel 2 selected
1343:Drivers/STM32F1xx_HAL_Driver/Src/stm32f1xx_hal_tim_ex.c ****   * @retval HAL status
1344:Drivers/STM32F1xx_HAL_Driver/Src/stm32f1xx_hal_tim_ex.c ****   */
1345:Drivers/STM32F1xx_HAL_Driver/Src/stm32f1xx_hal_tim_ex.c **** HAL_StatusTypeDef HAL_TIMEx_OnePulseN_Stop(TIM_HandleTypeDef *htim, uint32_t OutputChannel)
1346:Drivers/STM32F1xx_HAL_Driver/Src/stm32f1xx_hal_tim_ex.c **** {
 2780              		.loc 1 1346 0
 2781              		.cfi_startproc
 2782              		@ args = 0, pretend = 0, frame = 8
 2783              		@ frame_needed = 1, uses_anonymous_args = 0
 2784 0000 80B5     		push	{r7, lr}
 2785              	.LCFI117:
 2786              		.cfi_def_cfa_offset 8
 2787              		.cfi_offset 7, -8
 2788              		.cfi_offset 14, -4
 2789 0002 82B0     		sub	sp, sp, #8
 2790              	.LCFI118:
 2791              		.cfi_def_cfa_offset 16
 2792 0004 00AF     		add	r7, sp, #0
 2793              	.LCFI119:
 2794              		.cfi_def_cfa_register 7
 2795 0006 7860     		str	r0, [r7, #4]
 2796 0008 3960     		str	r1, [r7]
1347:Drivers/STM32F1xx_HAL_Driver/Src/stm32f1xx_hal_tim_ex.c **** 
1348:Drivers/STM32F1xx_HAL_Driver/Src/stm32f1xx_hal_tim_ex.c ****   /* Check the parameters */
1349:Drivers/STM32F1xx_HAL_Driver/Src/stm32f1xx_hal_tim_ex.c ****   assert_param(IS_TIM_CCXN_INSTANCE(htim->Instance, OutputChannel));
1350:Drivers/STM32F1xx_HAL_Driver/Src/stm32f1xx_hal_tim_ex.c **** 
1351:Drivers/STM32F1xx_HAL_Driver/Src/stm32f1xx_hal_tim_ex.c ****   /* Disable the complementary One Pulse output */
1352:Drivers/STM32F1xx_HAL_Driver/Src/stm32f1xx_hal_tim_ex.c ****   TIM_CCxNChannelCmd(htim->Instance, OutputChannel, TIM_CCxN_DISABLE);
 2797              		.loc 1 1352 0
 2798 000a 7B68     		ldr	r3, [r7, #4]
 2799 000c 1B68     		ldr	r3, [r3]
ARM GAS  /tmp/ccpgqo2Y.s 			page 73


 2800 000e 0022     		movs	r2, #0
 2801 0010 3968     		ldr	r1, [r7]
 2802 0012 1846     		mov	r0, r3
 2803 0014 FFF7FEFF 		bl	TIM_CCxNChannelCmd
1353:Drivers/STM32F1xx_HAL_Driver/Src/stm32f1xx_hal_tim_ex.c **** 
1354:Drivers/STM32F1xx_HAL_Driver/Src/stm32f1xx_hal_tim_ex.c ****   /* Disable the Main Ouput */
1355:Drivers/STM32F1xx_HAL_Driver/Src/stm32f1xx_hal_tim_ex.c ****   __HAL_TIM_MOE_DISABLE(htim);
 2804              		.loc 1 1355 0
 2805 0018 7B68     		ldr	r3, [r7, #4]
 2806 001a 1B68     		ldr	r3, [r3]
 2807 001c 1A6A     		ldr	r2, [r3, #32]
 2808 001e 41F21113 		movw	r3, #4369
 2809 0022 1340     		ands	r3, r3, r2
 2810 0024 002B     		cmp	r3, #0
 2811 0026 0FD1     		bne	.L146
 2812              		.loc 1 1355 0 is_stmt 0 discriminator 1
 2813 0028 7B68     		ldr	r3, [r7, #4]
 2814 002a 1B68     		ldr	r3, [r3]
 2815 002c 1A6A     		ldr	r2, [r3, #32]
 2816 002e 40F24443 		movw	r3, #1092
 2817 0032 1340     		ands	r3, r3, r2
 2818 0034 002B     		cmp	r3, #0
 2819 0036 07D1     		bne	.L146
 2820              		.loc 1 1355 0 discriminator 2
 2821 0038 7B68     		ldr	r3, [r7, #4]
 2822 003a 1B68     		ldr	r3, [r3]
 2823 003c 5A6C     		ldr	r2, [r3, #68]
 2824 003e 7B68     		ldr	r3, [r7, #4]
 2825 0040 1B68     		ldr	r3, [r3]
 2826 0042 22F40042 		bic	r2, r2, #32768
 2827 0046 5A64     		str	r2, [r3, #68]
 2828              	.L146:
1356:Drivers/STM32F1xx_HAL_Driver/Src/stm32f1xx_hal_tim_ex.c **** 
1357:Drivers/STM32F1xx_HAL_Driver/Src/stm32f1xx_hal_tim_ex.c ****   /* Disable the Peripheral */
1358:Drivers/STM32F1xx_HAL_Driver/Src/stm32f1xx_hal_tim_ex.c ****   __HAL_TIM_DISABLE(htim);
 2829              		.loc 1 1358 0 is_stmt 1
 2830 0048 7B68     		ldr	r3, [r7, #4]
 2831 004a 1B68     		ldr	r3, [r3]
 2832 004c 1A6A     		ldr	r2, [r3, #32]
 2833 004e 41F21113 		movw	r3, #4369
 2834 0052 1340     		ands	r3, r3, r2
 2835 0054 002B     		cmp	r3, #0
 2836 0056 0FD1     		bne	.L147
 2837              		.loc 1 1358 0 is_stmt 0 discriminator 1
 2838 0058 7B68     		ldr	r3, [r7, #4]
 2839 005a 1B68     		ldr	r3, [r3]
 2840 005c 1A6A     		ldr	r2, [r3, #32]
 2841 005e 40F24443 		movw	r3, #1092
 2842 0062 1340     		ands	r3, r3, r2
 2843 0064 002B     		cmp	r3, #0
 2844 0066 07D1     		bne	.L147
 2845              		.loc 1 1358 0 discriminator 2
 2846 0068 7B68     		ldr	r3, [r7, #4]
 2847 006a 1B68     		ldr	r3, [r3]
 2848 006c 1A68     		ldr	r2, [r3]
 2849 006e 7B68     		ldr	r3, [r7, #4]
 2850 0070 1B68     		ldr	r3, [r3]
ARM GAS  /tmp/ccpgqo2Y.s 			page 74


 2851 0072 22F00102 		bic	r2, r2, #1
 2852 0076 1A60     		str	r2, [r3]
 2853              	.L147:
1359:Drivers/STM32F1xx_HAL_Driver/Src/stm32f1xx_hal_tim_ex.c **** 
1360:Drivers/STM32F1xx_HAL_Driver/Src/stm32f1xx_hal_tim_ex.c ****   /* Return function status */
1361:Drivers/STM32F1xx_HAL_Driver/Src/stm32f1xx_hal_tim_ex.c ****   return HAL_OK;
 2854              		.loc 1 1361 0 is_stmt 1
 2855 0078 0023     		movs	r3, #0
1362:Drivers/STM32F1xx_HAL_Driver/Src/stm32f1xx_hal_tim_ex.c **** }
 2856              		.loc 1 1362 0
 2857 007a 1846     		mov	r0, r3
 2858 007c 0837     		adds	r7, r7, #8
 2859              	.LCFI120:
 2860              		.cfi_def_cfa_offset 8
 2861 007e BD46     		mov	sp, r7
 2862              	.LCFI121:
 2863              		.cfi_def_cfa_register 13
 2864              		@ sp needed
 2865 0080 80BD     		pop	{r7, pc}
 2866              		.cfi_endproc
 2867              	.LFE89:
 2869              		.section	.text.HAL_TIMEx_OnePulseN_Start_IT,"ax",%progbits
 2870              		.align	1
 2871              		.global	HAL_TIMEx_OnePulseN_Start_IT
 2872              		.syntax unified
 2873              		.thumb
 2874              		.thumb_func
 2875              		.fpu softvfp
 2877              	HAL_TIMEx_OnePulseN_Start_IT:
 2878              	.LFB90:
1363:Drivers/STM32F1xx_HAL_Driver/Src/stm32f1xx_hal_tim_ex.c **** 
1364:Drivers/STM32F1xx_HAL_Driver/Src/stm32f1xx_hal_tim_ex.c **** /**
1365:Drivers/STM32F1xx_HAL_Driver/Src/stm32f1xx_hal_tim_ex.c ****   * @brief  Starts the TIM One Pulse signal generation in interrupt mode on the
1366:Drivers/STM32F1xx_HAL_Driver/Src/stm32f1xx_hal_tim_ex.c ****   *         complementary channel.
1367:Drivers/STM32F1xx_HAL_Driver/Src/stm32f1xx_hal_tim_ex.c ****   * @param  htim : TIM One Pulse handle
1368:Drivers/STM32F1xx_HAL_Driver/Src/stm32f1xx_hal_tim_ex.c ****   * @param  OutputChannel : TIM Channel to be enabled
1369:Drivers/STM32F1xx_HAL_Driver/Src/stm32f1xx_hal_tim_ex.c ****   *          This parameter can be one of the following values:
1370:Drivers/STM32F1xx_HAL_Driver/Src/stm32f1xx_hal_tim_ex.c ****   *            @arg TIM_CHANNEL_1: TIM Channel 1 selected
1371:Drivers/STM32F1xx_HAL_Driver/Src/stm32f1xx_hal_tim_ex.c ****   *            @arg TIM_CHANNEL_2: TIM Channel 2 selected
1372:Drivers/STM32F1xx_HAL_Driver/Src/stm32f1xx_hal_tim_ex.c ****   * @retval HAL status
1373:Drivers/STM32F1xx_HAL_Driver/Src/stm32f1xx_hal_tim_ex.c ****   */
1374:Drivers/STM32F1xx_HAL_Driver/Src/stm32f1xx_hal_tim_ex.c **** HAL_StatusTypeDef HAL_TIMEx_OnePulseN_Start_IT(TIM_HandleTypeDef *htim, uint32_t OutputChannel)
1375:Drivers/STM32F1xx_HAL_Driver/Src/stm32f1xx_hal_tim_ex.c **** {
 2879              		.loc 1 1375 0
 2880              		.cfi_startproc
 2881              		@ args = 0, pretend = 0, frame = 8
 2882              		@ frame_needed = 1, uses_anonymous_args = 0
 2883 0000 80B5     		push	{r7, lr}
 2884              	.LCFI122:
 2885              		.cfi_def_cfa_offset 8
 2886              		.cfi_offset 7, -8
 2887              		.cfi_offset 14, -4
 2888 0002 82B0     		sub	sp, sp, #8
 2889              	.LCFI123:
 2890              		.cfi_def_cfa_offset 16
 2891 0004 00AF     		add	r7, sp, #0
 2892              	.LCFI124:
ARM GAS  /tmp/ccpgqo2Y.s 			page 75


 2893              		.cfi_def_cfa_register 7
 2894 0006 7860     		str	r0, [r7, #4]
 2895 0008 3960     		str	r1, [r7]
1376:Drivers/STM32F1xx_HAL_Driver/Src/stm32f1xx_hal_tim_ex.c ****   /* Check the parameters */
1377:Drivers/STM32F1xx_HAL_Driver/Src/stm32f1xx_hal_tim_ex.c ****   assert_param(IS_TIM_CCXN_INSTANCE(htim->Instance, OutputChannel));
1378:Drivers/STM32F1xx_HAL_Driver/Src/stm32f1xx_hal_tim_ex.c **** 
1379:Drivers/STM32F1xx_HAL_Driver/Src/stm32f1xx_hal_tim_ex.c ****   /* Enable the TIM Capture/Compare 1 interrupt */
1380:Drivers/STM32F1xx_HAL_Driver/Src/stm32f1xx_hal_tim_ex.c ****   __HAL_TIM_ENABLE_IT(htim, TIM_IT_CC1);
 2896              		.loc 1 1380 0
 2897 000a 7B68     		ldr	r3, [r7, #4]
 2898 000c 1B68     		ldr	r3, [r3]
 2899 000e DA68     		ldr	r2, [r3, #12]
 2900 0010 7B68     		ldr	r3, [r7, #4]
 2901 0012 1B68     		ldr	r3, [r3]
 2902 0014 42F00202 		orr	r2, r2, #2
 2903 0018 DA60     		str	r2, [r3, #12]
1381:Drivers/STM32F1xx_HAL_Driver/Src/stm32f1xx_hal_tim_ex.c **** 
1382:Drivers/STM32F1xx_HAL_Driver/Src/stm32f1xx_hal_tim_ex.c ****   /* Enable the TIM Capture/Compare 2 interrupt */
1383:Drivers/STM32F1xx_HAL_Driver/Src/stm32f1xx_hal_tim_ex.c ****   __HAL_TIM_ENABLE_IT(htim, TIM_IT_CC2);
 2904              		.loc 1 1383 0
 2905 001a 7B68     		ldr	r3, [r7, #4]
 2906 001c 1B68     		ldr	r3, [r3]
 2907 001e DA68     		ldr	r2, [r3, #12]
 2908 0020 7B68     		ldr	r3, [r7, #4]
 2909 0022 1B68     		ldr	r3, [r3]
 2910 0024 42F00402 		orr	r2, r2, #4
 2911 0028 DA60     		str	r2, [r3, #12]
1384:Drivers/STM32F1xx_HAL_Driver/Src/stm32f1xx_hal_tim_ex.c **** 
1385:Drivers/STM32F1xx_HAL_Driver/Src/stm32f1xx_hal_tim_ex.c ****   /* Enable the complementary One Pulse output */
1386:Drivers/STM32F1xx_HAL_Driver/Src/stm32f1xx_hal_tim_ex.c ****   TIM_CCxNChannelCmd(htim->Instance, OutputChannel, TIM_CCxN_ENABLE);
 2912              		.loc 1 1386 0
 2913 002a 7B68     		ldr	r3, [r7, #4]
 2914 002c 1B68     		ldr	r3, [r3]
 2915 002e 0422     		movs	r2, #4
 2916 0030 3968     		ldr	r1, [r7]
 2917 0032 1846     		mov	r0, r3
 2918 0034 FFF7FEFF 		bl	TIM_CCxNChannelCmd
1387:Drivers/STM32F1xx_HAL_Driver/Src/stm32f1xx_hal_tim_ex.c **** 
1388:Drivers/STM32F1xx_HAL_Driver/Src/stm32f1xx_hal_tim_ex.c ****   /* Enable the Main Ouput */
1389:Drivers/STM32F1xx_HAL_Driver/Src/stm32f1xx_hal_tim_ex.c ****   __HAL_TIM_MOE_ENABLE(htim);
 2919              		.loc 1 1389 0
 2920 0038 7B68     		ldr	r3, [r7, #4]
 2921 003a 1B68     		ldr	r3, [r3]
 2922 003c 5A6C     		ldr	r2, [r3, #68]
 2923 003e 7B68     		ldr	r3, [r7, #4]
 2924 0040 1B68     		ldr	r3, [r3]
 2925 0042 42F40042 		orr	r2, r2, #32768
 2926 0046 5A64     		str	r2, [r3, #68]
1390:Drivers/STM32F1xx_HAL_Driver/Src/stm32f1xx_hal_tim_ex.c **** 
1391:Drivers/STM32F1xx_HAL_Driver/Src/stm32f1xx_hal_tim_ex.c ****   /* Return function status */
1392:Drivers/STM32F1xx_HAL_Driver/Src/stm32f1xx_hal_tim_ex.c ****   return HAL_OK;
 2927              		.loc 1 1392 0
 2928 0048 0023     		movs	r3, #0
1393:Drivers/STM32F1xx_HAL_Driver/Src/stm32f1xx_hal_tim_ex.c ****   }
 2929              		.loc 1 1393 0
 2930 004a 1846     		mov	r0, r3
 2931 004c 0837     		adds	r7, r7, #8
ARM GAS  /tmp/ccpgqo2Y.s 			page 76


 2932              	.LCFI125:
 2933              		.cfi_def_cfa_offset 8
 2934 004e BD46     		mov	sp, r7
 2935              	.LCFI126:
 2936              		.cfi_def_cfa_register 13
 2937              		@ sp needed
 2938 0050 80BD     		pop	{r7, pc}
 2939              		.cfi_endproc
 2940              	.LFE90:
 2942              		.section	.text.HAL_TIMEx_OnePulseN_Stop_IT,"ax",%progbits
 2943              		.align	1
 2944              		.global	HAL_TIMEx_OnePulseN_Stop_IT
 2945              		.syntax unified
 2946              		.thumb
 2947              		.thumb_func
 2948              		.fpu softvfp
 2950              	HAL_TIMEx_OnePulseN_Stop_IT:
 2951              	.LFB91:
1394:Drivers/STM32F1xx_HAL_Driver/Src/stm32f1xx_hal_tim_ex.c **** 
1395:Drivers/STM32F1xx_HAL_Driver/Src/stm32f1xx_hal_tim_ex.c **** /**
1396:Drivers/STM32F1xx_HAL_Driver/Src/stm32f1xx_hal_tim_ex.c ****   * @brief  Stops the TIM One Pulse signal generation in interrupt mode on the
1397:Drivers/STM32F1xx_HAL_Driver/Src/stm32f1xx_hal_tim_ex.c ****   *         complementary channel.
1398:Drivers/STM32F1xx_HAL_Driver/Src/stm32f1xx_hal_tim_ex.c ****   * @param  htim : TIM One Pulse handle
1399:Drivers/STM32F1xx_HAL_Driver/Src/stm32f1xx_hal_tim_ex.c ****   * @param  OutputChannel : TIM Channel to be disabled
1400:Drivers/STM32F1xx_HAL_Driver/Src/stm32f1xx_hal_tim_ex.c ****   *          This parameter can be one of the following values:
1401:Drivers/STM32F1xx_HAL_Driver/Src/stm32f1xx_hal_tim_ex.c ****   *            @arg TIM_CHANNEL_1: TIM Channel 1 selected
1402:Drivers/STM32F1xx_HAL_Driver/Src/stm32f1xx_hal_tim_ex.c ****   *            @arg TIM_CHANNEL_2: TIM Channel 2 selected
1403:Drivers/STM32F1xx_HAL_Driver/Src/stm32f1xx_hal_tim_ex.c ****   * @retval HAL status
1404:Drivers/STM32F1xx_HAL_Driver/Src/stm32f1xx_hal_tim_ex.c ****   */
1405:Drivers/STM32F1xx_HAL_Driver/Src/stm32f1xx_hal_tim_ex.c **** HAL_StatusTypeDef HAL_TIMEx_OnePulseN_Stop_IT(TIM_HandleTypeDef *htim, uint32_t OutputChannel)
1406:Drivers/STM32F1xx_HAL_Driver/Src/stm32f1xx_hal_tim_ex.c **** {
 2952              		.loc 1 1406 0
 2953              		.cfi_startproc
 2954              		@ args = 0, pretend = 0, frame = 8
 2955              		@ frame_needed = 1, uses_anonymous_args = 0
 2956 0000 80B5     		push	{r7, lr}
 2957              	.LCFI127:
 2958              		.cfi_def_cfa_offset 8
 2959              		.cfi_offset 7, -8
 2960              		.cfi_offset 14, -4
 2961 0002 82B0     		sub	sp, sp, #8
 2962              	.LCFI128:
 2963              		.cfi_def_cfa_offset 16
 2964 0004 00AF     		add	r7, sp, #0
 2965              	.LCFI129:
 2966              		.cfi_def_cfa_register 7
 2967 0006 7860     		str	r0, [r7, #4]
 2968 0008 3960     		str	r1, [r7]
1407:Drivers/STM32F1xx_HAL_Driver/Src/stm32f1xx_hal_tim_ex.c ****   /* Check the parameters */
1408:Drivers/STM32F1xx_HAL_Driver/Src/stm32f1xx_hal_tim_ex.c ****   assert_param(IS_TIM_CCXN_INSTANCE(htim->Instance, OutputChannel));
1409:Drivers/STM32F1xx_HAL_Driver/Src/stm32f1xx_hal_tim_ex.c **** 
1410:Drivers/STM32F1xx_HAL_Driver/Src/stm32f1xx_hal_tim_ex.c ****   /* Disable the TIM Capture/Compare 1 interrupt */
1411:Drivers/STM32F1xx_HAL_Driver/Src/stm32f1xx_hal_tim_ex.c ****   __HAL_TIM_DISABLE_IT(htim, TIM_IT_CC1);
 2969              		.loc 1 1411 0
 2970 000a 7B68     		ldr	r3, [r7, #4]
 2971 000c 1B68     		ldr	r3, [r3]
 2972 000e DA68     		ldr	r2, [r3, #12]
ARM GAS  /tmp/ccpgqo2Y.s 			page 77


 2973 0010 7B68     		ldr	r3, [r7, #4]
 2974 0012 1B68     		ldr	r3, [r3]
 2975 0014 22F00202 		bic	r2, r2, #2
 2976 0018 DA60     		str	r2, [r3, #12]
1412:Drivers/STM32F1xx_HAL_Driver/Src/stm32f1xx_hal_tim_ex.c **** 
1413:Drivers/STM32F1xx_HAL_Driver/Src/stm32f1xx_hal_tim_ex.c ****   /* Disable the TIM Capture/Compare 2 interrupt */
1414:Drivers/STM32F1xx_HAL_Driver/Src/stm32f1xx_hal_tim_ex.c ****   __HAL_TIM_DISABLE_IT(htim, TIM_IT_CC2);
 2977              		.loc 1 1414 0
 2978 001a 7B68     		ldr	r3, [r7, #4]
 2979 001c 1B68     		ldr	r3, [r3]
 2980 001e DA68     		ldr	r2, [r3, #12]
 2981 0020 7B68     		ldr	r3, [r7, #4]
 2982 0022 1B68     		ldr	r3, [r3]
 2983 0024 22F00402 		bic	r2, r2, #4
 2984 0028 DA60     		str	r2, [r3, #12]
1415:Drivers/STM32F1xx_HAL_Driver/Src/stm32f1xx_hal_tim_ex.c **** 
1416:Drivers/STM32F1xx_HAL_Driver/Src/stm32f1xx_hal_tim_ex.c ****   /* Disable the complementary One Pulse output */
1417:Drivers/STM32F1xx_HAL_Driver/Src/stm32f1xx_hal_tim_ex.c ****   TIM_CCxNChannelCmd(htim->Instance, OutputChannel, TIM_CCxN_DISABLE);
 2985              		.loc 1 1417 0
 2986 002a 7B68     		ldr	r3, [r7, #4]
 2987 002c 1B68     		ldr	r3, [r3]
 2988 002e 0022     		movs	r2, #0
 2989 0030 3968     		ldr	r1, [r7]
 2990 0032 1846     		mov	r0, r3
 2991 0034 FFF7FEFF 		bl	TIM_CCxNChannelCmd
1418:Drivers/STM32F1xx_HAL_Driver/Src/stm32f1xx_hal_tim_ex.c **** 
1419:Drivers/STM32F1xx_HAL_Driver/Src/stm32f1xx_hal_tim_ex.c ****   /* Disable the Main Ouput */
1420:Drivers/STM32F1xx_HAL_Driver/Src/stm32f1xx_hal_tim_ex.c ****   __HAL_TIM_MOE_DISABLE(htim);
 2992              		.loc 1 1420 0
 2993 0038 7B68     		ldr	r3, [r7, #4]
 2994 003a 1B68     		ldr	r3, [r3]
 2995 003c 1A6A     		ldr	r2, [r3, #32]
 2996 003e 41F21113 		movw	r3, #4369
 2997 0042 1340     		ands	r3, r3, r2
 2998 0044 002B     		cmp	r3, #0
 2999 0046 0FD1     		bne	.L152
 3000              		.loc 1 1420 0 is_stmt 0 discriminator 1
 3001 0048 7B68     		ldr	r3, [r7, #4]
 3002 004a 1B68     		ldr	r3, [r3]
 3003 004c 1A6A     		ldr	r2, [r3, #32]
 3004 004e 40F24443 		movw	r3, #1092
 3005 0052 1340     		ands	r3, r3, r2
 3006 0054 002B     		cmp	r3, #0
 3007 0056 07D1     		bne	.L152
 3008              		.loc 1 1420 0 discriminator 2
 3009 0058 7B68     		ldr	r3, [r7, #4]
 3010 005a 1B68     		ldr	r3, [r3]
 3011 005c 5A6C     		ldr	r2, [r3, #68]
 3012 005e 7B68     		ldr	r3, [r7, #4]
 3013 0060 1B68     		ldr	r3, [r3]
 3014 0062 22F40042 		bic	r2, r2, #32768
 3015 0066 5A64     		str	r2, [r3, #68]
 3016              	.L152:
1421:Drivers/STM32F1xx_HAL_Driver/Src/stm32f1xx_hal_tim_ex.c **** 
1422:Drivers/STM32F1xx_HAL_Driver/Src/stm32f1xx_hal_tim_ex.c ****   /* Disable the Peripheral */
1423:Drivers/STM32F1xx_HAL_Driver/Src/stm32f1xx_hal_tim_ex.c ****    __HAL_TIM_DISABLE(htim);
 3017              		.loc 1 1423 0 is_stmt 1
ARM GAS  /tmp/ccpgqo2Y.s 			page 78


 3018 0068 7B68     		ldr	r3, [r7, #4]
 3019 006a 1B68     		ldr	r3, [r3]
 3020 006c 1A6A     		ldr	r2, [r3, #32]
 3021 006e 41F21113 		movw	r3, #4369
 3022 0072 1340     		ands	r3, r3, r2
 3023 0074 002B     		cmp	r3, #0
 3024 0076 0FD1     		bne	.L153
 3025              		.loc 1 1423 0 is_stmt 0 discriminator 1
 3026 0078 7B68     		ldr	r3, [r7, #4]
 3027 007a 1B68     		ldr	r3, [r3]
 3028 007c 1A6A     		ldr	r2, [r3, #32]
 3029 007e 40F24443 		movw	r3, #1092
 3030 0082 1340     		ands	r3, r3, r2
 3031 0084 002B     		cmp	r3, #0
 3032 0086 07D1     		bne	.L153
 3033              		.loc 1 1423 0 discriminator 2
 3034 0088 7B68     		ldr	r3, [r7, #4]
 3035 008a 1B68     		ldr	r3, [r3]
 3036 008c 1A68     		ldr	r2, [r3]
 3037 008e 7B68     		ldr	r3, [r7, #4]
 3038 0090 1B68     		ldr	r3, [r3]
 3039 0092 22F00102 		bic	r2, r2, #1
 3040 0096 1A60     		str	r2, [r3]
 3041              	.L153:
1424:Drivers/STM32F1xx_HAL_Driver/Src/stm32f1xx_hal_tim_ex.c **** 
1425:Drivers/STM32F1xx_HAL_Driver/Src/stm32f1xx_hal_tim_ex.c ****   /* Return function status */
1426:Drivers/STM32F1xx_HAL_Driver/Src/stm32f1xx_hal_tim_ex.c ****   return HAL_OK;
 3042              		.loc 1 1426 0 is_stmt 1
 3043 0098 0023     		movs	r3, #0
1427:Drivers/STM32F1xx_HAL_Driver/Src/stm32f1xx_hal_tim_ex.c **** }
 3044              		.loc 1 1427 0
 3045 009a 1846     		mov	r0, r3
 3046 009c 0837     		adds	r7, r7, #8
 3047              	.LCFI130:
 3048              		.cfi_def_cfa_offset 8
 3049 009e BD46     		mov	sp, r7
 3050              	.LCFI131:
 3051              		.cfi_def_cfa_register 13
 3052              		@ sp needed
 3053 00a0 80BD     		pop	{r7, pc}
 3054              		.cfi_endproc
 3055              	.LFE91:
 3057              		.section	.text.HAL_TIMEx_ConfigCommutationEvent,"ax",%progbits
 3058              		.align	1
 3059              		.global	HAL_TIMEx_ConfigCommutationEvent
 3060              		.syntax unified
 3061              		.thumb
 3062              		.thumb_func
 3063              		.fpu softvfp
 3065              	HAL_TIMEx_ConfigCommutationEvent:
 3066              	.LFB92:
1428:Drivers/STM32F1xx_HAL_Driver/Src/stm32f1xx_hal_tim_ex.c **** 
1429:Drivers/STM32F1xx_HAL_Driver/Src/stm32f1xx_hal_tim_ex.c **** /**
1430:Drivers/STM32F1xx_HAL_Driver/Src/stm32f1xx_hal_tim_ex.c ****   * @}
1431:Drivers/STM32F1xx_HAL_Driver/Src/stm32f1xx_hal_tim_ex.c ****   */
1432:Drivers/STM32F1xx_HAL_Driver/Src/stm32f1xx_hal_tim_ex.c **** 
1433:Drivers/STM32F1xx_HAL_Driver/Src/stm32f1xx_hal_tim_ex.c **** #endif /* defined(STM32F100xB) || defined(STM32F100xE) ||                                          
ARM GAS  /tmp/ccpgqo2Y.s 			page 79


1434:Drivers/STM32F1xx_HAL_Driver/Src/stm32f1xx_hal_tim_ex.c ****        /* defined(STM32F103x6) || defined(STM32F103xB) || defined(STM32F103xE) || defined(STM32F103
1435:Drivers/STM32F1xx_HAL_Driver/Src/stm32f1xx_hal_tim_ex.c ****        /* defined(STM32F105xC) || defined(STM32F107xC)                                             
1436:Drivers/STM32F1xx_HAL_Driver/Src/stm32f1xx_hal_tim_ex.c **** 
1437:Drivers/STM32F1xx_HAL_Driver/Src/stm32f1xx_hal_tim_ex.c **** /** @defgroup TIMEx_Exported_Functions_Group5 Peripheral Control functions
1438:Drivers/STM32F1xx_HAL_Driver/Src/stm32f1xx_hal_tim_ex.c ****  *  @brief   	Peripheral Control functions
1439:Drivers/STM32F1xx_HAL_Driver/Src/stm32f1xx_hal_tim_ex.c ****  *
1440:Drivers/STM32F1xx_HAL_Driver/Src/stm32f1xx_hal_tim_ex.c **** @verbatim
1441:Drivers/STM32F1xx_HAL_Driver/Src/stm32f1xx_hal_tim_ex.c ****   ==============================================================================
1442:Drivers/STM32F1xx_HAL_Driver/Src/stm32f1xx_hal_tim_ex.c ****                     ##### Peripheral Control functions #####
1443:Drivers/STM32F1xx_HAL_Driver/Src/stm32f1xx_hal_tim_ex.c ****   ==============================================================================
1444:Drivers/STM32F1xx_HAL_Driver/Src/stm32f1xx_hal_tim_ex.c ****   [..]
1445:Drivers/STM32F1xx_HAL_Driver/Src/stm32f1xx_hal_tim_ex.c ****     This section provides functions allowing to:
1446:Drivers/STM32F1xx_HAL_Driver/Src/stm32f1xx_hal_tim_ex.c ****     (+) Configure the commutation event in case of use of the Hall sensor interface.
1447:Drivers/STM32F1xx_HAL_Driver/Src/stm32f1xx_hal_tim_ex.c ****       (+) Configure Complementary channels, break features and dead time.
1448:Drivers/STM32F1xx_HAL_Driver/Src/stm32f1xx_hal_tim_ex.c ****       (+) Configure Master synchronization.
1449:Drivers/STM32F1xx_HAL_Driver/Src/stm32f1xx_hal_tim_ex.c **** 
1450:Drivers/STM32F1xx_HAL_Driver/Src/stm32f1xx_hal_tim_ex.c **** @endverbatim
1451:Drivers/STM32F1xx_HAL_Driver/Src/stm32f1xx_hal_tim_ex.c ****   * @{
1452:Drivers/STM32F1xx_HAL_Driver/Src/stm32f1xx_hal_tim_ex.c ****   */
1453:Drivers/STM32F1xx_HAL_Driver/Src/stm32f1xx_hal_tim_ex.c **** 
1454:Drivers/STM32F1xx_HAL_Driver/Src/stm32f1xx_hal_tim_ex.c **** #if defined (STM32F100xB) || defined (STM32F100xE) ||                                              
1455:Drivers/STM32F1xx_HAL_Driver/Src/stm32f1xx_hal_tim_ex.c ****     defined (STM32F103x6) || defined (STM32F103xB) || defined (STM32F103xE) || defined (STM32F103xG
1456:Drivers/STM32F1xx_HAL_Driver/Src/stm32f1xx_hal_tim_ex.c ****     defined (STM32F105xC) || defined (STM32F107xC)
1457:Drivers/STM32F1xx_HAL_Driver/Src/stm32f1xx_hal_tim_ex.c **** 
1458:Drivers/STM32F1xx_HAL_Driver/Src/stm32f1xx_hal_tim_ex.c **** /**
1459:Drivers/STM32F1xx_HAL_Driver/Src/stm32f1xx_hal_tim_ex.c ****   * @brief  Configure the TIM commutation event sequence.
1460:Drivers/STM32F1xx_HAL_Driver/Src/stm32f1xx_hal_tim_ex.c ****   * @note: this function is mandatory to use the commutation event in order to
1461:Drivers/STM32F1xx_HAL_Driver/Src/stm32f1xx_hal_tim_ex.c ****   *        update the configuration at each commutation detection on the TRGI input of the Timer,
1462:Drivers/STM32F1xx_HAL_Driver/Src/stm32f1xx_hal_tim_ex.c ****   *        the typical use of this feature is with the use of another Timer(interface Timer)
1463:Drivers/STM32F1xx_HAL_Driver/Src/stm32f1xx_hal_tim_ex.c ****   *        configured in Hall sensor interface, this interface Timer will generate the
1464:Drivers/STM32F1xx_HAL_Driver/Src/stm32f1xx_hal_tim_ex.c ****   *        commutation at its TRGO output (connected to Timer used in this function) each time
1465:Drivers/STM32F1xx_HAL_Driver/Src/stm32f1xx_hal_tim_ex.c ****   *        the TI1 of the Interface Timer detect a commutation at its input TI1.
1466:Drivers/STM32F1xx_HAL_Driver/Src/stm32f1xx_hal_tim_ex.c ****   * @param  htim : TIM handle
1467:Drivers/STM32F1xx_HAL_Driver/Src/stm32f1xx_hal_tim_ex.c ****   * @param  InputTrigger : the Internal trigger corresponding to the Timer Interfacing with the Hal
1468:Drivers/STM32F1xx_HAL_Driver/Src/stm32f1xx_hal_tim_ex.c ****   *          This parameter can be one of the following values:
1469:Drivers/STM32F1xx_HAL_Driver/Src/stm32f1xx_hal_tim_ex.c ****   *            @arg TIM_TS_ITR0: Internal trigger 0 selected
1470:Drivers/STM32F1xx_HAL_Driver/Src/stm32f1xx_hal_tim_ex.c ****   *            @arg TIM_TS_ITR1: Internal trigger 1 selected
1471:Drivers/STM32F1xx_HAL_Driver/Src/stm32f1xx_hal_tim_ex.c ****   *            @arg TIM_TS_ITR2: Internal trigger 2 selected
1472:Drivers/STM32F1xx_HAL_Driver/Src/stm32f1xx_hal_tim_ex.c ****   *            @arg TIM_TS_ITR3: Internal trigger 3 selected
1473:Drivers/STM32F1xx_HAL_Driver/Src/stm32f1xx_hal_tim_ex.c ****   *            @arg TIM_TS_NONE: No trigger is needed
1474:Drivers/STM32F1xx_HAL_Driver/Src/stm32f1xx_hal_tim_ex.c ****   * @param  CommutationSource : the Commutation Event source
1475:Drivers/STM32F1xx_HAL_Driver/Src/stm32f1xx_hal_tim_ex.c ****   *          This parameter can be one of the following values:
1476:Drivers/STM32F1xx_HAL_Driver/Src/stm32f1xx_hal_tim_ex.c ****   *            @arg TIM_COMMUTATION_TRGI: Commutation source is the TRGI of the Interface Timer
1477:Drivers/STM32F1xx_HAL_Driver/Src/stm32f1xx_hal_tim_ex.c ****   *            @arg TIM_COMMUTATION_SOFTWARE:  Commutation source is set by software using the COMG
1478:Drivers/STM32F1xx_HAL_Driver/Src/stm32f1xx_hal_tim_ex.c ****   * @retval HAL status
1479:Drivers/STM32F1xx_HAL_Driver/Src/stm32f1xx_hal_tim_ex.c ****   */
1480:Drivers/STM32F1xx_HAL_Driver/Src/stm32f1xx_hal_tim_ex.c **** HAL_StatusTypeDef HAL_TIMEx_ConfigCommutationEvent(TIM_HandleTypeDef *htim, uint32_t  InputTrigger,
1481:Drivers/STM32F1xx_HAL_Driver/Src/stm32f1xx_hal_tim_ex.c **** {
 3067              		.loc 1 1481 0
 3068              		.cfi_startproc
 3069              		@ args = 0, pretend = 0, frame = 16
 3070              		@ frame_needed = 1, uses_anonymous_args = 0
 3071              		@ link register save eliminated.
 3072 0000 80B4     		push	{r7}
 3073              	.LCFI132:
 3074              		.cfi_def_cfa_offset 4
 3075              		.cfi_offset 7, -4
ARM GAS  /tmp/ccpgqo2Y.s 			page 80


 3076 0002 85B0     		sub	sp, sp, #20
 3077              	.LCFI133:
 3078              		.cfi_def_cfa_offset 24
 3079 0004 00AF     		add	r7, sp, #0
 3080              	.LCFI134:
 3081              		.cfi_def_cfa_register 7
 3082 0006 F860     		str	r0, [r7, #12]
 3083 0008 B960     		str	r1, [r7, #8]
 3084 000a 7A60     		str	r2, [r7, #4]
1482:Drivers/STM32F1xx_HAL_Driver/Src/stm32f1xx_hal_tim_ex.c ****   /* Check the parameters */
1483:Drivers/STM32F1xx_HAL_Driver/Src/stm32f1xx_hal_tim_ex.c ****   assert_param(IS_TIM_COMMUTATION_EVENT_INSTANCE(htim->Instance));
1484:Drivers/STM32F1xx_HAL_Driver/Src/stm32f1xx_hal_tim_ex.c ****   assert_param(IS_TIM_INTERNAL_TRIGGEREVENT_SELECTION(InputTrigger));
1485:Drivers/STM32F1xx_HAL_Driver/Src/stm32f1xx_hal_tim_ex.c **** 
1486:Drivers/STM32F1xx_HAL_Driver/Src/stm32f1xx_hal_tim_ex.c ****   __HAL_LOCK(htim);
 3085              		.loc 1 1486 0
 3086 000c FB68     		ldr	r3, [r7, #12]
 3087 000e 93F83C30 		ldrb	r3, [r3, #60]	@ zero_extendqisi2
 3088 0012 012B     		cmp	r3, #1
 3089 0014 01D1     		bne	.L156
 3090              		.loc 1 1486 0 is_stmt 0 discriminator 1
 3091 0016 0223     		movs	r3, #2
 3092 0018 3CE0     		b	.L157
 3093              	.L156:
 3094              		.loc 1 1486 0 discriminator 2
 3095 001a FB68     		ldr	r3, [r7, #12]
 3096 001c 0122     		movs	r2, #1
 3097 001e 83F83C20 		strb	r2, [r3, #60]
1487:Drivers/STM32F1xx_HAL_Driver/Src/stm32f1xx_hal_tim_ex.c **** 
1488:Drivers/STM32F1xx_HAL_Driver/Src/stm32f1xx_hal_tim_ex.c ****   if ((InputTrigger == TIM_TS_ITR0) || (InputTrigger == TIM_TS_ITR1) ||
 3098              		.loc 1 1488 0 is_stmt 1 discriminator 2
 3099 0022 BB68     		ldr	r3, [r7, #8]
 3100 0024 002B     		cmp	r3, #0
 3101 0026 08D0     		beq	.L158
 3102              		.loc 1 1488 0 is_stmt 0 discriminator 1
 3103 0028 BB68     		ldr	r3, [r7, #8]
 3104 002a 102B     		cmp	r3, #16
 3105 002c 05D0     		beq	.L158
 3106              		.loc 1 1488 0 discriminator 2
 3107 002e BB68     		ldr	r3, [r7, #8]
 3108 0030 202B     		cmp	r3, #32
 3109 0032 02D0     		beq	.L158
1489:Drivers/STM32F1xx_HAL_Driver/Src/stm32f1xx_hal_tim_ex.c ****       (InputTrigger == TIM_TS_ITR2) || (InputTrigger == TIM_TS_ITR3))
 3110              		.loc 1 1489 0 is_stmt 1
 3111 0034 BB68     		ldr	r3, [r7, #8]
 3112 0036 302B     		cmp	r3, #48
 3113 0038 0FD1     		bne	.L159
 3114              	.L158:
1490:Drivers/STM32F1xx_HAL_Driver/Src/stm32f1xx_hal_tim_ex.c ****   {
1491:Drivers/STM32F1xx_HAL_Driver/Src/stm32f1xx_hal_tim_ex.c ****     /* Select the Input trigger */
1492:Drivers/STM32F1xx_HAL_Driver/Src/stm32f1xx_hal_tim_ex.c ****     htim->Instance->SMCR &= ~TIM_SMCR_TS;
 3115              		.loc 1 1492 0
 3116 003a FB68     		ldr	r3, [r7, #12]
 3117 003c 1B68     		ldr	r3, [r3]
 3118 003e 9A68     		ldr	r2, [r3, #8]
 3119 0040 FB68     		ldr	r3, [r7, #12]
 3120 0042 1B68     		ldr	r3, [r3]
 3121 0044 22F07002 		bic	r2, r2, #112
ARM GAS  /tmp/ccpgqo2Y.s 			page 81


 3122 0048 9A60     		str	r2, [r3, #8]
1493:Drivers/STM32F1xx_HAL_Driver/Src/stm32f1xx_hal_tim_ex.c ****     htim->Instance->SMCR |= InputTrigger;
 3123              		.loc 1 1493 0
 3124 004a FB68     		ldr	r3, [r7, #12]
 3125 004c 1B68     		ldr	r3, [r3]
 3126 004e 9968     		ldr	r1, [r3, #8]
 3127 0050 FB68     		ldr	r3, [r7, #12]
 3128 0052 1B68     		ldr	r3, [r3]
 3129 0054 BA68     		ldr	r2, [r7, #8]
 3130 0056 0A43     		orrs	r2, r2, r1
 3131 0058 9A60     		str	r2, [r3, #8]
 3132              	.L159:
1494:Drivers/STM32F1xx_HAL_Driver/Src/stm32f1xx_hal_tim_ex.c ****   }
1495:Drivers/STM32F1xx_HAL_Driver/Src/stm32f1xx_hal_tim_ex.c **** 
1496:Drivers/STM32F1xx_HAL_Driver/Src/stm32f1xx_hal_tim_ex.c ****   /* Select the Capture Compare preload feature */
1497:Drivers/STM32F1xx_HAL_Driver/Src/stm32f1xx_hal_tim_ex.c ****   htim->Instance->CR2 |= TIM_CR2_CCPC;
 3133              		.loc 1 1497 0
 3134 005a FB68     		ldr	r3, [r7, #12]
 3135 005c 1B68     		ldr	r3, [r3]
 3136 005e 5A68     		ldr	r2, [r3, #4]
 3137 0060 FB68     		ldr	r3, [r7, #12]
 3138 0062 1B68     		ldr	r3, [r3]
 3139 0064 42F00102 		orr	r2, r2, #1
 3140 0068 5A60     		str	r2, [r3, #4]
1498:Drivers/STM32F1xx_HAL_Driver/Src/stm32f1xx_hal_tim_ex.c ****   /* Select the Commutation event source */
1499:Drivers/STM32F1xx_HAL_Driver/Src/stm32f1xx_hal_tim_ex.c ****   htim->Instance->CR2 &= ~TIM_CR2_CCUS;
 3141              		.loc 1 1499 0
 3142 006a FB68     		ldr	r3, [r7, #12]
 3143 006c 1B68     		ldr	r3, [r3]
 3144 006e 5A68     		ldr	r2, [r3, #4]
 3145 0070 FB68     		ldr	r3, [r7, #12]
 3146 0072 1B68     		ldr	r3, [r3]
 3147 0074 22F00402 		bic	r2, r2, #4
 3148 0078 5A60     		str	r2, [r3, #4]
1500:Drivers/STM32F1xx_HAL_Driver/Src/stm32f1xx_hal_tim_ex.c ****   htim->Instance->CR2 |= CommutationSource;
 3149              		.loc 1 1500 0
 3150 007a FB68     		ldr	r3, [r7, #12]
 3151 007c 1B68     		ldr	r3, [r3]
 3152 007e 5968     		ldr	r1, [r3, #4]
 3153 0080 FB68     		ldr	r3, [r7, #12]
 3154 0082 1B68     		ldr	r3, [r3]
 3155 0084 7A68     		ldr	r2, [r7, #4]
 3156 0086 0A43     		orrs	r2, r2, r1
 3157 0088 5A60     		str	r2, [r3, #4]
1501:Drivers/STM32F1xx_HAL_Driver/Src/stm32f1xx_hal_tim_ex.c **** 
1502:Drivers/STM32F1xx_HAL_Driver/Src/stm32f1xx_hal_tim_ex.c ****   __HAL_UNLOCK(htim);
 3158              		.loc 1 1502 0
 3159 008a FB68     		ldr	r3, [r7, #12]
 3160 008c 0022     		movs	r2, #0
 3161 008e 83F83C20 		strb	r2, [r3, #60]
1503:Drivers/STM32F1xx_HAL_Driver/Src/stm32f1xx_hal_tim_ex.c **** 
1504:Drivers/STM32F1xx_HAL_Driver/Src/stm32f1xx_hal_tim_ex.c ****   return HAL_OK;
 3162              		.loc 1 1504 0
 3163 0092 0023     		movs	r3, #0
 3164              	.L157:
1505:Drivers/STM32F1xx_HAL_Driver/Src/stm32f1xx_hal_tim_ex.c **** }
 3165              		.loc 1 1505 0
ARM GAS  /tmp/ccpgqo2Y.s 			page 82


 3166 0094 1846     		mov	r0, r3
 3167 0096 1437     		adds	r7, r7, #20
 3168              	.LCFI135:
 3169              		.cfi_def_cfa_offset 4
 3170 0098 BD46     		mov	sp, r7
 3171              	.LCFI136:
 3172              		.cfi_def_cfa_register 13
 3173              		@ sp needed
 3174 009a 80BC     		pop	{r7}
 3175              	.LCFI137:
 3176              		.cfi_restore 7
 3177              		.cfi_def_cfa_offset 0
 3178 009c 7047     		bx	lr
 3179              		.cfi_endproc
 3180              	.LFE92:
 3182              		.section	.text.HAL_TIMEx_ConfigCommutationEvent_IT,"ax",%progbits
 3183              		.align	1
 3184              		.global	HAL_TIMEx_ConfigCommutationEvent_IT
 3185              		.syntax unified
 3186              		.thumb
 3187              		.thumb_func
 3188              		.fpu softvfp
 3190              	HAL_TIMEx_ConfigCommutationEvent_IT:
 3191              	.LFB93:
1506:Drivers/STM32F1xx_HAL_Driver/Src/stm32f1xx_hal_tim_ex.c **** 
1507:Drivers/STM32F1xx_HAL_Driver/Src/stm32f1xx_hal_tim_ex.c **** /**
1508:Drivers/STM32F1xx_HAL_Driver/Src/stm32f1xx_hal_tim_ex.c ****   * @brief  Configure the TIM commutation event sequence with interrupt.
1509:Drivers/STM32F1xx_HAL_Driver/Src/stm32f1xx_hal_tim_ex.c ****   * @note: this function is mandatory to use the commutation event in order to
1510:Drivers/STM32F1xx_HAL_Driver/Src/stm32f1xx_hal_tim_ex.c ****   *        update the configuration at each commutation detection on the TRGI input of the Timer,
1511:Drivers/STM32F1xx_HAL_Driver/Src/stm32f1xx_hal_tim_ex.c ****   *        the typical use of this feature is with the use of another Timer(interface Timer)
1512:Drivers/STM32F1xx_HAL_Driver/Src/stm32f1xx_hal_tim_ex.c ****   *        configured in Hall sensor interface, this interface Timer will generate the
1513:Drivers/STM32F1xx_HAL_Driver/Src/stm32f1xx_hal_tim_ex.c ****   *        commutation at its TRGO output (connected to Timer used in this function) each time
1514:Drivers/STM32F1xx_HAL_Driver/Src/stm32f1xx_hal_tim_ex.c ****   *        the TI1 of the Interface Timer detect a commutation at its input TI1.
1515:Drivers/STM32F1xx_HAL_Driver/Src/stm32f1xx_hal_tim_ex.c ****   * @param  htim : TIM handle
1516:Drivers/STM32F1xx_HAL_Driver/Src/stm32f1xx_hal_tim_ex.c ****   * @param  InputTrigger : the Internal trigger corresponding to the Timer Interfacing with the Hal
1517:Drivers/STM32F1xx_HAL_Driver/Src/stm32f1xx_hal_tim_ex.c ****   *          This parameter can be one of the following values:
1518:Drivers/STM32F1xx_HAL_Driver/Src/stm32f1xx_hal_tim_ex.c ****   *            @arg TIM_TS_ITR0: Internal trigger 0 selected
1519:Drivers/STM32F1xx_HAL_Driver/Src/stm32f1xx_hal_tim_ex.c ****   *            @arg TIM_TS_ITR1: Internal trigger 1 selected
1520:Drivers/STM32F1xx_HAL_Driver/Src/stm32f1xx_hal_tim_ex.c ****   *            @arg TIM_TS_ITR2: Internal trigger 2 selected
1521:Drivers/STM32F1xx_HAL_Driver/Src/stm32f1xx_hal_tim_ex.c ****   *            @arg TIM_TS_ITR3: Internal trigger 3 selected
1522:Drivers/STM32F1xx_HAL_Driver/Src/stm32f1xx_hal_tim_ex.c ****   *            @arg TIM_TS_NONE: No trigger is needed
1523:Drivers/STM32F1xx_HAL_Driver/Src/stm32f1xx_hal_tim_ex.c ****   * @param  CommutationSource : the Commutation Event source
1524:Drivers/STM32F1xx_HAL_Driver/Src/stm32f1xx_hal_tim_ex.c ****   *          This parameter can be one of the following values:
1525:Drivers/STM32F1xx_HAL_Driver/Src/stm32f1xx_hal_tim_ex.c ****   *            @arg TIM_COMMUTATION_TRGI: Commutation source is the TRGI of the Interface Timer
1526:Drivers/STM32F1xx_HAL_Driver/Src/stm32f1xx_hal_tim_ex.c ****   *            @arg TIM_COMMUTATION_SOFTWARE:  Commutation source is set by software using the COMG
1527:Drivers/STM32F1xx_HAL_Driver/Src/stm32f1xx_hal_tim_ex.c ****   * @retval HAL status
1528:Drivers/STM32F1xx_HAL_Driver/Src/stm32f1xx_hal_tim_ex.c ****   */
1529:Drivers/STM32F1xx_HAL_Driver/Src/stm32f1xx_hal_tim_ex.c **** HAL_StatusTypeDef HAL_TIMEx_ConfigCommutationEvent_IT(TIM_HandleTypeDef *htim, uint32_t  InputTrigg
1530:Drivers/STM32F1xx_HAL_Driver/Src/stm32f1xx_hal_tim_ex.c **** {
 3192              		.loc 1 1530 0
 3193              		.cfi_startproc
 3194              		@ args = 0, pretend = 0, frame = 16
 3195              		@ frame_needed = 1, uses_anonymous_args = 0
 3196              		@ link register save eliminated.
 3197 0000 80B4     		push	{r7}
 3198              	.LCFI138:
 3199              		.cfi_def_cfa_offset 4
ARM GAS  /tmp/ccpgqo2Y.s 			page 83


 3200              		.cfi_offset 7, -4
 3201 0002 85B0     		sub	sp, sp, #20
 3202              	.LCFI139:
 3203              		.cfi_def_cfa_offset 24
 3204 0004 00AF     		add	r7, sp, #0
 3205              	.LCFI140:
 3206              		.cfi_def_cfa_register 7
 3207 0006 F860     		str	r0, [r7, #12]
 3208 0008 B960     		str	r1, [r7, #8]
 3209 000a 7A60     		str	r2, [r7, #4]
1531:Drivers/STM32F1xx_HAL_Driver/Src/stm32f1xx_hal_tim_ex.c ****   /* Check the parameters */
1532:Drivers/STM32F1xx_HAL_Driver/Src/stm32f1xx_hal_tim_ex.c ****   assert_param(IS_TIM_COMMUTATION_EVENT_INSTANCE(htim->Instance));
1533:Drivers/STM32F1xx_HAL_Driver/Src/stm32f1xx_hal_tim_ex.c ****   assert_param(IS_TIM_INTERNAL_TRIGGEREVENT_SELECTION(InputTrigger));
1534:Drivers/STM32F1xx_HAL_Driver/Src/stm32f1xx_hal_tim_ex.c **** 
1535:Drivers/STM32F1xx_HAL_Driver/Src/stm32f1xx_hal_tim_ex.c ****   __HAL_LOCK(htim);
 3210              		.loc 1 1535 0
 3211 000c FB68     		ldr	r3, [r7, #12]
 3212 000e 93F83C30 		ldrb	r3, [r3, #60]	@ zero_extendqisi2
 3213 0012 012B     		cmp	r3, #1
 3214 0014 01D1     		bne	.L161
 3215              		.loc 1 1535 0 is_stmt 0 discriminator 1
 3216 0016 0223     		movs	r3, #2
 3217 0018 44E0     		b	.L162
 3218              	.L161:
 3219              		.loc 1 1535 0 discriminator 2
 3220 001a FB68     		ldr	r3, [r7, #12]
 3221 001c 0122     		movs	r2, #1
 3222 001e 83F83C20 		strb	r2, [r3, #60]
1536:Drivers/STM32F1xx_HAL_Driver/Src/stm32f1xx_hal_tim_ex.c **** 
1537:Drivers/STM32F1xx_HAL_Driver/Src/stm32f1xx_hal_tim_ex.c ****   if ((InputTrigger == TIM_TS_ITR0) || (InputTrigger == TIM_TS_ITR1) ||
 3223              		.loc 1 1537 0 is_stmt 1 discriminator 2
 3224 0022 BB68     		ldr	r3, [r7, #8]
 3225 0024 002B     		cmp	r3, #0
 3226 0026 08D0     		beq	.L163
 3227              		.loc 1 1537 0 is_stmt 0 discriminator 1
 3228 0028 BB68     		ldr	r3, [r7, #8]
 3229 002a 102B     		cmp	r3, #16
 3230 002c 05D0     		beq	.L163
 3231              		.loc 1 1537 0 discriminator 2
 3232 002e BB68     		ldr	r3, [r7, #8]
 3233 0030 202B     		cmp	r3, #32
 3234 0032 02D0     		beq	.L163
1538:Drivers/STM32F1xx_HAL_Driver/Src/stm32f1xx_hal_tim_ex.c ****       (InputTrigger == TIM_TS_ITR2) || (InputTrigger == TIM_TS_ITR3))
 3235              		.loc 1 1538 0 is_stmt 1
 3236 0034 BB68     		ldr	r3, [r7, #8]
 3237 0036 302B     		cmp	r3, #48
 3238 0038 0FD1     		bne	.L164
 3239              	.L163:
1539:Drivers/STM32F1xx_HAL_Driver/Src/stm32f1xx_hal_tim_ex.c ****   {
1540:Drivers/STM32F1xx_HAL_Driver/Src/stm32f1xx_hal_tim_ex.c ****     /* Select the Input trigger */
1541:Drivers/STM32F1xx_HAL_Driver/Src/stm32f1xx_hal_tim_ex.c ****     htim->Instance->SMCR &= ~TIM_SMCR_TS;
 3240              		.loc 1 1541 0
 3241 003a FB68     		ldr	r3, [r7, #12]
 3242 003c 1B68     		ldr	r3, [r3]
 3243 003e 9A68     		ldr	r2, [r3, #8]
 3244 0040 FB68     		ldr	r3, [r7, #12]
 3245 0042 1B68     		ldr	r3, [r3]
ARM GAS  /tmp/ccpgqo2Y.s 			page 84


 3246 0044 22F07002 		bic	r2, r2, #112
 3247 0048 9A60     		str	r2, [r3, #8]
1542:Drivers/STM32F1xx_HAL_Driver/Src/stm32f1xx_hal_tim_ex.c ****     htim->Instance->SMCR |= InputTrigger;
 3248              		.loc 1 1542 0
 3249 004a FB68     		ldr	r3, [r7, #12]
 3250 004c 1B68     		ldr	r3, [r3]
 3251 004e 9968     		ldr	r1, [r3, #8]
 3252 0050 FB68     		ldr	r3, [r7, #12]
 3253 0052 1B68     		ldr	r3, [r3]
 3254 0054 BA68     		ldr	r2, [r7, #8]
 3255 0056 0A43     		orrs	r2, r2, r1
 3256 0058 9A60     		str	r2, [r3, #8]
 3257              	.L164:
1543:Drivers/STM32F1xx_HAL_Driver/Src/stm32f1xx_hal_tim_ex.c ****   }
1544:Drivers/STM32F1xx_HAL_Driver/Src/stm32f1xx_hal_tim_ex.c **** 
1545:Drivers/STM32F1xx_HAL_Driver/Src/stm32f1xx_hal_tim_ex.c ****   /* Select the Capture Compare preload feature */
1546:Drivers/STM32F1xx_HAL_Driver/Src/stm32f1xx_hal_tim_ex.c ****   htim->Instance->CR2 |= TIM_CR2_CCPC;
 3258              		.loc 1 1546 0
 3259 005a FB68     		ldr	r3, [r7, #12]
 3260 005c 1B68     		ldr	r3, [r3]
 3261 005e 5A68     		ldr	r2, [r3, #4]
 3262 0060 FB68     		ldr	r3, [r7, #12]
 3263 0062 1B68     		ldr	r3, [r3]
 3264 0064 42F00102 		orr	r2, r2, #1
 3265 0068 5A60     		str	r2, [r3, #4]
1547:Drivers/STM32F1xx_HAL_Driver/Src/stm32f1xx_hal_tim_ex.c ****   /* Select the Commutation event source */
1548:Drivers/STM32F1xx_HAL_Driver/Src/stm32f1xx_hal_tim_ex.c ****   htim->Instance->CR2 &= ~TIM_CR2_CCUS;
 3266              		.loc 1 1548 0
 3267 006a FB68     		ldr	r3, [r7, #12]
 3268 006c 1B68     		ldr	r3, [r3]
 3269 006e 5A68     		ldr	r2, [r3, #4]
 3270 0070 FB68     		ldr	r3, [r7, #12]
 3271 0072 1B68     		ldr	r3, [r3]
 3272 0074 22F00402 		bic	r2, r2, #4
 3273 0078 5A60     		str	r2, [r3, #4]
1549:Drivers/STM32F1xx_HAL_Driver/Src/stm32f1xx_hal_tim_ex.c ****   htim->Instance->CR2 |= CommutationSource;
 3274              		.loc 1 1549 0
 3275 007a FB68     		ldr	r3, [r7, #12]
 3276 007c 1B68     		ldr	r3, [r3]
 3277 007e 5968     		ldr	r1, [r3, #4]
 3278 0080 FB68     		ldr	r3, [r7, #12]
 3279 0082 1B68     		ldr	r3, [r3]
 3280 0084 7A68     		ldr	r2, [r7, #4]
 3281 0086 0A43     		orrs	r2, r2, r1
 3282 0088 5A60     		str	r2, [r3, #4]
1550:Drivers/STM32F1xx_HAL_Driver/Src/stm32f1xx_hal_tim_ex.c **** 
1551:Drivers/STM32F1xx_HAL_Driver/Src/stm32f1xx_hal_tim_ex.c ****   /* Enable the Commutation Interrupt Request */
1552:Drivers/STM32F1xx_HAL_Driver/Src/stm32f1xx_hal_tim_ex.c ****   __HAL_TIM_ENABLE_IT(htim, TIM_IT_COM);
 3283              		.loc 1 1552 0
 3284 008a FB68     		ldr	r3, [r7, #12]
 3285 008c 1B68     		ldr	r3, [r3]
 3286 008e DA68     		ldr	r2, [r3, #12]
 3287 0090 FB68     		ldr	r3, [r7, #12]
 3288 0092 1B68     		ldr	r3, [r3]
 3289 0094 42F02002 		orr	r2, r2, #32
 3290 0098 DA60     		str	r2, [r3, #12]
1553:Drivers/STM32F1xx_HAL_Driver/Src/stm32f1xx_hal_tim_ex.c **** 
ARM GAS  /tmp/ccpgqo2Y.s 			page 85


1554:Drivers/STM32F1xx_HAL_Driver/Src/stm32f1xx_hal_tim_ex.c ****   __HAL_UNLOCK(htim);
 3291              		.loc 1 1554 0
 3292 009a FB68     		ldr	r3, [r7, #12]
 3293 009c 0022     		movs	r2, #0
 3294 009e 83F83C20 		strb	r2, [r3, #60]
1555:Drivers/STM32F1xx_HAL_Driver/Src/stm32f1xx_hal_tim_ex.c **** 
1556:Drivers/STM32F1xx_HAL_Driver/Src/stm32f1xx_hal_tim_ex.c ****   return HAL_OK;
 3295              		.loc 1 1556 0
 3296 00a2 0023     		movs	r3, #0
 3297              	.L162:
1557:Drivers/STM32F1xx_HAL_Driver/Src/stm32f1xx_hal_tim_ex.c **** }
 3298              		.loc 1 1557 0
 3299 00a4 1846     		mov	r0, r3
 3300 00a6 1437     		adds	r7, r7, #20
 3301              	.LCFI141:
 3302              		.cfi_def_cfa_offset 4
 3303 00a8 BD46     		mov	sp, r7
 3304              	.LCFI142:
 3305              		.cfi_def_cfa_register 13
 3306              		@ sp needed
 3307 00aa 80BC     		pop	{r7}
 3308              	.LCFI143:
 3309              		.cfi_restore 7
 3310              		.cfi_def_cfa_offset 0
 3311 00ac 7047     		bx	lr
 3312              		.cfi_endproc
 3313              	.LFE93:
 3315              		.section	.text.HAL_TIMEx_ConfigCommutationEvent_DMA,"ax",%progbits
 3316              		.align	1
 3317              		.global	HAL_TIMEx_ConfigCommutationEvent_DMA
 3318              		.syntax unified
 3319              		.thumb
 3320              		.thumb_func
 3321              		.fpu softvfp
 3323              	HAL_TIMEx_ConfigCommutationEvent_DMA:
 3324              	.LFB94:
1558:Drivers/STM32F1xx_HAL_Driver/Src/stm32f1xx_hal_tim_ex.c **** 
1559:Drivers/STM32F1xx_HAL_Driver/Src/stm32f1xx_hal_tim_ex.c **** /**
1560:Drivers/STM32F1xx_HAL_Driver/Src/stm32f1xx_hal_tim_ex.c ****   * @brief  Configure the TIM commutation event sequence with DMA.
1561:Drivers/STM32F1xx_HAL_Driver/Src/stm32f1xx_hal_tim_ex.c ****   * @note: this function is mandatory to use the commutation event in order to
1562:Drivers/STM32F1xx_HAL_Driver/Src/stm32f1xx_hal_tim_ex.c ****   *        update the configuration at each commutation detection on the TRGI input of the Timer,
1563:Drivers/STM32F1xx_HAL_Driver/Src/stm32f1xx_hal_tim_ex.c ****   *        the typical use of this feature is with the use of another Timer(interface Timer)
1564:Drivers/STM32F1xx_HAL_Driver/Src/stm32f1xx_hal_tim_ex.c ****   *        configured in Hall sensor interface, this interface Timer will generate the
1565:Drivers/STM32F1xx_HAL_Driver/Src/stm32f1xx_hal_tim_ex.c ****   *        commutation at its TRGO output (connected to Timer used in this function) each time
1566:Drivers/STM32F1xx_HAL_Driver/Src/stm32f1xx_hal_tim_ex.c ****   *        the TI1 of the Interface Timer detect a commutation at its input TI1.
1567:Drivers/STM32F1xx_HAL_Driver/Src/stm32f1xx_hal_tim_ex.c ****   * @note: The user should configure the DMA in his own software, in This function only the COMDE b
1568:Drivers/STM32F1xx_HAL_Driver/Src/stm32f1xx_hal_tim_ex.c ****   * @param  htim : TIM handle
1569:Drivers/STM32F1xx_HAL_Driver/Src/stm32f1xx_hal_tim_ex.c ****   * @param  InputTrigger : the Internal trigger corresponding to the Timer Interfacing with the Hal
1570:Drivers/STM32F1xx_HAL_Driver/Src/stm32f1xx_hal_tim_ex.c ****   *          This parameter can be one of the following values:
1571:Drivers/STM32F1xx_HAL_Driver/Src/stm32f1xx_hal_tim_ex.c ****   *            @arg TIM_TS_ITR0: Internal trigger 0 selected
1572:Drivers/STM32F1xx_HAL_Driver/Src/stm32f1xx_hal_tim_ex.c ****   *            @arg TIM_TS_ITR1: Internal trigger 1 selected
1573:Drivers/STM32F1xx_HAL_Driver/Src/stm32f1xx_hal_tim_ex.c ****   *            @arg TIM_TS_ITR2: Internal trigger 2 selected
1574:Drivers/STM32F1xx_HAL_Driver/Src/stm32f1xx_hal_tim_ex.c ****   *            @arg TIM_TS_ITR3: Internal trigger 3 selected
1575:Drivers/STM32F1xx_HAL_Driver/Src/stm32f1xx_hal_tim_ex.c ****   *            @arg TIM_TS_NONE: No trigger is needed
1576:Drivers/STM32F1xx_HAL_Driver/Src/stm32f1xx_hal_tim_ex.c ****   * @param  CommutationSource : the Commutation Event source
1577:Drivers/STM32F1xx_HAL_Driver/Src/stm32f1xx_hal_tim_ex.c ****   *          This parameter can be one of the following values:
1578:Drivers/STM32F1xx_HAL_Driver/Src/stm32f1xx_hal_tim_ex.c ****   *            @arg TIM_COMMUTATION_TRGI: Commutation source is the TRGI of the Interface Timer
ARM GAS  /tmp/ccpgqo2Y.s 			page 86


1579:Drivers/STM32F1xx_HAL_Driver/Src/stm32f1xx_hal_tim_ex.c ****   *            @arg TIM_COMMUTATION_SOFTWARE:  Commutation source is set by software using the COMG
1580:Drivers/STM32F1xx_HAL_Driver/Src/stm32f1xx_hal_tim_ex.c ****   * @retval HAL status
1581:Drivers/STM32F1xx_HAL_Driver/Src/stm32f1xx_hal_tim_ex.c ****   */
1582:Drivers/STM32F1xx_HAL_Driver/Src/stm32f1xx_hal_tim_ex.c **** HAL_StatusTypeDef HAL_TIMEx_ConfigCommutationEvent_DMA(TIM_HandleTypeDef *htim, uint32_t  InputTrig
1583:Drivers/STM32F1xx_HAL_Driver/Src/stm32f1xx_hal_tim_ex.c **** {
 3325              		.loc 1 1583 0
 3326              		.cfi_startproc
 3327              		@ args = 0, pretend = 0, frame = 16
 3328              		@ frame_needed = 1, uses_anonymous_args = 0
 3329              		@ link register save eliminated.
 3330 0000 80B4     		push	{r7}
 3331              	.LCFI144:
 3332              		.cfi_def_cfa_offset 4
 3333              		.cfi_offset 7, -4
 3334 0002 85B0     		sub	sp, sp, #20
 3335              	.LCFI145:
 3336              		.cfi_def_cfa_offset 24
 3337 0004 00AF     		add	r7, sp, #0
 3338              	.LCFI146:
 3339              		.cfi_def_cfa_register 7
 3340 0006 F860     		str	r0, [r7, #12]
 3341 0008 B960     		str	r1, [r7, #8]
 3342 000a 7A60     		str	r2, [r7, #4]
1584:Drivers/STM32F1xx_HAL_Driver/Src/stm32f1xx_hal_tim_ex.c ****   /* Check the parameters */
1585:Drivers/STM32F1xx_HAL_Driver/Src/stm32f1xx_hal_tim_ex.c ****   assert_param(IS_TIM_COMMUTATION_EVENT_INSTANCE(htim->Instance));
1586:Drivers/STM32F1xx_HAL_Driver/Src/stm32f1xx_hal_tim_ex.c ****   assert_param(IS_TIM_INTERNAL_TRIGGEREVENT_SELECTION(InputTrigger));
1587:Drivers/STM32F1xx_HAL_Driver/Src/stm32f1xx_hal_tim_ex.c **** 
1588:Drivers/STM32F1xx_HAL_Driver/Src/stm32f1xx_hal_tim_ex.c ****   __HAL_LOCK(htim);
 3343              		.loc 1 1588 0
 3344 000c FB68     		ldr	r3, [r7, #12]
 3345 000e 93F83C30 		ldrb	r3, [r3, #60]	@ zero_extendqisi2
 3346 0012 012B     		cmp	r3, #1
 3347 0014 01D1     		bne	.L166
 3348              		.loc 1 1588 0 is_stmt 0 discriminator 1
 3349 0016 0223     		movs	r3, #2
 3350 0018 4CE0     		b	.L167
 3351              	.L166:
 3352              		.loc 1 1588 0 discriminator 2
 3353 001a FB68     		ldr	r3, [r7, #12]
 3354 001c 0122     		movs	r2, #1
 3355 001e 83F83C20 		strb	r2, [r3, #60]
1589:Drivers/STM32F1xx_HAL_Driver/Src/stm32f1xx_hal_tim_ex.c **** 
1590:Drivers/STM32F1xx_HAL_Driver/Src/stm32f1xx_hal_tim_ex.c ****   if ((InputTrigger == TIM_TS_ITR0) || (InputTrigger == TIM_TS_ITR1) ||
 3356              		.loc 1 1590 0 is_stmt 1 discriminator 2
 3357 0022 BB68     		ldr	r3, [r7, #8]
 3358 0024 002B     		cmp	r3, #0
 3359 0026 08D0     		beq	.L168
 3360              		.loc 1 1590 0 is_stmt 0 discriminator 1
 3361 0028 BB68     		ldr	r3, [r7, #8]
 3362 002a 102B     		cmp	r3, #16
 3363 002c 05D0     		beq	.L168
 3364              		.loc 1 1590 0 discriminator 2
 3365 002e BB68     		ldr	r3, [r7, #8]
 3366 0030 202B     		cmp	r3, #32
 3367 0032 02D0     		beq	.L168
1591:Drivers/STM32F1xx_HAL_Driver/Src/stm32f1xx_hal_tim_ex.c ****       (InputTrigger == TIM_TS_ITR2) || (InputTrigger == TIM_TS_ITR3))
 3368              		.loc 1 1591 0 is_stmt 1
ARM GAS  /tmp/ccpgqo2Y.s 			page 87


 3369 0034 BB68     		ldr	r3, [r7, #8]
 3370 0036 302B     		cmp	r3, #48
 3371 0038 0FD1     		bne	.L169
 3372              	.L168:
1592:Drivers/STM32F1xx_HAL_Driver/Src/stm32f1xx_hal_tim_ex.c ****   {
1593:Drivers/STM32F1xx_HAL_Driver/Src/stm32f1xx_hal_tim_ex.c ****     /* Select the Input trigger */
1594:Drivers/STM32F1xx_HAL_Driver/Src/stm32f1xx_hal_tim_ex.c ****     htim->Instance->SMCR &= ~TIM_SMCR_TS;
 3373              		.loc 1 1594 0
 3374 003a FB68     		ldr	r3, [r7, #12]
 3375 003c 1B68     		ldr	r3, [r3]
 3376 003e 9A68     		ldr	r2, [r3, #8]
 3377 0040 FB68     		ldr	r3, [r7, #12]
 3378 0042 1B68     		ldr	r3, [r3]
 3379 0044 22F07002 		bic	r2, r2, #112
 3380 0048 9A60     		str	r2, [r3, #8]
1595:Drivers/STM32F1xx_HAL_Driver/Src/stm32f1xx_hal_tim_ex.c ****     htim->Instance->SMCR |= InputTrigger;
 3381              		.loc 1 1595 0
 3382 004a FB68     		ldr	r3, [r7, #12]
 3383 004c 1B68     		ldr	r3, [r3]
 3384 004e 9968     		ldr	r1, [r3, #8]
 3385 0050 FB68     		ldr	r3, [r7, #12]
 3386 0052 1B68     		ldr	r3, [r3]
 3387 0054 BA68     		ldr	r2, [r7, #8]
 3388 0056 0A43     		orrs	r2, r2, r1
 3389 0058 9A60     		str	r2, [r3, #8]
 3390              	.L169:
1596:Drivers/STM32F1xx_HAL_Driver/Src/stm32f1xx_hal_tim_ex.c ****   }
1597:Drivers/STM32F1xx_HAL_Driver/Src/stm32f1xx_hal_tim_ex.c **** 
1598:Drivers/STM32F1xx_HAL_Driver/Src/stm32f1xx_hal_tim_ex.c ****   /* Select the Capture Compare preload feature */
1599:Drivers/STM32F1xx_HAL_Driver/Src/stm32f1xx_hal_tim_ex.c ****   htim->Instance->CR2 |= TIM_CR2_CCPC;
 3391              		.loc 1 1599 0
 3392 005a FB68     		ldr	r3, [r7, #12]
 3393 005c 1B68     		ldr	r3, [r3]
 3394 005e 5A68     		ldr	r2, [r3, #4]
 3395 0060 FB68     		ldr	r3, [r7, #12]
 3396 0062 1B68     		ldr	r3, [r3]
 3397 0064 42F00102 		orr	r2, r2, #1
 3398 0068 5A60     		str	r2, [r3, #4]
1600:Drivers/STM32F1xx_HAL_Driver/Src/stm32f1xx_hal_tim_ex.c ****   /* Select the Commutation event source */
1601:Drivers/STM32F1xx_HAL_Driver/Src/stm32f1xx_hal_tim_ex.c ****   htim->Instance->CR2 &= ~TIM_CR2_CCUS;
 3399              		.loc 1 1601 0
 3400 006a FB68     		ldr	r3, [r7, #12]
 3401 006c 1B68     		ldr	r3, [r3]
 3402 006e 5A68     		ldr	r2, [r3, #4]
 3403 0070 FB68     		ldr	r3, [r7, #12]
 3404 0072 1B68     		ldr	r3, [r3]
 3405 0074 22F00402 		bic	r2, r2, #4
 3406 0078 5A60     		str	r2, [r3, #4]
1602:Drivers/STM32F1xx_HAL_Driver/Src/stm32f1xx_hal_tim_ex.c ****   htim->Instance->CR2 |= CommutationSource;
 3407              		.loc 1 1602 0
 3408 007a FB68     		ldr	r3, [r7, #12]
 3409 007c 1B68     		ldr	r3, [r3]
 3410 007e 5968     		ldr	r1, [r3, #4]
 3411 0080 FB68     		ldr	r3, [r7, #12]
 3412 0082 1B68     		ldr	r3, [r3]
 3413 0084 7A68     		ldr	r2, [r7, #4]
 3414 0086 0A43     		orrs	r2, r2, r1
ARM GAS  /tmp/ccpgqo2Y.s 			page 88


 3415 0088 5A60     		str	r2, [r3, #4]
1603:Drivers/STM32F1xx_HAL_Driver/Src/stm32f1xx_hal_tim_ex.c **** 
1604:Drivers/STM32F1xx_HAL_Driver/Src/stm32f1xx_hal_tim_ex.c ****   /* Enable the Commutation DMA Request */
1605:Drivers/STM32F1xx_HAL_Driver/Src/stm32f1xx_hal_tim_ex.c ****   /* Set the DMA Commutation Callback */
1606:Drivers/STM32F1xx_HAL_Driver/Src/stm32f1xx_hal_tim_ex.c ****   htim->hdma[TIM_DMA_ID_COMMUTATION]->XferCpltCallback = TIMEx_DMACommutationCplt;
 3416              		.loc 1 1606 0
 3417 008a FB68     		ldr	r3, [r7, #12]
 3418 008c 5B6B     		ldr	r3, [r3, #52]
 3419 008e 0C4A     		ldr	r2, .L170
 3420 0090 9A62     		str	r2, [r3, #40]
1607:Drivers/STM32F1xx_HAL_Driver/Src/stm32f1xx_hal_tim_ex.c ****   /* Set the DMA error callback */
1608:Drivers/STM32F1xx_HAL_Driver/Src/stm32f1xx_hal_tim_ex.c ****   htim->hdma[TIM_DMA_ID_COMMUTATION]->XferErrorCallback = TIM_DMAError;
 3421              		.loc 1 1608 0
 3422 0092 FB68     		ldr	r3, [r7, #12]
 3423 0094 5B6B     		ldr	r3, [r3, #52]
 3424 0096 0B4A     		ldr	r2, .L170+4
 3425 0098 1A63     		str	r2, [r3, #48]
1609:Drivers/STM32F1xx_HAL_Driver/Src/stm32f1xx_hal_tim_ex.c **** 
1610:Drivers/STM32F1xx_HAL_Driver/Src/stm32f1xx_hal_tim_ex.c ****   /* Enable the Commutation DMA Request */
1611:Drivers/STM32F1xx_HAL_Driver/Src/stm32f1xx_hal_tim_ex.c ****   __HAL_TIM_ENABLE_DMA(htim, TIM_DMA_COM);
 3426              		.loc 1 1611 0
 3427 009a FB68     		ldr	r3, [r7, #12]
 3428 009c 1B68     		ldr	r3, [r3]
 3429 009e DA68     		ldr	r2, [r3, #12]
 3430 00a0 FB68     		ldr	r3, [r7, #12]
 3431 00a2 1B68     		ldr	r3, [r3]
 3432 00a4 42F40052 		orr	r2, r2, #8192
 3433 00a8 DA60     		str	r2, [r3, #12]
1612:Drivers/STM32F1xx_HAL_Driver/Src/stm32f1xx_hal_tim_ex.c **** 
1613:Drivers/STM32F1xx_HAL_Driver/Src/stm32f1xx_hal_tim_ex.c ****   __HAL_UNLOCK(htim);
 3434              		.loc 1 1613 0
 3435 00aa FB68     		ldr	r3, [r7, #12]
 3436 00ac 0022     		movs	r2, #0
 3437 00ae 83F83C20 		strb	r2, [r3, #60]
1614:Drivers/STM32F1xx_HAL_Driver/Src/stm32f1xx_hal_tim_ex.c **** 
1615:Drivers/STM32F1xx_HAL_Driver/Src/stm32f1xx_hal_tim_ex.c ****   return HAL_OK;
 3438              		.loc 1 1615 0
 3439 00b2 0023     		movs	r3, #0
 3440              	.L167:
1616:Drivers/STM32F1xx_HAL_Driver/Src/stm32f1xx_hal_tim_ex.c **** }
 3441              		.loc 1 1616 0
 3442 00b4 1846     		mov	r0, r3
 3443 00b6 1437     		adds	r7, r7, #20
 3444              	.LCFI147:
 3445              		.cfi_def_cfa_offset 4
 3446 00b8 BD46     		mov	sp, r7
 3447              	.LCFI148:
 3448              		.cfi_def_cfa_register 13
 3449              		@ sp needed
 3450 00ba 80BC     		pop	{r7}
 3451              	.LCFI149:
 3452              		.cfi_restore 7
 3453              		.cfi_def_cfa_offset 0
 3454 00bc 7047     		bx	lr
 3455              	.L171:
 3456 00be 00BF     		.align	2
 3457              	.L170:
ARM GAS  /tmp/ccpgqo2Y.s 			page 89


 3458 00c0 00000000 		.word	TIMEx_DMACommutationCplt
 3459 00c4 00000000 		.word	TIM_DMAError
 3460              		.cfi_endproc
 3461              	.LFE94:
 3463              		.section	.text.HAL_TIMEx_ConfigBreakDeadTime,"ax",%progbits
 3464              		.align	1
 3465              		.global	HAL_TIMEx_ConfigBreakDeadTime
 3466              		.syntax unified
 3467              		.thumb
 3468              		.thumb_func
 3469              		.fpu softvfp
 3471              	HAL_TIMEx_ConfigBreakDeadTime:
 3472              	.LFB95:
1617:Drivers/STM32F1xx_HAL_Driver/Src/stm32f1xx_hal_tim_ex.c **** 
1618:Drivers/STM32F1xx_HAL_Driver/Src/stm32f1xx_hal_tim_ex.c **** /**
1619:Drivers/STM32F1xx_HAL_Driver/Src/stm32f1xx_hal_tim_ex.c ****   * @brief   Configures the Break feature, dead time, Lock level, OSSI/OSSR State
1620:Drivers/STM32F1xx_HAL_Driver/Src/stm32f1xx_hal_tim_ex.c ****   *          and the AOE(automatic output enable).
1621:Drivers/STM32F1xx_HAL_Driver/Src/stm32f1xx_hal_tim_ex.c ****   * @param  htim : TIM handle
1622:Drivers/STM32F1xx_HAL_Driver/Src/stm32f1xx_hal_tim_ex.c ****   * @param  sBreakDeadTimeConfig : pointer to a TIM_ConfigBreakDeadConfigTypeDef structure that
1623:Drivers/STM32F1xx_HAL_Driver/Src/stm32f1xx_hal_tim_ex.c ****   *         contains the BDTR Register configuration  information for the TIM peripheral.
1624:Drivers/STM32F1xx_HAL_Driver/Src/stm32f1xx_hal_tim_ex.c ****   * @retval HAL status
1625:Drivers/STM32F1xx_HAL_Driver/Src/stm32f1xx_hal_tim_ex.c ****   */
1626:Drivers/STM32F1xx_HAL_Driver/Src/stm32f1xx_hal_tim_ex.c **** HAL_StatusTypeDef HAL_TIMEx_ConfigBreakDeadTime(TIM_HandleTypeDef *htim,
1627:Drivers/STM32F1xx_HAL_Driver/Src/stm32f1xx_hal_tim_ex.c ****                                                 TIM_BreakDeadTimeConfigTypeDef *sBreakDeadTimeConfi
1628:Drivers/STM32F1xx_HAL_Driver/Src/stm32f1xx_hal_tim_ex.c **** {
 3473              		.loc 1 1628 0
 3474              		.cfi_startproc
 3475              		@ args = 0, pretend = 0, frame = 16
 3476              		@ frame_needed = 1, uses_anonymous_args = 0
 3477              		@ link register save eliminated.
 3478 0000 80B4     		push	{r7}
 3479              	.LCFI150:
 3480              		.cfi_def_cfa_offset 4
 3481              		.cfi_offset 7, -4
 3482 0002 85B0     		sub	sp, sp, #20
 3483              	.LCFI151:
 3484              		.cfi_def_cfa_offset 24
 3485 0004 00AF     		add	r7, sp, #0
 3486              	.LCFI152:
 3487              		.cfi_def_cfa_register 7
 3488 0006 7860     		str	r0, [r7, #4]
 3489 0008 3960     		str	r1, [r7]
1629:Drivers/STM32F1xx_HAL_Driver/Src/stm32f1xx_hal_tim_ex.c ****   uint32_t tmpbdtr = 0U;
 3490              		.loc 1 1629 0
 3491 000a 0023     		movs	r3, #0
 3492 000c FB60     		str	r3, [r7, #12]
1630:Drivers/STM32F1xx_HAL_Driver/Src/stm32f1xx_hal_tim_ex.c **** 
1631:Drivers/STM32F1xx_HAL_Driver/Src/stm32f1xx_hal_tim_ex.c ****   /* Check the parameters */
1632:Drivers/STM32F1xx_HAL_Driver/Src/stm32f1xx_hal_tim_ex.c ****   assert_param(IS_TIM_BREAK_INSTANCE(htim->Instance));
1633:Drivers/STM32F1xx_HAL_Driver/Src/stm32f1xx_hal_tim_ex.c ****   assert_param(IS_TIM_OSSR_STATE(sBreakDeadTimeConfig->OffStateRunMode));
1634:Drivers/STM32F1xx_HAL_Driver/Src/stm32f1xx_hal_tim_ex.c ****   assert_param(IS_TIM_OSSI_STATE(sBreakDeadTimeConfig->OffStateIDLEMode));
1635:Drivers/STM32F1xx_HAL_Driver/Src/stm32f1xx_hal_tim_ex.c ****   assert_param(IS_TIM_LOCK_LEVEL(sBreakDeadTimeConfig->LockLevel));
1636:Drivers/STM32F1xx_HAL_Driver/Src/stm32f1xx_hal_tim_ex.c ****   assert_param(IS_TIM_DEADTIME(sBreakDeadTimeConfig->DeadTime));
1637:Drivers/STM32F1xx_HAL_Driver/Src/stm32f1xx_hal_tim_ex.c ****   assert_param(IS_TIM_BREAK_STATE(sBreakDeadTimeConfig->BreakState));
1638:Drivers/STM32F1xx_HAL_Driver/Src/stm32f1xx_hal_tim_ex.c ****   assert_param(IS_TIM_BREAK_POLARITY(sBreakDeadTimeConfig->BreakPolarity));
1639:Drivers/STM32F1xx_HAL_Driver/Src/stm32f1xx_hal_tim_ex.c ****   assert_param(IS_TIM_AUTOMATIC_OUTPUT_STATE(sBreakDeadTimeConfig->AutomaticOutput));
1640:Drivers/STM32F1xx_HAL_Driver/Src/stm32f1xx_hal_tim_ex.c **** 
ARM GAS  /tmp/ccpgqo2Y.s 			page 90


1641:Drivers/STM32F1xx_HAL_Driver/Src/stm32f1xx_hal_tim_ex.c ****   /* Process Locked */
1642:Drivers/STM32F1xx_HAL_Driver/Src/stm32f1xx_hal_tim_ex.c ****   __HAL_LOCK(htim);
 3493              		.loc 1 1642 0
 3494 000e 7B68     		ldr	r3, [r7, #4]
 3495 0010 93F83C30 		ldrb	r3, [r3, #60]	@ zero_extendqisi2
 3496 0014 012B     		cmp	r3, #1
 3497 0016 01D1     		bne	.L173
 3498              		.loc 1 1642 0 is_stmt 0 discriminator 1
 3499 0018 0223     		movs	r3, #2
 3500 001a 44E0     		b	.L174
 3501              	.L173:
 3502              		.loc 1 1642 0 discriminator 2
 3503 001c 7B68     		ldr	r3, [r7, #4]
 3504 001e 0122     		movs	r2, #1
 3505 0020 83F83C20 		strb	r2, [r3, #60]
1643:Drivers/STM32F1xx_HAL_Driver/Src/stm32f1xx_hal_tim_ex.c **** 
1644:Drivers/STM32F1xx_HAL_Driver/Src/stm32f1xx_hal_tim_ex.c ****   /* Set the Lock level, the Break enable Bit and the Polarity, the OSSR State,
1645:Drivers/STM32F1xx_HAL_Driver/Src/stm32f1xx_hal_tim_ex.c ****      the OSSI State, the dead time value and the Automatic Output Enable Bit */
1646:Drivers/STM32F1xx_HAL_Driver/Src/stm32f1xx_hal_tim_ex.c ****   
1647:Drivers/STM32F1xx_HAL_Driver/Src/stm32f1xx_hal_tim_ex.c ****   /* Set the BDTR bits */
1648:Drivers/STM32F1xx_HAL_Driver/Src/stm32f1xx_hal_tim_ex.c ****   MODIFY_REG(tmpbdtr, TIM_BDTR_DTG, sBreakDeadTimeConfig->DeadTime);
 3506              		.loc 1 1648 0 is_stmt 1 discriminator 2
 3507 0024 FB68     		ldr	r3, [r7, #12]
 3508 0026 23F0FF02 		bic	r2, r3, #255
 3509 002a 3B68     		ldr	r3, [r7]
 3510 002c DB68     		ldr	r3, [r3, #12]
 3511 002e 1343     		orrs	r3, r3, r2
 3512 0030 FB60     		str	r3, [r7, #12]
1649:Drivers/STM32F1xx_HAL_Driver/Src/stm32f1xx_hal_tim_ex.c ****   MODIFY_REG(tmpbdtr, TIM_BDTR_LOCK, sBreakDeadTimeConfig->LockLevel);
 3513              		.loc 1 1649 0 discriminator 2
 3514 0032 FB68     		ldr	r3, [r7, #12]
 3515 0034 23F44072 		bic	r2, r3, #768
 3516 0038 3B68     		ldr	r3, [r7]
 3517 003a 9B68     		ldr	r3, [r3, #8]
 3518 003c 1343     		orrs	r3, r3, r2
 3519 003e FB60     		str	r3, [r7, #12]
1650:Drivers/STM32F1xx_HAL_Driver/Src/stm32f1xx_hal_tim_ex.c ****   MODIFY_REG(tmpbdtr, TIM_BDTR_OSSI, sBreakDeadTimeConfig->OffStateIDLEMode);
 3520              		.loc 1 1650 0 discriminator 2
 3521 0040 FB68     		ldr	r3, [r7, #12]
 3522 0042 23F48062 		bic	r2, r3, #1024
 3523 0046 3B68     		ldr	r3, [r7]
 3524 0048 5B68     		ldr	r3, [r3, #4]
 3525 004a 1343     		orrs	r3, r3, r2
 3526 004c FB60     		str	r3, [r7, #12]
1651:Drivers/STM32F1xx_HAL_Driver/Src/stm32f1xx_hal_tim_ex.c ****   MODIFY_REG(tmpbdtr, TIM_BDTR_OSSR, sBreakDeadTimeConfig->OffStateRunMode);
 3527              		.loc 1 1651 0 discriminator 2
 3528 004e FB68     		ldr	r3, [r7, #12]
 3529 0050 23F40062 		bic	r2, r3, #2048
 3530 0054 3B68     		ldr	r3, [r7]
 3531 0056 1B68     		ldr	r3, [r3]
 3532 0058 1343     		orrs	r3, r3, r2
 3533 005a FB60     		str	r3, [r7, #12]
1652:Drivers/STM32F1xx_HAL_Driver/Src/stm32f1xx_hal_tim_ex.c ****   MODIFY_REG(tmpbdtr, TIM_BDTR_BKE, sBreakDeadTimeConfig->BreakState);
 3534              		.loc 1 1652 0 discriminator 2
 3535 005c FB68     		ldr	r3, [r7, #12]
 3536 005e 23F48052 		bic	r2, r3, #4096
 3537 0062 3B68     		ldr	r3, [r7]
ARM GAS  /tmp/ccpgqo2Y.s 			page 91


 3538 0064 1B69     		ldr	r3, [r3, #16]
 3539 0066 1343     		orrs	r3, r3, r2
 3540 0068 FB60     		str	r3, [r7, #12]
1653:Drivers/STM32F1xx_HAL_Driver/Src/stm32f1xx_hal_tim_ex.c ****   MODIFY_REG(tmpbdtr, TIM_BDTR_BKP, sBreakDeadTimeConfig->BreakPolarity);
 3541              		.loc 1 1653 0 discriminator 2
 3542 006a FB68     		ldr	r3, [r7, #12]
 3543 006c 23F40052 		bic	r2, r3, #8192
 3544 0070 3B68     		ldr	r3, [r7]
 3545 0072 5B69     		ldr	r3, [r3, #20]
 3546 0074 1343     		orrs	r3, r3, r2
 3547 0076 FB60     		str	r3, [r7, #12]
1654:Drivers/STM32F1xx_HAL_Driver/Src/stm32f1xx_hal_tim_ex.c ****   MODIFY_REG(tmpbdtr, TIM_BDTR_AOE, sBreakDeadTimeConfig->AutomaticOutput);
 3548              		.loc 1 1654 0 discriminator 2
 3549 0078 FB68     		ldr	r3, [r7, #12]
 3550 007a 23F48042 		bic	r2, r3, #16384
 3551 007e 3B68     		ldr	r3, [r7]
 3552 0080 9B69     		ldr	r3, [r3, #24]
 3553 0082 1343     		orrs	r3, r3, r2
 3554 0084 FB60     		str	r3, [r7, #12]
1655:Drivers/STM32F1xx_HAL_Driver/Src/stm32f1xx_hal_tim_ex.c ****   MODIFY_REG(tmpbdtr, TIM_BDTR_MOE, sBreakDeadTimeConfig->AutomaticOutput);
 3555              		.loc 1 1655 0 discriminator 2
 3556 0086 FB68     		ldr	r3, [r7, #12]
 3557 0088 23F40042 		bic	r2, r3, #32768
 3558 008c 3B68     		ldr	r3, [r7]
 3559 008e 9B69     		ldr	r3, [r3, #24]
 3560 0090 1343     		orrs	r3, r3, r2
 3561 0092 FB60     		str	r3, [r7, #12]
1656:Drivers/STM32F1xx_HAL_Driver/Src/stm32f1xx_hal_tim_ex.c ****   
1657:Drivers/STM32F1xx_HAL_Driver/Src/stm32f1xx_hal_tim_ex.c ****   /* Set TIMx_BDTR */
1658:Drivers/STM32F1xx_HAL_Driver/Src/stm32f1xx_hal_tim_ex.c ****   htim->Instance->BDTR = tmpbdtr;
 3562              		.loc 1 1658 0 discriminator 2
 3563 0094 7B68     		ldr	r3, [r7, #4]
 3564 0096 1B68     		ldr	r3, [r3]
 3565 0098 FA68     		ldr	r2, [r7, #12]
 3566 009a 5A64     		str	r2, [r3, #68]
1659:Drivers/STM32F1xx_HAL_Driver/Src/stm32f1xx_hal_tim_ex.c ****   
1660:Drivers/STM32F1xx_HAL_Driver/Src/stm32f1xx_hal_tim_ex.c ****   __HAL_UNLOCK(htim);
 3567              		.loc 1 1660 0 discriminator 2
 3568 009c 7B68     		ldr	r3, [r7, #4]
 3569 009e 0022     		movs	r2, #0
 3570 00a0 83F83C20 		strb	r2, [r3, #60]
1661:Drivers/STM32F1xx_HAL_Driver/Src/stm32f1xx_hal_tim_ex.c **** 
1662:Drivers/STM32F1xx_HAL_Driver/Src/stm32f1xx_hal_tim_ex.c ****   return HAL_OK;
 3571              		.loc 1 1662 0 discriminator 2
 3572 00a4 0023     		movs	r3, #0
 3573              	.L174:
1663:Drivers/STM32F1xx_HAL_Driver/Src/stm32f1xx_hal_tim_ex.c **** }
 3574              		.loc 1 1663 0
 3575 00a6 1846     		mov	r0, r3
 3576 00a8 1437     		adds	r7, r7, #20
 3577              	.LCFI153:
 3578              		.cfi_def_cfa_offset 4
 3579 00aa BD46     		mov	sp, r7
 3580              	.LCFI154:
 3581              		.cfi_def_cfa_register 13
 3582              		@ sp needed
 3583 00ac 80BC     		pop	{r7}
ARM GAS  /tmp/ccpgqo2Y.s 			page 92


 3584              	.LCFI155:
 3585              		.cfi_restore 7
 3586              		.cfi_def_cfa_offset 0
 3587 00ae 7047     		bx	lr
 3588              		.cfi_endproc
 3589              	.LFE95:
 3591              		.section	.text.HAL_TIMEx_MasterConfigSynchronization,"ax",%progbits
 3592              		.align	1
 3593              		.global	HAL_TIMEx_MasterConfigSynchronization
 3594              		.syntax unified
 3595              		.thumb
 3596              		.thumb_func
 3597              		.fpu softvfp
 3599              	HAL_TIMEx_MasterConfigSynchronization:
 3600              	.LFB96:
1664:Drivers/STM32F1xx_HAL_Driver/Src/stm32f1xx_hal_tim_ex.c **** 
1665:Drivers/STM32F1xx_HAL_Driver/Src/stm32f1xx_hal_tim_ex.c **** #endif /* defined(STM32F100xB) || defined(STM32F100xE) ||                                          
1666:Drivers/STM32F1xx_HAL_Driver/Src/stm32f1xx_hal_tim_ex.c ****        /* defined(STM32F103x6) || defined(STM32F103xB) || defined(STM32F103xE) || defined(STM32F103
1667:Drivers/STM32F1xx_HAL_Driver/Src/stm32f1xx_hal_tim_ex.c ****        /* defined(STM32F105xC) || defined(STM32F107xC)                                             
1668:Drivers/STM32F1xx_HAL_Driver/Src/stm32f1xx_hal_tim_ex.c **** 
1669:Drivers/STM32F1xx_HAL_Driver/Src/stm32f1xx_hal_tim_ex.c **** /**
1670:Drivers/STM32F1xx_HAL_Driver/Src/stm32f1xx_hal_tim_ex.c ****   * @brief  Configures the TIM in master mode.
1671:Drivers/STM32F1xx_HAL_Driver/Src/stm32f1xx_hal_tim_ex.c ****   * @param  htim : TIM handle.
1672:Drivers/STM32F1xx_HAL_Driver/Src/stm32f1xx_hal_tim_ex.c ****   * @param  sMasterConfig : pointer to a TIM_MasterConfigTypeDef structure that
1673:Drivers/STM32F1xx_HAL_Driver/Src/stm32f1xx_hal_tim_ex.c ****   *         contains the selected trigger output (TRGO) and the Master/Slave
1674:Drivers/STM32F1xx_HAL_Driver/Src/stm32f1xx_hal_tim_ex.c ****   *         mode.
1675:Drivers/STM32F1xx_HAL_Driver/Src/stm32f1xx_hal_tim_ex.c ****   * @retval HAL status
1676:Drivers/STM32F1xx_HAL_Driver/Src/stm32f1xx_hal_tim_ex.c ****   */
1677:Drivers/STM32F1xx_HAL_Driver/Src/stm32f1xx_hal_tim_ex.c **** HAL_StatusTypeDef HAL_TIMEx_MasterConfigSynchronization(TIM_HandleTypeDef *htim, TIM_MasterConfigTy
1678:Drivers/STM32F1xx_HAL_Driver/Src/stm32f1xx_hal_tim_ex.c **** {
 3601              		.loc 1 1678 0
 3602              		.cfi_startproc
 3603              		@ args = 0, pretend = 0, frame = 8
 3604              		@ frame_needed = 1, uses_anonymous_args = 0
 3605              		@ link register save eliminated.
 3606 0000 80B4     		push	{r7}
 3607              	.LCFI156:
 3608              		.cfi_def_cfa_offset 4
 3609              		.cfi_offset 7, -4
 3610 0002 83B0     		sub	sp, sp, #12
 3611              	.LCFI157:
 3612              		.cfi_def_cfa_offset 16
 3613 0004 00AF     		add	r7, sp, #0
 3614              	.LCFI158:
 3615              		.cfi_def_cfa_register 7
 3616 0006 7860     		str	r0, [r7, #4]
 3617 0008 3960     		str	r1, [r7]
1679:Drivers/STM32F1xx_HAL_Driver/Src/stm32f1xx_hal_tim_ex.c ****   /* Check the parameters */
1680:Drivers/STM32F1xx_HAL_Driver/Src/stm32f1xx_hal_tim_ex.c ****   assert_param(IS_TIM_MASTER_INSTANCE(htim->Instance));
1681:Drivers/STM32F1xx_HAL_Driver/Src/stm32f1xx_hal_tim_ex.c ****   assert_param(IS_TIM_TRGO_SOURCE(sMasterConfig->MasterOutputTrigger));
1682:Drivers/STM32F1xx_HAL_Driver/Src/stm32f1xx_hal_tim_ex.c ****   assert_param(IS_TIM_MSM_STATE(sMasterConfig->MasterSlaveMode));
1683:Drivers/STM32F1xx_HAL_Driver/Src/stm32f1xx_hal_tim_ex.c **** 
1684:Drivers/STM32F1xx_HAL_Driver/Src/stm32f1xx_hal_tim_ex.c ****   __HAL_LOCK(htim);
 3618              		.loc 1 1684 0
 3619 000a 7B68     		ldr	r3, [r7, #4]
 3620 000c 93F83C30 		ldrb	r3, [r3, #60]	@ zero_extendqisi2
 3621 0010 012B     		cmp	r3, #1
ARM GAS  /tmp/ccpgqo2Y.s 			page 93


 3622 0012 01D1     		bne	.L176
 3623              		.loc 1 1684 0 is_stmt 0 discriminator 1
 3624 0014 0223     		movs	r3, #2
 3625 0016 32E0     		b	.L177
 3626              	.L176:
 3627              		.loc 1 1684 0 discriminator 2
 3628 0018 7B68     		ldr	r3, [r7, #4]
 3629 001a 0122     		movs	r2, #1
 3630 001c 83F83C20 		strb	r2, [r3, #60]
1685:Drivers/STM32F1xx_HAL_Driver/Src/stm32f1xx_hal_tim_ex.c **** 
1686:Drivers/STM32F1xx_HAL_Driver/Src/stm32f1xx_hal_tim_ex.c ****   htim->State = HAL_TIM_STATE_BUSY;
 3631              		.loc 1 1686 0 is_stmt 1 discriminator 2
 3632 0020 7B68     		ldr	r3, [r7, #4]
 3633 0022 0222     		movs	r2, #2
 3634 0024 83F83D20 		strb	r2, [r3, #61]
1687:Drivers/STM32F1xx_HAL_Driver/Src/stm32f1xx_hal_tim_ex.c **** 
1688:Drivers/STM32F1xx_HAL_Driver/Src/stm32f1xx_hal_tim_ex.c ****   /* Reset the MMS Bits */
1689:Drivers/STM32F1xx_HAL_Driver/Src/stm32f1xx_hal_tim_ex.c ****   htim->Instance->CR2 &= ~TIM_CR2_MMS;
 3635              		.loc 1 1689 0 discriminator 2
 3636 0028 7B68     		ldr	r3, [r7, #4]
 3637 002a 1B68     		ldr	r3, [r3]
 3638 002c 5A68     		ldr	r2, [r3, #4]
 3639 002e 7B68     		ldr	r3, [r7, #4]
 3640 0030 1B68     		ldr	r3, [r3]
 3641 0032 22F07002 		bic	r2, r2, #112
 3642 0036 5A60     		str	r2, [r3, #4]
1690:Drivers/STM32F1xx_HAL_Driver/Src/stm32f1xx_hal_tim_ex.c ****   /* Select the TRGO source */
1691:Drivers/STM32F1xx_HAL_Driver/Src/stm32f1xx_hal_tim_ex.c ****   htim->Instance->CR2 |=  sMasterConfig->MasterOutputTrigger;
 3643              		.loc 1 1691 0 discriminator 2
 3644 0038 7B68     		ldr	r3, [r7, #4]
 3645 003a 1B68     		ldr	r3, [r3]
 3646 003c 5968     		ldr	r1, [r3, #4]
 3647 003e 3B68     		ldr	r3, [r7]
 3648 0040 1A68     		ldr	r2, [r3]
 3649 0042 7B68     		ldr	r3, [r7, #4]
 3650 0044 1B68     		ldr	r3, [r3]
 3651 0046 0A43     		orrs	r2, r2, r1
 3652 0048 5A60     		str	r2, [r3, #4]
1692:Drivers/STM32F1xx_HAL_Driver/Src/stm32f1xx_hal_tim_ex.c **** 
1693:Drivers/STM32F1xx_HAL_Driver/Src/stm32f1xx_hal_tim_ex.c ****   /* Reset the MSM Bit */
1694:Drivers/STM32F1xx_HAL_Driver/Src/stm32f1xx_hal_tim_ex.c ****   htim->Instance->SMCR &= ~TIM_SMCR_MSM;
 3653              		.loc 1 1694 0 discriminator 2
 3654 004a 7B68     		ldr	r3, [r7, #4]
 3655 004c 1B68     		ldr	r3, [r3]
 3656 004e 9A68     		ldr	r2, [r3, #8]
 3657 0050 7B68     		ldr	r3, [r7, #4]
 3658 0052 1B68     		ldr	r3, [r3]
 3659 0054 22F08002 		bic	r2, r2, #128
 3660 0058 9A60     		str	r2, [r3, #8]
1695:Drivers/STM32F1xx_HAL_Driver/Src/stm32f1xx_hal_tim_ex.c ****   /* Set or Reset the MSM Bit */
1696:Drivers/STM32F1xx_HAL_Driver/Src/stm32f1xx_hal_tim_ex.c ****   htim->Instance->SMCR |= sMasterConfig->MasterSlaveMode;
 3661              		.loc 1 1696 0 discriminator 2
 3662 005a 7B68     		ldr	r3, [r7, #4]
 3663 005c 1B68     		ldr	r3, [r3]
 3664 005e 9968     		ldr	r1, [r3, #8]
 3665 0060 3B68     		ldr	r3, [r7]
 3666 0062 5A68     		ldr	r2, [r3, #4]
ARM GAS  /tmp/ccpgqo2Y.s 			page 94


 3667 0064 7B68     		ldr	r3, [r7, #4]
 3668 0066 1B68     		ldr	r3, [r3]
 3669 0068 0A43     		orrs	r2, r2, r1
 3670 006a 9A60     		str	r2, [r3, #8]
1697:Drivers/STM32F1xx_HAL_Driver/Src/stm32f1xx_hal_tim_ex.c **** 
1698:Drivers/STM32F1xx_HAL_Driver/Src/stm32f1xx_hal_tim_ex.c ****   htim->State = HAL_TIM_STATE_READY;
 3671              		.loc 1 1698 0 discriminator 2
 3672 006c 7B68     		ldr	r3, [r7, #4]
 3673 006e 0122     		movs	r2, #1
 3674 0070 83F83D20 		strb	r2, [r3, #61]
1699:Drivers/STM32F1xx_HAL_Driver/Src/stm32f1xx_hal_tim_ex.c **** 
1700:Drivers/STM32F1xx_HAL_Driver/Src/stm32f1xx_hal_tim_ex.c ****   __HAL_UNLOCK(htim);
 3675              		.loc 1 1700 0 discriminator 2
 3676 0074 7B68     		ldr	r3, [r7, #4]
 3677 0076 0022     		movs	r2, #0
 3678 0078 83F83C20 		strb	r2, [r3, #60]
1701:Drivers/STM32F1xx_HAL_Driver/Src/stm32f1xx_hal_tim_ex.c **** 
1702:Drivers/STM32F1xx_HAL_Driver/Src/stm32f1xx_hal_tim_ex.c ****   return HAL_OK;
 3679              		.loc 1 1702 0 discriminator 2
 3680 007c 0023     		movs	r3, #0
 3681              	.L177:
1703:Drivers/STM32F1xx_HAL_Driver/Src/stm32f1xx_hal_tim_ex.c **** }
 3682              		.loc 1 1703 0
 3683 007e 1846     		mov	r0, r3
 3684 0080 0C37     		adds	r7, r7, #12
 3685              	.LCFI159:
 3686              		.cfi_def_cfa_offset 4
 3687 0082 BD46     		mov	sp, r7
 3688              	.LCFI160:
 3689              		.cfi_def_cfa_register 13
 3690              		@ sp needed
 3691 0084 80BC     		pop	{r7}
 3692              	.LCFI161:
 3693              		.cfi_restore 7
 3694              		.cfi_def_cfa_offset 0
 3695 0086 7047     		bx	lr
 3696              		.cfi_endproc
 3697              	.LFE96:
 3699              		.section	.text.HAL_TIMEx_CommutationCallback,"ax",%progbits
 3700              		.align	1
 3701              		.weak	HAL_TIMEx_CommutationCallback
 3702              		.syntax unified
 3703              		.thumb
 3704              		.thumb_func
 3705              		.fpu softvfp
 3707              	HAL_TIMEx_CommutationCallback:
 3708              	.LFB97:
1704:Drivers/STM32F1xx_HAL_Driver/Src/stm32f1xx_hal_tim_ex.c **** 
1705:Drivers/STM32F1xx_HAL_Driver/Src/stm32f1xx_hal_tim_ex.c **** /**
1706:Drivers/STM32F1xx_HAL_Driver/Src/stm32f1xx_hal_tim_ex.c ****   * @}
1707:Drivers/STM32F1xx_HAL_Driver/Src/stm32f1xx_hal_tim_ex.c ****   */
1708:Drivers/STM32F1xx_HAL_Driver/Src/stm32f1xx_hal_tim_ex.c **** 
1709:Drivers/STM32F1xx_HAL_Driver/Src/stm32f1xx_hal_tim_ex.c **** /** @defgroup TIMEx_Exported_Functions_Group6 Extension Callbacks functions
1710:Drivers/STM32F1xx_HAL_Driver/Src/stm32f1xx_hal_tim_ex.c ****  *  @brief   Extension Callbacks functions
1711:Drivers/STM32F1xx_HAL_Driver/Src/stm32f1xx_hal_tim_ex.c ****  *
1712:Drivers/STM32F1xx_HAL_Driver/Src/stm32f1xx_hal_tim_ex.c **** @verbatim
1713:Drivers/STM32F1xx_HAL_Driver/Src/stm32f1xx_hal_tim_ex.c ****   ==============================================================================
ARM GAS  /tmp/ccpgqo2Y.s 			page 95


1714:Drivers/STM32F1xx_HAL_Driver/Src/stm32f1xx_hal_tim_ex.c ****                     ##### Extension Callbacks functions #####
1715:Drivers/STM32F1xx_HAL_Driver/Src/stm32f1xx_hal_tim_ex.c ****   ==============================================================================
1716:Drivers/STM32F1xx_HAL_Driver/Src/stm32f1xx_hal_tim_ex.c ****   [..]
1717:Drivers/STM32F1xx_HAL_Driver/Src/stm32f1xx_hal_tim_ex.c ****     This section provides Extension TIM callback functions:
1718:Drivers/STM32F1xx_HAL_Driver/Src/stm32f1xx_hal_tim_ex.c ****     (+) Timer Commutation callback
1719:Drivers/STM32F1xx_HAL_Driver/Src/stm32f1xx_hal_tim_ex.c ****     (+) Timer Break callback
1720:Drivers/STM32F1xx_HAL_Driver/Src/stm32f1xx_hal_tim_ex.c **** 
1721:Drivers/STM32F1xx_HAL_Driver/Src/stm32f1xx_hal_tim_ex.c **** @endverbatim
1722:Drivers/STM32F1xx_HAL_Driver/Src/stm32f1xx_hal_tim_ex.c ****   * @{
1723:Drivers/STM32F1xx_HAL_Driver/Src/stm32f1xx_hal_tim_ex.c ****   */
1724:Drivers/STM32F1xx_HAL_Driver/Src/stm32f1xx_hal_tim_ex.c **** 
1725:Drivers/STM32F1xx_HAL_Driver/Src/stm32f1xx_hal_tim_ex.c **** /**
1726:Drivers/STM32F1xx_HAL_Driver/Src/stm32f1xx_hal_tim_ex.c ****   * @brief  Hall commutation changed callback in non blocking mode
1727:Drivers/STM32F1xx_HAL_Driver/Src/stm32f1xx_hal_tim_ex.c ****   * @param  htim : TIM handle
1728:Drivers/STM32F1xx_HAL_Driver/Src/stm32f1xx_hal_tim_ex.c ****   * @retval None
1729:Drivers/STM32F1xx_HAL_Driver/Src/stm32f1xx_hal_tim_ex.c ****   */
1730:Drivers/STM32F1xx_HAL_Driver/Src/stm32f1xx_hal_tim_ex.c **** __weak void HAL_TIMEx_CommutationCallback(TIM_HandleTypeDef *htim)
1731:Drivers/STM32F1xx_HAL_Driver/Src/stm32f1xx_hal_tim_ex.c **** {
 3709              		.loc 1 1731 0
 3710              		.cfi_startproc
 3711              		@ args = 0, pretend = 0, frame = 8
 3712              		@ frame_needed = 1, uses_anonymous_args = 0
 3713              		@ link register save eliminated.
 3714 0000 80B4     		push	{r7}
 3715              	.LCFI162:
 3716              		.cfi_def_cfa_offset 4
 3717              		.cfi_offset 7, -4
 3718 0002 83B0     		sub	sp, sp, #12
 3719              	.LCFI163:
 3720              		.cfi_def_cfa_offset 16
 3721 0004 00AF     		add	r7, sp, #0
 3722              	.LCFI164:
 3723              		.cfi_def_cfa_register 7
 3724 0006 7860     		str	r0, [r7, #4]
1732:Drivers/STM32F1xx_HAL_Driver/Src/stm32f1xx_hal_tim_ex.c ****   /* Prevent unused argument(s) compilation warning */
1733:Drivers/STM32F1xx_HAL_Driver/Src/stm32f1xx_hal_tim_ex.c ****   UNUSED(htim);
1734:Drivers/STM32F1xx_HAL_Driver/Src/stm32f1xx_hal_tim_ex.c ****   /* NOTE : This function Should not be modified, when the callback is needed,
1735:Drivers/STM32F1xx_HAL_Driver/Src/stm32f1xx_hal_tim_ex.c ****             the HAL_TIMEx_CommutationCallback could be implemented in the user file
1736:Drivers/STM32F1xx_HAL_Driver/Src/stm32f1xx_hal_tim_ex.c ****    */
1737:Drivers/STM32F1xx_HAL_Driver/Src/stm32f1xx_hal_tim_ex.c **** }
 3725              		.loc 1 1737 0
 3726 0008 00BF     		nop
 3727 000a 0C37     		adds	r7, r7, #12
 3728              	.LCFI165:
 3729              		.cfi_def_cfa_offset 4
 3730 000c BD46     		mov	sp, r7
 3731              	.LCFI166:
 3732              		.cfi_def_cfa_register 13
 3733              		@ sp needed
 3734 000e 80BC     		pop	{r7}
 3735              	.LCFI167:
 3736              		.cfi_restore 7
 3737              		.cfi_def_cfa_offset 0
 3738 0010 7047     		bx	lr
 3739              		.cfi_endproc
 3740              	.LFE97:
 3742              		.section	.text.HAL_TIMEx_BreakCallback,"ax",%progbits
ARM GAS  /tmp/ccpgqo2Y.s 			page 96


 3743              		.align	1
 3744              		.weak	HAL_TIMEx_BreakCallback
 3745              		.syntax unified
 3746              		.thumb
 3747              		.thumb_func
 3748              		.fpu softvfp
 3750              	HAL_TIMEx_BreakCallback:
 3751              	.LFB98:
1738:Drivers/STM32F1xx_HAL_Driver/Src/stm32f1xx_hal_tim_ex.c **** 
1739:Drivers/STM32F1xx_HAL_Driver/Src/stm32f1xx_hal_tim_ex.c **** /**
1740:Drivers/STM32F1xx_HAL_Driver/Src/stm32f1xx_hal_tim_ex.c ****   * @brief  Hall Break detection callback in non blocking mode
1741:Drivers/STM32F1xx_HAL_Driver/Src/stm32f1xx_hal_tim_ex.c ****   * @param  htim : TIM handle
1742:Drivers/STM32F1xx_HAL_Driver/Src/stm32f1xx_hal_tim_ex.c ****   * @retval None
1743:Drivers/STM32F1xx_HAL_Driver/Src/stm32f1xx_hal_tim_ex.c ****   */
1744:Drivers/STM32F1xx_HAL_Driver/Src/stm32f1xx_hal_tim_ex.c **** __weak void HAL_TIMEx_BreakCallback(TIM_HandleTypeDef *htim)
1745:Drivers/STM32F1xx_HAL_Driver/Src/stm32f1xx_hal_tim_ex.c **** {
 3752              		.loc 1 1745 0
 3753              		.cfi_startproc
 3754              		@ args = 0, pretend = 0, frame = 8
 3755              		@ frame_needed = 1, uses_anonymous_args = 0
 3756              		@ link register save eliminated.
 3757 0000 80B4     		push	{r7}
 3758              	.LCFI168:
 3759              		.cfi_def_cfa_offset 4
 3760              		.cfi_offset 7, -4
 3761 0002 83B0     		sub	sp, sp, #12
 3762              	.LCFI169:
 3763              		.cfi_def_cfa_offset 16
 3764 0004 00AF     		add	r7, sp, #0
 3765              	.LCFI170:
 3766              		.cfi_def_cfa_register 7
 3767 0006 7860     		str	r0, [r7, #4]
1746:Drivers/STM32F1xx_HAL_Driver/Src/stm32f1xx_hal_tim_ex.c ****   /* Prevent unused argument(s) compilation warning */
1747:Drivers/STM32F1xx_HAL_Driver/Src/stm32f1xx_hal_tim_ex.c ****   UNUSED(htim);
1748:Drivers/STM32F1xx_HAL_Driver/Src/stm32f1xx_hal_tim_ex.c ****   /* NOTE : This function Should not be modified, when the callback is needed,
1749:Drivers/STM32F1xx_HAL_Driver/Src/stm32f1xx_hal_tim_ex.c ****             the HAL_TIMEx_BreakCallback could be implemented in the user file
1750:Drivers/STM32F1xx_HAL_Driver/Src/stm32f1xx_hal_tim_ex.c ****    */
1751:Drivers/STM32F1xx_HAL_Driver/Src/stm32f1xx_hal_tim_ex.c **** }
 3768              		.loc 1 1751 0
 3769 0008 00BF     		nop
 3770 000a 0C37     		adds	r7, r7, #12
 3771              	.LCFI171:
 3772              		.cfi_def_cfa_offset 4
 3773 000c BD46     		mov	sp, r7
 3774              	.LCFI172:
 3775              		.cfi_def_cfa_register 13
 3776              		@ sp needed
 3777 000e 80BC     		pop	{r7}
 3778              	.LCFI173:
 3779              		.cfi_restore 7
 3780              		.cfi_def_cfa_offset 0
 3781 0010 7047     		bx	lr
 3782              		.cfi_endproc
 3783              	.LFE98:
 3785              		.section	.text.TIMEx_DMACommutationCplt,"ax",%progbits
 3786              		.align	1
 3787              		.global	TIMEx_DMACommutationCplt
ARM GAS  /tmp/ccpgqo2Y.s 			page 97


 3788              		.syntax unified
 3789              		.thumb
 3790              		.thumb_func
 3791              		.fpu softvfp
 3793              	TIMEx_DMACommutationCplt:
 3794              	.LFB99:
1752:Drivers/STM32F1xx_HAL_Driver/Src/stm32f1xx_hal_tim_ex.c **** 
1753:Drivers/STM32F1xx_HAL_Driver/Src/stm32f1xx_hal_tim_ex.c **** /**
1754:Drivers/STM32F1xx_HAL_Driver/Src/stm32f1xx_hal_tim_ex.c ****   * @brief  TIM DMA Commutation callback.
1755:Drivers/STM32F1xx_HAL_Driver/Src/stm32f1xx_hal_tim_ex.c ****   * @param  hdma : pointer to DMA handle.
1756:Drivers/STM32F1xx_HAL_Driver/Src/stm32f1xx_hal_tim_ex.c ****   * @retval None
1757:Drivers/STM32F1xx_HAL_Driver/Src/stm32f1xx_hal_tim_ex.c ****   */
1758:Drivers/STM32F1xx_HAL_Driver/Src/stm32f1xx_hal_tim_ex.c **** void TIMEx_DMACommutationCplt(DMA_HandleTypeDef *hdma)
1759:Drivers/STM32F1xx_HAL_Driver/Src/stm32f1xx_hal_tim_ex.c **** {
 3795              		.loc 1 1759 0
 3796              		.cfi_startproc
 3797              		@ args = 0, pretend = 0, frame = 16
 3798              		@ frame_needed = 1, uses_anonymous_args = 0
 3799 0000 80B5     		push	{r7, lr}
 3800              	.LCFI174:
 3801              		.cfi_def_cfa_offset 8
 3802              		.cfi_offset 7, -8
 3803              		.cfi_offset 14, -4
 3804 0002 84B0     		sub	sp, sp, #16
 3805              	.LCFI175:
 3806              		.cfi_def_cfa_offset 24
 3807 0004 00AF     		add	r7, sp, #0
 3808              	.LCFI176:
 3809              		.cfi_def_cfa_register 7
 3810 0006 7860     		str	r0, [r7, #4]
1760:Drivers/STM32F1xx_HAL_Driver/Src/stm32f1xx_hal_tim_ex.c ****   TIM_HandleTypeDef* htim = ( TIM_HandleTypeDef* )((DMA_HandleTypeDef* )hdma)->Parent;
 3811              		.loc 1 1760 0
 3812 0008 7B68     		ldr	r3, [r7, #4]
 3813 000a 5B6A     		ldr	r3, [r3, #36]
 3814 000c FB60     		str	r3, [r7, #12]
1761:Drivers/STM32F1xx_HAL_Driver/Src/stm32f1xx_hal_tim_ex.c **** 
1762:Drivers/STM32F1xx_HAL_Driver/Src/stm32f1xx_hal_tim_ex.c ****   htim->State= HAL_TIM_STATE_READY;
 3815              		.loc 1 1762 0
 3816 000e FB68     		ldr	r3, [r7, #12]
 3817 0010 0122     		movs	r2, #1
 3818 0012 83F83D20 		strb	r2, [r3, #61]
1763:Drivers/STM32F1xx_HAL_Driver/Src/stm32f1xx_hal_tim_ex.c **** 
1764:Drivers/STM32F1xx_HAL_Driver/Src/stm32f1xx_hal_tim_ex.c ****   HAL_TIMEx_CommutationCallback(htim);
 3819              		.loc 1 1764 0
 3820 0016 F868     		ldr	r0, [r7, #12]
 3821 0018 FFF7FEFF 		bl	HAL_TIMEx_CommutationCallback
1765:Drivers/STM32F1xx_HAL_Driver/Src/stm32f1xx_hal_tim_ex.c **** }
 3822              		.loc 1 1765 0
 3823 001c 00BF     		nop
 3824 001e 1037     		adds	r7, r7, #16
 3825              	.LCFI177:
 3826              		.cfi_def_cfa_offset 8
 3827 0020 BD46     		mov	sp, r7
 3828              	.LCFI178:
 3829              		.cfi_def_cfa_register 13
 3830              		@ sp needed
 3831 0022 80BD     		pop	{r7, pc}
ARM GAS  /tmp/ccpgqo2Y.s 			page 98


 3832              		.cfi_endproc
 3833              	.LFE99:
 3835              		.section	.text.HAL_TIMEx_HallSensor_GetState,"ax",%progbits
 3836              		.align	1
 3837              		.global	HAL_TIMEx_HallSensor_GetState
 3838              		.syntax unified
 3839              		.thumb
 3840              		.thumb_func
 3841              		.fpu softvfp
 3843              	HAL_TIMEx_HallSensor_GetState:
 3844              	.LFB100:
1766:Drivers/STM32F1xx_HAL_Driver/Src/stm32f1xx_hal_tim_ex.c **** 
1767:Drivers/STM32F1xx_HAL_Driver/Src/stm32f1xx_hal_tim_ex.c **** /**
1768:Drivers/STM32F1xx_HAL_Driver/Src/stm32f1xx_hal_tim_ex.c ****   * @}
1769:Drivers/STM32F1xx_HAL_Driver/Src/stm32f1xx_hal_tim_ex.c ****   */
1770:Drivers/STM32F1xx_HAL_Driver/Src/stm32f1xx_hal_tim_ex.c **** 
1771:Drivers/STM32F1xx_HAL_Driver/Src/stm32f1xx_hal_tim_ex.c **** #if defined (STM32F100xB) || defined (STM32F100xE) ||                                              
1772:Drivers/STM32F1xx_HAL_Driver/Src/stm32f1xx_hal_tim_ex.c ****     defined (STM32F103x6) || defined (STM32F103xB) || defined (STM32F103xE) || defined (STM32F103xG
1773:Drivers/STM32F1xx_HAL_Driver/Src/stm32f1xx_hal_tim_ex.c ****     defined (STM32F105xC) || defined (STM32F107xC)
1774:Drivers/STM32F1xx_HAL_Driver/Src/stm32f1xx_hal_tim_ex.c **** 
1775:Drivers/STM32F1xx_HAL_Driver/Src/stm32f1xx_hal_tim_ex.c **** /** @defgroup TIMEx_Exported_Functions_Group7 Extension Peripheral State functions
1776:Drivers/STM32F1xx_HAL_Driver/Src/stm32f1xx_hal_tim_ex.c ****  *  @brief   Extension Peripheral State functions
1777:Drivers/STM32F1xx_HAL_Driver/Src/stm32f1xx_hal_tim_ex.c ****  *
1778:Drivers/STM32F1xx_HAL_Driver/Src/stm32f1xx_hal_tim_ex.c **** @verbatim
1779:Drivers/STM32F1xx_HAL_Driver/Src/stm32f1xx_hal_tim_ex.c ****   ==============================================================================
1780:Drivers/STM32F1xx_HAL_Driver/Src/stm32f1xx_hal_tim_ex.c ****                 ##### Extension Peripheral State functions #####
1781:Drivers/STM32F1xx_HAL_Driver/Src/stm32f1xx_hal_tim_ex.c ****   ==============================================================================
1782:Drivers/STM32F1xx_HAL_Driver/Src/stm32f1xx_hal_tim_ex.c ****   [..]
1783:Drivers/STM32F1xx_HAL_Driver/Src/stm32f1xx_hal_tim_ex.c ****     This subsection permit to get in run-time the status of the peripheral
1784:Drivers/STM32F1xx_HAL_Driver/Src/stm32f1xx_hal_tim_ex.c ****     and the data flow.
1785:Drivers/STM32F1xx_HAL_Driver/Src/stm32f1xx_hal_tim_ex.c **** 
1786:Drivers/STM32F1xx_HAL_Driver/Src/stm32f1xx_hal_tim_ex.c **** @endverbatim
1787:Drivers/STM32F1xx_HAL_Driver/Src/stm32f1xx_hal_tim_ex.c ****   * @{
1788:Drivers/STM32F1xx_HAL_Driver/Src/stm32f1xx_hal_tim_ex.c ****   */
1789:Drivers/STM32F1xx_HAL_Driver/Src/stm32f1xx_hal_tim_ex.c **** 
1790:Drivers/STM32F1xx_HAL_Driver/Src/stm32f1xx_hal_tim_ex.c **** /**
1791:Drivers/STM32F1xx_HAL_Driver/Src/stm32f1xx_hal_tim_ex.c ****   * @brief  Return the TIM Hall Sensor interface state
1792:Drivers/STM32F1xx_HAL_Driver/Src/stm32f1xx_hal_tim_ex.c ****   * @param  htim : TIM Hall Sensor handle
1793:Drivers/STM32F1xx_HAL_Driver/Src/stm32f1xx_hal_tim_ex.c ****   * @retval HAL state
1794:Drivers/STM32F1xx_HAL_Driver/Src/stm32f1xx_hal_tim_ex.c ****   */
1795:Drivers/STM32F1xx_HAL_Driver/Src/stm32f1xx_hal_tim_ex.c **** HAL_TIM_StateTypeDef HAL_TIMEx_HallSensor_GetState(TIM_HandleTypeDef *htim)
1796:Drivers/STM32F1xx_HAL_Driver/Src/stm32f1xx_hal_tim_ex.c **** {
 3845              		.loc 1 1796 0
 3846              		.cfi_startproc
 3847              		@ args = 0, pretend = 0, frame = 8
 3848              		@ frame_needed = 1, uses_anonymous_args = 0
 3849              		@ link register save eliminated.
 3850 0000 80B4     		push	{r7}
 3851              	.LCFI179:
 3852              		.cfi_def_cfa_offset 4
 3853              		.cfi_offset 7, -4
 3854 0002 83B0     		sub	sp, sp, #12
 3855              	.LCFI180:
 3856              		.cfi_def_cfa_offset 16
 3857 0004 00AF     		add	r7, sp, #0
 3858              	.LCFI181:
 3859              		.cfi_def_cfa_register 7
ARM GAS  /tmp/ccpgqo2Y.s 			page 99


 3860 0006 7860     		str	r0, [r7, #4]
1797:Drivers/STM32F1xx_HAL_Driver/Src/stm32f1xx_hal_tim_ex.c ****   return htim->State;
 3861              		.loc 1 1797 0
 3862 0008 7B68     		ldr	r3, [r7, #4]
 3863 000a 93F83D30 		ldrb	r3, [r3, #61]
 3864 000e DBB2     		uxtb	r3, r3
1798:Drivers/STM32F1xx_HAL_Driver/Src/stm32f1xx_hal_tim_ex.c **** }
 3865              		.loc 1 1798 0
 3866 0010 1846     		mov	r0, r3
 3867 0012 0C37     		adds	r7, r7, #12
 3868              	.LCFI182:
 3869              		.cfi_def_cfa_offset 4
 3870 0014 BD46     		mov	sp, r7
 3871              	.LCFI183:
 3872              		.cfi_def_cfa_register 13
 3873              		@ sp needed
 3874 0016 80BC     		pop	{r7}
 3875              	.LCFI184:
 3876              		.cfi_restore 7
 3877              		.cfi_def_cfa_offset 0
 3878 0018 7047     		bx	lr
 3879              		.cfi_endproc
 3880              	.LFE100:
 3882              		.section	.text.TIM_CCxNChannelCmd,"ax",%progbits
 3883              		.align	1
 3884              		.syntax unified
 3885              		.thumb
 3886              		.thumb_func
 3887              		.fpu softvfp
 3889              	TIM_CCxNChannelCmd:
 3890              	.LFB101:
1799:Drivers/STM32F1xx_HAL_Driver/Src/stm32f1xx_hal_tim_ex.c **** 
1800:Drivers/STM32F1xx_HAL_Driver/Src/stm32f1xx_hal_tim_ex.c **** /**
1801:Drivers/STM32F1xx_HAL_Driver/Src/stm32f1xx_hal_tim_ex.c ****   * @}
1802:Drivers/STM32F1xx_HAL_Driver/Src/stm32f1xx_hal_tim_ex.c ****   */
1803:Drivers/STM32F1xx_HAL_Driver/Src/stm32f1xx_hal_tim_ex.c **** #endif /* defined(STM32F100xB) || defined(STM32F100xE) ||                                          
1804:Drivers/STM32F1xx_HAL_Driver/Src/stm32f1xx_hal_tim_ex.c ****        /* defined(STM32F103x6) || defined(STM32F103xB) || defined(STM32F103xE) || defined(STM32F103
1805:Drivers/STM32F1xx_HAL_Driver/Src/stm32f1xx_hal_tim_ex.c ****        /* defined(STM32F105xC) || defined(STM32F107xC)                                             
1806:Drivers/STM32F1xx_HAL_Driver/Src/stm32f1xx_hal_tim_ex.c **** 
1807:Drivers/STM32F1xx_HAL_Driver/Src/stm32f1xx_hal_tim_ex.c **** /**
1808:Drivers/STM32F1xx_HAL_Driver/Src/stm32f1xx_hal_tim_ex.c ****   * @}
1809:Drivers/STM32F1xx_HAL_Driver/Src/stm32f1xx_hal_tim_ex.c ****   */
1810:Drivers/STM32F1xx_HAL_Driver/Src/stm32f1xx_hal_tim_ex.c **** 
1811:Drivers/STM32F1xx_HAL_Driver/Src/stm32f1xx_hal_tim_ex.c **** #if defined (STM32F100xB) || defined (STM32F100xE) ||                                              
1812:Drivers/STM32F1xx_HAL_Driver/Src/stm32f1xx_hal_tim_ex.c ****     defined (STM32F103x6) || defined (STM32F103xB) || defined (STM32F103xE) || defined (STM32F103xG
1813:Drivers/STM32F1xx_HAL_Driver/Src/stm32f1xx_hal_tim_ex.c ****     defined (STM32F105xC) || defined (STM32F107xC)
1814:Drivers/STM32F1xx_HAL_Driver/Src/stm32f1xx_hal_tim_ex.c **** 
1815:Drivers/STM32F1xx_HAL_Driver/Src/stm32f1xx_hal_tim_ex.c **** /** @addtogroup TIMEx_Private_Functions
1816:Drivers/STM32F1xx_HAL_Driver/Src/stm32f1xx_hal_tim_ex.c ****   * @{
1817:Drivers/STM32F1xx_HAL_Driver/Src/stm32f1xx_hal_tim_ex.c ****   */
1818:Drivers/STM32F1xx_HAL_Driver/Src/stm32f1xx_hal_tim_ex.c **** 
1819:Drivers/STM32F1xx_HAL_Driver/Src/stm32f1xx_hal_tim_ex.c **** /**
1820:Drivers/STM32F1xx_HAL_Driver/Src/stm32f1xx_hal_tim_ex.c ****   * @brief  Enables or disables the TIM Capture Compare Channel xN.
1821:Drivers/STM32F1xx_HAL_Driver/Src/stm32f1xx_hal_tim_ex.c ****   * @param  TIMx  to select the TIM peripheral
1822:Drivers/STM32F1xx_HAL_Driver/Src/stm32f1xx_hal_tim_ex.c ****   * @param  Channel : specifies the TIM Channel
1823:Drivers/STM32F1xx_HAL_Driver/Src/stm32f1xx_hal_tim_ex.c ****   *          This parameter can be one of the following values:
1824:Drivers/STM32F1xx_HAL_Driver/Src/stm32f1xx_hal_tim_ex.c ****   *            @arg TIM_Channel_1: TIM Channel 1
ARM GAS  /tmp/ccpgqo2Y.s 			page 100


1825:Drivers/STM32F1xx_HAL_Driver/Src/stm32f1xx_hal_tim_ex.c ****   *            @arg TIM_Channel_2: TIM Channel 2
1826:Drivers/STM32F1xx_HAL_Driver/Src/stm32f1xx_hal_tim_ex.c ****   *            @arg TIM_Channel_3: TIM Channel 3
1827:Drivers/STM32F1xx_HAL_Driver/Src/stm32f1xx_hal_tim_ex.c ****   * @param  ChannelNState : specifies the TIM Channel CCxNE bit new state.
1828:Drivers/STM32F1xx_HAL_Driver/Src/stm32f1xx_hal_tim_ex.c ****   *          This parameter can be: TIM_CCxN_ENABLE or TIM_CCxN_Disable.
1829:Drivers/STM32F1xx_HAL_Driver/Src/stm32f1xx_hal_tim_ex.c ****   * @retval None
1830:Drivers/STM32F1xx_HAL_Driver/Src/stm32f1xx_hal_tim_ex.c ****   */
1831:Drivers/STM32F1xx_HAL_Driver/Src/stm32f1xx_hal_tim_ex.c **** static void TIM_CCxNChannelCmd(TIM_TypeDef* TIMx, uint32_t Channel, uint32_t ChannelNState)
1832:Drivers/STM32F1xx_HAL_Driver/Src/stm32f1xx_hal_tim_ex.c **** {
 3891              		.loc 1 1832 0
 3892              		.cfi_startproc
 3893              		@ args = 0, pretend = 0, frame = 24
 3894              		@ frame_needed = 1, uses_anonymous_args = 0
 3895              		@ link register save eliminated.
 3896 0000 80B4     		push	{r7}
 3897              	.LCFI185:
 3898              		.cfi_def_cfa_offset 4
 3899              		.cfi_offset 7, -4
 3900 0002 87B0     		sub	sp, sp, #28
 3901              	.LCFI186:
 3902              		.cfi_def_cfa_offset 32
 3903 0004 00AF     		add	r7, sp, #0
 3904              	.LCFI187:
 3905              		.cfi_def_cfa_register 7
 3906 0006 F860     		str	r0, [r7, #12]
 3907 0008 B960     		str	r1, [r7, #8]
 3908 000a 7A60     		str	r2, [r7, #4]
1833:Drivers/STM32F1xx_HAL_Driver/Src/stm32f1xx_hal_tim_ex.c ****   uint32_t tmp = 0U;
 3909              		.loc 1 1833 0
 3910 000c 0023     		movs	r3, #0
 3911 000e 7B61     		str	r3, [r7, #20]
1834:Drivers/STM32F1xx_HAL_Driver/Src/stm32f1xx_hal_tim_ex.c **** 
1835:Drivers/STM32F1xx_HAL_Driver/Src/stm32f1xx_hal_tim_ex.c ****   tmp = TIM_CCER_CC1NE << Channel;
 3912              		.loc 1 1835 0
 3913 0010 0422     		movs	r2, #4
 3914 0012 BB68     		ldr	r3, [r7, #8]
 3915 0014 02FA03F3 		lsl	r3, r2, r3
 3916 0018 7B61     		str	r3, [r7, #20]
1836:Drivers/STM32F1xx_HAL_Driver/Src/stm32f1xx_hal_tim_ex.c **** 
1837:Drivers/STM32F1xx_HAL_Driver/Src/stm32f1xx_hal_tim_ex.c ****   /* Reset the CCxNE Bit */
1838:Drivers/STM32F1xx_HAL_Driver/Src/stm32f1xx_hal_tim_ex.c ****   TIMx->CCER &=  ~tmp;
 3917              		.loc 1 1838 0
 3918 001a FB68     		ldr	r3, [r7, #12]
 3919 001c 1A6A     		ldr	r2, [r3, #32]
 3920 001e 7B69     		ldr	r3, [r7, #20]
 3921 0020 DB43     		mvns	r3, r3
 3922 0022 1A40     		ands	r2, r2, r3
 3923 0024 FB68     		ldr	r3, [r7, #12]
 3924 0026 1A62     		str	r2, [r3, #32]
1839:Drivers/STM32F1xx_HAL_Driver/Src/stm32f1xx_hal_tim_ex.c **** 
1840:Drivers/STM32F1xx_HAL_Driver/Src/stm32f1xx_hal_tim_ex.c ****   /* Set or reset the CCxNE Bit */
1841:Drivers/STM32F1xx_HAL_Driver/Src/stm32f1xx_hal_tim_ex.c ****   TIMx->CCER |=  (uint32_t)(ChannelNState << Channel);
 3925              		.loc 1 1841 0
 3926 0028 FB68     		ldr	r3, [r7, #12]
 3927 002a 1A6A     		ldr	r2, [r3, #32]
 3928 002c 7968     		ldr	r1, [r7, #4]
 3929 002e BB68     		ldr	r3, [r7, #8]
 3930 0030 01FA03F3 		lsl	r3, r1, r3
ARM GAS  /tmp/ccpgqo2Y.s 			page 101


 3931 0034 1A43     		orrs	r2, r2, r3
 3932 0036 FB68     		ldr	r3, [r7, #12]
 3933 0038 1A62     		str	r2, [r3, #32]
1842:Drivers/STM32F1xx_HAL_Driver/Src/stm32f1xx_hal_tim_ex.c **** }
 3934              		.loc 1 1842 0
 3935 003a 00BF     		nop
 3936 003c 1C37     		adds	r7, r7, #28
 3937              	.LCFI188:
 3938              		.cfi_def_cfa_offset 4
 3939 003e BD46     		mov	sp, r7
 3940              	.LCFI189:
 3941              		.cfi_def_cfa_register 13
 3942              		@ sp needed
 3943 0040 80BC     		pop	{r7}
 3944              	.LCFI190:
 3945              		.cfi_restore 7
 3946              		.cfi_def_cfa_offset 0
 3947 0042 7047     		bx	lr
 3948              		.cfi_endproc
 3949              	.LFE101:
 3951              		.text
 3952              	.Letext0:
 3953              		.file 2 "/usr/include/newlib/machine/_default_types.h"
 3954              		.file 3 "/usr/include/newlib/sys/_stdint.h"
 3955              		.file 4 "Drivers/CMSIS/Include/core_cm3.h"
 3956              		.file 5 "Drivers/CMSIS/Device/ST/STM32F1xx/Include/system_stm32f1xx.h"
 3957              		.file 6 "Drivers/CMSIS/Device/ST/STM32F1xx/Include/stm32f103xb.h"
 3958              		.file 7 "/usr/include/newlib/sys/lock.h"
 3959              		.file 8 "/usr/include/newlib/sys/_types.h"
 3960              		.file 9 "/usr/lib/gcc/arm-none-eabi/7.3.1/include/stddef.h"
 3961              		.file 10 "/usr/include/newlib/sys/reent.h"
 3962              		.file 11 "Drivers/CMSIS/Device/ST/STM32F1xx/Include/stm32f1xx.h"
 3963              		.file 12 "Drivers/STM32F1xx_HAL_Driver/Inc/stm32f1xx_hal_def.h"
 3964              		.file 13 "Drivers/STM32F1xx_HAL_Driver/Inc/stm32f1xx_hal_dma.h"
 3965              		.file 14 "Drivers/STM32F1xx_HAL_Driver/Inc/stm32f1xx_hal_tim.h"
 3966              		.file 15 "Drivers/STM32F1xx_HAL_Driver/Inc/stm32f1xx_hal_tim_ex.h"
ARM GAS  /tmp/ccpgqo2Y.s 			page 102


DEFINED SYMBOLS
                            *ABS*:0000000000000000 stm32f1xx_hal_tim_ex.c
     /tmp/ccpgqo2Y.s:16     .text.HAL_TIMEx_HallSensor_Init:0000000000000000 $t
     /tmp/ccpgqo2Y.s:23     .text.HAL_TIMEx_HallSensor_Init:0000000000000000 HAL_TIMEx_HallSensor_Init
     /tmp/ccpgqo2Y.s:298    .text.HAL_TIMEx_HallSensor_MspInit:0000000000000000 HAL_TIMEx_HallSensor_MspInit
     /tmp/ccpgqo2Y.s:210    .text.HAL_TIMEx_HallSensor_DeInit:0000000000000000 $t
     /tmp/ccpgqo2Y.s:217    .text.HAL_TIMEx_HallSensor_DeInit:0000000000000000 HAL_TIMEx_HallSensor_DeInit
     /tmp/ccpgqo2Y.s:341    .text.HAL_TIMEx_HallSensor_MspDeInit:0000000000000000 HAL_TIMEx_HallSensor_MspDeInit
     /tmp/ccpgqo2Y.s:291    .text.HAL_TIMEx_HallSensor_MspInit:0000000000000000 $t
     /tmp/ccpgqo2Y.s:334    .text.HAL_TIMEx_HallSensor_MspDeInit:0000000000000000 $t
     /tmp/ccpgqo2Y.s:377    .text.HAL_TIMEx_HallSensor_Start:0000000000000000 $t
     /tmp/ccpgqo2Y.s:384    .text.HAL_TIMEx_HallSensor_Start:0000000000000000 HAL_TIMEx_HallSensor_Start
     /tmp/ccpgqo2Y.s:433    .text.HAL_TIMEx_HallSensor_Stop:0000000000000000 $t
     /tmp/ccpgqo2Y.s:440    .text.HAL_TIMEx_HallSensor_Stop:0000000000000000 HAL_TIMEx_HallSensor_Stop
     /tmp/ccpgqo2Y.s:506    .text.HAL_TIMEx_HallSensor_Start_IT:0000000000000000 $t
     /tmp/ccpgqo2Y.s:513    .text.HAL_TIMEx_HallSensor_Start_IT:0000000000000000 HAL_TIMEx_HallSensor_Start_IT
     /tmp/ccpgqo2Y.s:570    .text.HAL_TIMEx_HallSensor_Stop_IT:0000000000000000 $t
     /tmp/ccpgqo2Y.s:577    .text.HAL_TIMEx_HallSensor_Stop_IT:0000000000000000 HAL_TIMEx_HallSensor_Stop_IT
     /tmp/ccpgqo2Y.s:651    .text.HAL_TIMEx_HallSensor_Start_DMA:0000000000000000 $t
     /tmp/ccpgqo2Y.s:658    .text.HAL_TIMEx_HallSensor_Start_DMA:0000000000000000 HAL_TIMEx_HallSensor_Start_DMA
     /tmp/ccpgqo2Y.s:771    .text.HAL_TIMEx_HallSensor_Start_DMA:00000000000000a0 $d
     /tmp/ccpgqo2Y.s:777    .text.HAL_TIMEx_HallSensor_Stop_DMA:0000000000000000 $t
     /tmp/ccpgqo2Y.s:784    .text.HAL_TIMEx_HallSensor_Stop_DMA:0000000000000000 HAL_TIMEx_HallSensor_Stop_DMA
     /tmp/ccpgqo2Y.s:858    .text.HAL_TIMEx_OCN_Start:0000000000000000 $t
     /tmp/ccpgqo2Y.s:865    .text.HAL_TIMEx_OCN_Start:0000000000000000 HAL_TIMEx_OCN_Start
     /tmp/ccpgqo2Y.s:3889   .text.TIM_CCxNChannelCmd:0000000000000000 TIM_CCxNChannelCmd
     /tmp/ccpgqo2Y.s:923    .text.HAL_TIMEx_OCN_Stop:0000000000000000 $t
     /tmp/ccpgqo2Y.s:930    .text.HAL_TIMEx_OCN_Stop:0000000000000000 HAL_TIMEx_OCN_Stop
     /tmp/ccpgqo2Y.s:1022   .text.HAL_TIMEx_OCN_Start_IT:0000000000000000 $t
     /tmp/ccpgqo2Y.s:1029   .text.HAL_TIMEx_OCN_Start_IT:0000000000000000 HAL_TIMEx_OCN_Start_IT
     /tmp/ccpgqo2Y.s:1056   .text.HAL_TIMEx_OCN_Start_IT:0000000000000018 $d
     /tmp/ccpgqo2Y.s:1069   .text.HAL_TIMEx_OCN_Start_IT:000000000000004c $t
     /tmp/ccpgqo2Y.s:1165   .text.HAL_TIMEx_OCN_Stop_IT:0000000000000000 $t
     /tmp/ccpgqo2Y.s:1172   .text.HAL_TIMEx_OCN_Stop_IT:0000000000000000 HAL_TIMEx_OCN_Stop_IT
     /tmp/ccpgqo2Y.s:1202   .text.HAL_TIMEx_OCN_Stop_IT:000000000000001c $d
     /tmp/ccpgqo2Y.s:1215   .text.HAL_TIMEx_OCN_Stop_IT:0000000000000050 $t
     /tmp/ccpgqo2Y.s:1357   .text.HAL_TIMEx_OCN_Start_DMA:0000000000000000 $t
     /tmp/ccpgqo2Y.s:1364   .text.HAL_TIMEx_OCN_Start_DMA:0000000000000000 HAL_TIMEx_OCN_Start_DMA
     /tmp/ccpgqo2Y.s:1426   .text.HAL_TIMEx_OCN_Start_DMA:0000000000000050 $d
     /tmp/ccpgqo2Y.s:1439   .text.HAL_TIMEx_OCN_Start_DMA:0000000000000084 $t
     /tmp/ccpgqo2Y.s:1607   .text.HAL_TIMEx_OCN_Start_DMA:0000000000000198 $d
     /tmp/ccpgqo2Y.s:1613   .text.HAL_TIMEx_OCN_Stop_DMA:0000000000000000 $t
     /tmp/ccpgqo2Y.s:1620   .text.HAL_TIMEx_OCN_Stop_DMA:0000000000000000 HAL_TIMEx_OCN_Stop_DMA
     /tmp/ccpgqo2Y.s:1647   .text.HAL_TIMEx_OCN_Stop_DMA:0000000000000018 $d
     /tmp/ccpgqo2Y.s:1660   .text.HAL_TIMEx_OCN_Stop_DMA:000000000000004c $t
     /tmp/ccpgqo2Y.s:1786   .text.HAL_TIMEx_PWMN_Start:0000000000000000 $t
     /tmp/ccpgqo2Y.s:1793   .text.HAL_TIMEx_PWMN_Start:0000000000000000 HAL_TIMEx_PWMN_Start
     /tmp/ccpgqo2Y.s:1851   .text.HAL_TIMEx_PWMN_Stop:0000000000000000 $t
     /tmp/ccpgqo2Y.s:1858   .text.HAL_TIMEx_PWMN_Stop:0000000000000000 HAL_TIMEx_PWMN_Stop
     /tmp/ccpgqo2Y.s:1950   .text.HAL_TIMEx_PWMN_Start_IT:0000000000000000 $t
     /tmp/ccpgqo2Y.s:1957   .text.HAL_TIMEx_PWMN_Start_IT:0000000000000000 HAL_TIMEx_PWMN_Start_IT
     /tmp/ccpgqo2Y.s:1984   .text.HAL_TIMEx_PWMN_Start_IT:0000000000000018 $d
     /tmp/ccpgqo2Y.s:1997   .text.HAL_TIMEx_PWMN_Start_IT:000000000000004c $t
     /tmp/ccpgqo2Y.s:2093   .text.HAL_TIMEx_PWMN_Stop_IT:0000000000000000 $t
     /tmp/ccpgqo2Y.s:2100   .text.HAL_TIMEx_PWMN_Stop_IT:0000000000000000 HAL_TIMEx_PWMN_Stop_IT
     /tmp/ccpgqo2Y.s:2130   .text.HAL_TIMEx_PWMN_Stop_IT:000000000000001c $d
     /tmp/ccpgqo2Y.s:2143   .text.HAL_TIMEx_PWMN_Stop_IT:0000000000000050 $t
ARM GAS  /tmp/ccpgqo2Y.s 			page 103


     /tmp/ccpgqo2Y.s:2285   .text.HAL_TIMEx_PWMN_Start_DMA:0000000000000000 $t
     /tmp/ccpgqo2Y.s:2292   .text.HAL_TIMEx_PWMN_Start_DMA:0000000000000000 HAL_TIMEx_PWMN_Start_DMA
     /tmp/ccpgqo2Y.s:2354   .text.HAL_TIMEx_PWMN_Start_DMA:0000000000000050 $d
     /tmp/ccpgqo2Y.s:2367   .text.HAL_TIMEx_PWMN_Start_DMA:0000000000000084 $t
     /tmp/ccpgqo2Y.s:2535   .text.HAL_TIMEx_PWMN_Start_DMA:0000000000000198 $d
     /tmp/ccpgqo2Y.s:2541   .text.HAL_TIMEx_PWMN_Stop_DMA:0000000000000000 $t
     /tmp/ccpgqo2Y.s:2548   .text.HAL_TIMEx_PWMN_Stop_DMA:0000000000000000 HAL_TIMEx_PWMN_Stop_DMA
     /tmp/ccpgqo2Y.s:2575   .text.HAL_TIMEx_PWMN_Stop_DMA:0000000000000018 $d
     /tmp/ccpgqo2Y.s:2588   .text.HAL_TIMEx_PWMN_Stop_DMA:000000000000004c $t
     /tmp/ccpgqo2Y.s:2714   .text.HAL_TIMEx_OnePulseN_Start:0000000000000000 $t
     /tmp/ccpgqo2Y.s:2721   .text.HAL_TIMEx_OnePulseN_Start:0000000000000000 HAL_TIMEx_OnePulseN_Start
     /tmp/ccpgqo2Y.s:2771   .text.HAL_TIMEx_OnePulseN_Stop:0000000000000000 $t
     /tmp/ccpgqo2Y.s:2778   .text.HAL_TIMEx_OnePulseN_Stop:0000000000000000 HAL_TIMEx_OnePulseN_Stop
     /tmp/ccpgqo2Y.s:2870   .text.HAL_TIMEx_OnePulseN_Start_IT:0000000000000000 $t
     /tmp/ccpgqo2Y.s:2877   .text.HAL_TIMEx_OnePulseN_Start_IT:0000000000000000 HAL_TIMEx_OnePulseN_Start_IT
     /tmp/ccpgqo2Y.s:2943   .text.HAL_TIMEx_OnePulseN_Stop_IT:0000000000000000 $t
     /tmp/ccpgqo2Y.s:2950   .text.HAL_TIMEx_OnePulseN_Stop_IT:0000000000000000 HAL_TIMEx_OnePulseN_Stop_IT
     /tmp/ccpgqo2Y.s:3058   .text.HAL_TIMEx_ConfigCommutationEvent:0000000000000000 $t
     /tmp/ccpgqo2Y.s:3065   .text.HAL_TIMEx_ConfigCommutationEvent:0000000000000000 HAL_TIMEx_ConfigCommutationEvent
     /tmp/ccpgqo2Y.s:3183   .text.HAL_TIMEx_ConfigCommutationEvent_IT:0000000000000000 $t
     /tmp/ccpgqo2Y.s:3190   .text.HAL_TIMEx_ConfigCommutationEvent_IT:0000000000000000 HAL_TIMEx_ConfigCommutationEvent_IT
     /tmp/ccpgqo2Y.s:3316   .text.HAL_TIMEx_ConfigCommutationEvent_DMA:0000000000000000 $t
     /tmp/ccpgqo2Y.s:3323   .text.HAL_TIMEx_ConfigCommutationEvent_DMA:0000000000000000 HAL_TIMEx_ConfigCommutationEvent_DMA
     /tmp/ccpgqo2Y.s:3458   .text.HAL_TIMEx_ConfigCommutationEvent_DMA:00000000000000c0 $d
     /tmp/ccpgqo2Y.s:3793   .text.TIMEx_DMACommutationCplt:0000000000000000 TIMEx_DMACommutationCplt
     /tmp/ccpgqo2Y.s:3464   .text.HAL_TIMEx_ConfigBreakDeadTime:0000000000000000 $t
     /tmp/ccpgqo2Y.s:3471   .text.HAL_TIMEx_ConfigBreakDeadTime:0000000000000000 HAL_TIMEx_ConfigBreakDeadTime
     /tmp/ccpgqo2Y.s:3592   .text.HAL_TIMEx_MasterConfigSynchronization:0000000000000000 $t
     /tmp/ccpgqo2Y.s:3599   .text.HAL_TIMEx_MasterConfigSynchronization:0000000000000000 HAL_TIMEx_MasterConfigSynchronization
     /tmp/ccpgqo2Y.s:3700   .text.HAL_TIMEx_CommutationCallback:0000000000000000 $t
     /tmp/ccpgqo2Y.s:3707   .text.HAL_TIMEx_CommutationCallback:0000000000000000 HAL_TIMEx_CommutationCallback
     /tmp/ccpgqo2Y.s:3743   .text.HAL_TIMEx_BreakCallback:0000000000000000 $t
     /tmp/ccpgqo2Y.s:3750   .text.HAL_TIMEx_BreakCallback:0000000000000000 HAL_TIMEx_BreakCallback
     /tmp/ccpgqo2Y.s:3786   .text.TIMEx_DMACommutationCplt:0000000000000000 $t
     /tmp/ccpgqo2Y.s:3836   .text.HAL_TIMEx_HallSensor_GetState:0000000000000000 $t
     /tmp/ccpgqo2Y.s:3843   .text.HAL_TIMEx_HallSensor_GetState:0000000000000000 HAL_TIMEx_HallSensor_GetState
     /tmp/ccpgqo2Y.s:3883   .text.TIM_CCxNChannelCmd:0000000000000000 $t

UNDEFINED SYMBOLS
TIM_Base_SetConfig
TIM_TI1_SetConfig
TIM_OC2_SetConfig
TIM_CCxChannelCmd
HAL_DMA_Start_IT
TIM_DMACaptureCplt
TIM_DMAError
TIM_DMADelayPulseCplt
