ARM GAS  /tmp/cc5HGhWi.s 			page 1


   1              		.cpu cortex-m3
   2              		.eabi_attribute 20, 1
   3              		.eabi_attribute 21, 1
   4              		.eabi_attribute 23, 3
   5              		.eabi_attribute 24, 1
   6              		.eabi_attribute 25, 1
   7              		.eabi_attribute 26, 1
   8              		.eabi_attribute 30, 6
   9              		.eabi_attribute 34, 1
  10              		.eabi_attribute 18, 4
  11              		.file	"stm32f1xx_hal_tim.c"
  12              		.text
  13              	.Ltext0:
  14              		.cfi_sections	.debug_frame
  15              		.section	.text.HAL_TIM_Base_Init,"ax",%progbits
  16              		.align	1
  17              		.global	HAL_TIM_Base_Init
  18              		.syntax unified
  19              		.thumb
  20              		.thumb_func
  21              		.fpu softvfp
  23              	HAL_TIM_Base_Init:
  24              	.LFB66:
  25              		.file 1 "Drivers/STM32F1xx_HAL_Driver/Src/stm32f1xx_hal_tim.c"
   1:Drivers/STM32F1xx_HAL_Driver/Src/stm32f1xx_hal_tim.c **** /**
   2:Drivers/STM32F1xx_HAL_Driver/Src/stm32f1xx_hal_tim.c ****   ******************************************************************************
   3:Drivers/STM32F1xx_HAL_Driver/Src/stm32f1xx_hal_tim.c ****   * @file    stm32f1xx_hal_tim.c
   4:Drivers/STM32F1xx_HAL_Driver/Src/stm32f1xx_hal_tim.c ****   * @author  MCD Application Team
   5:Drivers/STM32F1xx_HAL_Driver/Src/stm32f1xx_hal_tim.c ****   * @version V1.1.1
   6:Drivers/STM32F1xx_HAL_Driver/Src/stm32f1xx_hal_tim.c ****   * @date    12-May-2017
   7:Drivers/STM32F1xx_HAL_Driver/Src/stm32f1xx_hal_tim.c ****   * @brief   TIM HAL module driver
   8:Drivers/STM32F1xx_HAL_Driver/Src/stm32f1xx_hal_tim.c ****   *          This file provides firmware functions to manage the following 
   9:Drivers/STM32F1xx_HAL_Driver/Src/stm32f1xx_hal_tim.c ****   *          functionalities of the Timer (TIM) peripheral:
  10:Drivers/STM32F1xx_HAL_Driver/Src/stm32f1xx_hal_tim.c ****   *           + Time Base Initialization
  11:Drivers/STM32F1xx_HAL_Driver/Src/stm32f1xx_hal_tim.c ****   *           + Time Base Start
  12:Drivers/STM32F1xx_HAL_Driver/Src/stm32f1xx_hal_tim.c ****   *           + Time Base Start Interruption
  13:Drivers/STM32F1xx_HAL_Driver/Src/stm32f1xx_hal_tim.c ****   *           + Time Base Start DMA
  14:Drivers/STM32F1xx_HAL_Driver/Src/stm32f1xx_hal_tim.c ****   *           + Time Output Compare/PWM Initialization
  15:Drivers/STM32F1xx_HAL_Driver/Src/stm32f1xx_hal_tim.c ****   *           + Time Output Compare/PWM Channel Configuration
  16:Drivers/STM32F1xx_HAL_Driver/Src/stm32f1xx_hal_tim.c ****   *           + Time Output Compare/PWM  Start
  17:Drivers/STM32F1xx_HAL_Driver/Src/stm32f1xx_hal_tim.c ****   *           + Time Output Compare/PWM  Start Interruption
  18:Drivers/STM32F1xx_HAL_Driver/Src/stm32f1xx_hal_tim.c ****   *           + Time Output Compare/PWM Start DMA
  19:Drivers/STM32F1xx_HAL_Driver/Src/stm32f1xx_hal_tim.c ****   *           + Time Input Capture Initialization
  20:Drivers/STM32F1xx_HAL_Driver/Src/stm32f1xx_hal_tim.c ****   *           + Time Input Capture Channel Configuration
  21:Drivers/STM32F1xx_HAL_Driver/Src/stm32f1xx_hal_tim.c ****   *           + Time Input Capture Start
  22:Drivers/STM32F1xx_HAL_Driver/Src/stm32f1xx_hal_tim.c ****   *           + Time Input Capture Start Interruption 
  23:Drivers/STM32F1xx_HAL_Driver/Src/stm32f1xx_hal_tim.c ****   *           + Time Input Capture Start DMA
  24:Drivers/STM32F1xx_HAL_Driver/Src/stm32f1xx_hal_tim.c ****   *           + Time One Pulse Initialization
  25:Drivers/STM32F1xx_HAL_Driver/Src/stm32f1xx_hal_tim.c ****   *           + Time One Pulse Channel Configuration
  26:Drivers/STM32F1xx_HAL_Driver/Src/stm32f1xx_hal_tim.c ****   *           + Time One Pulse Start 
  27:Drivers/STM32F1xx_HAL_Driver/Src/stm32f1xx_hal_tim.c ****   *           + Time Encoder Interface Initialization
  28:Drivers/STM32F1xx_HAL_Driver/Src/stm32f1xx_hal_tim.c ****   *           + Time Encoder Interface Start
  29:Drivers/STM32F1xx_HAL_Driver/Src/stm32f1xx_hal_tim.c ****   *           + Time Encoder Interface Start Interruption
  30:Drivers/STM32F1xx_HAL_Driver/Src/stm32f1xx_hal_tim.c ****   *           + Time Encoder Interface Start DMA
  31:Drivers/STM32F1xx_HAL_Driver/Src/stm32f1xx_hal_tim.c ****   *           + Commutation Event configuration with Interruption and DMA
  32:Drivers/STM32F1xx_HAL_Driver/Src/stm32f1xx_hal_tim.c ****   *           + Time OCRef clear configuration
  33:Drivers/STM32F1xx_HAL_Driver/Src/stm32f1xx_hal_tim.c ****   *           + Time External Clock configuration
ARM GAS  /tmp/cc5HGhWi.s 			page 2


  34:Drivers/STM32F1xx_HAL_Driver/Src/stm32f1xx_hal_tim.c ****   @verbatim
  35:Drivers/STM32F1xx_HAL_Driver/Src/stm32f1xx_hal_tim.c ****   ==============================================================================
  36:Drivers/STM32F1xx_HAL_Driver/Src/stm32f1xx_hal_tim.c ****                       ##### TIMER Generic features #####
  37:Drivers/STM32F1xx_HAL_Driver/Src/stm32f1xx_hal_tim.c ****   ==============================================================================
  38:Drivers/STM32F1xx_HAL_Driver/Src/stm32f1xx_hal_tim.c ****   [..] The Timer features include:
  39:Drivers/STM32F1xx_HAL_Driver/Src/stm32f1xx_hal_tim.c ****        (#) 16-bit up, down, up/down auto-reload counter.
  40:Drivers/STM32F1xx_HAL_Driver/Src/stm32f1xx_hal_tim.c ****        (#) 16-bit programmable prescaler allowing dividing (also on the fly) the 
  41:Drivers/STM32F1xx_HAL_Driver/Src/stm32f1xx_hal_tim.c ****            counter clock frequency either by any factor between 1 and 65536.
  42:Drivers/STM32F1xx_HAL_Driver/Src/stm32f1xx_hal_tim.c ****        (#) Up to 4 independent channels for:
  43:Drivers/STM32F1xx_HAL_Driver/Src/stm32f1xx_hal_tim.c ****            (++) Input Capture
  44:Drivers/STM32F1xx_HAL_Driver/Src/stm32f1xx_hal_tim.c ****            (++) Output Compare
  45:Drivers/STM32F1xx_HAL_Driver/Src/stm32f1xx_hal_tim.c ****            (++) PWM generation (Edge and Center-aligned Mode)
  46:Drivers/STM32F1xx_HAL_Driver/Src/stm32f1xx_hal_tim.c ****            (++) One-pulse mode output 
  47:Drivers/STM32F1xx_HAL_Driver/Src/stm32f1xx_hal_tim.c **** 
  48:Drivers/STM32F1xx_HAL_Driver/Src/stm32f1xx_hal_tim.c ****             ##### How to use this driver #####
  49:Drivers/STM32F1xx_HAL_Driver/Src/stm32f1xx_hal_tim.c ****   ==============================================================================
  50:Drivers/STM32F1xx_HAL_Driver/Src/stm32f1xx_hal_tim.c ****     [..]
  51:Drivers/STM32F1xx_HAL_Driver/Src/stm32f1xx_hal_tim.c ****      (#) Initialize the TIM low level resources by implementing the following functions 
  52:Drivers/STM32F1xx_HAL_Driver/Src/stm32f1xx_hal_tim.c ****          depending from feature used :
  53:Drivers/STM32F1xx_HAL_Driver/Src/stm32f1xx_hal_tim.c ****            (++) Time Base : HAL_TIM_Base_MspInit()
  54:Drivers/STM32F1xx_HAL_Driver/Src/stm32f1xx_hal_tim.c ****            (++) Input Capture : HAL_TIM_IC_MspInit()
  55:Drivers/STM32F1xx_HAL_Driver/Src/stm32f1xx_hal_tim.c ****            (++) Output Compare : HAL_TIM_OC_MspInit()
  56:Drivers/STM32F1xx_HAL_Driver/Src/stm32f1xx_hal_tim.c ****            (++) PWM generation : HAL_TIM_PWM_MspInit()
  57:Drivers/STM32F1xx_HAL_Driver/Src/stm32f1xx_hal_tim.c ****            (++) One-pulse mode output : HAL_TIM_OnePulse_MspInit()
  58:Drivers/STM32F1xx_HAL_Driver/Src/stm32f1xx_hal_tim.c ****            (++) Encoder mode output : HAL_TIM_Encoder_MspInit()
  59:Drivers/STM32F1xx_HAL_Driver/Src/stm32f1xx_hal_tim.c **** 
  60:Drivers/STM32F1xx_HAL_Driver/Src/stm32f1xx_hal_tim.c ****      (#) Initialize the TIM low level resources :
  61:Drivers/STM32F1xx_HAL_Driver/Src/stm32f1xx_hal_tim.c ****         (##) Enable the TIM interface clock using __HAL_RCC_TIMx_CLK_ENABLE();
  62:Drivers/STM32F1xx_HAL_Driver/Src/stm32f1xx_hal_tim.c ****         (##) TIM pins configuration
  63:Drivers/STM32F1xx_HAL_Driver/Src/stm32f1xx_hal_tim.c ****             (+++) Enable the clock for the TIM GPIOs using the following function:
  64:Drivers/STM32F1xx_HAL_Driver/Src/stm32f1xx_hal_tim.c ****              __HAL_RCC_GPIOx_CLK_ENABLE();
  65:Drivers/STM32F1xx_HAL_Driver/Src/stm32f1xx_hal_tim.c ****             (+++) Configure these TIM pins in Alternate function mode using HAL_GPIO_Init();
  66:Drivers/STM32F1xx_HAL_Driver/Src/stm32f1xx_hal_tim.c **** 
  67:Drivers/STM32F1xx_HAL_Driver/Src/stm32f1xx_hal_tim.c ****      (#) The external Clock can be configured, if needed (the default clock is the 
  68:Drivers/STM32F1xx_HAL_Driver/Src/stm32f1xx_hal_tim.c ****          internal clock from the APBx), using the following function:
  69:Drivers/STM32F1xx_HAL_Driver/Src/stm32f1xx_hal_tim.c ****          HAL_TIM_ConfigClockSource, the clock configuration should be done before 
  70:Drivers/STM32F1xx_HAL_Driver/Src/stm32f1xx_hal_tim.c ****          any start function.
  71:Drivers/STM32F1xx_HAL_Driver/Src/stm32f1xx_hal_tim.c **** 
  72:Drivers/STM32F1xx_HAL_Driver/Src/stm32f1xx_hal_tim.c ****      (#) Configure the TIM in the desired functioning mode using one of the 
  73:Drivers/STM32F1xx_HAL_Driver/Src/stm32f1xx_hal_tim.c ****        Initialization function of this driver:
  74:Drivers/STM32F1xx_HAL_Driver/Src/stm32f1xx_hal_tim.c ****        (++) HAL_TIM_Base_Init: to use the Timer to generate a simple time base
  75:Drivers/STM32F1xx_HAL_Driver/Src/stm32f1xx_hal_tim.c ****        (++) HAL_TIM_OC_Init and HAL_TIM_OC_ConfigChannel: to use the Timer to generate an 
  76:Drivers/STM32F1xx_HAL_Driver/Src/stm32f1xx_hal_tim.c ****             Output Compare signal.
  77:Drivers/STM32F1xx_HAL_Driver/Src/stm32f1xx_hal_tim.c ****        (++) HAL_TIM_PWM_Init and HAL_TIM_PWM_ConfigChannel: to use the Timer to generate a 
  78:Drivers/STM32F1xx_HAL_Driver/Src/stm32f1xx_hal_tim.c ****             PWM signal.
  79:Drivers/STM32F1xx_HAL_Driver/Src/stm32f1xx_hal_tim.c ****        (++) HAL_TIM_IC_Init and HAL_TIM_IC_ConfigChannel: to use the Timer to measure an 
  80:Drivers/STM32F1xx_HAL_Driver/Src/stm32f1xx_hal_tim.c ****             external signal.
  81:Drivers/STM32F1xx_HAL_Driver/Src/stm32f1xx_hal_tim.c ****          (++) HAL_TIM_OnePulse_Init and HAL_TIM_OnePulse_ConfigChannel: to use the Timer 
  82:Drivers/STM32F1xx_HAL_Driver/Src/stm32f1xx_hal_tim.c ****               in One Pulse Mode.
  83:Drivers/STM32F1xx_HAL_Driver/Src/stm32f1xx_hal_tim.c ****        (++) HAL_TIM_Encoder_Init: to use the Timer Encoder Interface.
  84:Drivers/STM32F1xx_HAL_Driver/Src/stm32f1xx_hal_tim.c **** 
  85:Drivers/STM32F1xx_HAL_Driver/Src/stm32f1xx_hal_tim.c ****      (#) Activate the TIM peripheral using one of the start functions depending from the feature us
  86:Drivers/STM32F1xx_HAL_Driver/Src/stm32f1xx_hal_tim.c ****            (++) Time Base : HAL_TIM_Base_Start(), HAL_TIM_Base_Start_DMA(), HAL_TIM_Base_Start_IT()
  87:Drivers/STM32F1xx_HAL_Driver/Src/stm32f1xx_hal_tim.c ****            (++) Input Capture :  HAL_TIM_IC_Start(), HAL_TIM_IC_Start_DMA(), HAL_TIM_IC_Start_IT()
  88:Drivers/STM32F1xx_HAL_Driver/Src/stm32f1xx_hal_tim.c ****            (++) Output Compare : HAL_TIM_OC_Start(), HAL_TIM_OC_Start_DMA(), HAL_TIM_OC_Start_IT()
  89:Drivers/STM32F1xx_HAL_Driver/Src/stm32f1xx_hal_tim.c ****            (++) PWM generation : HAL_TIM_PWM_Start(), HAL_TIM_PWM_Start_DMA(), HAL_TIM_PWM_Start_IT
  90:Drivers/STM32F1xx_HAL_Driver/Src/stm32f1xx_hal_tim.c ****            (++) One-pulse mode output : HAL_TIM_OnePulse_Start(), HAL_TIM_OnePulse_Start_IT()
ARM GAS  /tmp/cc5HGhWi.s 			page 3


  91:Drivers/STM32F1xx_HAL_Driver/Src/stm32f1xx_hal_tim.c ****            (++) Encoder mode output : HAL_TIM_Encoder_Start(), HAL_TIM_Encoder_Start_DMA(), HAL_TIM
  92:Drivers/STM32F1xx_HAL_Driver/Src/stm32f1xx_hal_tim.c **** 
  93:Drivers/STM32F1xx_HAL_Driver/Src/stm32f1xx_hal_tim.c ****      (#) The DMA Burst is managed with the two following functions:
  94:Drivers/STM32F1xx_HAL_Driver/Src/stm32f1xx_hal_tim.c ****          HAL_TIM_DMABurst_WriteStart()
  95:Drivers/STM32F1xx_HAL_Driver/Src/stm32f1xx_hal_tim.c ****          HAL_TIM_DMABurst_ReadStart()
  96:Drivers/STM32F1xx_HAL_Driver/Src/stm32f1xx_hal_tim.c **** 
  97:Drivers/STM32F1xx_HAL_Driver/Src/stm32f1xx_hal_tim.c ****   @endverbatim
  98:Drivers/STM32F1xx_HAL_Driver/Src/stm32f1xx_hal_tim.c ****   ******************************************************************************
  99:Drivers/STM32F1xx_HAL_Driver/Src/stm32f1xx_hal_tim.c ****   * @attention
 100:Drivers/STM32F1xx_HAL_Driver/Src/stm32f1xx_hal_tim.c ****   *
 101:Drivers/STM32F1xx_HAL_Driver/Src/stm32f1xx_hal_tim.c ****   * <h2><center>&copy; COPYRIGHT(c) 2016 STMicroelectronics</center></h2>
 102:Drivers/STM32F1xx_HAL_Driver/Src/stm32f1xx_hal_tim.c ****   *
 103:Drivers/STM32F1xx_HAL_Driver/Src/stm32f1xx_hal_tim.c ****   * Redistribution and use in source and binary forms, with or without modification,
 104:Drivers/STM32F1xx_HAL_Driver/Src/stm32f1xx_hal_tim.c ****   * are permitted provided that the following conditions are met:
 105:Drivers/STM32F1xx_HAL_Driver/Src/stm32f1xx_hal_tim.c ****   *   1. Redistributions of source code must retain the above copyright notice,
 106:Drivers/STM32F1xx_HAL_Driver/Src/stm32f1xx_hal_tim.c ****   *      this list of conditions and the following disclaimer.
 107:Drivers/STM32F1xx_HAL_Driver/Src/stm32f1xx_hal_tim.c ****   *   2. Redistributions in binary form must reproduce the above copyright notice,
 108:Drivers/STM32F1xx_HAL_Driver/Src/stm32f1xx_hal_tim.c ****   *      this list of conditions and the following disclaimer in the documentation
 109:Drivers/STM32F1xx_HAL_Driver/Src/stm32f1xx_hal_tim.c ****   *      and/or other materials provided with the distribution.
 110:Drivers/STM32F1xx_HAL_Driver/Src/stm32f1xx_hal_tim.c ****   *   3. Neither the name of STMicroelectronics nor the names of its contributors
 111:Drivers/STM32F1xx_HAL_Driver/Src/stm32f1xx_hal_tim.c ****   *      may be used to endorse or promote products derived from this software
 112:Drivers/STM32F1xx_HAL_Driver/Src/stm32f1xx_hal_tim.c ****   *      without specific prior written permission.
 113:Drivers/STM32F1xx_HAL_Driver/Src/stm32f1xx_hal_tim.c ****   *
 114:Drivers/STM32F1xx_HAL_Driver/Src/stm32f1xx_hal_tim.c ****   * THIS SOFTWARE IS PROVIDED BY THE COPYRIGHT HOLDERS AND CONTRIBUTORS "AS IS"
 115:Drivers/STM32F1xx_HAL_Driver/Src/stm32f1xx_hal_tim.c ****   * AND ANY EXPRESS OR IMPLIED WARRANTIES, INCLUDING, BUT NOT LIMITED TO, THE
 116:Drivers/STM32F1xx_HAL_Driver/Src/stm32f1xx_hal_tim.c ****   * IMPLIED WARRANTIES OF MERCHANTABILITY AND FITNESS FOR A PARTICULAR PURPOSE ARE
 117:Drivers/STM32F1xx_HAL_Driver/Src/stm32f1xx_hal_tim.c ****   * DISCLAIMED. IN NO EVENT SHALL THE COPYRIGHT HOLDER OR CONTRIBUTORS BE LIABLE
 118:Drivers/STM32F1xx_HAL_Driver/Src/stm32f1xx_hal_tim.c ****   * FOR ANY DIRECT, INDIRECT, INCIDENTAL, SPECIAL, EXEMPLARY, OR CONSEQUENTIAL
 119:Drivers/STM32F1xx_HAL_Driver/Src/stm32f1xx_hal_tim.c ****   * DAMAGES (INCLUDING, BUT NOT LIMITED TO, PROCUREMENT OF SUBSTITUTE GOODS OR
 120:Drivers/STM32F1xx_HAL_Driver/Src/stm32f1xx_hal_tim.c ****   * SERVICES; LOSS OF USE, DATA, OR PROFITS; OR BUSINESS INTERRUPTION) HOWEVER
 121:Drivers/STM32F1xx_HAL_Driver/Src/stm32f1xx_hal_tim.c ****   * CAUSED AND ON ANY THEORY OF LIABILITY, WHETHER IN CONTRACT, STRICT LIABILITY,
 122:Drivers/STM32F1xx_HAL_Driver/Src/stm32f1xx_hal_tim.c ****   * OR TORT (INCLUDING NEGLIGENCE OR OTHERWISE) ARISING IN ANY WAY OUT OF THE USE
 123:Drivers/STM32F1xx_HAL_Driver/Src/stm32f1xx_hal_tim.c ****   * OF THIS SOFTWARE, EVEN IF ADVISED OF THE POSSIBILITY OF SUCH DAMAGE.
 124:Drivers/STM32F1xx_HAL_Driver/Src/stm32f1xx_hal_tim.c ****   *
 125:Drivers/STM32F1xx_HAL_Driver/Src/stm32f1xx_hal_tim.c ****   ******************************************************************************
 126:Drivers/STM32F1xx_HAL_Driver/Src/stm32f1xx_hal_tim.c ****   */
 127:Drivers/STM32F1xx_HAL_Driver/Src/stm32f1xx_hal_tim.c **** 
 128:Drivers/STM32F1xx_HAL_Driver/Src/stm32f1xx_hal_tim.c **** /* Includes ------------------------------------------------------------------*/
 129:Drivers/STM32F1xx_HAL_Driver/Src/stm32f1xx_hal_tim.c **** #include "stm32f1xx_hal.h"
 130:Drivers/STM32F1xx_HAL_Driver/Src/stm32f1xx_hal_tim.c **** 
 131:Drivers/STM32F1xx_HAL_Driver/Src/stm32f1xx_hal_tim.c **** /** @addtogroup STM32F1xx_HAL_Driver
 132:Drivers/STM32F1xx_HAL_Driver/Src/stm32f1xx_hal_tim.c ****   * @{
 133:Drivers/STM32F1xx_HAL_Driver/Src/stm32f1xx_hal_tim.c ****   */
 134:Drivers/STM32F1xx_HAL_Driver/Src/stm32f1xx_hal_tim.c **** 
 135:Drivers/STM32F1xx_HAL_Driver/Src/stm32f1xx_hal_tim.c **** /** @defgroup TIM TIM
 136:Drivers/STM32F1xx_HAL_Driver/Src/stm32f1xx_hal_tim.c ****   * @brief TIM HAL module driver
 137:Drivers/STM32F1xx_HAL_Driver/Src/stm32f1xx_hal_tim.c ****   * @{
 138:Drivers/STM32F1xx_HAL_Driver/Src/stm32f1xx_hal_tim.c ****   */
 139:Drivers/STM32F1xx_HAL_Driver/Src/stm32f1xx_hal_tim.c **** 
 140:Drivers/STM32F1xx_HAL_Driver/Src/stm32f1xx_hal_tim.c **** #ifdef HAL_TIM_MODULE_ENABLED
 141:Drivers/STM32F1xx_HAL_Driver/Src/stm32f1xx_hal_tim.c **** 
 142:Drivers/STM32F1xx_HAL_Driver/Src/stm32f1xx_hal_tim.c **** /* Private typedef -----------------------------------------------------------*/
 143:Drivers/STM32F1xx_HAL_Driver/Src/stm32f1xx_hal_tim.c **** /* Private define ------------------------------------------------------------*/
 144:Drivers/STM32F1xx_HAL_Driver/Src/stm32f1xx_hal_tim.c **** /* Private macro -------------------------------------------------------------*/
 145:Drivers/STM32F1xx_HAL_Driver/Src/stm32f1xx_hal_tim.c **** /* Private variables ---------------------------------------------------------*/
 146:Drivers/STM32F1xx_HAL_Driver/Src/stm32f1xx_hal_tim.c **** /* Private function prototypes -----------------------------------------------*/
 147:Drivers/STM32F1xx_HAL_Driver/Src/stm32f1xx_hal_tim.c **** /** @defgroup TIM_Private_Functions TIM Private Functions
ARM GAS  /tmp/cc5HGhWi.s 			page 4


 148:Drivers/STM32F1xx_HAL_Driver/Src/stm32f1xx_hal_tim.c ****   * @{
 149:Drivers/STM32F1xx_HAL_Driver/Src/stm32f1xx_hal_tim.c ****   */
 150:Drivers/STM32F1xx_HAL_Driver/Src/stm32f1xx_hal_tim.c **** static void TIM_OC1_SetConfig(TIM_TypeDef *TIMx, TIM_OC_InitTypeDef *OC_Config);
 151:Drivers/STM32F1xx_HAL_Driver/Src/stm32f1xx_hal_tim.c **** static void TIM_OC3_SetConfig(TIM_TypeDef *TIMx, TIM_OC_InitTypeDef *OC_Config);
 152:Drivers/STM32F1xx_HAL_Driver/Src/stm32f1xx_hal_tim.c **** static void TIM_OC4_SetConfig(TIM_TypeDef *TIMx, TIM_OC_InitTypeDef *OC_Config);
 153:Drivers/STM32F1xx_HAL_Driver/Src/stm32f1xx_hal_tim.c **** static void TIM_TI1_ConfigInputStage(TIM_TypeDef *TIMx, uint32_t TIM_ICPolarity, uint32_t TIM_ICFil
 154:Drivers/STM32F1xx_HAL_Driver/Src/stm32f1xx_hal_tim.c **** static void TIM_TI2_SetConfig(TIM_TypeDef *TIMx, uint32_t TIM_ICPolarity, uint32_t TIM_ICSelection,
 155:Drivers/STM32F1xx_HAL_Driver/Src/stm32f1xx_hal_tim.c ****                        uint32_t TIM_ICFilter);
 156:Drivers/STM32F1xx_HAL_Driver/Src/stm32f1xx_hal_tim.c **** static void TIM_TI2_ConfigInputStage(TIM_TypeDef *TIMx, uint32_t TIM_ICPolarity, uint32_t TIM_ICFil
 157:Drivers/STM32F1xx_HAL_Driver/Src/stm32f1xx_hal_tim.c **** static void TIM_TI3_SetConfig(TIM_TypeDef *TIMx, uint32_t TIM_ICPolarity, uint32_t TIM_ICSelection,
 158:Drivers/STM32F1xx_HAL_Driver/Src/stm32f1xx_hal_tim.c ****                        uint32_t TIM_ICFilter);
 159:Drivers/STM32F1xx_HAL_Driver/Src/stm32f1xx_hal_tim.c **** static void TIM_TI4_SetConfig(TIM_TypeDef *TIMx, uint32_t TIM_ICPolarity, uint32_t TIM_ICSelection,
 160:Drivers/STM32F1xx_HAL_Driver/Src/stm32f1xx_hal_tim.c ****                        uint32_t TIM_ICFilter);
 161:Drivers/STM32F1xx_HAL_Driver/Src/stm32f1xx_hal_tim.c **** static void TIM_ETR_SetConfig(TIM_TypeDef* TIMx, uint32_t TIM_ExtTRGPrescaler,
 162:Drivers/STM32F1xx_HAL_Driver/Src/stm32f1xx_hal_tim.c ****                        uint32_t TIM_ExtTRGPolarity, uint32_t ExtTRGFilter);
 163:Drivers/STM32F1xx_HAL_Driver/Src/stm32f1xx_hal_tim.c **** static void TIM_ITRx_SetConfig(TIM_TypeDef* TIMx, uint16_t InputTriggerSource);
 164:Drivers/STM32F1xx_HAL_Driver/Src/stm32f1xx_hal_tim.c **** static void TIM_DMAPeriodElapsedCplt(DMA_HandleTypeDef *hdma);
 165:Drivers/STM32F1xx_HAL_Driver/Src/stm32f1xx_hal_tim.c **** static void TIM_DMATriggerCplt(DMA_HandleTypeDef *hdma);
 166:Drivers/STM32F1xx_HAL_Driver/Src/stm32f1xx_hal_tim.c **** static void TIM_SlaveTimer_SetConfig(TIM_HandleTypeDef *htim,
 167:Drivers/STM32F1xx_HAL_Driver/Src/stm32f1xx_hal_tim.c ****                                      TIM_SlaveConfigTypeDef * sSlaveConfig);
 168:Drivers/STM32F1xx_HAL_Driver/Src/stm32f1xx_hal_tim.c **** 
 169:Drivers/STM32F1xx_HAL_Driver/Src/stm32f1xx_hal_tim.c **** /**
 170:Drivers/STM32F1xx_HAL_Driver/Src/stm32f1xx_hal_tim.c ****   * @}
 171:Drivers/STM32F1xx_HAL_Driver/Src/stm32f1xx_hal_tim.c ****   */
 172:Drivers/STM32F1xx_HAL_Driver/Src/stm32f1xx_hal_tim.c **** 
 173:Drivers/STM32F1xx_HAL_Driver/Src/stm32f1xx_hal_tim.c **** /* Exported functions ---------------------------------------------------------*/
 174:Drivers/STM32F1xx_HAL_Driver/Src/stm32f1xx_hal_tim.c **** 
 175:Drivers/STM32F1xx_HAL_Driver/Src/stm32f1xx_hal_tim.c **** /** @defgroup TIM_Exported_Functions TIM Exported Functions
 176:Drivers/STM32F1xx_HAL_Driver/Src/stm32f1xx_hal_tim.c ****   * @{
 177:Drivers/STM32F1xx_HAL_Driver/Src/stm32f1xx_hal_tim.c ****   */
 178:Drivers/STM32F1xx_HAL_Driver/Src/stm32f1xx_hal_tim.c **** 
 179:Drivers/STM32F1xx_HAL_Driver/Src/stm32f1xx_hal_tim.c **** /** @defgroup TIM_Exported_Functions_Group1 Time Base functions 
 180:Drivers/STM32F1xx_HAL_Driver/Src/stm32f1xx_hal_tim.c ****  *  @brief    Time Base functions 
 181:Drivers/STM32F1xx_HAL_Driver/Src/stm32f1xx_hal_tim.c ****  *
 182:Drivers/STM32F1xx_HAL_Driver/Src/stm32f1xx_hal_tim.c **** @verbatim 
 183:Drivers/STM32F1xx_HAL_Driver/Src/stm32f1xx_hal_tim.c ****   ==============================================================================
 184:Drivers/STM32F1xx_HAL_Driver/Src/stm32f1xx_hal_tim.c ****               ##### Time Base functions #####
 185:Drivers/STM32F1xx_HAL_Driver/Src/stm32f1xx_hal_tim.c ****   ==============================================================================
 186:Drivers/STM32F1xx_HAL_Driver/Src/stm32f1xx_hal_tim.c ****   [..]
 187:Drivers/STM32F1xx_HAL_Driver/Src/stm32f1xx_hal_tim.c ****     This section provides functions allowing to:
 188:Drivers/STM32F1xx_HAL_Driver/Src/stm32f1xx_hal_tim.c ****     (+) Initialize and configure the TIM base.
 189:Drivers/STM32F1xx_HAL_Driver/Src/stm32f1xx_hal_tim.c ****     (+) De-initialize the TIM base.
 190:Drivers/STM32F1xx_HAL_Driver/Src/stm32f1xx_hal_tim.c ****     (+) Start the Time Base.
 191:Drivers/STM32F1xx_HAL_Driver/Src/stm32f1xx_hal_tim.c ****     (+) Stop the Time Base.
 192:Drivers/STM32F1xx_HAL_Driver/Src/stm32f1xx_hal_tim.c ****     (+) Start the Time Base and enable interrupt.
 193:Drivers/STM32F1xx_HAL_Driver/Src/stm32f1xx_hal_tim.c ****     (+) Stop the Time Base and disable interrupt.
 194:Drivers/STM32F1xx_HAL_Driver/Src/stm32f1xx_hal_tim.c ****     (+) Start the Time Base and enable DMA transfer.
 195:Drivers/STM32F1xx_HAL_Driver/Src/stm32f1xx_hal_tim.c ****     (+) Stop the Time Base and disable DMA transfer.
 196:Drivers/STM32F1xx_HAL_Driver/Src/stm32f1xx_hal_tim.c **** 
 197:Drivers/STM32F1xx_HAL_Driver/Src/stm32f1xx_hal_tim.c **** @endverbatim
 198:Drivers/STM32F1xx_HAL_Driver/Src/stm32f1xx_hal_tim.c ****   * @{
 199:Drivers/STM32F1xx_HAL_Driver/Src/stm32f1xx_hal_tim.c ****   */
 200:Drivers/STM32F1xx_HAL_Driver/Src/stm32f1xx_hal_tim.c **** /**
 201:Drivers/STM32F1xx_HAL_Driver/Src/stm32f1xx_hal_tim.c ****   * @brief  Initializes the TIM Time base Unit according to the specified
 202:Drivers/STM32F1xx_HAL_Driver/Src/stm32f1xx_hal_tim.c ****   *         parameters in the TIM_HandleTypeDef and create the associated handle.
 203:Drivers/STM32F1xx_HAL_Driver/Src/stm32f1xx_hal_tim.c ****   * @param  htim : TIM Base handle
 204:Drivers/STM32F1xx_HAL_Driver/Src/stm32f1xx_hal_tim.c ****   * @retval HAL status
ARM GAS  /tmp/cc5HGhWi.s 			page 5


 205:Drivers/STM32F1xx_HAL_Driver/Src/stm32f1xx_hal_tim.c ****   */
 206:Drivers/STM32F1xx_HAL_Driver/Src/stm32f1xx_hal_tim.c **** HAL_StatusTypeDef HAL_TIM_Base_Init(TIM_HandleTypeDef *htim)
 207:Drivers/STM32F1xx_HAL_Driver/Src/stm32f1xx_hal_tim.c **** {
  26              		.loc 1 207 0
  27              		.cfi_startproc
  28              		@ args = 0, pretend = 0, frame = 8
  29              		@ frame_needed = 1, uses_anonymous_args = 0
  30 0000 80B5     		push	{r7, lr}
  31              	.LCFI0:
  32              		.cfi_def_cfa_offset 8
  33              		.cfi_offset 7, -8
  34              		.cfi_offset 14, -4
  35 0002 82B0     		sub	sp, sp, #8
  36              	.LCFI1:
  37              		.cfi_def_cfa_offset 16
  38 0004 00AF     		add	r7, sp, #0
  39              	.LCFI2:
  40              		.cfi_def_cfa_register 7
  41 0006 7860     		str	r0, [r7, #4]
 208:Drivers/STM32F1xx_HAL_Driver/Src/stm32f1xx_hal_tim.c ****   /* Check the TIM handle allocation */
 209:Drivers/STM32F1xx_HAL_Driver/Src/stm32f1xx_hal_tim.c ****   if(htim == NULL)
  42              		.loc 1 209 0
  43 0008 7B68     		ldr	r3, [r7, #4]
  44 000a 002B     		cmp	r3, #0
  45 000c 01D1     		bne	.L2
 210:Drivers/STM32F1xx_HAL_Driver/Src/stm32f1xx_hal_tim.c ****   {
 211:Drivers/STM32F1xx_HAL_Driver/Src/stm32f1xx_hal_tim.c ****     return HAL_ERROR;
  46              		.loc 1 211 0
  47 000e 0123     		movs	r3, #1
  48 0010 1DE0     		b	.L3
  49              	.L2:
 212:Drivers/STM32F1xx_HAL_Driver/Src/stm32f1xx_hal_tim.c ****   }
 213:Drivers/STM32F1xx_HAL_Driver/Src/stm32f1xx_hal_tim.c **** 
 214:Drivers/STM32F1xx_HAL_Driver/Src/stm32f1xx_hal_tim.c ****   /* Check the parameters */
 215:Drivers/STM32F1xx_HAL_Driver/Src/stm32f1xx_hal_tim.c ****   assert_param(IS_TIM_INSTANCE(htim->Instance));
 216:Drivers/STM32F1xx_HAL_Driver/Src/stm32f1xx_hal_tim.c ****   assert_param(IS_TIM_COUNTER_MODE(htim->Init.CounterMode));
 217:Drivers/STM32F1xx_HAL_Driver/Src/stm32f1xx_hal_tim.c ****   assert_param(IS_TIM_CLOCKDIVISION_DIV(htim->Init.ClockDivision));
 218:Drivers/STM32F1xx_HAL_Driver/Src/stm32f1xx_hal_tim.c ****   assert_param(IS_TIM_AUTORELOAD_PRELOAD(htim->Init.AutoReloadPreload));
 219:Drivers/STM32F1xx_HAL_Driver/Src/stm32f1xx_hal_tim.c **** 
 220:Drivers/STM32F1xx_HAL_Driver/Src/stm32f1xx_hal_tim.c ****   if(htim->State == HAL_TIM_STATE_RESET)
  50              		.loc 1 220 0
  51 0012 7B68     		ldr	r3, [r7, #4]
  52 0014 93F83D30 		ldrb	r3, [r3, #61]
  53 0018 DBB2     		uxtb	r3, r3
  54 001a 002B     		cmp	r3, #0
  55 001c 06D1     		bne	.L4
 221:Drivers/STM32F1xx_HAL_Driver/Src/stm32f1xx_hal_tim.c ****   {
 222:Drivers/STM32F1xx_HAL_Driver/Src/stm32f1xx_hal_tim.c ****     /* Allocate lock resource and initialize it */
 223:Drivers/STM32F1xx_HAL_Driver/Src/stm32f1xx_hal_tim.c ****     htim->Lock = HAL_UNLOCKED;
  56              		.loc 1 223 0
  57 001e 7B68     		ldr	r3, [r7, #4]
  58 0020 0022     		movs	r2, #0
  59 0022 83F83C20 		strb	r2, [r3, #60]
 224:Drivers/STM32F1xx_HAL_Driver/Src/stm32f1xx_hal_tim.c ****     
 225:Drivers/STM32F1xx_HAL_Driver/Src/stm32f1xx_hal_tim.c ****     /* Init the low level hardware : GPIO, CLOCK, NVIC */
 226:Drivers/STM32F1xx_HAL_Driver/Src/stm32f1xx_hal_tim.c ****     HAL_TIM_Base_MspInit(htim);
  60              		.loc 1 226 0
ARM GAS  /tmp/cc5HGhWi.s 			page 6


  61 0026 7868     		ldr	r0, [r7, #4]
  62 0028 FFF7FEFF 		bl	HAL_TIM_Base_MspInit
  63              	.L4:
 227:Drivers/STM32F1xx_HAL_Driver/Src/stm32f1xx_hal_tim.c ****   }
 228:Drivers/STM32F1xx_HAL_Driver/Src/stm32f1xx_hal_tim.c **** 
 229:Drivers/STM32F1xx_HAL_Driver/Src/stm32f1xx_hal_tim.c ****   /* Set the TIM state */
 230:Drivers/STM32F1xx_HAL_Driver/Src/stm32f1xx_hal_tim.c ****   htim->State= HAL_TIM_STATE_BUSY;
  64              		.loc 1 230 0
  65 002c 7B68     		ldr	r3, [r7, #4]
  66 002e 0222     		movs	r2, #2
  67 0030 83F83D20 		strb	r2, [r3, #61]
 231:Drivers/STM32F1xx_HAL_Driver/Src/stm32f1xx_hal_tim.c **** 
 232:Drivers/STM32F1xx_HAL_Driver/Src/stm32f1xx_hal_tim.c ****   /* Set the Time Base configuration */
 233:Drivers/STM32F1xx_HAL_Driver/Src/stm32f1xx_hal_tim.c ****   TIM_Base_SetConfig(htim->Instance, &htim->Init);
  68              		.loc 1 233 0
  69 0034 7B68     		ldr	r3, [r7, #4]
  70 0036 1A68     		ldr	r2, [r3]
  71 0038 7B68     		ldr	r3, [r7, #4]
  72 003a 0433     		adds	r3, r3, #4
  73 003c 1946     		mov	r1, r3
  74 003e 1046     		mov	r0, r2
  75 0040 FFF7FEFF 		bl	TIM_Base_SetConfig
 234:Drivers/STM32F1xx_HAL_Driver/Src/stm32f1xx_hal_tim.c **** 
 235:Drivers/STM32F1xx_HAL_Driver/Src/stm32f1xx_hal_tim.c ****   /* Initialize the TIM state*/
 236:Drivers/STM32F1xx_HAL_Driver/Src/stm32f1xx_hal_tim.c ****   htim->State= HAL_TIM_STATE_READY;
  76              		.loc 1 236 0
  77 0044 7B68     		ldr	r3, [r7, #4]
  78 0046 0122     		movs	r2, #1
  79 0048 83F83D20 		strb	r2, [r3, #61]
 237:Drivers/STM32F1xx_HAL_Driver/Src/stm32f1xx_hal_tim.c **** 
 238:Drivers/STM32F1xx_HAL_Driver/Src/stm32f1xx_hal_tim.c ****   return HAL_OK;
  80              		.loc 1 238 0
  81 004c 0023     		movs	r3, #0
  82              	.L3:
 239:Drivers/STM32F1xx_HAL_Driver/Src/stm32f1xx_hal_tim.c **** }
  83              		.loc 1 239 0
  84 004e 1846     		mov	r0, r3
  85 0050 0837     		adds	r7, r7, #8
  86              	.LCFI3:
  87              		.cfi_def_cfa_offset 8
  88 0052 BD46     		mov	sp, r7
  89              	.LCFI4:
  90              		.cfi_def_cfa_register 13
  91              		@ sp needed
  92 0054 80BD     		pop	{r7, pc}
  93              		.cfi_endproc
  94              	.LFE66:
  96              		.section	.text.HAL_TIM_Base_DeInit,"ax",%progbits
  97              		.align	1
  98              		.global	HAL_TIM_Base_DeInit
  99              		.syntax unified
 100              		.thumb
 101              		.thumb_func
 102              		.fpu softvfp
 104              	HAL_TIM_Base_DeInit:
 105              	.LFB67:
 240:Drivers/STM32F1xx_HAL_Driver/Src/stm32f1xx_hal_tim.c **** 
ARM GAS  /tmp/cc5HGhWi.s 			page 7


 241:Drivers/STM32F1xx_HAL_Driver/Src/stm32f1xx_hal_tim.c **** /**
 242:Drivers/STM32F1xx_HAL_Driver/Src/stm32f1xx_hal_tim.c ****   * @brief  DeInitializes the TIM Base peripheral 
 243:Drivers/STM32F1xx_HAL_Driver/Src/stm32f1xx_hal_tim.c ****   * @param  htim : TIM Base handle
 244:Drivers/STM32F1xx_HAL_Driver/Src/stm32f1xx_hal_tim.c ****   * @retval HAL status
 245:Drivers/STM32F1xx_HAL_Driver/Src/stm32f1xx_hal_tim.c ****   */
 246:Drivers/STM32F1xx_HAL_Driver/Src/stm32f1xx_hal_tim.c **** HAL_StatusTypeDef HAL_TIM_Base_DeInit(TIM_HandleTypeDef *htim)
 247:Drivers/STM32F1xx_HAL_Driver/Src/stm32f1xx_hal_tim.c **** {
 106              		.loc 1 247 0
 107              		.cfi_startproc
 108              		@ args = 0, pretend = 0, frame = 8
 109              		@ frame_needed = 1, uses_anonymous_args = 0
 110 0000 80B5     		push	{r7, lr}
 111              	.LCFI5:
 112              		.cfi_def_cfa_offset 8
 113              		.cfi_offset 7, -8
 114              		.cfi_offset 14, -4
 115 0002 82B0     		sub	sp, sp, #8
 116              	.LCFI6:
 117              		.cfi_def_cfa_offset 16
 118 0004 00AF     		add	r7, sp, #0
 119              	.LCFI7:
 120              		.cfi_def_cfa_register 7
 121 0006 7860     		str	r0, [r7, #4]
 248:Drivers/STM32F1xx_HAL_Driver/Src/stm32f1xx_hal_tim.c ****   /* Check the parameters */
 249:Drivers/STM32F1xx_HAL_Driver/Src/stm32f1xx_hal_tim.c ****   assert_param(IS_TIM_INSTANCE(htim->Instance));
 250:Drivers/STM32F1xx_HAL_Driver/Src/stm32f1xx_hal_tim.c **** 
 251:Drivers/STM32F1xx_HAL_Driver/Src/stm32f1xx_hal_tim.c ****   htim->State = HAL_TIM_STATE_BUSY;
 122              		.loc 1 251 0
 123 0008 7B68     		ldr	r3, [r7, #4]
 124 000a 0222     		movs	r2, #2
 125 000c 83F83D20 		strb	r2, [r3, #61]
 252:Drivers/STM32F1xx_HAL_Driver/Src/stm32f1xx_hal_tim.c **** 
 253:Drivers/STM32F1xx_HAL_Driver/Src/stm32f1xx_hal_tim.c ****   /* Disable the TIM Peripheral Clock */
 254:Drivers/STM32F1xx_HAL_Driver/Src/stm32f1xx_hal_tim.c ****   __HAL_TIM_DISABLE(htim);
 126              		.loc 1 254 0
 127 0010 7B68     		ldr	r3, [r7, #4]
 128 0012 1B68     		ldr	r3, [r3]
 129 0014 1A6A     		ldr	r2, [r3, #32]
 130 0016 41F21113 		movw	r3, #4369
 131 001a 1340     		ands	r3, r3, r2
 132 001c 002B     		cmp	r3, #0
 133 001e 0FD1     		bne	.L6
 134              		.loc 1 254 0 is_stmt 0 discriminator 1
 135 0020 7B68     		ldr	r3, [r7, #4]
 136 0022 1B68     		ldr	r3, [r3]
 137 0024 1A6A     		ldr	r2, [r3, #32]
 138 0026 40F24443 		movw	r3, #1092
 139 002a 1340     		ands	r3, r3, r2
 140 002c 002B     		cmp	r3, #0
 141 002e 07D1     		bne	.L6
 142              		.loc 1 254 0 discriminator 2
 143 0030 7B68     		ldr	r3, [r7, #4]
 144 0032 1B68     		ldr	r3, [r3]
 145 0034 1A68     		ldr	r2, [r3]
 146 0036 7B68     		ldr	r3, [r7, #4]
 147 0038 1B68     		ldr	r3, [r3]
 148 003a 22F00102 		bic	r2, r2, #1
ARM GAS  /tmp/cc5HGhWi.s 			page 8


 149 003e 1A60     		str	r2, [r3]
 150              	.L6:
 255:Drivers/STM32F1xx_HAL_Driver/Src/stm32f1xx_hal_tim.c **** 
 256:Drivers/STM32F1xx_HAL_Driver/Src/stm32f1xx_hal_tim.c ****   /* DeInit the low level hardware: GPIO, CLOCK, NVIC */
 257:Drivers/STM32F1xx_HAL_Driver/Src/stm32f1xx_hal_tim.c ****   HAL_TIM_Base_MspDeInit(htim);
 151              		.loc 1 257 0 is_stmt 1
 152 0040 7868     		ldr	r0, [r7, #4]
 153 0042 FFF7FEFF 		bl	HAL_TIM_Base_MspDeInit
 258:Drivers/STM32F1xx_HAL_Driver/Src/stm32f1xx_hal_tim.c **** 
 259:Drivers/STM32F1xx_HAL_Driver/Src/stm32f1xx_hal_tim.c ****   /* Change TIM state */
 260:Drivers/STM32F1xx_HAL_Driver/Src/stm32f1xx_hal_tim.c ****   htim->State = HAL_TIM_STATE_RESET;
 154              		.loc 1 260 0
 155 0046 7B68     		ldr	r3, [r7, #4]
 156 0048 0022     		movs	r2, #0
 157 004a 83F83D20 		strb	r2, [r3, #61]
 261:Drivers/STM32F1xx_HAL_Driver/Src/stm32f1xx_hal_tim.c **** 
 262:Drivers/STM32F1xx_HAL_Driver/Src/stm32f1xx_hal_tim.c ****   /* Release Lock */
 263:Drivers/STM32F1xx_HAL_Driver/Src/stm32f1xx_hal_tim.c ****   __HAL_UNLOCK(htim);
 158              		.loc 1 263 0
 159 004e 7B68     		ldr	r3, [r7, #4]
 160 0050 0022     		movs	r2, #0
 161 0052 83F83C20 		strb	r2, [r3, #60]
 264:Drivers/STM32F1xx_HAL_Driver/Src/stm32f1xx_hal_tim.c **** 
 265:Drivers/STM32F1xx_HAL_Driver/Src/stm32f1xx_hal_tim.c ****   return HAL_OK;
 162              		.loc 1 265 0
 163 0056 0023     		movs	r3, #0
 266:Drivers/STM32F1xx_HAL_Driver/Src/stm32f1xx_hal_tim.c **** }
 164              		.loc 1 266 0
 165 0058 1846     		mov	r0, r3
 166 005a 0837     		adds	r7, r7, #8
 167              	.LCFI8:
 168              		.cfi_def_cfa_offset 8
 169 005c BD46     		mov	sp, r7
 170              	.LCFI9:
 171              		.cfi_def_cfa_register 13
 172              		@ sp needed
 173 005e 80BD     		pop	{r7, pc}
 174              		.cfi_endproc
 175              	.LFE67:
 177              		.section	.text.HAL_TIM_Base_MspInit,"ax",%progbits
 178              		.align	1
 179              		.weak	HAL_TIM_Base_MspInit
 180              		.syntax unified
 181              		.thumb
 182              		.thumb_func
 183              		.fpu softvfp
 185              	HAL_TIM_Base_MspInit:
 186              	.LFB68:
 267:Drivers/STM32F1xx_HAL_Driver/Src/stm32f1xx_hal_tim.c **** 
 268:Drivers/STM32F1xx_HAL_Driver/Src/stm32f1xx_hal_tim.c **** /**
 269:Drivers/STM32F1xx_HAL_Driver/Src/stm32f1xx_hal_tim.c ****   * @brief  Initializes the TIM Base MSP.
 270:Drivers/STM32F1xx_HAL_Driver/Src/stm32f1xx_hal_tim.c ****   * @param  htim : TIM handle
 271:Drivers/STM32F1xx_HAL_Driver/Src/stm32f1xx_hal_tim.c ****   * @retval None
 272:Drivers/STM32F1xx_HAL_Driver/Src/stm32f1xx_hal_tim.c ****   */
 273:Drivers/STM32F1xx_HAL_Driver/Src/stm32f1xx_hal_tim.c **** __weak void HAL_TIM_Base_MspInit(TIM_HandleTypeDef *htim)
 274:Drivers/STM32F1xx_HAL_Driver/Src/stm32f1xx_hal_tim.c **** {
 187              		.loc 1 274 0
ARM GAS  /tmp/cc5HGhWi.s 			page 9


 188              		.cfi_startproc
 189              		@ args = 0, pretend = 0, frame = 8
 190              		@ frame_needed = 1, uses_anonymous_args = 0
 191              		@ link register save eliminated.
 192 0000 80B4     		push	{r7}
 193              	.LCFI10:
 194              		.cfi_def_cfa_offset 4
 195              		.cfi_offset 7, -4
 196 0002 83B0     		sub	sp, sp, #12
 197              	.LCFI11:
 198              		.cfi_def_cfa_offset 16
 199 0004 00AF     		add	r7, sp, #0
 200              	.LCFI12:
 201              		.cfi_def_cfa_register 7
 202 0006 7860     		str	r0, [r7, #4]
 275:Drivers/STM32F1xx_HAL_Driver/Src/stm32f1xx_hal_tim.c ****   /* Prevent unused argument(s) compilation warning */
 276:Drivers/STM32F1xx_HAL_Driver/Src/stm32f1xx_hal_tim.c ****   UNUSED(htim);
 277:Drivers/STM32F1xx_HAL_Driver/Src/stm32f1xx_hal_tim.c ****   /* NOTE : This function Should not be modified, when the callback is needed,
 278:Drivers/STM32F1xx_HAL_Driver/Src/stm32f1xx_hal_tim.c ****             the HAL_TIM_Base_MspInit could be implemented in the user file
 279:Drivers/STM32F1xx_HAL_Driver/Src/stm32f1xx_hal_tim.c ****    */
 280:Drivers/STM32F1xx_HAL_Driver/Src/stm32f1xx_hal_tim.c **** }
 203              		.loc 1 280 0
 204 0008 00BF     		nop
 205 000a 0C37     		adds	r7, r7, #12
 206              	.LCFI13:
 207              		.cfi_def_cfa_offset 4
 208 000c BD46     		mov	sp, r7
 209              	.LCFI14:
 210              		.cfi_def_cfa_register 13
 211              		@ sp needed
 212 000e 80BC     		pop	{r7}
 213              	.LCFI15:
 214              		.cfi_restore 7
 215              		.cfi_def_cfa_offset 0
 216 0010 7047     		bx	lr
 217              		.cfi_endproc
 218              	.LFE68:
 220              		.section	.text.HAL_TIM_Base_MspDeInit,"ax",%progbits
 221              		.align	1
 222              		.weak	HAL_TIM_Base_MspDeInit
 223              		.syntax unified
 224              		.thumb
 225              		.thumb_func
 226              		.fpu softvfp
 228              	HAL_TIM_Base_MspDeInit:
 229              	.LFB69:
 281:Drivers/STM32F1xx_HAL_Driver/Src/stm32f1xx_hal_tim.c **** 
 282:Drivers/STM32F1xx_HAL_Driver/Src/stm32f1xx_hal_tim.c **** /**
 283:Drivers/STM32F1xx_HAL_Driver/Src/stm32f1xx_hal_tim.c ****   * @brief  DeInitializes TIM Base MSP.
 284:Drivers/STM32F1xx_HAL_Driver/Src/stm32f1xx_hal_tim.c ****   * @param  htim : TIM handle
 285:Drivers/STM32F1xx_HAL_Driver/Src/stm32f1xx_hal_tim.c ****   * @retval None
 286:Drivers/STM32F1xx_HAL_Driver/Src/stm32f1xx_hal_tim.c ****   */
 287:Drivers/STM32F1xx_HAL_Driver/Src/stm32f1xx_hal_tim.c **** __weak void HAL_TIM_Base_MspDeInit(TIM_HandleTypeDef *htim)
 288:Drivers/STM32F1xx_HAL_Driver/Src/stm32f1xx_hal_tim.c **** {
 230              		.loc 1 288 0
 231              		.cfi_startproc
 232              		@ args = 0, pretend = 0, frame = 8
ARM GAS  /tmp/cc5HGhWi.s 			page 10


 233              		@ frame_needed = 1, uses_anonymous_args = 0
 234              		@ link register save eliminated.
 235 0000 80B4     		push	{r7}
 236              	.LCFI16:
 237              		.cfi_def_cfa_offset 4
 238              		.cfi_offset 7, -4
 239 0002 83B0     		sub	sp, sp, #12
 240              	.LCFI17:
 241              		.cfi_def_cfa_offset 16
 242 0004 00AF     		add	r7, sp, #0
 243              	.LCFI18:
 244              		.cfi_def_cfa_register 7
 245 0006 7860     		str	r0, [r7, #4]
 289:Drivers/STM32F1xx_HAL_Driver/Src/stm32f1xx_hal_tim.c ****   /* Prevent unused argument(s) compilation warning */
 290:Drivers/STM32F1xx_HAL_Driver/Src/stm32f1xx_hal_tim.c ****   UNUSED(htim);
 291:Drivers/STM32F1xx_HAL_Driver/Src/stm32f1xx_hal_tim.c ****   /* NOTE : This function Should not be modified, when the callback is needed,
 292:Drivers/STM32F1xx_HAL_Driver/Src/stm32f1xx_hal_tim.c ****             the HAL_TIM_Base_MspDeInit could be implemented in the user file
 293:Drivers/STM32F1xx_HAL_Driver/Src/stm32f1xx_hal_tim.c ****    */
 294:Drivers/STM32F1xx_HAL_Driver/Src/stm32f1xx_hal_tim.c **** }
 246              		.loc 1 294 0
 247 0008 00BF     		nop
 248 000a 0C37     		adds	r7, r7, #12
 249              	.LCFI19:
 250              		.cfi_def_cfa_offset 4
 251 000c BD46     		mov	sp, r7
 252              	.LCFI20:
 253              		.cfi_def_cfa_register 13
 254              		@ sp needed
 255 000e 80BC     		pop	{r7}
 256              	.LCFI21:
 257              		.cfi_restore 7
 258              		.cfi_def_cfa_offset 0
 259 0010 7047     		bx	lr
 260              		.cfi_endproc
 261              	.LFE69:
 263              		.section	.text.HAL_TIM_Base_Start,"ax",%progbits
 264              		.align	1
 265              		.global	HAL_TIM_Base_Start
 266              		.syntax unified
 267              		.thumb
 268              		.thumb_func
 269              		.fpu softvfp
 271              	HAL_TIM_Base_Start:
 272              	.LFB70:
 295:Drivers/STM32F1xx_HAL_Driver/Src/stm32f1xx_hal_tim.c **** 
 296:Drivers/STM32F1xx_HAL_Driver/Src/stm32f1xx_hal_tim.c **** 
 297:Drivers/STM32F1xx_HAL_Driver/Src/stm32f1xx_hal_tim.c **** /**
 298:Drivers/STM32F1xx_HAL_Driver/Src/stm32f1xx_hal_tim.c ****   * @brief  Starts the TIM Base generation.
 299:Drivers/STM32F1xx_HAL_Driver/Src/stm32f1xx_hal_tim.c ****   * @param  htim : TIM handle
 300:Drivers/STM32F1xx_HAL_Driver/Src/stm32f1xx_hal_tim.c ****   * @retval HAL status
 301:Drivers/STM32F1xx_HAL_Driver/Src/stm32f1xx_hal_tim.c **** */
 302:Drivers/STM32F1xx_HAL_Driver/Src/stm32f1xx_hal_tim.c **** HAL_StatusTypeDef HAL_TIM_Base_Start(TIM_HandleTypeDef *htim)
 303:Drivers/STM32F1xx_HAL_Driver/Src/stm32f1xx_hal_tim.c **** {
 273              		.loc 1 303 0
 274              		.cfi_startproc
 275              		@ args = 0, pretend = 0, frame = 8
 276              		@ frame_needed = 1, uses_anonymous_args = 0
ARM GAS  /tmp/cc5HGhWi.s 			page 11


 277              		@ link register save eliminated.
 278 0000 80B4     		push	{r7}
 279              	.LCFI22:
 280              		.cfi_def_cfa_offset 4
 281              		.cfi_offset 7, -4
 282 0002 83B0     		sub	sp, sp, #12
 283              	.LCFI23:
 284              		.cfi_def_cfa_offset 16
 285 0004 00AF     		add	r7, sp, #0
 286              	.LCFI24:
 287              		.cfi_def_cfa_register 7
 288 0006 7860     		str	r0, [r7, #4]
 304:Drivers/STM32F1xx_HAL_Driver/Src/stm32f1xx_hal_tim.c ****   /* Check the parameters */
 305:Drivers/STM32F1xx_HAL_Driver/Src/stm32f1xx_hal_tim.c ****   assert_param(IS_TIM_INSTANCE(htim->Instance));
 306:Drivers/STM32F1xx_HAL_Driver/Src/stm32f1xx_hal_tim.c **** 
 307:Drivers/STM32F1xx_HAL_Driver/Src/stm32f1xx_hal_tim.c ****   /* Set the TIM state */
 308:Drivers/STM32F1xx_HAL_Driver/Src/stm32f1xx_hal_tim.c ****   htim->State= HAL_TIM_STATE_BUSY;
 289              		.loc 1 308 0
 290 0008 7B68     		ldr	r3, [r7, #4]
 291 000a 0222     		movs	r2, #2
 292 000c 83F83D20 		strb	r2, [r3, #61]
 309:Drivers/STM32F1xx_HAL_Driver/Src/stm32f1xx_hal_tim.c **** 
 310:Drivers/STM32F1xx_HAL_Driver/Src/stm32f1xx_hal_tim.c ****   /* Enable the Peripheral */
 311:Drivers/STM32F1xx_HAL_Driver/Src/stm32f1xx_hal_tim.c ****   __HAL_TIM_ENABLE(htim);
 293              		.loc 1 311 0
 294 0010 7B68     		ldr	r3, [r7, #4]
 295 0012 1B68     		ldr	r3, [r3]
 296 0014 1A68     		ldr	r2, [r3]
 297 0016 7B68     		ldr	r3, [r7, #4]
 298 0018 1B68     		ldr	r3, [r3]
 299 001a 42F00102 		orr	r2, r2, #1
 300 001e 1A60     		str	r2, [r3]
 312:Drivers/STM32F1xx_HAL_Driver/Src/stm32f1xx_hal_tim.c **** 
 313:Drivers/STM32F1xx_HAL_Driver/Src/stm32f1xx_hal_tim.c ****   /* Change the TIM state*/
 314:Drivers/STM32F1xx_HAL_Driver/Src/stm32f1xx_hal_tim.c ****   htim->State= HAL_TIM_STATE_READY;
 301              		.loc 1 314 0
 302 0020 7B68     		ldr	r3, [r7, #4]
 303 0022 0122     		movs	r2, #1
 304 0024 83F83D20 		strb	r2, [r3, #61]
 315:Drivers/STM32F1xx_HAL_Driver/Src/stm32f1xx_hal_tim.c **** 
 316:Drivers/STM32F1xx_HAL_Driver/Src/stm32f1xx_hal_tim.c ****   /* Return function status */
 317:Drivers/STM32F1xx_HAL_Driver/Src/stm32f1xx_hal_tim.c ****   return HAL_OK;
 305              		.loc 1 317 0
 306 0028 0023     		movs	r3, #0
 318:Drivers/STM32F1xx_HAL_Driver/Src/stm32f1xx_hal_tim.c **** }
 307              		.loc 1 318 0
 308 002a 1846     		mov	r0, r3
 309 002c 0C37     		adds	r7, r7, #12
 310              	.LCFI25:
 311              		.cfi_def_cfa_offset 4
 312 002e BD46     		mov	sp, r7
 313              	.LCFI26:
 314              		.cfi_def_cfa_register 13
 315              		@ sp needed
 316 0030 80BC     		pop	{r7}
 317              	.LCFI27:
 318              		.cfi_restore 7
ARM GAS  /tmp/cc5HGhWi.s 			page 12


 319              		.cfi_def_cfa_offset 0
 320 0032 7047     		bx	lr
 321              		.cfi_endproc
 322              	.LFE70:
 324              		.section	.text.HAL_TIM_Base_Stop,"ax",%progbits
 325              		.align	1
 326              		.global	HAL_TIM_Base_Stop
 327              		.syntax unified
 328              		.thumb
 329              		.thumb_func
 330              		.fpu softvfp
 332              	HAL_TIM_Base_Stop:
 333              	.LFB71:
 319:Drivers/STM32F1xx_HAL_Driver/Src/stm32f1xx_hal_tim.c **** 
 320:Drivers/STM32F1xx_HAL_Driver/Src/stm32f1xx_hal_tim.c **** /**
 321:Drivers/STM32F1xx_HAL_Driver/Src/stm32f1xx_hal_tim.c ****   * @brief  Stops the TIM Base generation.
 322:Drivers/STM32F1xx_HAL_Driver/Src/stm32f1xx_hal_tim.c ****   * @param  htim : TIM handle
 323:Drivers/STM32F1xx_HAL_Driver/Src/stm32f1xx_hal_tim.c ****   * @retval HAL status
 324:Drivers/STM32F1xx_HAL_Driver/Src/stm32f1xx_hal_tim.c **** */
 325:Drivers/STM32F1xx_HAL_Driver/Src/stm32f1xx_hal_tim.c **** HAL_StatusTypeDef HAL_TIM_Base_Stop(TIM_HandleTypeDef *htim)
 326:Drivers/STM32F1xx_HAL_Driver/Src/stm32f1xx_hal_tim.c **** {
 334              		.loc 1 326 0
 335              		.cfi_startproc
 336              		@ args = 0, pretend = 0, frame = 8
 337              		@ frame_needed = 1, uses_anonymous_args = 0
 338              		@ link register save eliminated.
 339 0000 80B4     		push	{r7}
 340              	.LCFI28:
 341              		.cfi_def_cfa_offset 4
 342              		.cfi_offset 7, -4
 343 0002 83B0     		sub	sp, sp, #12
 344              	.LCFI29:
 345              		.cfi_def_cfa_offset 16
 346 0004 00AF     		add	r7, sp, #0
 347              	.LCFI30:
 348              		.cfi_def_cfa_register 7
 349 0006 7860     		str	r0, [r7, #4]
 327:Drivers/STM32F1xx_HAL_Driver/Src/stm32f1xx_hal_tim.c ****   /* Check the parameters */
 328:Drivers/STM32F1xx_HAL_Driver/Src/stm32f1xx_hal_tim.c ****   assert_param(IS_TIM_INSTANCE(htim->Instance));
 329:Drivers/STM32F1xx_HAL_Driver/Src/stm32f1xx_hal_tim.c **** 
 330:Drivers/STM32F1xx_HAL_Driver/Src/stm32f1xx_hal_tim.c ****   /* Set the TIM state */
 331:Drivers/STM32F1xx_HAL_Driver/Src/stm32f1xx_hal_tim.c ****   htim->State= HAL_TIM_STATE_BUSY;
 350              		.loc 1 331 0
 351 0008 7B68     		ldr	r3, [r7, #4]
 352 000a 0222     		movs	r2, #2
 353 000c 83F83D20 		strb	r2, [r3, #61]
 332:Drivers/STM32F1xx_HAL_Driver/Src/stm32f1xx_hal_tim.c **** 
 333:Drivers/STM32F1xx_HAL_Driver/Src/stm32f1xx_hal_tim.c ****   /* Disable the Peripheral */
 334:Drivers/STM32F1xx_HAL_Driver/Src/stm32f1xx_hal_tim.c ****   __HAL_TIM_DISABLE(htim);
 354              		.loc 1 334 0
 355 0010 7B68     		ldr	r3, [r7, #4]
 356 0012 1B68     		ldr	r3, [r3]
 357 0014 1A6A     		ldr	r2, [r3, #32]
 358 0016 41F21113 		movw	r3, #4369
 359 001a 1340     		ands	r3, r3, r2
 360 001c 002B     		cmp	r3, #0
 361 001e 0FD1     		bne	.L13
ARM GAS  /tmp/cc5HGhWi.s 			page 13


 362              		.loc 1 334 0 is_stmt 0 discriminator 1
 363 0020 7B68     		ldr	r3, [r7, #4]
 364 0022 1B68     		ldr	r3, [r3]
 365 0024 1A6A     		ldr	r2, [r3, #32]
 366 0026 40F24443 		movw	r3, #1092
 367 002a 1340     		ands	r3, r3, r2
 368 002c 002B     		cmp	r3, #0
 369 002e 07D1     		bne	.L13
 370              		.loc 1 334 0 discriminator 2
 371 0030 7B68     		ldr	r3, [r7, #4]
 372 0032 1B68     		ldr	r3, [r3]
 373 0034 1A68     		ldr	r2, [r3]
 374 0036 7B68     		ldr	r3, [r7, #4]
 375 0038 1B68     		ldr	r3, [r3]
 376 003a 22F00102 		bic	r2, r2, #1
 377 003e 1A60     		str	r2, [r3]
 378              	.L13:
 335:Drivers/STM32F1xx_HAL_Driver/Src/stm32f1xx_hal_tim.c **** 
 336:Drivers/STM32F1xx_HAL_Driver/Src/stm32f1xx_hal_tim.c ****   /* Change the TIM state*/
 337:Drivers/STM32F1xx_HAL_Driver/Src/stm32f1xx_hal_tim.c ****   htim->State= HAL_TIM_STATE_READY;
 379              		.loc 1 337 0 is_stmt 1
 380 0040 7B68     		ldr	r3, [r7, #4]
 381 0042 0122     		movs	r2, #1
 382 0044 83F83D20 		strb	r2, [r3, #61]
 338:Drivers/STM32F1xx_HAL_Driver/Src/stm32f1xx_hal_tim.c **** 
 339:Drivers/STM32F1xx_HAL_Driver/Src/stm32f1xx_hal_tim.c ****   /* Return function status */
 340:Drivers/STM32F1xx_HAL_Driver/Src/stm32f1xx_hal_tim.c ****   return HAL_OK;
 383              		.loc 1 340 0
 384 0048 0023     		movs	r3, #0
 341:Drivers/STM32F1xx_HAL_Driver/Src/stm32f1xx_hal_tim.c **** }
 385              		.loc 1 341 0
 386 004a 1846     		mov	r0, r3
 387 004c 0C37     		adds	r7, r7, #12
 388              	.LCFI31:
 389              		.cfi_def_cfa_offset 4
 390 004e BD46     		mov	sp, r7
 391              	.LCFI32:
 392              		.cfi_def_cfa_register 13
 393              		@ sp needed
 394 0050 80BC     		pop	{r7}
 395              	.LCFI33:
 396              		.cfi_restore 7
 397              		.cfi_def_cfa_offset 0
 398 0052 7047     		bx	lr
 399              		.cfi_endproc
 400              	.LFE71:
 402              		.section	.text.HAL_TIM_Base_Start_IT,"ax",%progbits
 403              		.align	1
 404              		.global	HAL_TIM_Base_Start_IT
 405              		.syntax unified
 406              		.thumb
 407              		.thumb_func
 408              		.fpu softvfp
 410              	HAL_TIM_Base_Start_IT:
 411              	.LFB72:
 342:Drivers/STM32F1xx_HAL_Driver/Src/stm32f1xx_hal_tim.c **** 
 343:Drivers/STM32F1xx_HAL_Driver/Src/stm32f1xx_hal_tim.c **** /**
ARM GAS  /tmp/cc5HGhWi.s 			page 14


 344:Drivers/STM32F1xx_HAL_Driver/Src/stm32f1xx_hal_tim.c ****   * @brief  Starts the TIM Base generation in interrupt mode.
 345:Drivers/STM32F1xx_HAL_Driver/Src/stm32f1xx_hal_tim.c ****   * @param  htim : TIM handle
 346:Drivers/STM32F1xx_HAL_Driver/Src/stm32f1xx_hal_tim.c ****   * @retval HAL status
 347:Drivers/STM32F1xx_HAL_Driver/Src/stm32f1xx_hal_tim.c **** */
 348:Drivers/STM32F1xx_HAL_Driver/Src/stm32f1xx_hal_tim.c **** HAL_StatusTypeDef HAL_TIM_Base_Start_IT(TIM_HandleTypeDef *htim)
 349:Drivers/STM32F1xx_HAL_Driver/Src/stm32f1xx_hal_tim.c **** {
 412              		.loc 1 349 0
 413              		.cfi_startproc
 414              		@ args = 0, pretend = 0, frame = 8
 415              		@ frame_needed = 1, uses_anonymous_args = 0
 416              		@ link register save eliminated.
 417 0000 80B4     		push	{r7}
 418              	.LCFI34:
 419              		.cfi_def_cfa_offset 4
 420              		.cfi_offset 7, -4
 421 0002 83B0     		sub	sp, sp, #12
 422              	.LCFI35:
 423              		.cfi_def_cfa_offset 16
 424 0004 00AF     		add	r7, sp, #0
 425              	.LCFI36:
 426              		.cfi_def_cfa_register 7
 427 0006 7860     		str	r0, [r7, #4]
 350:Drivers/STM32F1xx_HAL_Driver/Src/stm32f1xx_hal_tim.c ****   /* Check the parameters */
 351:Drivers/STM32F1xx_HAL_Driver/Src/stm32f1xx_hal_tim.c ****   assert_param(IS_TIM_INSTANCE(htim->Instance));
 352:Drivers/STM32F1xx_HAL_Driver/Src/stm32f1xx_hal_tim.c **** 
 353:Drivers/STM32F1xx_HAL_Driver/Src/stm32f1xx_hal_tim.c ****    /* Enable the TIM Update interrupt */
 354:Drivers/STM32F1xx_HAL_Driver/Src/stm32f1xx_hal_tim.c ****    __HAL_TIM_ENABLE_IT(htim, TIM_IT_UPDATE);
 428              		.loc 1 354 0
 429 0008 7B68     		ldr	r3, [r7, #4]
 430 000a 1B68     		ldr	r3, [r3]
 431 000c DA68     		ldr	r2, [r3, #12]
 432 000e 7B68     		ldr	r3, [r7, #4]
 433 0010 1B68     		ldr	r3, [r3]
 434 0012 42F00102 		orr	r2, r2, #1
 435 0016 DA60     		str	r2, [r3, #12]
 355:Drivers/STM32F1xx_HAL_Driver/Src/stm32f1xx_hal_tim.c **** 
 356:Drivers/STM32F1xx_HAL_Driver/Src/stm32f1xx_hal_tim.c ****    /* Enable the Peripheral */
 357:Drivers/STM32F1xx_HAL_Driver/Src/stm32f1xx_hal_tim.c ****   __HAL_TIM_ENABLE(htim);
 436              		.loc 1 357 0
 437 0018 7B68     		ldr	r3, [r7, #4]
 438 001a 1B68     		ldr	r3, [r3]
 439 001c 1A68     		ldr	r2, [r3]
 440 001e 7B68     		ldr	r3, [r7, #4]
 441 0020 1B68     		ldr	r3, [r3]
 442 0022 42F00102 		orr	r2, r2, #1
 443 0026 1A60     		str	r2, [r3]
 358:Drivers/STM32F1xx_HAL_Driver/Src/stm32f1xx_hal_tim.c **** 
 359:Drivers/STM32F1xx_HAL_Driver/Src/stm32f1xx_hal_tim.c ****   /* Return function status */
 360:Drivers/STM32F1xx_HAL_Driver/Src/stm32f1xx_hal_tim.c ****   return HAL_OK;
 444              		.loc 1 360 0
 445 0028 0023     		movs	r3, #0
 361:Drivers/STM32F1xx_HAL_Driver/Src/stm32f1xx_hal_tim.c **** }
 446              		.loc 1 361 0
 447 002a 1846     		mov	r0, r3
 448 002c 0C37     		adds	r7, r7, #12
 449              	.LCFI37:
 450              		.cfi_def_cfa_offset 4
ARM GAS  /tmp/cc5HGhWi.s 			page 15


 451 002e BD46     		mov	sp, r7
 452              	.LCFI38:
 453              		.cfi_def_cfa_register 13
 454              		@ sp needed
 455 0030 80BC     		pop	{r7}
 456              	.LCFI39:
 457              		.cfi_restore 7
 458              		.cfi_def_cfa_offset 0
 459 0032 7047     		bx	lr
 460              		.cfi_endproc
 461              	.LFE72:
 463              		.section	.text.HAL_TIM_Base_Stop_IT,"ax",%progbits
 464              		.align	1
 465              		.global	HAL_TIM_Base_Stop_IT
 466              		.syntax unified
 467              		.thumb
 468              		.thumb_func
 469              		.fpu softvfp
 471              	HAL_TIM_Base_Stop_IT:
 472              	.LFB73:
 362:Drivers/STM32F1xx_HAL_Driver/Src/stm32f1xx_hal_tim.c **** 
 363:Drivers/STM32F1xx_HAL_Driver/Src/stm32f1xx_hal_tim.c **** /**
 364:Drivers/STM32F1xx_HAL_Driver/Src/stm32f1xx_hal_tim.c ****   * @brief  Stops the TIM Base generation in interrupt mode.
 365:Drivers/STM32F1xx_HAL_Driver/Src/stm32f1xx_hal_tim.c ****   * @param  htim : TIM handle
 366:Drivers/STM32F1xx_HAL_Driver/Src/stm32f1xx_hal_tim.c ****   * @retval HAL status
 367:Drivers/STM32F1xx_HAL_Driver/Src/stm32f1xx_hal_tim.c **** */
 368:Drivers/STM32F1xx_HAL_Driver/Src/stm32f1xx_hal_tim.c **** HAL_StatusTypeDef HAL_TIM_Base_Stop_IT(TIM_HandleTypeDef *htim)
 369:Drivers/STM32F1xx_HAL_Driver/Src/stm32f1xx_hal_tim.c **** {
 473              		.loc 1 369 0
 474              		.cfi_startproc
 475              		@ args = 0, pretend = 0, frame = 8
 476              		@ frame_needed = 1, uses_anonymous_args = 0
 477              		@ link register save eliminated.
 478 0000 80B4     		push	{r7}
 479              	.LCFI40:
 480              		.cfi_def_cfa_offset 4
 481              		.cfi_offset 7, -4
 482 0002 83B0     		sub	sp, sp, #12
 483              	.LCFI41:
 484              		.cfi_def_cfa_offset 16
 485 0004 00AF     		add	r7, sp, #0
 486              	.LCFI42:
 487              		.cfi_def_cfa_register 7
 488 0006 7860     		str	r0, [r7, #4]
 370:Drivers/STM32F1xx_HAL_Driver/Src/stm32f1xx_hal_tim.c ****   /* Check the parameters */
 371:Drivers/STM32F1xx_HAL_Driver/Src/stm32f1xx_hal_tim.c ****   assert_param(IS_TIM_INSTANCE(htim->Instance));
 372:Drivers/STM32F1xx_HAL_Driver/Src/stm32f1xx_hal_tim.c ****   /* Disable the TIM Update interrupt */
 373:Drivers/STM32F1xx_HAL_Driver/Src/stm32f1xx_hal_tim.c ****   __HAL_TIM_DISABLE_IT(htim, TIM_IT_UPDATE);
 489              		.loc 1 373 0
 490 0008 7B68     		ldr	r3, [r7, #4]
 491 000a 1B68     		ldr	r3, [r3]
 492 000c DA68     		ldr	r2, [r3, #12]
 493 000e 7B68     		ldr	r3, [r7, #4]
 494 0010 1B68     		ldr	r3, [r3]
 495 0012 22F00102 		bic	r2, r2, #1
 496 0016 DA60     		str	r2, [r3, #12]
 374:Drivers/STM32F1xx_HAL_Driver/Src/stm32f1xx_hal_tim.c **** 
ARM GAS  /tmp/cc5HGhWi.s 			page 16


 375:Drivers/STM32F1xx_HAL_Driver/Src/stm32f1xx_hal_tim.c ****   /* Disable the Peripheral */
 376:Drivers/STM32F1xx_HAL_Driver/Src/stm32f1xx_hal_tim.c ****   __HAL_TIM_DISABLE(htim);
 497              		.loc 1 376 0
 498 0018 7B68     		ldr	r3, [r7, #4]
 499 001a 1B68     		ldr	r3, [r3]
 500 001c 1A6A     		ldr	r2, [r3, #32]
 501 001e 41F21113 		movw	r3, #4369
 502 0022 1340     		ands	r3, r3, r2
 503 0024 002B     		cmp	r3, #0
 504 0026 0FD1     		bne	.L18
 505              		.loc 1 376 0 is_stmt 0 discriminator 1
 506 0028 7B68     		ldr	r3, [r7, #4]
 507 002a 1B68     		ldr	r3, [r3]
 508 002c 1A6A     		ldr	r2, [r3, #32]
 509 002e 40F24443 		movw	r3, #1092
 510 0032 1340     		ands	r3, r3, r2
 511 0034 002B     		cmp	r3, #0
 512 0036 07D1     		bne	.L18
 513              		.loc 1 376 0 discriminator 2
 514 0038 7B68     		ldr	r3, [r7, #4]
 515 003a 1B68     		ldr	r3, [r3]
 516 003c 1A68     		ldr	r2, [r3]
 517 003e 7B68     		ldr	r3, [r7, #4]
 518 0040 1B68     		ldr	r3, [r3]
 519 0042 22F00102 		bic	r2, r2, #1
 520 0046 1A60     		str	r2, [r3]
 521              	.L18:
 377:Drivers/STM32F1xx_HAL_Driver/Src/stm32f1xx_hal_tim.c **** 
 378:Drivers/STM32F1xx_HAL_Driver/Src/stm32f1xx_hal_tim.c ****   /* Return function status */
 379:Drivers/STM32F1xx_HAL_Driver/Src/stm32f1xx_hal_tim.c ****   return HAL_OK;
 522              		.loc 1 379 0 is_stmt 1
 523 0048 0023     		movs	r3, #0
 380:Drivers/STM32F1xx_HAL_Driver/Src/stm32f1xx_hal_tim.c **** }
 524              		.loc 1 380 0
 525 004a 1846     		mov	r0, r3
 526 004c 0C37     		adds	r7, r7, #12
 527              	.LCFI43:
 528              		.cfi_def_cfa_offset 4
 529 004e BD46     		mov	sp, r7
 530              	.LCFI44:
 531              		.cfi_def_cfa_register 13
 532              		@ sp needed
 533 0050 80BC     		pop	{r7}
 534              	.LCFI45:
 535              		.cfi_restore 7
 536              		.cfi_def_cfa_offset 0
 537 0052 7047     		bx	lr
 538              		.cfi_endproc
 539              	.LFE73:
 541              		.section	.text.HAL_TIM_Base_Start_DMA,"ax",%progbits
 542              		.align	1
 543              		.global	HAL_TIM_Base_Start_DMA
 544              		.syntax unified
 545              		.thumb
 546              		.thumb_func
 547              		.fpu softvfp
 549              	HAL_TIM_Base_Start_DMA:
ARM GAS  /tmp/cc5HGhWi.s 			page 17


 550              	.LFB74:
 381:Drivers/STM32F1xx_HAL_Driver/Src/stm32f1xx_hal_tim.c **** 
 382:Drivers/STM32F1xx_HAL_Driver/Src/stm32f1xx_hal_tim.c **** /**
 383:Drivers/STM32F1xx_HAL_Driver/Src/stm32f1xx_hal_tim.c ****   * @brief  Starts the TIM Base generation in DMA mode.
 384:Drivers/STM32F1xx_HAL_Driver/Src/stm32f1xx_hal_tim.c ****   * @param  htim : TIM handle
 385:Drivers/STM32F1xx_HAL_Driver/Src/stm32f1xx_hal_tim.c ****   * @param  pData : The source Buffer address.
 386:Drivers/STM32F1xx_HAL_Driver/Src/stm32f1xx_hal_tim.c ****   * @param  Length : The length of data to be transferred from memory to peripheral.
 387:Drivers/STM32F1xx_HAL_Driver/Src/stm32f1xx_hal_tim.c ****   * @retval HAL status
 388:Drivers/STM32F1xx_HAL_Driver/Src/stm32f1xx_hal_tim.c **** */
 389:Drivers/STM32F1xx_HAL_Driver/Src/stm32f1xx_hal_tim.c **** HAL_StatusTypeDef HAL_TIM_Base_Start_DMA(TIM_HandleTypeDef *htim, uint32_t *pData, uint16_t Length)
 390:Drivers/STM32F1xx_HAL_Driver/Src/stm32f1xx_hal_tim.c **** {
 551              		.loc 1 390 0
 552              		.cfi_startproc
 553              		@ args = 0, pretend = 0, frame = 16
 554              		@ frame_needed = 1, uses_anonymous_args = 0
 555 0000 80B5     		push	{r7, lr}
 556              	.LCFI46:
 557              		.cfi_def_cfa_offset 8
 558              		.cfi_offset 7, -8
 559              		.cfi_offset 14, -4
 560 0002 84B0     		sub	sp, sp, #16
 561              	.LCFI47:
 562              		.cfi_def_cfa_offset 24
 563 0004 00AF     		add	r7, sp, #0
 564              	.LCFI48:
 565              		.cfi_def_cfa_register 7
 566 0006 F860     		str	r0, [r7, #12]
 567 0008 B960     		str	r1, [r7, #8]
 568 000a 1346     		mov	r3, r2
 569 000c FB80     		strh	r3, [r7, #6]	@ movhi
 391:Drivers/STM32F1xx_HAL_Driver/Src/stm32f1xx_hal_tim.c ****   /* Check the parameters */
 392:Drivers/STM32F1xx_HAL_Driver/Src/stm32f1xx_hal_tim.c ****   assert_param(IS_TIM_DMA_INSTANCE(htim->Instance));
 393:Drivers/STM32F1xx_HAL_Driver/Src/stm32f1xx_hal_tim.c **** 
 394:Drivers/STM32F1xx_HAL_Driver/Src/stm32f1xx_hal_tim.c ****   if((htim->State == HAL_TIM_STATE_BUSY))
 570              		.loc 1 394 0
 571 000e FB68     		ldr	r3, [r7, #12]
 572 0010 93F83D30 		ldrb	r3, [r3, #61]
 573 0014 DBB2     		uxtb	r3, r3
 574 0016 022B     		cmp	r3, #2
 575 0018 01D1     		bne	.L21
 395:Drivers/STM32F1xx_HAL_Driver/Src/stm32f1xx_hal_tim.c ****   {
 396:Drivers/STM32F1xx_HAL_Driver/Src/stm32f1xx_hal_tim.c ****      return HAL_BUSY;
 576              		.loc 1 396 0
 577 001a 0223     		movs	r3, #2
 578 001c 34E0     		b	.L22
 579              	.L21:
 397:Drivers/STM32F1xx_HAL_Driver/Src/stm32f1xx_hal_tim.c ****   }
 398:Drivers/STM32F1xx_HAL_Driver/Src/stm32f1xx_hal_tim.c ****   else if((htim->State == HAL_TIM_STATE_READY))
 580              		.loc 1 398 0
 581 001e FB68     		ldr	r3, [r7, #12]
 582 0020 93F83D30 		ldrb	r3, [r3, #61]
 583 0024 DBB2     		uxtb	r3, r3
 584 0026 012B     		cmp	r3, #1
 585 0028 0BD1     		bne	.L23
 399:Drivers/STM32F1xx_HAL_Driver/Src/stm32f1xx_hal_tim.c ****   {
 400:Drivers/STM32F1xx_HAL_Driver/Src/stm32f1xx_hal_tim.c ****     if((pData == 0U) && (Length > 0U))
 586              		.loc 1 400 0
ARM GAS  /tmp/cc5HGhWi.s 			page 18


 587 002a BB68     		ldr	r3, [r7, #8]
 588 002c 002B     		cmp	r3, #0
 589 002e 04D1     		bne	.L24
 590              		.loc 1 400 0 is_stmt 0 discriminator 1
 591 0030 FB88     		ldrh	r3, [r7, #6]
 592 0032 002B     		cmp	r3, #0
 593 0034 01D0     		beq	.L24
 401:Drivers/STM32F1xx_HAL_Driver/Src/stm32f1xx_hal_tim.c ****     {
 402:Drivers/STM32F1xx_HAL_Driver/Src/stm32f1xx_hal_tim.c ****       return HAL_ERROR;
 594              		.loc 1 402 0 is_stmt 1
 595 0036 0123     		movs	r3, #1
 596 0038 26E0     		b	.L22
 597              	.L24:
 403:Drivers/STM32F1xx_HAL_Driver/Src/stm32f1xx_hal_tim.c ****     }
 404:Drivers/STM32F1xx_HAL_Driver/Src/stm32f1xx_hal_tim.c ****     else
 405:Drivers/STM32F1xx_HAL_Driver/Src/stm32f1xx_hal_tim.c ****     {
 406:Drivers/STM32F1xx_HAL_Driver/Src/stm32f1xx_hal_tim.c ****       htim->State = HAL_TIM_STATE_BUSY;
 598              		.loc 1 406 0
 599 003a FB68     		ldr	r3, [r7, #12]
 600 003c 0222     		movs	r2, #2
 601 003e 83F83D20 		strb	r2, [r3, #61]
 602              	.L23:
 407:Drivers/STM32F1xx_HAL_Driver/Src/stm32f1xx_hal_tim.c ****     }
 408:Drivers/STM32F1xx_HAL_Driver/Src/stm32f1xx_hal_tim.c ****   }
 409:Drivers/STM32F1xx_HAL_Driver/Src/stm32f1xx_hal_tim.c ****   /* Set the DMA Period elapsed callback */
 410:Drivers/STM32F1xx_HAL_Driver/Src/stm32f1xx_hal_tim.c ****   htim->hdma[TIM_DMA_ID_UPDATE]->XferCpltCallback = TIM_DMAPeriodElapsedCplt;
 603              		.loc 1 410 0
 604 0042 FB68     		ldr	r3, [r7, #12]
 605 0044 1B6A     		ldr	r3, [r3, #32]
 606 0046 124A     		ldr	r2, .L25
 607 0048 9A62     		str	r2, [r3, #40]
 411:Drivers/STM32F1xx_HAL_Driver/Src/stm32f1xx_hal_tim.c **** 
 412:Drivers/STM32F1xx_HAL_Driver/Src/stm32f1xx_hal_tim.c ****   /* Set the DMA error callback */
 413:Drivers/STM32F1xx_HAL_Driver/Src/stm32f1xx_hal_tim.c ****   htim->hdma[TIM_DMA_ID_UPDATE]->XferErrorCallback = TIM_DMAError ;
 608              		.loc 1 413 0
 609 004a FB68     		ldr	r3, [r7, #12]
 610 004c 1B6A     		ldr	r3, [r3, #32]
 611 004e 114A     		ldr	r2, .L25+4
 612 0050 1A63     		str	r2, [r3, #48]
 414:Drivers/STM32F1xx_HAL_Driver/Src/stm32f1xx_hal_tim.c **** 
 415:Drivers/STM32F1xx_HAL_Driver/Src/stm32f1xx_hal_tim.c ****   /* Enable the DMA channel */
 416:Drivers/STM32F1xx_HAL_Driver/Src/stm32f1xx_hal_tim.c ****   HAL_DMA_Start_IT(htim->hdma[TIM_DMA_ID_UPDATE], (uint32_t)pData, (uint32_t)&htim->Instance->ARR, 
 613              		.loc 1 416 0
 614 0052 FB68     		ldr	r3, [r7, #12]
 615 0054 186A     		ldr	r0, [r3, #32]
 616 0056 B968     		ldr	r1, [r7, #8]
 617 0058 FB68     		ldr	r3, [r7, #12]
 618 005a 1B68     		ldr	r3, [r3]
 619 005c 2C33     		adds	r3, r3, #44
 620 005e 1A46     		mov	r2, r3
 621 0060 FB88     		ldrh	r3, [r7, #6]
 622 0062 FFF7FEFF 		bl	HAL_DMA_Start_IT
 417:Drivers/STM32F1xx_HAL_Driver/Src/stm32f1xx_hal_tim.c **** 
 418:Drivers/STM32F1xx_HAL_Driver/Src/stm32f1xx_hal_tim.c ****   /* Enable the TIM Update DMA request */
 419:Drivers/STM32F1xx_HAL_Driver/Src/stm32f1xx_hal_tim.c ****   __HAL_TIM_ENABLE_DMA(htim, TIM_DMA_UPDATE);
 623              		.loc 1 419 0
 624 0066 FB68     		ldr	r3, [r7, #12]
ARM GAS  /tmp/cc5HGhWi.s 			page 19


 625 0068 1B68     		ldr	r3, [r3]
 626 006a DA68     		ldr	r2, [r3, #12]
 627 006c FB68     		ldr	r3, [r7, #12]
 628 006e 1B68     		ldr	r3, [r3]
 629 0070 42F48072 		orr	r2, r2, #256
 630 0074 DA60     		str	r2, [r3, #12]
 420:Drivers/STM32F1xx_HAL_Driver/Src/stm32f1xx_hal_tim.c **** 
 421:Drivers/STM32F1xx_HAL_Driver/Src/stm32f1xx_hal_tim.c ****   /* Enable the Peripheral */
 422:Drivers/STM32F1xx_HAL_Driver/Src/stm32f1xx_hal_tim.c ****   __HAL_TIM_ENABLE(htim);
 631              		.loc 1 422 0
 632 0076 FB68     		ldr	r3, [r7, #12]
 633 0078 1B68     		ldr	r3, [r3]
 634 007a 1A68     		ldr	r2, [r3]
 635 007c FB68     		ldr	r3, [r7, #12]
 636 007e 1B68     		ldr	r3, [r3]
 637 0080 42F00102 		orr	r2, r2, #1
 638 0084 1A60     		str	r2, [r3]
 423:Drivers/STM32F1xx_HAL_Driver/Src/stm32f1xx_hal_tim.c **** 
 424:Drivers/STM32F1xx_HAL_Driver/Src/stm32f1xx_hal_tim.c ****   /* Return function status */
 425:Drivers/STM32F1xx_HAL_Driver/Src/stm32f1xx_hal_tim.c ****   return HAL_OK;
 639              		.loc 1 425 0
 640 0086 0023     		movs	r3, #0
 641              	.L22:
 426:Drivers/STM32F1xx_HAL_Driver/Src/stm32f1xx_hal_tim.c **** }
 642              		.loc 1 426 0
 643 0088 1846     		mov	r0, r3
 644 008a 1037     		adds	r7, r7, #16
 645              	.LCFI49:
 646              		.cfi_def_cfa_offset 8
 647 008c BD46     		mov	sp, r7
 648              	.LCFI50:
 649              		.cfi_def_cfa_register 13
 650              		@ sp needed
 651 008e 80BD     		pop	{r7, pc}
 652              	.L26:
 653              		.align	2
 654              	.L25:
 655 0090 00000000 		.word	TIM_DMAPeriodElapsedCplt
 656 0094 00000000 		.word	TIM_DMAError
 657              		.cfi_endproc
 658              	.LFE74:
 660              		.section	.text.HAL_TIM_Base_Stop_DMA,"ax",%progbits
 661              		.align	1
 662              		.global	HAL_TIM_Base_Stop_DMA
 663              		.syntax unified
 664              		.thumb
 665              		.thumb_func
 666              		.fpu softvfp
 668              	HAL_TIM_Base_Stop_DMA:
 669              	.LFB75:
 427:Drivers/STM32F1xx_HAL_Driver/Src/stm32f1xx_hal_tim.c **** 
 428:Drivers/STM32F1xx_HAL_Driver/Src/stm32f1xx_hal_tim.c **** /**
 429:Drivers/STM32F1xx_HAL_Driver/Src/stm32f1xx_hal_tim.c ****   * @brief  Stops the TIM Base generation in DMA mode.
 430:Drivers/STM32F1xx_HAL_Driver/Src/stm32f1xx_hal_tim.c ****   * @param  htim : TIM handle
 431:Drivers/STM32F1xx_HAL_Driver/Src/stm32f1xx_hal_tim.c ****   * @retval HAL status
 432:Drivers/STM32F1xx_HAL_Driver/Src/stm32f1xx_hal_tim.c **** */
 433:Drivers/STM32F1xx_HAL_Driver/Src/stm32f1xx_hal_tim.c **** HAL_StatusTypeDef HAL_TIM_Base_Stop_DMA(TIM_HandleTypeDef *htim)
ARM GAS  /tmp/cc5HGhWi.s 			page 20


 434:Drivers/STM32F1xx_HAL_Driver/Src/stm32f1xx_hal_tim.c **** {
 670              		.loc 1 434 0
 671              		.cfi_startproc
 672              		@ args = 0, pretend = 0, frame = 8
 673              		@ frame_needed = 1, uses_anonymous_args = 0
 674              		@ link register save eliminated.
 675 0000 80B4     		push	{r7}
 676              	.LCFI51:
 677              		.cfi_def_cfa_offset 4
 678              		.cfi_offset 7, -4
 679 0002 83B0     		sub	sp, sp, #12
 680              	.LCFI52:
 681              		.cfi_def_cfa_offset 16
 682 0004 00AF     		add	r7, sp, #0
 683              	.LCFI53:
 684              		.cfi_def_cfa_register 7
 685 0006 7860     		str	r0, [r7, #4]
 435:Drivers/STM32F1xx_HAL_Driver/Src/stm32f1xx_hal_tim.c ****   /* Check the parameters */
 436:Drivers/STM32F1xx_HAL_Driver/Src/stm32f1xx_hal_tim.c ****   assert_param(IS_TIM_DMA_INSTANCE(htim->Instance));
 437:Drivers/STM32F1xx_HAL_Driver/Src/stm32f1xx_hal_tim.c **** 
 438:Drivers/STM32F1xx_HAL_Driver/Src/stm32f1xx_hal_tim.c ****   /* Disable the TIM Update DMA request */
 439:Drivers/STM32F1xx_HAL_Driver/Src/stm32f1xx_hal_tim.c ****   __HAL_TIM_DISABLE_DMA(htim, TIM_DMA_UPDATE);
 686              		.loc 1 439 0
 687 0008 7B68     		ldr	r3, [r7, #4]
 688 000a 1B68     		ldr	r3, [r3]
 689 000c DA68     		ldr	r2, [r3, #12]
 690 000e 7B68     		ldr	r3, [r7, #4]
 691 0010 1B68     		ldr	r3, [r3]
 692 0012 22F48072 		bic	r2, r2, #256
 693 0016 DA60     		str	r2, [r3, #12]
 440:Drivers/STM32F1xx_HAL_Driver/Src/stm32f1xx_hal_tim.c **** 
 441:Drivers/STM32F1xx_HAL_Driver/Src/stm32f1xx_hal_tim.c ****   /* Disable the Peripheral */
 442:Drivers/STM32F1xx_HAL_Driver/Src/stm32f1xx_hal_tim.c ****   __HAL_TIM_DISABLE(htim);
 694              		.loc 1 442 0
 695 0018 7B68     		ldr	r3, [r7, #4]
 696 001a 1B68     		ldr	r3, [r3]
 697 001c 1A6A     		ldr	r2, [r3, #32]
 698 001e 41F21113 		movw	r3, #4369
 699 0022 1340     		ands	r3, r3, r2
 700 0024 002B     		cmp	r3, #0
 701 0026 0FD1     		bne	.L28
 702              		.loc 1 442 0 is_stmt 0 discriminator 1
 703 0028 7B68     		ldr	r3, [r7, #4]
 704 002a 1B68     		ldr	r3, [r3]
 705 002c 1A6A     		ldr	r2, [r3, #32]
 706 002e 40F24443 		movw	r3, #1092
 707 0032 1340     		ands	r3, r3, r2
 708 0034 002B     		cmp	r3, #0
 709 0036 07D1     		bne	.L28
 710              		.loc 1 442 0 discriminator 2
 711 0038 7B68     		ldr	r3, [r7, #4]
 712 003a 1B68     		ldr	r3, [r3]
 713 003c 1A68     		ldr	r2, [r3]
 714 003e 7B68     		ldr	r3, [r7, #4]
 715 0040 1B68     		ldr	r3, [r3]
 716 0042 22F00102 		bic	r2, r2, #1
 717 0046 1A60     		str	r2, [r3]
ARM GAS  /tmp/cc5HGhWi.s 			page 21


 718              	.L28:
 443:Drivers/STM32F1xx_HAL_Driver/Src/stm32f1xx_hal_tim.c **** 
 444:Drivers/STM32F1xx_HAL_Driver/Src/stm32f1xx_hal_tim.c ****   /* Change the htim state */
 445:Drivers/STM32F1xx_HAL_Driver/Src/stm32f1xx_hal_tim.c ****   htim->State = HAL_TIM_STATE_READY;
 719              		.loc 1 445 0 is_stmt 1
 720 0048 7B68     		ldr	r3, [r7, #4]
 721 004a 0122     		movs	r2, #1
 722 004c 83F83D20 		strb	r2, [r3, #61]
 446:Drivers/STM32F1xx_HAL_Driver/Src/stm32f1xx_hal_tim.c **** 
 447:Drivers/STM32F1xx_HAL_Driver/Src/stm32f1xx_hal_tim.c ****   /* Return function status */
 448:Drivers/STM32F1xx_HAL_Driver/Src/stm32f1xx_hal_tim.c ****   return HAL_OK;
 723              		.loc 1 448 0
 724 0050 0023     		movs	r3, #0
 449:Drivers/STM32F1xx_HAL_Driver/Src/stm32f1xx_hal_tim.c **** }
 725              		.loc 1 449 0
 726 0052 1846     		mov	r0, r3
 727 0054 0C37     		adds	r7, r7, #12
 728              	.LCFI54:
 729              		.cfi_def_cfa_offset 4
 730 0056 BD46     		mov	sp, r7
 731              	.LCFI55:
 732              		.cfi_def_cfa_register 13
 733              		@ sp needed
 734 0058 80BC     		pop	{r7}
 735              	.LCFI56:
 736              		.cfi_restore 7
 737              		.cfi_def_cfa_offset 0
 738 005a 7047     		bx	lr
 739              		.cfi_endproc
 740              	.LFE75:
 742              		.section	.text.HAL_TIM_OC_Init,"ax",%progbits
 743              		.align	1
 744              		.global	HAL_TIM_OC_Init
 745              		.syntax unified
 746              		.thumb
 747              		.thumb_func
 748              		.fpu softvfp
 750              	HAL_TIM_OC_Init:
 751              	.LFB76:
 450:Drivers/STM32F1xx_HAL_Driver/Src/stm32f1xx_hal_tim.c **** 
 451:Drivers/STM32F1xx_HAL_Driver/Src/stm32f1xx_hal_tim.c **** /**
 452:Drivers/STM32F1xx_HAL_Driver/Src/stm32f1xx_hal_tim.c ****   * @}
 453:Drivers/STM32F1xx_HAL_Driver/Src/stm32f1xx_hal_tim.c ****   */
 454:Drivers/STM32F1xx_HAL_Driver/Src/stm32f1xx_hal_tim.c **** 
 455:Drivers/STM32F1xx_HAL_Driver/Src/stm32f1xx_hal_tim.c **** /** @defgroup TIM_Exported_Functions_Group2 Time Output Compare functions 
 456:Drivers/STM32F1xx_HAL_Driver/Src/stm32f1xx_hal_tim.c ****  *  @brief    Time Output Compare functions 
 457:Drivers/STM32F1xx_HAL_Driver/Src/stm32f1xx_hal_tim.c ****  *
 458:Drivers/STM32F1xx_HAL_Driver/Src/stm32f1xx_hal_tim.c **** @verbatim 
 459:Drivers/STM32F1xx_HAL_Driver/Src/stm32f1xx_hal_tim.c ****   ==============================================================================
 460:Drivers/STM32F1xx_HAL_Driver/Src/stm32f1xx_hal_tim.c ****                   ##### Time Output Compare functions #####
 461:Drivers/STM32F1xx_HAL_Driver/Src/stm32f1xx_hal_tim.c ****   ==============================================================================
 462:Drivers/STM32F1xx_HAL_Driver/Src/stm32f1xx_hal_tim.c ****   [..]
 463:Drivers/STM32F1xx_HAL_Driver/Src/stm32f1xx_hal_tim.c ****     This section provides functions allowing to:
 464:Drivers/STM32F1xx_HAL_Driver/Src/stm32f1xx_hal_tim.c ****     (+) Initialize and configure the TIM Output Compare.
 465:Drivers/STM32F1xx_HAL_Driver/Src/stm32f1xx_hal_tim.c ****     (+) De-initialize the TIM Output Compare.
 466:Drivers/STM32F1xx_HAL_Driver/Src/stm32f1xx_hal_tim.c ****     (+) Start the Time Output Compare.
 467:Drivers/STM32F1xx_HAL_Driver/Src/stm32f1xx_hal_tim.c ****     (+) Stop the Time Output Compare.
ARM GAS  /tmp/cc5HGhWi.s 			page 22


 468:Drivers/STM32F1xx_HAL_Driver/Src/stm32f1xx_hal_tim.c ****     (+) Start the Time Output Compare and enable interrupt.
 469:Drivers/STM32F1xx_HAL_Driver/Src/stm32f1xx_hal_tim.c ****     (+) Stop the Time Output Compare and disable interrupt.
 470:Drivers/STM32F1xx_HAL_Driver/Src/stm32f1xx_hal_tim.c ****     (+) Start the Time Output Compare and enable DMA transfer.
 471:Drivers/STM32F1xx_HAL_Driver/Src/stm32f1xx_hal_tim.c ****     (+) Stop the Time Output Compare and disable DMA transfer.
 472:Drivers/STM32F1xx_HAL_Driver/Src/stm32f1xx_hal_tim.c **** 
 473:Drivers/STM32F1xx_HAL_Driver/Src/stm32f1xx_hal_tim.c **** @endverbatim
 474:Drivers/STM32F1xx_HAL_Driver/Src/stm32f1xx_hal_tim.c ****   * @{
 475:Drivers/STM32F1xx_HAL_Driver/Src/stm32f1xx_hal_tim.c ****   */
 476:Drivers/STM32F1xx_HAL_Driver/Src/stm32f1xx_hal_tim.c **** /**
 477:Drivers/STM32F1xx_HAL_Driver/Src/stm32f1xx_hal_tim.c ****   * @brief  Initializes the TIM Output Compare according to the specified
 478:Drivers/STM32F1xx_HAL_Driver/Src/stm32f1xx_hal_tim.c ****   *         parameters in the TIM_HandleTypeDef and create the associated handle.
 479:Drivers/STM32F1xx_HAL_Driver/Src/stm32f1xx_hal_tim.c ****   * @param  htim : TIM Output Compare handle
 480:Drivers/STM32F1xx_HAL_Driver/Src/stm32f1xx_hal_tim.c ****   * @retval HAL status
 481:Drivers/STM32F1xx_HAL_Driver/Src/stm32f1xx_hal_tim.c ****   */
 482:Drivers/STM32F1xx_HAL_Driver/Src/stm32f1xx_hal_tim.c **** HAL_StatusTypeDef HAL_TIM_OC_Init(TIM_HandleTypeDef* htim)
 483:Drivers/STM32F1xx_HAL_Driver/Src/stm32f1xx_hal_tim.c **** {
 752              		.loc 1 483 0
 753              		.cfi_startproc
 754              		@ args = 0, pretend = 0, frame = 8
 755              		@ frame_needed = 1, uses_anonymous_args = 0
 756 0000 80B5     		push	{r7, lr}
 757              	.LCFI57:
 758              		.cfi_def_cfa_offset 8
 759              		.cfi_offset 7, -8
 760              		.cfi_offset 14, -4
 761 0002 82B0     		sub	sp, sp, #8
 762              	.LCFI58:
 763              		.cfi_def_cfa_offset 16
 764 0004 00AF     		add	r7, sp, #0
 765              	.LCFI59:
 766              		.cfi_def_cfa_register 7
 767 0006 7860     		str	r0, [r7, #4]
 484:Drivers/STM32F1xx_HAL_Driver/Src/stm32f1xx_hal_tim.c ****   /* Check the TIM handle allocation */
 485:Drivers/STM32F1xx_HAL_Driver/Src/stm32f1xx_hal_tim.c ****   if(htim == NULL)
 768              		.loc 1 485 0
 769 0008 7B68     		ldr	r3, [r7, #4]
 770 000a 002B     		cmp	r3, #0
 771 000c 01D1     		bne	.L31
 486:Drivers/STM32F1xx_HAL_Driver/Src/stm32f1xx_hal_tim.c ****   {
 487:Drivers/STM32F1xx_HAL_Driver/Src/stm32f1xx_hal_tim.c ****     return HAL_ERROR;
 772              		.loc 1 487 0
 773 000e 0123     		movs	r3, #1
 774 0010 1DE0     		b	.L32
 775              	.L31:
 488:Drivers/STM32F1xx_HAL_Driver/Src/stm32f1xx_hal_tim.c ****   }
 489:Drivers/STM32F1xx_HAL_Driver/Src/stm32f1xx_hal_tim.c **** 
 490:Drivers/STM32F1xx_HAL_Driver/Src/stm32f1xx_hal_tim.c ****   /* Check the parameters */
 491:Drivers/STM32F1xx_HAL_Driver/Src/stm32f1xx_hal_tim.c ****   assert_param(IS_TIM_INSTANCE(htim->Instance));
 492:Drivers/STM32F1xx_HAL_Driver/Src/stm32f1xx_hal_tim.c ****   assert_param(IS_TIM_COUNTER_MODE(htim->Init.CounterMode));
 493:Drivers/STM32F1xx_HAL_Driver/Src/stm32f1xx_hal_tim.c ****   assert_param(IS_TIM_CLOCKDIVISION_DIV(htim->Init.ClockDivision));
 494:Drivers/STM32F1xx_HAL_Driver/Src/stm32f1xx_hal_tim.c ****   assert_param(IS_TIM_AUTORELOAD_PRELOAD(htim->Init.AutoReloadPreload));
 495:Drivers/STM32F1xx_HAL_Driver/Src/stm32f1xx_hal_tim.c **** 
 496:Drivers/STM32F1xx_HAL_Driver/Src/stm32f1xx_hal_tim.c ****   if(htim->State == HAL_TIM_STATE_RESET)
 776              		.loc 1 496 0
 777 0012 7B68     		ldr	r3, [r7, #4]
 778 0014 93F83D30 		ldrb	r3, [r3, #61]
 779 0018 DBB2     		uxtb	r3, r3
ARM GAS  /tmp/cc5HGhWi.s 			page 23


 780 001a 002B     		cmp	r3, #0
 781 001c 06D1     		bne	.L33
 497:Drivers/STM32F1xx_HAL_Driver/Src/stm32f1xx_hal_tim.c ****   {
 498:Drivers/STM32F1xx_HAL_Driver/Src/stm32f1xx_hal_tim.c ****     /* Allocate lock resource and initialize it */
 499:Drivers/STM32F1xx_HAL_Driver/Src/stm32f1xx_hal_tim.c ****     htim->Lock = HAL_UNLOCKED;
 782              		.loc 1 499 0
 783 001e 7B68     		ldr	r3, [r7, #4]
 784 0020 0022     		movs	r2, #0
 785 0022 83F83C20 		strb	r2, [r3, #60]
 500:Drivers/STM32F1xx_HAL_Driver/Src/stm32f1xx_hal_tim.c ****     
 501:Drivers/STM32F1xx_HAL_Driver/Src/stm32f1xx_hal_tim.c ****     /* Init the low level hardware : GPIO, CLOCK, NVIC and DMA */
 502:Drivers/STM32F1xx_HAL_Driver/Src/stm32f1xx_hal_tim.c ****     HAL_TIM_OC_MspInit(htim);
 786              		.loc 1 502 0
 787 0026 7868     		ldr	r0, [r7, #4]
 788 0028 FFF7FEFF 		bl	HAL_TIM_OC_MspInit
 789              	.L33:
 503:Drivers/STM32F1xx_HAL_Driver/Src/stm32f1xx_hal_tim.c ****   }
 504:Drivers/STM32F1xx_HAL_Driver/Src/stm32f1xx_hal_tim.c **** 
 505:Drivers/STM32F1xx_HAL_Driver/Src/stm32f1xx_hal_tim.c ****   /* Set the TIM state */
 506:Drivers/STM32F1xx_HAL_Driver/Src/stm32f1xx_hal_tim.c ****   htim->State= HAL_TIM_STATE_BUSY;
 790              		.loc 1 506 0
 791 002c 7B68     		ldr	r3, [r7, #4]
 792 002e 0222     		movs	r2, #2
 793 0030 83F83D20 		strb	r2, [r3, #61]
 507:Drivers/STM32F1xx_HAL_Driver/Src/stm32f1xx_hal_tim.c **** 
 508:Drivers/STM32F1xx_HAL_Driver/Src/stm32f1xx_hal_tim.c ****   /* Init the base time for the Output Compare */
 509:Drivers/STM32F1xx_HAL_Driver/Src/stm32f1xx_hal_tim.c ****   TIM_Base_SetConfig(htim->Instance,  &htim->Init);
 794              		.loc 1 509 0
 795 0034 7B68     		ldr	r3, [r7, #4]
 796 0036 1A68     		ldr	r2, [r3]
 797 0038 7B68     		ldr	r3, [r7, #4]
 798 003a 0433     		adds	r3, r3, #4
 799 003c 1946     		mov	r1, r3
 800 003e 1046     		mov	r0, r2
 801 0040 FFF7FEFF 		bl	TIM_Base_SetConfig
 510:Drivers/STM32F1xx_HAL_Driver/Src/stm32f1xx_hal_tim.c **** 
 511:Drivers/STM32F1xx_HAL_Driver/Src/stm32f1xx_hal_tim.c ****   /* Initialize the TIM state*/
 512:Drivers/STM32F1xx_HAL_Driver/Src/stm32f1xx_hal_tim.c ****   htim->State= HAL_TIM_STATE_READY;
 802              		.loc 1 512 0
 803 0044 7B68     		ldr	r3, [r7, #4]
 804 0046 0122     		movs	r2, #1
 805 0048 83F83D20 		strb	r2, [r3, #61]
 513:Drivers/STM32F1xx_HAL_Driver/Src/stm32f1xx_hal_tim.c **** 
 514:Drivers/STM32F1xx_HAL_Driver/Src/stm32f1xx_hal_tim.c ****   return HAL_OK;
 806              		.loc 1 514 0
 807 004c 0023     		movs	r3, #0
 808              	.L32:
 515:Drivers/STM32F1xx_HAL_Driver/Src/stm32f1xx_hal_tim.c **** }
 809              		.loc 1 515 0
 810 004e 1846     		mov	r0, r3
 811 0050 0837     		adds	r7, r7, #8
 812              	.LCFI60:
 813              		.cfi_def_cfa_offset 8
 814 0052 BD46     		mov	sp, r7
 815              	.LCFI61:
 816              		.cfi_def_cfa_register 13
 817              		@ sp needed
ARM GAS  /tmp/cc5HGhWi.s 			page 24


 818 0054 80BD     		pop	{r7, pc}
 819              		.cfi_endproc
 820              	.LFE76:
 822              		.section	.text.HAL_TIM_OC_DeInit,"ax",%progbits
 823              		.align	1
 824              		.global	HAL_TIM_OC_DeInit
 825              		.syntax unified
 826              		.thumb
 827              		.thumb_func
 828              		.fpu softvfp
 830              	HAL_TIM_OC_DeInit:
 831              	.LFB77:
 516:Drivers/STM32F1xx_HAL_Driver/Src/stm32f1xx_hal_tim.c **** 
 517:Drivers/STM32F1xx_HAL_Driver/Src/stm32f1xx_hal_tim.c **** /**
 518:Drivers/STM32F1xx_HAL_Driver/Src/stm32f1xx_hal_tim.c ****   * @brief  DeInitializes the TIM peripheral 
 519:Drivers/STM32F1xx_HAL_Driver/Src/stm32f1xx_hal_tim.c ****   * @param  htim : TIM Output Compare handle
 520:Drivers/STM32F1xx_HAL_Driver/Src/stm32f1xx_hal_tim.c ****   * @retval HAL status
 521:Drivers/STM32F1xx_HAL_Driver/Src/stm32f1xx_hal_tim.c ****   */
 522:Drivers/STM32F1xx_HAL_Driver/Src/stm32f1xx_hal_tim.c **** HAL_StatusTypeDef HAL_TIM_OC_DeInit(TIM_HandleTypeDef *htim)
 523:Drivers/STM32F1xx_HAL_Driver/Src/stm32f1xx_hal_tim.c **** {
 832              		.loc 1 523 0
 833              		.cfi_startproc
 834              		@ args = 0, pretend = 0, frame = 8
 835              		@ frame_needed = 1, uses_anonymous_args = 0
 836 0000 80B5     		push	{r7, lr}
 837              	.LCFI62:
 838              		.cfi_def_cfa_offset 8
 839              		.cfi_offset 7, -8
 840              		.cfi_offset 14, -4
 841 0002 82B0     		sub	sp, sp, #8
 842              	.LCFI63:
 843              		.cfi_def_cfa_offset 16
 844 0004 00AF     		add	r7, sp, #0
 845              	.LCFI64:
 846              		.cfi_def_cfa_register 7
 847 0006 7860     		str	r0, [r7, #4]
 524:Drivers/STM32F1xx_HAL_Driver/Src/stm32f1xx_hal_tim.c ****   /* Check the parameters */
 525:Drivers/STM32F1xx_HAL_Driver/Src/stm32f1xx_hal_tim.c ****   assert_param(IS_TIM_INSTANCE(htim->Instance));
 526:Drivers/STM32F1xx_HAL_Driver/Src/stm32f1xx_hal_tim.c **** 
 527:Drivers/STM32F1xx_HAL_Driver/Src/stm32f1xx_hal_tim.c ****    htim->State = HAL_TIM_STATE_BUSY;
 848              		.loc 1 527 0
 849 0008 7B68     		ldr	r3, [r7, #4]
 850 000a 0222     		movs	r2, #2
 851 000c 83F83D20 		strb	r2, [r3, #61]
 528:Drivers/STM32F1xx_HAL_Driver/Src/stm32f1xx_hal_tim.c **** 
 529:Drivers/STM32F1xx_HAL_Driver/Src/stm32f1xx_hal_tim.c ****   /* Disable the TIM Peripheral Clock */
 530:Drivers/STM32F1xx_HAL_Driver/Src/stm32f1xx_hal_tim.c ****   __HAL_TIM_DISABLE(htim);
 852              		.loc 1 530 0
 853 0010 7B68     		ldr	r3, [r7, #4]
 854 0012 1B68     		ldr	r3, [r3]
 855 0014 1A6A     		ldr	r2, [r3, #32]
 856 0016 41F21113 		movw	r3, #4369
 857 001a 1340     		ands	r3, r3, r2
 858 001c 002B     		cmp	r3, #0
 859 001e 0FD1     		bne	.L35
 860              		.loc 1 530 0 is_stmt 0 discriminator 1
 861 0020 7B68     		ldr	r3, [r7, #4]
ARM GAS  /tmp/cc5HGhWi.s 			page 25


 862 0022 1B68     		ldr	r3, [r3]
 863 0024 1A6A     		ldr	r2, [r3, #32]
 864 0026 40F24443 		movw	r3, #1092
 865 002a 1340     		ands	r3, r3, r2
 866 002c 002B     		cmp	r3, #0
 867 002e 07D1     		bne	.L35
 868              		.loc 1 530 0 discriminator 2
 869 0030 7B68     		ldr	r3, [r7, #4]
 870 0032 1B68     		ldr	r3, [r3]
 871 0034 1A68     		ldr	r2, [r3]
 872 0036 7B68     		ldr	r3, [r7, #4]
 873 0038 1B68     		ldr	r3, [r3]
 874 003a 22F00102 		bic	r2, r2, #1
 875 003e 1A60     		str	r2, [r3]
 876              	.L35:
 531:Drivers/STM32F1xx_HAL_Driver/Src/stm32f1xx_hal_tim.c **** 
 532:Drivers/STM32F1xx_HAL_Driver/Src/stm32f1xx_hal_tim.c ****   /* DeInit the low level hardware: GPIO, CLOCK, NVIC and DMA */
 533:Drivers/STM32F1xx_HAL_Driver/Src/stm32f1xx_hal_tim.c ****   HAL_TIM_OC_MspDeInit(htim);
 877              		.loc 1 533 0 is_stmt 1
 878 0040 7868     		ldr	r0, [r7, #4]
 879 0042 FFF7FEFF 		bl	HAL_TIM_OC_MspDeInit
 534:Drivers/STM32F1xx_HAL_Driver/Src/stm32f1xx_hal_tim.c **** 
 535:Drivers/STM32F1xx_HAL_Driver/Src/stm32f1xx_hal_tim.c ****   /* Change TIM state */
 536:Drivers/STM32F1xx_HAL_Driver/Src/stm32f1xx_hal_tim.c ****   htim->State = HAL_TIM_STATE_RESET;
 880              		.loc 1 536 0
 881 0046 7B68     		ldr	r3, [r7, #4]
 882 0048 0022     		movs	r2, #0
 883 004a 83F83D20 		strb	r2, [r3, #61]
 537:Drivers/STM32F1xx_HAL_Driver/Src/stm32f1xx_hal_tim.c **** 
 538:Drivers/STM32F1xx_HAL_Driver/Src/stm32f1xx_hal_tim.c ****   /* Release Lock */
 539:Drivers/STM32F1xx_HAL_Driver/Src/stm32f1xx_hal_tim.c ****   __HAL_UNLOCK(htim);
 884              		.loc 1 539 0
 885 004e 7B68     		ldr	r3, [r7, #4]
 886 0050 0022     		movs	r2, #0
 887 0052 83F83C20 		strb	r2, [r3, #60]
 540:Drivers/STM32F1xx_HAL_Driver/Src/stm32f1xx_hal_tim.c **** 
 541:Drivers/STM32F1xx_HAL_Driver/Src/stm32f1xx_hal_tim.c ****   return HAL_OK;
 888              		.loc 1 541 0
 889 0056 0023     		movs	r3, #0
 542:Drivers/STM32F1xx_HAL_Driver/Src/stm32f1xx_hal_tim.c **** }
 890              		.loc 1 542 0
 891 0058 1846     		mov	r0, r3
 892 005a 0837     		adds	r7, r7, #8
 893              	.LCFI65:
 894              		.cfi_def_cfa_offset 8
 895 005c BD46     		mov	sp, r7
 896              	.LCFI66:
 897              		.cfi_def_cfa_register 13
 898              		@ sp needed
 899 005e 80BD     		pop	{r7, pc}
 900              		.cfi_endproc
 901              	.LFE77:
 903              		.section	.text.HAL_TIM_OC_MspInit,"ax",%progbits
 904              		.align	1
 905              		.weak	HAL_TIM_OC_MspInit
 906              		.syntax unified
 907              		.thumb
ARM GAS  /tmp/cc5HGhWi.s 			page 26


 908              		.thumb_func
 909              		.fpu softvfp
 911              	HAL_TIM_OC_MspInit:
 912              	.LFB78:
 543:Drivers/STM32F1xx_HAL_Driver/Src/stm32f1xx_hal_tim.c **** 
 544:Drivers/STM32F1xx_HAL_Driver/Src/stm32f1xx_hal_tim.c **** /**
 545:Drivers/STM32F1xx_HAL_Driver/Src/stm32f1xx_hal_tim.c ****   * @brief  Initializes the TIM Output Compare MSP.
 546:Drivers/STM32F1xx_HAL_Driver/Src/stm32f1xx_hal_tim.c ****   * @param  htim : TIM handle
 547:Drivers/STM32F1xx_HAL_Driver/Src/stm32f1xx_hal_tim.c ****   * @retval None
 548:Drivers/STM32F1xx_HAL_Driver/Src/stm32f1xx_hal_tim.c ****   */
 549:Drivers/STM32F1xx_HAL_Driver/Src/stm32f1xx_hal_tim.c **** __weak void HAL_TIM_OC_MspInit(TIM_HandleTypeDef *htim)
 550:Drivers/STM32F1xx_HAL_Driver/Src/stm32f1xx_hal_tim.c **** {
 913              		.loc 1 550 0
 914              		.cfi_startproc
 915              		@ args = 0, pretend = 0, frame = 8
 916              		@ frame_needed = 1, uses_anonymous_args = 0
 917              		@ link register save eliminated.
 918 0000 80B4     		push	{r7}
 919              	.LCFI67:
 920              		.cfi_def_cfa_offset 4
 921              		.cfi_offset 7, -4
 922 0002 83B0     		sub	sp, sp, #12
 923              	.LCFI68:
 924              		.cfi_def_cfa_offset 16
 925 0004 00AF     		add	r7, sp, #0
 926              	.LCFI69:
 927              		.cfi_def_cfa_register 7
 928 0006 7860     		str	r0, [r7, #4]
 551:Drivers/STM32F1xx_HAL_Driver/Src/stm32f1xx_hal_tim.c ****   /* Prevent unused argument(s) compilation warning */
 552:Drivers/STM32F1xx_HAL_Driver/Src/stm32f1xx_hal_tim.c ****   UNUSED(htim);
 553:Drivers/STM32F1xx_HAL_Driver/Src/stm32f1xx_hal_tim.c ****   /* NOTE : This function Should not be modified, when the callback is needed,
 554:Drivers/STM32F1xx_HAL_Driver/Src/stm32f1xx_hal_tim.c ****             the HAL_TIM_OC_MspInit could be implemented in the user file
 555:Drivers/STM32F1xx_HAL_Driver/Src/stm32f1xx_hal_tim.c ****    */
 556:Drivers/STM32F1xx_HAL_Driver/Src/stm32f1xx_hal_tim.c **** }
 929              		.loc 1 556 0
 930 0008 00BF     		nop
 931 000a 0C37     		adds	r7, r7, #12
 932              	.LCFI70:
 933              		.cfi_def_cfa_offset 4
 934 000c BD46     		mov	sp, r7
 935              	.LCFI71:
 936              		.cfi_def_cfa_register 13
 937              		@ sp needed
 938 000e 80BC     		pop	{r7}
 939              	.LCFI72:
 940              		.cfi_restore 7
 941              		.cfi_def_cfa_offset 0
 942 0010 7047     		bx	lr
 943              		.cfi_endproc
 944              	.LFE78:
 946              		.section	.text.HAL_TIM_OC_MspDeInit,"ax",%progbits
 947              		.align	1
 948              		.weak	HAL_TIM_OC_MspDeInit
 949              		.syntax unified
 950              		.thumb
 951              		.thumb_func
 952              		.fpu softvfp
ARM GAS  /tmp/cc5HGhWi.s 			page 27


 954              	HAL_TIM_OC_MspDeInit:
 955              	.LFB79:
 557:Drivers/STM32F1xx_HAL_Driver/Src/stm32f1xx_hal_tim.c **** 
 558:Drivers/STM32F1xx_HAL_Driver/Src/stm32f1xx_hal_tim.c **** /**
 559:Drivers/STM32F1xx_HAL_Driver/Src/stm32f1xx_hal_tim.c ****   * @brief  DeInitializes TIM Output Compare MSP.
 560:Drivers/STM32F1xx_HAL_Driver/Src/stm32f1xx_hal_tim.c ****   * @param  htim : TIM handle
 561:Drivers/STM32F1xx_HAL_Driver/Src/stm32f1xx_hal_tim.c ****   * @retval None
 562:Drivers/STM32F1xx_HAL_Driver/Src/stm32f1xx_hal_tim.c ****   */
 563:Drivers/STM32F1xx_HAL_Driver/Src/stm32f1xx_hal_tim.c **** __weak void HAL_TIM_OC_MspDeInit(TIM_HandleTypeDef *htim)
 564:Drivers/STM32F1xx_HAL_Driver/Src/stm32f1xx_hal_tim.c **** {
 956              		.loc 1 564 0
 957              		.cfi_startproc
 958              		@ args = 0, pretend = 0, frame = 8
 959              		@ frame_needed = 1, uses_anonymous_args = 0
 960              		@ link register save eliminated.
 961 0000 80B4     		push	{r7}
 962              	.LCFI73:
 963              		.cfi_def_cfa_offset 4
 964              		.cfi_offset 7, -4
 965 0002 83B0     		sub	sp, sp, #12
 966              	.LCFI74:
 967              		.cfi_def_cfa_offset 16
 968 0004 00AF     		add	r7, sp, #0
 969              	.LCFI75:
 970              		.cfi_def_cfa_register 7
 971 0006 7860     		str	r0, [r7, #4]
 565:Drivers/STM32F1xx_HAL_Driver/Src/stm32f1xx_hal_tim.c ****   /* Prevent unused argument(s) compilation warning */
 566:Drivers/STM32F1xx_HAL_Driver/Src/stm32f1xx_hal_tim.c ****   UNUSED(htim);
 567:Drivers/STM32F1xx_HAL_Driver/Src/stm32f1xx_hal_tim.c ****   /* NOTE : This function Should not be modified, when the callback is needed,
 568:Drivers/STM32F1xx_HAL_Driver/Src/stm32f1xx_hal_tim.c ****             the HAL_TIM_OC_MspDeInit could be implemented in the user file
 569:Drivers/STM32F1xx_HAL_Driver/Src/stm32f1xx_hal_tim.c ****    */
 570:Drivers/STM32F1xx_HAL_Driver/Src/stm32f1xx_hal_tim.c **** }
 972              		.loc 1 570 0
 973 0008 00BF     		nop
 974 000a 0C37     		adds	r7, r7, #12
 975              	.LCFI76:
 976              		.cfi_def_cfa_offset 4
 977 000c BD46     		mov	sp, r7
 978              	.LCFI77:
 979              		.cfi_def_cfa_register 13
 980              		@ sp needed
 981 000e 80BC     		pop	{r7}
 982              	.LCFI78:
 983              		.cfi_restore 7
 984              		.cfi_def_cfa_offset 0
 985 0010 7047     		bx	lr
 986              		.cfi_endproc
 987              	.LFE79:
 989              		.section	.text.HAL_TIM_OC_Start,"ax",%progbits
 990              		.align	1
 991              		.global	HAL_TIM_OC_Start
 992              		.syntax unified
 993              		.thumb
 994              		.thumb_func
 995              		.fpu softvfp
 997              	HAL_TIM_OC_Start:
 998              	.LFB80:
ARM GAS  /tmp/cc5HGhWi.s 			page 28


 571:Drivers/STM32F1xx_HAL_Driver/Src/stm32f1xx_hal_tim.c **** 
 572:Drivers/STM32F1xx_HAL_Driver/Src/stm32f1xx_hal_tim.c **** /**
 573:Drivers/STM32F1xx_HAL_Driver/Src/stm32f1xx_hal_tim.c ****   * @brief  Starts the TIM Output Compare signal generation.
 574:Drivers/STM32F1xx_HAL_Driver/Src/stm32f1xx_hal_tim.c ****   * @param  htim : TIM Output Compare handle 
 575:Drivers/STM32F1xx_HAL_Driver/Src/stm32f1xx_hal_tim.c ****   * @param  Channel : TIM Channel to be enabled
 576:Drivers/STM32F1xx_HAL_Driver/Src/stm32f1xx_hal_tim.c ****   *          This parameter can be one of the following values:
 577:Drivers/STM32F1xx_HAL_Driver/Src/stm32f1xx_hal_tim.c ****   *            @arg TIM_CHANNEL_1: TIM Channel 1 selected
 578:Drivers/STM32F1xx_HAL_Driver/Src/stm32f1xx_hal_tim.c ****   *            @arg TIM_CHANNEL_2: TIM Channel 2 selected
 579:Drivers/STM32F1xx_HAL_Driver/Src/stm32f1xx_hal_tim.c ****   *            @arg TIM_CHANNEL_3: TIM Channel 3 selected
 580:Drivers/STM32F1xx_HAL_Driver/Src/stm32f1xx_hal_tim.c ****   *            @arg TIM_CHANNEL_4: TIM Channel 4 selected 
 581:Drivers/STM32F1xx_HAL_Driver/Src/stm32f1xx_hal_tim.c ****   * @retval HAL status
 582:Drivers/STM32F1xx_HAL_Driver/Src/stm32f1xx_hal_tim.c **** */
 583:Drivers/STM32F1xx_HAL_Driver/Src/stm32f1xx_hal_tim.c **** HAL_StatusTypeDef HAL_TIM_OC_Start(TIM_HandleTypeDef *htim, uint32_t Channel)
 584:Drivers/STM32F1xx_HAL_Driver/Src/stm32f1xx_hal_tim.c **** {
 999              		.loc 1 584 0
 1000              		.cfi_startproc
 1001              		@ args = 0, pretend = 0, frame = 8
 1002              		@ frame_needed = 1, uses_anonymous_args = 0
 1003 0000 80B5     		push	{r7, lr}
 1004              	.LCFI79:
 1005              		.cfi_def_cfa_offset 8
 1006              		.cfi_offset 7, -8
 1007              		.cfi_offset 14, -4
 1008 0002 82B0     		sub	sp, sp, #8
 1009              	.LCFI80:
 1010              		.cfi_def_cfa_offset 16
 1011 0004 00AF     		add	r7, sp, #0
 1012              	.LCFI81:
 1013              		.cfi_def_cfa_register 7
 1014 0006 7860     		str	r0, [r7, #4]
 1015 0008 3960     		str	r1, [r7]
 585:Drivers/STM32F1xx_HAL_Driver/Src/stm32f1xx_hal_tim.c ****   /* Check the parameters */
 586:Drivers/STM32F1xx_HAL_Driver/Src/stm32f1xx_hal_tim.c ****   assert_param(IS_TIM_CCX_INSTANCE(htim->Instance, Channel));
 587:Drivers/STM32F1xx_HAL_Driver/Src/stm32f1xx_hal_tim.c **** 
 588:Drivers/STM32F1xx_HAL_Driver/Src/stm32f1xx_hal_tim.c ****   /* Enable the Output compare channel */
 589:Drivers/STM32F1xx_HAL_Driver/Src/stm32f1xx_hal_tim.c ****   TIM_CCxChannelCmd(htim->Instance, Channel, TIM_CCx_ENABLE);
 1016              		.loc 1 589 0
 1017 000a 7B68     		ldr	r3, [r7, #4]
 1018 000c 1B68     		ldr	r3, [r3]
 1019 000e 0122     		movs	r2, #1
 1020 0010 3968     		ldr	r1, [r7]
 1021 0012 1846     		mov	r0, r3
 1022 0014 FFF7FEFF 		bl	TIM_CCxChannelCmd
 590:Drivers/STM32F1xx_HAL_Driver/Src/stm32f1xx_hal_tim.c **** 
 591:Drivers/STM32F1xx_HAL_Driver/Src/stm32f1xx_hal_tim.c ****   if(IS_TIM_BREAK_INSTANCE(htim->Instance) != RESET)
 1023              		.loc 1 591 0
 1024 0018 7B68     		ldr	r3, [r7, #4]
 1025 001a 1B68     		ldr	r3, [r3]
 1026 001c 0B4A     		ldr	r2, .L42
 1027 001e 9342     		cmp	r3, r2
 1028 0020 07D1     		bne	.L40
 592:Drivers/STM32F1xx_HAL_Driver/Src/stm32f1xx_hal_tim.c ****   {
 593:Drivers/STM32F1xx_HAL_Driver/Src/stm32f1xx_hal_tim.c ****     /* Enable the main output */
 594:Drivers/STM32F1xx_HAL_Driver/Src/stm32f1xx_hal_tim.c ****     __HAL_TIM_MOE_ENABLE(htim);
 1029              		.loc 1 594 0
 1030 0022 7B68     		ldr	r3, [r7, #4]
 1031 0024 1B68     		ldr	r3, [r3]
ARM GAS  /tmp/cc5HGhWi.s 			page 29


 1032 0026 5A6C     		ldr	r2, [r3, #68]
 1033 0028 7B68     		ldr	r3, [r7, #4]
 1034 002a 1B68     		ldr	r3, [r3]
 1035 002c 42F40042 		orr	r2, r2, #32768
 1036 0030 5A64     		str	r2, [r3, #68]
 1037              	.L40:
 595:Drivers/STM32F1xx_HAL_Driver/Src/stm32f1xx_hal_tim.c ****   }
 596:Drivers/STM32F1xx_HAL_Driver/Src/stm32f1xx_hal_tim.c **** 
 597:Drivers/STM32F1xx_HAL_Driver/Src/stm32f1xx_hal_tim.c ****   /* Enable the Peripheral */
 598:Drivers/STM32F1xx_HAL_Driver/Src/stm32f1xx_hal_tim.c ****   __HAL_TIM_ENABLE(htim);
 1038              		.loc 1 598 0
 1039 0032 7B68     		ldr	r3, [r7, #4]
 1040 0034 1B68     		ldr	r3, [r3]
 1041 0036 1A68     		ldr	r2, [r3]
 1042 0038 7B68     		ldr	r3, [r7, #4]
 1043 003a 1B68     		ldr	r3, [r3]
 1044 003c 42F00102 		orr	r2, r2, #1
 1045 0040 1A60     		str	r2, [r3]
 599:Drivers/STM32F1xx_HAL_Driver/Src/stm32f1xx_hal_tim.c **** 
 600:Drivers/STM32F1xx_HAL_Driver/Src/stm32f1xx_hal_tim.c ****   /* Return function status */
 601:Drivers/STM32F1xx_HAL_Driver/Src/stm32f1xx_hal_tim.c ****   return HAL_OK;
 1046              		.loc 1 601 0
 1047 0042 0023     		movs	r3, #0
 602:Drivers/STM32F1xx_HAL_Driver/Src/stm32f1xx_hal_tim.c **** }
 1048              		.loc 1 602 0
 1049 0044 1846     		mov	r0, r3
 1050 0046 0837     		adds	r7, r7, #8
 1051              	.LCFI82:
 1052              		.cfi_def_cfa_offset 8
 1053 0048 BD46     		mov	sp, r7
 1054              	.LCFI83:
 1055              		.cfi_def_cfa_register 13
 1056              		@ sp needed
 1057 004a 80BD     		pop	{r7, pc}
 1058              	.L43:
 1059              		.align	2
 1060              	.L42:
 1061 004c 002C0140 		.word	1073818624
 1062              		.cfi_endproc
 1063              	.LFE80:
 1065              		.section	.text.HAL_TIM_OC_Stop,"ax",%progbits
 1066              		.align	1
 1067              		.global	HAL_TIM_OC_Stop
 1068              		.syntax unified
 1069              		.thumb
 1070              		.thumb_func
 1071              		.fpu softvfp
 1073              	HAL_TIM_OC_Stop:
 1074              	.LFB81:
 603:Drivers/STM32F1xx_HAL_Driver/Src/stm32f1xx_hal_tim.c **** 
 604:Drivers/STM32F1xx_HAL_Driver/Src/stm32f1xx_hal_tim.c **** /**
 605:Drivers/STM32F1xx_HAL_Driver/Src/stm32f1xx_hal_tim.c ****   * @brief  Stops the TIM Output Compare signal generation.
 606:Drivers/STM32F1xx_HAL_Driver/Src/stm32f1xx_hal_tim.c ****   * @param  htim : TIM handle
 607:Drivers/STM32F1xx_HAL_Driver/Src/stm32f1xx_hal_tim.c ****   * @param  Channel : TIM Channel to be disabled
 608:Drivers/STM32F1xx_HAL_Driver/Src/stm32f1xx_hal_tim.c ****   *          This parameter can be one of the following values:
 609:Drivers/STM32F1xx_HAL_Driver/Src/stm32f1xx_hal_tim.c ****   *            @arg TIM_CHANNEL_1: TIM Channel 1 selected
 610:Drivers/STM32F1xx_HAL_Driver/Src/stm32f1xx_hal_tim.c ****   *            @arg TIM_CHANNEL_2: TIM Channel 2 selected
ARM GAS  /tmp/cc5HGhWi.s 			page 30


 611:Drivers/STM32F1xx_HAL_Driver/Src/stm32f1xx_hal_tim.c ****   *            @arg TIM_CHANNEL_3: TIM Channel 3 selected
 612:Drivers/STM32F1xx_HAL_Driver/Src/stm32f1xx_hal_tim.c ****   *            @arg TIM_CHANNEL_4: TIM Channel 4 selected
 613:Drivers/STM32F1xx_HAL_Driver/Src/stm32f1xx_hal_tim.c ****   * @retval HAL status
 614:Drivers/STM32F1xx_HAL_Driver/Src/stm32f1xx_hal_tim.c **** */
 615:Drivers/STM32F1xx_HAL_Driver/Src/stm32f1xx_hal_tim.c **** HAL_StatusTypeDef HAL_TIM_OC_Stop(TIM_HandleTypeDef *htim, uint32_t Channel)
 616:Drivers/STM32F1xx_HAL_Driver/Src/stm32f1xx_hal_tim.c **** {
 1075              		.loc 1 616 0
 1076              		.cfi_startproc
 1077              		@ args = 0, pretend = 0, frame = 8
 1078              		@ frame_needed = 1, uses_anonymous_args = 0
 1079 0000 80B5     		push	{r7, lr}
 1080              	.LCFI84:
 1081              		.cfi_def_cfa_offset 8
 1082              		.cfi_offset 7, -8
 1083              		.cfi_offset 14, -4
 1084 0002 82B0     		sub	sp, sp, #8
 1085              	.LCFI85:
 1086              		.cfi_def_cfa_offset 16
 1087 0004 00AF     		add	r7, sp, #0
 1088              	.LCFI86:
 1089              		.cfi_def_cfa_register 7
 1090 0006 7860     		str	r0, [r7, #4]
 1091 0008 3960     		str	r1, [r7]
 617:Drivers/STM32F1xx_HAL_Driver/Src/stm32f1xx_hal_tim.c ****   /* Check the parameters */
 618:Drivers/STM32F1xx_HAL_Driver/Src/stm32f1xx_hal_tim.c ****   assert_param(IS_TIM_CCX_INSTANCE(htim->Instance, Channel));
 619:Drivers/STM32F1xx_HAL_Driver/Src/stm32f1xx_hal_tim.c **** 
 620:Drivers/STM32F1xx_HAL_Driver/Src/stm32f1xx_hal_tim.c ****   /* Disable the Output compare channel */
 621:Drivers/STM32F1xx_HAL_Driver/Src/stm32f1xx_hal_tim.c ****   TIM_CCxChannelCmd(htim->Instance, Channel, TIM_CCx_DISABLE);
 1092              		.loc 1 621 0
 1093 000a 7B68     		ldr	r3, [r7, #4]
 1094 000c 1B68     		ldr	r3, [r3]
 1095 000e 0022     		movs	r2, #0
 1096 0010 3968     		ldr	r1, [r7]
 1097 0012 1846     		mov	r0, r3
 1098 0014 FFF7FEFF 		bl	TIM_CCxChannelCmd
 622:Drivers/STM32F1xx_HAL_Driver/Src/stm32f1xx_hal_tim.c **** 
 623:Drivers/STM32F1xx_HAL_Driver/Src/stm32f1xx_hal_tim.c ****   if(IS_TIM_BREAK_INSTANCE(htim->Instance) != RESET)
 1099              		.loc 1 623 0
 1100 0018 7B68     		ldr	r3, [r7, #4]
 1101 001a 1B68     		ldr	r3, [r3]
 1102 001c 1B4A     		ldr	r2, .L48
 1103 001e 9342     		cmp	r3, r2
 1104 0020 17D1     		bne	.L45
 624:Drivers/STM32F1xx_HAL_Driver/Src/stm32f1xx_hal_tim.c ****   {
 625:Drivers/STM32F1xx_HAL_Driver/Src/stm32f1xx_hal_tim.c ****     /* Disable the Main Ouput */
 626:Drivers/STM32F1xx_HAL_Driver/Src/stm32f1xx_hal_tim.c ****     __HAL_TIM_MOE_DISABLE(htim);
 1105              		.loc 1 626 0
 1106 0022 7B68     		ldr	r3, [r7, #4]
 1107 0024 1B68     		ldr	r3, [r3]
 1108 0026 1A6A     		ldr	r2, [r3, #32]
 1109 0028 41F21113 		movw	r3, #4369
 1110 002c 1340     		ands	r3, r3, r2
 1111 002e 002B     		cmp	r3, #0
 1112 0030 0FD1     		bne	.L45
 1113              		.loc 1 626 0 is_stmt 0 discriminator 1
 1114 0032 7B68     		ldr	r3, [r7, #4]
 1115 0034 1B68     		ldr	r3, [r3]
ARM GAS  /tmp/cc5HGhWi.s 			page 31


 1116 0036 1A6A     		ldr	r2, [r3, #32]
 1117 0038 40F24443 		movw	r3, #1092
 1118 003c 1340     		ands	r3, r3, r2
 1119 003e 002B     		cmp	r3, #0
 1120 0040 07D1     		bne	.L45
 1121              		.loc 1 626 0 discriminator 2
 1122 0042 7B68     		ldr	r3, [r7, #4]
 1123 0044 1B68     		ldr	r3, [r3]
 1124 0046 5A6C     		ldr	r2, [r3, #68]
 1125 0048 7B68     		ldr	r3, [r7, #4]
 1126 004a 1B68     		ldr	r3, [r3]
 1127 004c 22F40042 		bic	r2, r2, #32768
 1128 0050 5A64     		str	r2, [r3, #68]
 1129              	.L45:
 627:Drivers/STM32F1xx_HAL_Driver/Src/stm32f1xx_hal_tim.c ****   }
 628:Drivers/STM32F1xx_HAL_Driver/Src/stm32f1xx_hal_tim.c **** 
 629:Drivers/STM32F1xx_HAL_Driver/Src/stm32f1xx_hal_tim.c ****   /* Disable the Peripheral */
 630:Drivers/STM32F1xx_HAL_Driver/Src/stm32f1xx_hal_tim.c ****   __HAL_TIM_DISABLE(htim);
 1130              		.loc 1 630 0 is_stmt 1
 1131 0052 7B68     		ldr	r3, [r7, #4]
 1132 0054 1B68     		ldr	r3, [r3]
 1133 0056 1A6A     		ldr	r2, [r3, #32]
 1134 0058 41F21113 		movw	r3, #4369
 1135 005c 1340     		ands	r3, r3, r2
 1136 005e 002B     		cmp	r3, #0
 1137 0060 0FD1     		bne	.L46
 1138              		.loc 1 630 0 is_stmt 0 discriminator 1
 1139 0062 7B68     		ldr	r3, [r7, #4]
 1140 0064 1B68     		ldr	r3, [r3]
 1141 0066 1A6A     		ldr	r2, [r3, #32]
 1142 0068 40F24443 		movw	r3, #1092
 1143 006c 1340     		ands	r3, r3, r2
 1144 006e 002B     		cmp	r3, #0
 1145 0070 07D1     		bne	.L46
 1146              		.loc 1 630 0 discriminator 2
 1147 0072 7B68     		ldr	r3, [r7, #4]
 1148 0074 1B68     		ldr	r3, [r3]
 1149 0076 1A68     		ldr	r2, [r3]
 1150 0078 7B68     		ldr	r3, [r7, #4]
 1151 007a 1B68     		ldr	r3, [r3]
 1152 007c 22F00102 		bic	r2, r2, #1
 1153 0080 1A60     		str	r2, [r3]
 1154              	.L46:
 631:Drivers/STM32F1xx_HAL_Driver/Src/stm32f1xx_hal_tim.c **** 
 632:Drivers/STM32F1xx_HAL_Driver/Src/stm32f1xx_hal_tim.c ****   /* Return function status */
 633:Drivers/STM32F1xx_HAL_Driver/Src/stm32f1xx_hal_tim.c ****   return HAL_OK;
 1155              		.loc 1 633 0 is_stmt 1
 1156 0082 0023     		movs	r3, #0
 634:Drivers/STM32F1xx_HAL_Driver/Src/stm32f1xx_hal_tim.c **** }
 1157              		.loc 1 634 0
 1158 0084 1846     		mov	r0, r3
 1159 0086 0837     		adds	r7, r7, #8
 1160              	.LCFI87:
 1161              		.cfi_def_cfa_offset 8
 1162 0088 BD46     		mov	sp, r7
 1163              	.LCFI88:
 1164              		.cfi_def_cfa_register 13
ARM GAS  /tmp/cc5HGhWi.s 			page 32


 1165              		@ sp needed
 1166 008a 80BD     		pop	{r7, pc}
 1167              	.L49:
 1168              		.align	2
 1169              	.L48:
 1170 008c 002C0140 		.word	1073818624
 1171              		.cfi_endproc
 1172              	.LFE81:
 1174              		.section	.text.HAL_TIM_OC_Start_IT,"ax",%progbits
 1175              		.align	1
 1176              		.global	HAL_TIM_OC_Start_IT
 1177              		.syntax unified
 1178              		.thumb
 1179              		.thumb_func
 1180              		.fpu softvfp
 1182              	HAL_TIM_OC_Start_IT:
 1183              	.LFB82:
 635:Drivers/STM32F1xx_HAL_Driver/Src/stm32f1xx_hal_tim.c **** 
 636:Drivers/STM32F1xx_HAL_Driver/Src/stm32f1xx_hal_tim.c **** /**
 637:Drivers/STM32F1xx_HAL_Driver/Src/stm32f1xx_hal_tim.c ****   * @brief  Starts the TIM Output Compare signal generation in interrupt mode.
 638:Drivers/STM32F1xx_HAL_Driver/Src/stm32f1xx_hal_tim.c ****   * @param  htim : TIM OC handle
 639:Drivers/STM32F1xx_HAL_Driver/Src/stm32f1xx_hal_tim.c ****   * @param  Channel : TIM Channel to be enabled
 640:Drivers/STM32F1xx_HAL_Driver/Src/stm32f1xx_hal_tim.c ****   *          This parameter can be one of the following values:
 641:Drivers/STM32F1xx_HAL_Driver/Src/stm32f1xx_hal_tim.c ****   *            @arg TIM_CHANNEL_1: TIM Channel 1 selected
 642:Drivers/STM32F1xx_HAL_Driver/Src/stm32f1xx_hal_tim.c ****   *            @arg TIM_CHANNEL_2: TIM Channel 2 selected
 643:Drivers/STM32F1xx_HAL_Driver/Src/stm32f1xx_hal_tim.c ****   *            @arg TIM_CHANNEL_3: TIM Channel 3 selected
 644:Drivers/STM32F1xx_HAL_Driver/Src/stm32f1xx_hal_tim.c ****   *            @arg TIM_CHANNEL_4: TIM Channel 4 selected
 645:Drivers/STM32F1xx_HAL_Driver/Src/stm32f1xx_hal_tim.c ****   * @retval HAL status
 646:Drivers/STM32F1xx_HAL_Driver/Src/stm32f1xx_hal_tim.c **** */
 647:Drivers/STM32F1xx_HAL_Driver/Src/stm32f1xx_hal_tim.c **** HAL_StatusTypeDef HAL_TIM_OC_Start_IT(TIM_HandleTypeDef *htim, uint32_t Channel)
 648:Drivers/STM32F1xx_HAL_Driver/Src/stm32f1xx_hal_tim.c **** {
 1184              		.loc 1 648 0
 1185              		.cfi_startproc
 1186              		@ args = 0, pretend = 0, frame = 8
 1187              		@ frame_needed = 1, uses_anonymous_args = 0
 1188 0000 80B5     		push	{r7, lr}
 1189              	.LCFI89:
 1190              		.cfi_def_cfa_offset 8
 1191              		.cfi_offset 7, -8
 1192              		.cfi_offset 14, -4
 1193 0002 82B0     		sub	sp, sp, #8
 1194              	.LCFI90:
 1195              		.cfi_def_cfa_offset 16
 1196 0004 00AF     		add	r7, sp, #0
 1197              	.LCFI91:
 1198              		.cfi_def_cfa_register 7
 1199 0006 7860     		str	r0, [r7, #4]
 1200 0008 3960     		str	r1, [r7]
 649:Drivers/STM32F1xx_HAL_Driver/Src/stm32f1xx_hal_tim.c ****   /* Check the parameters */
 650:Drivers/STM32F1xx_HAL_Driver/Src/stm32f1xx_hal_tim.c ****   assert_param(IS_TIM_CCX_INSTANCE(htim->Instance, Channel));
 651:Drivers/STM32F1xx_HAL_Driver/Src/stm32f1xx_hal_tim.c **** 
 652:Drivers/STM32F1xx_HAL_Driver/Src/stm32f1xx_hal_tim.c ****   switch (Channel)
 1201              		.loc 1 652 0
 1202 000a 3B68     		ldr	r3, [r7]
 1203 000c 0C2B     		cmp	r3, #12
 1204 000e 41D8     		bhi	.L60
 1205 0010 01A2     		adr	r2, .L53
ARM GAS  /tmp/cc5HGhWi.s 			page 33


 1206 0012 52F823F0 		ldr	pc, [r2, r3, lsl #2]
 1207 0016 00BF     		.p2align 2
 1208              	.L53:
 1209 0018 4D000000 		.word	.L52+1
 1210 001c 95000000 		.word	.L60+1
 1211 0020 95000000 		.word	.L60+1
 1212 0024 95000000 		.word	.L60+1
 1213 0028 5F000000 		.word	.L54+1
 1214 002c 95000000 		.word	.L60+1
 1215 0030 95000000 		.word	.L60+1
 1216 0034 95000000 		.word	.L60+1
 1217 0038 71000000 		.word	.L55+1
 1218 003c 95000000 		.word	.L60+1
 1219 0040 95000000 		.word	.L60+1
 1220 0044 95000000 		.word	.L60+1
 1221 0048 83000000 		.word	.L56+1
 1222              		.p2align 1
 1223              	.L52:
 653:Drivers/STM32F1xx_HAL_Driver/Src/stm32f1xx_hal_tim.c ****   {
 654:Drivers/STM32F1xx_HAL_Driver/Src/stm32f1xx_hal_tim.c ****     case TIM_CHANNEL_1:
 655:Drivers/STM32F1xx_HAL_Driver/Src/stm32f1xx_hal_tim.c ****     {
 656:Drivers/STM32F1xx_HAL_Driver/Src/stm32f1xx_hal_tim.c ****       /* Enable the TIM Capture/Compare 1 interrupt */
 657:Drivers/STM32F1xx_HAL_Driver/Src/stm32f1xx_hal_tim.c ****       __HAL_TIM_ENABLE_IT(htim, TIM_IT_CC1);
 1224              		.loc 1 657 0
 1225 004c 7B68     		ldr	r3, [r7, #4]
 1226 004e 1B68     		ldr	r3, [r3]
 1227 0050 DA68     		ldr	r2, [r3, #12]
 1228 0052 7B68     		ldr	r3, [r7, #4]
 1229 0054 1B68     		ldr	r3, [r3]
 1230 0056 42F00202 		orr	r2, r2, #2
 1231 005a DA60     		str	r2, [r3, #12]
 658:Drivers/STM32F1xx_HAL_Driver/Src/stm32f1xx_hal_tim.c ****     }
 659:Drivers/STM32F1xx_HAL_Driver/Src/stm32f1xx_hal_tim.c ****     break;
 1232              		.loc 1 659 0
 1233 005c 1BE0     		b	.L57
 1234              	.L54:
 660:Drivers/STM32F1xx_HAL_Driver/Src/stm32f1xx_hal_tim.c **** 
 661:Drivers/STM32F1xx_HAL_Driver/Src/stm32f1xx_hal_tim.c ****     case TIM_CHANNEL_2:
 662:Drivers/STM32F1xx_HAL_Driver/Src/stm32f1xx_hal_tim.c ****     {
 663:Drivers/STM32F1xx_HAL_Driver/Src/stm32f1xx_hal_tim.c ****       /* Enable the TIM Capture/Compare 2 interrupt */
 664:Drivers/STM32F1xx_HAL_Driver/Src/stm32f1xx_hal_tim.c ****       __HAL_TIM_ENABLE_IT(htim, TIM_IT_CC2);
 1235              		.loc 1 664 0
 1236 005e 7B68     		ldr	r3, [r7, #4]
 1237 0060 1B68     		ldr	r3, [r3]
 1238 0062 DA68     		ldr	r2, [r3, #12]
 1239 0064 7B68     		ldr	r3, [r7, #4]
 1240 0066 1B68     		ldr	r3, [r3]
 1241 0068 42F00402 		orr	r2, r2, #4
 1242 006c DA60     		str	r2, [r3, #12]
 665:Drivers/STM32F1xx_HAL_Driver/Src/stm32f1xx_hal_tim.c ****     }
 666:Drivers/STM32F1xx_HAL_Driver/Src/stm32f1xx_hal_tim.c ****     break;
 1243              		.loc 1 666 0
 1244 006e 12E0     		b	.L57
 1245              	.L55:
 667:Drivers/STM32F1xx_HAL_Driver/Src/stm32f1xx_hal_tim.c **** 
 668:Drivers/STM32F1xx_HAL_Driver/Src/stm32f1xx_hal_tim.c ****     case TIM_CHANNEL_3:
 669:Drivers/STM32F1xx_HAL_Driver/Src/stm32f1xx_hal_tim.c ****     {
ARM GAS  /tmp/cc5HGhWi.s 			page 34


 670:Drivers/STM32F1xx_HAL_Driver/Src/stm32f1xx_hal_tim.c ****       /* Enable the TIM Capture/Compare 3 interrupt */
 671:Drivers/STM32F1xx_HAL_Driver/Src/stm32f1xx_hal_tim.c ****       __HAL_TIM_ENABLE_IT(htim, TIM_IT_CC3);
 1246              		.loc 1 671 0
 1247 0070 7B68     		ldr	r3, [r7, #4]
 1248 0072 1B68     		ldr	r3, [r3]
 1249 0074 DA68     		ldr	r2, [r3, #12]
 1250 0076 7B68     		ldr	r3, [r7, #4]
 1251 0078 1B68     		ldr	r3, [r3]
 1252 007a 42F00802 		orr	r2, r2, #8
 1253 007e DA60     		str	r2, [r3, #12]
 672:Drivers/STM32F1xx_HAL_Driver/Src/stm32f1xx_hal_tim.c ****     }
 673:Drivers/STM32F1xx_HAL_Driver/Src/stm32f1xx_hal_tim.c ****     break;
 1254              		.loc 1 673 0
 1255 0080 09E0     		b	.L57
 1256              	.L56:
 674:Drivers/STM32F1xx_HAL_Driver/Src/stm32f1xx_hal_tim.c **** 
 675:Drivers/STM32F1xx_HAL_Driver/Src/stm32f1xx_hal_tim.c ****     case TIM_CHANNEL_4:
 676:Drivers/STM32F1xx_HAL_Driver/Src/stm32f1xx_hal_tim.c ****     {
 677:Drivers/STM32F1xx_HAL_Driver/Src/stm32f1xx_hal_tim.c ****       /* Enable the TIM Capture/Compare 4 interrupt */
 678:Drivers/STM32F1xx_HAL_Driver/Src/stm32f1xx_hal_tim.c ****       __HAL_TIM_ENABLE_IT(htim, TIM_IT_CC4);
 1257              		.loc 1 678 0
 1258 0082 7B68     		ldr	r3, [r7, #4]
 1259 0084 1B68     		ldr	r3, [r3]
 1260 0086 DA68     		ldr	r2, [r3, #12]
 1261 0088 7B68     		ldr	r3, [r7, #4]
 1262 008a 1B68     		ldr	r3, [r3]
 1263 008c 42F01002 		orr	r2, r2, #16
 1264 0090 DA60     		str	r2, [r3, #12]
 679:Drivers/STM32F1xx_HAL_Driver/Src/stm32f1xx_hal_tim.c ****     }
 680:Drivers/STM32F1xx_HAL_Driver/Src/stm32f1xx_hal_tim.c ****     break;
 1265              		.loc 1 680 0
 1266 0092 00E0     		b	.L57
 1267              	.L60:
 681:Drivers/STM32F1xx_HAL_Driver/Src/stm32f1xx_hal_tim.c **** 
 682:Drivers/STM32F1xx_HAL_Driver/Src/stm32f1xx_hal_tim.c ****     default:
 683:Drivers/STM32F1xx_HAL_Driver/Src/stm32f1xx_hal_tim.c ****     break;
 1268              		.loc 1 683 0
 1269 0094 00BF     		nop
 1270              	.L57:
 684:Drivers/STM32F1xx_HAL_Driver/Src/stm32f1xx_hal_tim.c ****   }
 685:Drivers/STM32F1xx_HAL_Driver/Src/stm32f1xx_hal_tim.c **** 
 686:Drivers/STM32F1xx_HAL_Driver/Src/stm32f1xx_hal_tim.c ****   /* Enable the Output compare channel */
 687:Drivers/STM32F1xx_HAL_Driver/Src/stm32f1xx_hal_tim.c ****   TIM_CCxChannelCmd(htim->Instance, Channel, TIM_CCx_ENABLE);
 1271              		.loc 1 687 0
 1272 0096 7B68     		ldr	r3, [r7, #4]
 1273 0098 1B68     		ldr	r3, [r3]
 1274 009a 0122     		movs	r2, #1
 1275 009c 3968     		ldr	r1, [r7]
 1276 009e 1846     		mov	r0, r3
 1277 00a0 FFF7FEFF 		bl	TIM_CCxChannelCmd
 688:Drivers/STM32F1xx_HAL_Driver/Src/stm32f1xx_hal_tim.c **** 
 689:Drivers/STM32F1xx_HAL_Driver/Src/stm32f1xx_hal_tim.c ****   if(IS_TIM_BREAK_INSTANCE(htim->Instance) != RESET)
 1278              		.loc 1 689 0
 1279 00a4 7B68     		ldr	r3, [r7, #4]
 1280 00a6 1B68     		ldr	r3, [r3]
 1281 00a8 0B4A     		ldr	r2, .L61
 1282 00aa 9342     		cmp	r3, r2
ARM GAS  /tmp/cc5HGhWi.s 			page 35


 1283 00ac 07D1     		bne	.L58
 690:Drivers/STM32F1xx_HAL_Driver/Src/stm32f1xx_hal_tim.c ****   {
 691:Drivers/STM32F1xx_HAL_Driver/Src/stm32f1xx_hal_tim.c ****     /* Enable the main output */
 692:Drivers/STM32F1xx_HAL_Driver/Src/stm32f1xx_hal_tim.c ****     __HAL_TIM_MOE_ENABLE(htim);
 1284              		.loc 1 692 0
 1285 00ae 7B68     		ldr	r3, [r7, #4]
 1286 00b0 1B68     		ldr	r3, [r3]
 1287 00b2 5A6C     		ldr	r2, [r3, #68]
 1288 00b4 7B68     		ldr	r3, [r7, #4]
 1289 00b6 1B68     		ldr	r3, [r3]
 1290 00b8 42F40042 		orr	r2, r2, #32768
 1291 00bc 5A64     		str	r2, [r3, #68]
 1292              	.L58:
 693:Drivers/STM32F1xx_HAL_Driver/Src/stm32f1xx_hal_tim.c ****   }
 694:Drivers/STM32F1xx_HAL_Driver/Src/stm32f1xx_hal_tim.c **** 
 695:Drivers/STM32F1xx_HAL_Driver/Src/stm32f1xx_hal_tim.c ****   /* Enable the Peripheral */
 696:Drivers/STM32F1xx_HAL_Driver/Src/stm32f1xx_hal_tim.c ****   __HAL_TIM_ENABLE(htim);
 1293              		.loc 1 696 0
 1294 00be 7B68     		ldr	r3, [r7, #4]
 1295 00c0 1B68     		ldr	r3, [r3]
 1296 00c2 1A68     		ldr	r2, [r3]
 1297 00c4 7B68     		ldr	r3, [r7, #4]
 1298 00c6 1B68     		ldr	r3, [r3]
 1299 00c8 42F00102 		orr	r2, r2, #1
 1300 00cc 1A60     		str	r2, [r3]
 697:Drivers/STM32F1xx_HAL_Driver/Src/stm32f1xx_hal_tim.c **** 
 698:Drivers/STM32F1xx_HAL_Driver/Src/stm32f1xx_hal_tim.c ****   /* Return function status */
 699:Drivers/STM32F1xx_HAL_Driver/Src/stm32f1xx_hal_tim.c ****   return HAL_OK;
 1301              		.loc 1 699 0
 1302 00ce 0023     		movs	r3, #0
 700:Drivers/STM32F1xx_HAL_Driver/Src/stm32f1xx_hal_tim.c **** }
 1303              		.loc 1 700 0
 1304 00d0 1846     		mov	r0, r3
 1305 00d2 0837     		adds	r7, r7, #8
 1306              	.LCFI92:
 1307              		.cfi_def_cfa_offset 8
 1308 00d4 BD46     		mov	sp, r7
 1309              	.LCFI93:
 1310              		.cfi_def_cfa_register 13
 1311              		@ sp needed
 1312 00d6 80BD     		pop	{r7, pc}
 1313              	.L62:
 1314              		.align	2
 1315              	.L61:
 1316 00d8 002C0140 		.word	1073818624
 1317              		.cfi_endproc
 1318              	.LFE82:
 1320              		.section	.text.HAL_TIM_OC_Stop_IT,"ax",%progbits
 1321              		.align	1
 1322              		.global	HAL_TIM_OC_Stop_IT
 1323              		.syntax unified
 1324              		.thumb
 1325              		.thumb_func
 1326              		.fpu softvfp
 1328              	HAL_TIM_OC_Stop_IT:
 1329              	.LFB83:
 701:Drivers/STM32F1xx_HAL_Driver/Src/stm32f1xx_hal_tim.c **** 
ARM GAS  /tmp/cc5HGhWi.s 			page 36


 702:Drivers/STM32F1xx_HAL_Driver/Src/stm32f1xx_hal_tim.c **** /**
 703:Drivers/STM32F1xx_HAL_Driver/Src/stm32f1xx_hal_tim.c ****   * @brief  Stops the TIM Output Compare signal generation in interrupt mode.
 704:Drivers/STM32F1xx_HAL_Driver/Src/stm32f1xx_hal_tim.c ****   * @param  htim : TIM Output Compare handle
 705:Drivers/STM32F1xx_HAL_Driver/Src/stm32f1xx_hal_tim.c ****   * @param  Channel : TIM Channel to be disabled
 706:Drivers/STM32F1xx_HAL_Driver/Src/stm32f1xx_hal_tim.c ****   *          This parameter can be one of the following values:
 707:Drivers/STM32F1xx_HAL_Driver/Src/stm32f1xx_hal_tim.c ****   *            @arg TIM_CHANNEL_1: TIM Channel 1 selected
 708:Drivers/STM32F1xx_HAL_Driver/Src/stm32f1xx_hal_tim.c ****   *            @arg TIM_CHANNEL_2: TIM Channel 2 selected
 709:Drivers/STM32F1xx_HAL_Driver/Src/stm32f1xx_hal_tim.c ****   *            @arg TIM_CHANNEL_3: TIM Channel 3 selected
 710:Drivers/STM32F1xx_HAL_Driver/Src/stm32f1xx_hal_tim.c ****   *            @arg TIM_CHANNEL_4: TIM Channel 4 selected
 711:Drivers/STM32F1xx_HAL_Driver/Src/stm32f1xx_hal_tim.c ****   * @retval HAL status
 712:Drivers/STM32F1xx_HAL_Driver/Src/stm32f1xx_hal_tim.c **** */
 713:Drivers/STM32F1xx_HAL_Driver/Src/stm32f1xx_hal_tim.c **** HAL_StatusTypeDef HAL_TIM_OC_Stop_IT(TIM_HandleTypeDef *htim, uint32_t Channel)
 714:Drivers/STM32F1xx_HAL_Driver/Src/stm32f1xx_hal_tim.c **** {
 1330              		.loc 1 714 0
 1331              		.cfi_startproc
 1332              		@ args = 0, pretend = 0, frame = 8
 1333              		@ frame_needed = 1, uses_anonymous_args = 0
 1334 0000 80B5     		push	{r7, lr}
 1335              	.LCFI94:
 1336              		.cfi_def_cfa_offset 8
 1337              		.cfi_offset 7, -8
 1338              		.cfi_offset 14, -4
 1339 0002 82B0     		sub	sp, sp, #8
 1340              	.LCFI95:
 1341              		.cfi_def_cfa_offset 16
 1342 0004 00AF     		add	r7, sp, #0
 1343              	.LCFI96:
 1344              		.cfi_def_cfa_register 7
 1345 0006 7860     		str	r0, [r7, #4]
 1346 0008 3960     		str	r1, [r7]
 715:Drivers/STM32F1xx_HAL_Driver/Src/stm32f1xx_hal_tim.c ****   /* Check the parameters */
 716:Drivers/STM32F1xx_HAL_Driver/Src/stm32f1xx_hal_tim.c ****   assert_param(IS_TIM_CCX_INSTANCE(htim->Instance, Channel));
 717:Drivers/STM32F1xx_HAL_Driver/Src/stm32f1xx_hal_tim.c **** 
 718:Drivers/STM32F1xx_HAL_Driver/Src/stm32f1xx_hal_tim.c ****   switch (Channel)
 1347              		.loc 1 718 0
 1348 000a 3B68     		ldr	r3, [r7]
 1349 000c 0C2B     		cmp	r3, #12
 1350 000e 41D8     		bhi	.L74
 1351 0010 01A2     		adr	r2, .L66
 1352 0012 52F823F0 		ldr	pc, [r2, r3, lsl #2]
 1353 0016 00BF     		.p2align 2
 1354              	.L66:
 1355 0018 4D000000 		.word	.L65+1
 1356 001c 95000000 		.word	.L74+1
 1357 0020 95000000 		.word	.L74+1
 1358 0024 95000000 		.word	.L74+1
 1359 0028 5F000000 		.word	.L67+1
 1360 002c 95000000 		.word	.L74+1
 1361 0030 95000000 		.word	.L74+1
 1362 0034 95000000 		.word	.L74+1
 1363 0038 71000000 		.word	.L68+1
 1364 003c 95000000 		.word	.L74+1
 1365 0040 95000000 		.word	.L74+1
 1366 0044 95000000 		.word	.L74+1
 1367 0048 83000000 		.word	.L69+1
 1368              		.p2align 1
 1369              	.L65:
ARM GAS  /tmp/cc5HGhWi.s 			page 37


 719:Drivers/STM32F1xx_HAL_Driver/Src/stm32f1xx_hal_tim.c ****   {
 720:Drivers/STM32F1xx_HAL_Driver/Src/stm32f1xx_hal_tim.c ****     case TIM_CHANNEL_1:
 721:Drivers/STM32F1xx_HAL_Driver/Src/stm32f1xx_hal_tim.c ****     {
 722:Drivers/STM32F1xx_HAL_Driver/Src/stm32f1xx_hal_tim.c ****       /* Disable the TIM Capture/Compare 1 interrupt */
 723:Drivers/STM32F1xx_HAL_Driver/Src/stm32f1xx_hal_tim.c ****       __HAL_TIM_DISABLE_IT(htim, TIM_IT_CC1);
 1370              		.loc 1 723 0
 1371 004c 7B68     		ldr	r3, [r7, #4]
 1372 004e 1B68     		ldr	r3, [r3]
 1373 0050 DA68     		ldr	r2, [r3, #12]
 1374 0052 7B68     		ldr	r3, [r7, #4]
 1375 0054 1B68     		ldr	r3, [r3]
 1376 0056 22F00202 		bic	r2, r2, #2
 1377 005a DA60     		str	r2, [r3, #12]
 724:Drivers/STM32F1xx_HAL_Driver/Src/stm32f1xx_hal_tim.c ****     }
 725:Drivers/STM32F1xx_HAL_Driver/Src/stm32f1xx_hal_tim.c ****     break;
 1378              		.loc 1 725 0
 1379 005c 1BE0     		b	.L70
 1380              	.L67:
 726:Drivers/STM32F1xx_HAL_Driver/Src/stm32f1xx_hal_tim.c **** 
 727:Drivers/STM32F1xx_HAL_Driver/Src/stm32f1xx_hal_tim.c ****     case TIM_CHANNEL_2:
 728:Drivers/STM32F1xx_HAL_Driver/Src/stm32f1xx_hal_tim.c ****     {
 729:Drivers/STM32F1xx_HAL_Driver/Src/stm32f1xx_hal_tim.c ****       /* Disable the TIM Capture/Compare 2 interrupt */
 730:Drivers/STM32F1xx_HAL_Driver/Src/stm32f1xx_hal_tim.c ****       __HAL_TIM_DISABLE_IT(htim, TIM_IT_CC2);
 1381              		.loc 1 730 0
 1382 005e 7B68     		ldr	r3, [r7, #4]
 1383 0060 1B68     		ldr	r3, [r3]
 1384 0062 DA68     		ldr	r2, [r3, #12]
 1385 0064 7B68     		ldr	r3, [r7, #4]
 1386 0066 1B68     		ldr	r3, [r3]
 1387 0068 22F00402 		bic	r2, r2, #4
 1388 006c DA60     		str	r2, [r3, #12]
 731:Drivers/STM32F1xx_HAL_Driver/Src/stm32f1xx_hal_tim.c ****     }
 732:Drivers/STM32F1xx_HAL_Driver/Src/stm32f1xx_hal_tim.c ****     break;
 1389              		.loc 1 732 0
 1390 006e 12E0     		b	.L70
 1391              	.L68:
 733:Drivers/STM32F1xx_HAL_Driver/Src/stm32f1xx_hal_tim.c **** 
 734:Drivers/STM32F1xx_HAL_Driver/Src/stm32f1xx_hal_tim.c ****     case TIM_CHANNEL_3:
 735:Drivers/STM32F1xx_HAL_Driver/Src/stm32f1xx_hal_tim.c ****     {
 736:Drivers/STM32F1xx_HAL_Driver/Src/stm32f1xx_hal_tim.c ****       /* Disable the TIM Capture/Compare 3 interrupt */
 737:Drivers/STM32F1xx_HAL_Driver/Src/stm32f1xx_hal_tim.c ****       __HAL_TIM_DISABLE_IT(htim, TIM_IT_CC3);
 1392              		.loc 1 737 0
 1393 0070 7B68     		ldr	r3, [r7, #4]
 1394 0072 1B68     		ldr	r3, [r3]
 1395 0074 DA68     		ldr	r2, [r3, #12]
 1396 0076 7B68     		ldr	r3, [r7, #4]
 1397 0078 1B68     		ldr	r3, [r3]
 1398 007a 22F00802 		bic	r2, r2, #8
 1399 007e DA60     		str	r2, [r3, #12]
 738:Drivers/STM32F1xx_HAL_Driver/Src/stm32f1xx_hal_tim.c ****     }
 739:Drivers/STM32F1xx_HAL_Driver/Src/stm32f1xx_hal_tim.c ****     break;
 1400              		.loc 1 739 0
 1401 0080 09E0     		b	.L70
 1402              	.L69:
 740:Drivers/STM32F1xx_HAL_Driver/Src/stm32f1xx_hal_tim.c **** 
 741:Drivers/STM32F1xx_HAL_Driver/Src/stm32f1xx_hal_tim.c ****     case TIM_CHANNEL_4:
 742:Drivers/STM32F1xx_HAL_Driver/Src/stm32f1xx_hal_tim.c ****     {
ARM GAS  /tmp/cc5HGhWi.s 			page 38


 743:Drivers/STM32F1xx_HAL_Driver/Src/stm32f1xx_hal_tim.c ****       /* Disable the TIM Capture/Compare 4 interrupt */
 744:Drivers/STM32F1xx_HAL_Driver/Src/stm32f1xx_hal_tim.c ****       __HAL_TIM_DISABLE_IT(htim, TIM_IT_CC4);
 1403              		.loc 1 744 0
 1404 0082 7B68     		ldr	r3, [r7, #4]
 1405 0084 1B68     		ldr	r3, [r3]
 1406 0086 DA68     		ldr	r2, [r3, #12]
 1407 0088 7B68     		ldr	r3, [r7, #4]
 1408 008a 1B68     		ldr	r3, [r3]
 1409 008c 22F01002 		bic	r2, r2, #16
 1410 0090 DA60     		str	r2, [r3, #12]
 745:Drivers/STM32F1xx_HAL_Driver/Src/stm32f1xx_hal_tim.c ****     }
 746:Drivers/STM32F1xx_HAL_Driver/Src/stm32f1xx_hal_tim.c ****     break;
 1411              		.loc 1 746 0
 1412 0092 00E0     		b	.L70
 1413              	.L74:
 747:Drivers/STM32F1xx_HAL_Driver/Src/stm32f1xx_hal_tim.c **** 
 748:Drivers/STM32F1xx_HAL_Driver/Src/stm32f1xx_hal_tim.c ****     default:
 749:Drivers/STM32F1xx_HAL_Driver/Src/stm32f1xx_hal_tim.c ****     break;
 1414              		.loc 1 749 0
 1415 0094 00BF     		nop
 1416              	.L70:
 750:Drivers/STM32F1xx_HAL_Driver/Src/stm32f1xx_hal_tim.c ****   }
 751:Drivers/STM32F1xx_HAL_Driver/Src/stm32f1xx_hal_tim.c **** 
 752:Drivers/STM32F1xx_HAL_Driver/Src/stm32f1xx_hal_tim.c ****   /* Disable the Output compare channel */
 753:Drivers/STM32F1xx_HAL_Driver/Src/stm32f1xx_hal_tim.c ****   TIM_CCxChannelCmd(htim->Instance, Channel, TIM_CCx_DISABLE);
 1417              		.loc 1 753 0
 1418 0096 7B68     		ldr	r3, [r7, #4]
 1419 0098 1B68     		ldr	r3, [r3]
 1420 009a 0022     		movs	r2, #0
 1421 009c 3968     		ldr	r1, [r7]
 1422 009e 1846     		mov	r0, r3
 1423 00a0 FFF7FEFF 		bl	TIM_CCxChannelCmd
 754:Drivers/STM32F1xx_HAL_Driver/Src/stm32f1xx_hal_tim.c **** 
 755:Drivers/STM32F1xx_HAL_Driver/Src/stm32f1xx_hal_tim.c ****   if(IS_TIM_BREAK_INSTANCE(htim->Instance) != RESET)
 1424              		.loc 1 755 0
 1425 00a4 7B68     		ldr	r3, [r7, #4]
 1426 00a6 1B68     		ldr	r3, [r3]
 1427 00a8 1B4A     		ldr	r2, .L75
 1428 00aa 9342     		cmp	r3, r2
 1429 00ac 17D1     		bne	.L71
 756:Drivers/STM32F1xx_HAL_Driver/Src/stm32f1xx_hal_tim.c ****   {
 757:Drivers/STM32F1xx_HAL_Driver/Src/stm32f1xx_hal_tim.c ****     /* Disable the Main Ouput */
 758:Drivers/STM32F1xx_HAL_Driver/Src/stm32f1xx_hal_tim.c ****     __HAL_TIM_MOE_DISABLE(htim);
 1430              		.loc 1 758 0
 1431 00ae 7B68     		ldr	r3, [r7, #4]
 1432 00b0 1B68     		ldr	r3, [r3]
 1433 00b2 1A6A     		ldr	r2, [r3, #32]
 1434 00b4 41F21113 		movw	r3, #4369
 1435 00b8 1340     		ands	r3, r3, r2
 1436 00ba 002B     		cmp	r3, #0
 1437 00bc 0FD1     		bne	.L71
 1438              		.loc 1 758 0 is_stmt 0 discriminator 1
 1439 00be 7B68     		ldr	r3, [r7, #4]
 1440 00c0 1B68     		ldr	r3, [r3]
 1441 00c2 1A6A     		ldr	r2, [r3, #32]
 1442 00c4 40F24443 		movw	r3, #1092
 1443 00c8 1340     		ands	r3, r3, r2
ARM GAS  /tmp/cc5HGhWi.s 			page 39


 1444 00ca 002B     		cmp	r3, #0
 1445 00cc 07D1     		bne	.L71
 1446              		.loc 1 758 0 discriminator 2
 1447 00ce 7B68     		ldr	r3, [r7, #4]
 1448 00d0 1B68     		ldr	r3, [r3]
 1449 00d2 5A6C     		ldr	r2, [r3, #68]
 1450 00d4 7B68     		ldr	r3, [r7, #4]
 1451 00d6 1B68     		ldr	r3, [r3]
 1452 00d8 22F40042 		bic	r2, r2, #32768
 1453 00dc 5A64     		str	r2, [r3, #68]
 1454              	.L71:
 759:Drivers/STM32F1xx_HAL_Driver/Src/stm32f1xx_hal_tim.c ****   }
 760:Drivers/STM32F1xx_HAL_Driver/Src/stm32f1xx_hal_tim.c **** 
 761:Drivers/STM32F1xx_HAL_Driver/Src/stm32f1xx_hal_tim.c ****   /* Disable the Peripheral */
 762:Drivers/STM32F1xx_HAL_Driver/Src/stm32f1xx_hal_tim.c ****   __HAL_TIM_DISABLE(htim);
 1455              		.loc 1 762 0 is_stmt 1
 1456 00de 7B68     		ldr	r3, [r7, #4]
 1457 00e0 1B68     		ldr	r3, [r3]
 1458 00e2 1A6A     		ldr	r2, [r3, #32]
 1459 00e4 41F21113 		movw	r3, #4369
 1460 00e8 1340     		ands	r3, r3, r2
 1461 00ea 002B     		cmp	r3, #0
 1462 00ec 0FD1     		bne	.L72
 1463              		.loc 1 762 0 is_stmt 0 discriminator 1
 1464 00ee 7B68     		ldr	r3, [r7, #4]
 1465 00f0 1B68     		ldr	r3, [r3]
 1466 00f2 1A6A     		ldr	r2, [r3, #32]
 1467 00f4 40F24443 		movw	r3, #1092
 1468 00f8 1340     		ands	r3, r3, r2
 1469 00fa 002B     		cmp	r3, #0
 1470 00fc 07D1     		bne	.L72
 1471              		.loc 1 762 0 discriminator 2
 1472 00fe 7B68     		ldr	r3, [r7, #4]
 1473 0100 1B68     		ldr	r3, [r3]
 1474 0102 1A68     		ldr	r2, [r3]
 1475 0104 7B68     		ldr	r3, [r7, #4]
 1476 0106 1B68     		ldr	r3, [r3]
 1477 0108 22F00102 		bic	r2, r2, #1
 1478 010c 1A60     		str	r2, [r3]
 1479              	.L72:
 763:Drivers/STM32F1xx_HAL_Driver/Src/stm32f1xx_hal_tim.c **** 
 764:Drivers/STM32F1xx_HAL_Driver/Src/stm32f1xx_hal_tim.c ****   /* Return function status */
 765:Drivers/STM32F1xx_HAL_Driver/Src/stm32f1xx_hal_tim.c ****   return HAL_OK;
 1480              		.loc 1 765 0 is_stmt 1
 1481 010e 0023     		movs	r3, #0
 766:Drivers/STM32F1xx_HAL_Driver/Src/stm32f1xx_hal_tim.c **** }
 1482              		.loc 1 766 0
 1483 0110 1846     		mov	r0, r3
 1484 0112 0837     		adds	r7, r7, #8
 1485              	.LCFI97:
 1486              		.cfi_def_cfa_offset 8
 1487 0114 BD46     		mov	sp, r7
 1488              	.LCFI98:
 1489              		.cfi_def_cfa_register 13
 1490              		@ sp needed
 1491 0116 80BD     		pop	{r7, pc}
 1492              	.L76:
ARM GAS  /tmp/cc5HGhWi.s 			page 40


 1493              		.align	2
 1494              	.L75:
 1495 0118 002C0140 		.word	1073818624
 1496              		.cfi_endproc
 1497              	.LFE83:
 1499              		.section	.text.HAL_TIM_OC_Start_DMA,"ax",%progbits
 1500              		.align	1
 1501              		.global	HAL_TIM_OC_Start_DMA
 1502              		.syntax unified
 1503              		.thumb
 1504              		.thumb_func
 1505              		.fpu softvfp
 1507              	HAL_TIM_OC_Start_DMA:
 1508              	.LFB84:
 767:Drivers/STM32F1xx_HAL_Driver/Src/stm32f1xx_hal_tim.c **** 
 768:Drivers/STM32F1xx_HAL_Driver/Src/stm32f1xx_hal_tim.c **** /**
 769:Drivers/STM32F1xx_HAL_Driver/Src/stm32f1xx_hal_tim.c ****   * @brief  Starts the TIM Output Compare signal generation in DMA mode.
 770:Drivers/STM32F1xx_HAL_Driver/Src/stm32f1xx_hal_tim.c ****   * @param  htim : TIM Output Compare handle
 771:Drivers/STM32F1xx_HAL_Driver/Src/stm32f1xx_hal_tim.c ****   * @param  Channel : TIM Channel to be enabled
 772:Drivers/STM32F1xx_HAL_Driver/Src/stm32f1xx_hal_tim.c ****   *          This parameter can be one of the following values:
 773:Drivers/STM32F1xx_HAL_Driver/Src/stm32f1xx_hal_tim.c ****   *            @arg TIM_CHANNEL_1: TIM Channel 1 selected
 774:Drivers/STM32F1xx_HAL_Driver/Src/stm32f1xx_hal_tim.c ****   *            @arg TIM_CHANNEL_2: TIM Channel 2 selected
 775:Drivers/STM32F1xx_HAL_Driver/Src/stm32f1xx_hal_tim.c ****   *            @arg TIM_CHANNEL_3: TIM Channel 3 selected
 776:Drivers/STM32F1xx_HAL_Driver/Src/stm32f1xx_hal_tim.c ****   *            @arg TIM_CHANNEL_4: TIM Channel 4 selected
 777:Drivers/STM32F1xx_HAL_Driver/Src/stm32f1xx_hal_tim.c ****   * @param  pData : The source Buffer address.
 778:Drivers/STM32F1xx_HAL_Driver/Src/stm32f1xx_hal_tim.c ****   * @param  Length : The length of data to be transferred from memory to TIM peripheral
 779:Drivers/STM32F1xx_HAL_Driver/Src/stm32f1xx_hal_tim.c ****   * @retval HAL status
 780:Drivers/STM32F1xx_HAL_Driver/Src/stm32f1xx_hal_tim.c **** */
 781:Drivers/STM32F1xx_HAL_Driver/Src/stm32f1xx_hal_tim.c **** HAL_StatusTypeDef HAL_TIM_OC_Start_DMA(TIM_HandleTypeDef *htim, uint32_t Channel, uint32_t *pData, 
 782:Drivers/STM32F1xx_HAL_Driver/Src/stm32f1xx_hal_tim.c **** {
 1509              		.loc 1 782 0
 1510              		.cfi_startproc
 1511              		@ args = 0, pretend = 0, frame = 16
 1512              		@ frame_needed = 1, uses_anonymous_args = 0
 1513 0000 80B5     		push	{r7, lr}
 1514              	.LCFI99:
 1515              		.cfi_def_cfa_offset 8
 1516              		.cfi_offset 7, -8
 1517              		.cfi_offset 14, -4
 1518 0002 84B0     		sub	sp, sp, #16
 1519              	.LCFI100:
 1520              		.cfi_def_cfa_offset 24
 1521 0004 00AF     		add	r7, sp, #0
 1522              	.LCFI101:
 1523              		.cfi_def_cfa_register 7
 1524 0006 F860     		str	r0, [r7, #12]
 1525 0008 B960     		str	r1, [r7, #8]
 1526 000a 7A60     		str	r2, [r7, #4]
 1527 000c 7B80     		strh	r3, [r7, #2]	@ movhi
 783:Drivers/STM32F1xx_HAL_Driver/Src/stm32f1xx_hal_tim.c ****   /* Check the parameters */
 784:Drivers/STM32F1xx_HAL_Driver/Src/stm32f1xx_hal_tim.c ****   assert_param(IS_TIM_CCX_INSTANCE(htim->Instance, Channel));
 785:Drivers/STM32F1xx_HAL_Driver/Src/stm32f1xx_hal_tim.c **** 
 786:Drivers/STM32F1xx_HAL_Driver/Src/stm32f1xx_hal_tim.c ****   if((htim->State == HAL_TIM_STATE_BUSY))
 1528              		.loc 1 786 0
 1529 000e FB68     		ldr	r3, [r7, #12]
 1530 0010 93F83D30 		ldrb	r3, [r3, #61]
 1531 0014 DBB2     		uxtb	r3, r3
ARM GAS  /tmp/cc5HGhWi.s 			page 41


 1532 0016 022B     		cmp	r3, #2
 1533 0018 01D1     		bne	.L78
 787:Drivers/STM32F1xx_HAL_Driver/Src/stm32f1xx_hal_tim.c ****   {
 788:Drivers/STM32F1xx_HAL_Driver/Src/stm32f1xx_hal_tim.c ****      return HAL_BUSY;
 1534              		.loc 1 788 0
 1535 001a 0223     		movs	r3, #2
 1536 001c BCE0     		b	.L79
 1537              	.L78:
 789:Drivers/STM32F1xx_HAL_Driver/Src/stm32f1xx_hal_tim.c ****   }
 790:Drivers/STM32F1xx_HAL_Driver/Src/stm32f1xx_hal_tim.c ****   else if((htim->State == HAL_TIM_STATE_READY))
 1538              		.loc 1 790 0
 1539 001e FB68     		ldr	r3, [r7, #12]
 1540 0020 93F83D30 		ldrb	r3, [r3, #61]
 1541 0024 DBB2     		uxtb	r3, r3
 1542 0026 012B     		cmp	r3, #1
 1543 0028 0BD1     		bne	.L80
 791:Drivers/STM32F1xx_HAL_Driver/Src/stm32f1xx_hal_tim.c ****   {
 792:Drivers/STM32F1xx_HAL_Driver/Src/stm32f1xx_hal_tim.c ****     if(((uint32_t)pData == 0U) && (Length > 0U))
 1544              		.loc 1 792 0
 1545 002a 7B68     		ldr	r3, [r7, #4]
 1546 002c 002B     		cmp	r3, #0
 1547 002e 04D1     		bne	.L81
 1548              		.loc 1 792 0 is_stmt 0 discriminator 1
 1549 0030 7B88     		ldrh	r3, [r7, #2]
 1550 0032 002B     		cmp	r3, #0
 1551 0034 01D0     		beq	.L81
 793:Drivers/STM32F1xx_HAL_Driver/Src/stm32f1xx_hal_tim.c ****     {
 794:Drivers/STM32F1xx_HAL_Driver/Src/stm32f1xx_hal_tim.c ****       return HAL_ERROR;
 1552              		.loc 1 794 0 is_stmt 1
 1553 0036 0123     		movs	r3, #1
 1554 0038 AEE0     		b	.L79
 1555              	.L81:
 795:Drivers/STM32F1xx_HAL_Driver/Src/stm32f1xx_hal_tim.c ****     }
 796:Drivers/STM32F1xx_HAL_Driver/Src/stm32f1xx_hal_tim.c ****     else
 797:Drivers/STM32F1xx_HAL_Driver/Src/stm32f1xx_hal_tim.c ****     {
 798:Drivers/STM32F1xx_HAL_Driver/Src/stm32f1xx_hal_tim.c ****       htim->State = HAL_TIM_STATE_BUSY;
 1556              		.loc 1 798 0
 1557 003a FB68     		ldr	r3, [r7, #12]
 1558 003c 0222     		movs	r2, #2
 1559 003e 83F83D20 		strb	r2, [r3, #61]
 1560              	.L80:
 799:Drivers/STM32F1xx_HAL_Driver/Src/stm32f1xx_hal_tim.c ****     }
 800:Drivers/STM32F1xx_HAL_Driver/Src/stm32f1xx_hal_tim.c ****   }
 801:Drivers/STM32F1xx_HAL_Driver/Src/stm32f1xx_hal_tim.c ****   switch (Channel)
 1561              		.loc 1 801 0
 1562 0042 BB68     		ldr	r3, [r7, #8]
 1563 0044 0C2B     		cmp	r3, #12
 1564 0046 00F28980 		bhi	.L90
 1565 004a 01A2     		adr	r2, .L84
 1566 004c 52F823F0 		ldr	pc, [r2, r3, lsl #2]
 1567              		.p2align 2
 1568              	.L84:
 1569 0050 85000000 		.word	.L83+1
 1570 0054 5D010000 		.word	.L90+1
 1571 0058 5D010000 		.word	.L90+1
 1572 005c 5D010000 		.word	.L90+1
 1573 0060 BB000000 		.word	.L85+1
ARM GAS  /tmp/cc5HGhWi.s 			page 42


 1574 0064 5D010000 		.word	.L90+1
 1575 0068 5D010000 		.word	.L90+1
 1576 006c 5D010000 		.word	.L90+1
 1577 0070 F1000000 		.word	.L86+1
 1578 0074 5D010000 		.word	.L90+1
 1579 0078 5D010000 		.word	.L90+1
 1580 007c 5D010000 		.word	.L90+1
 1581 0080 27010000 		.word	.L87+1
 1582              		.p2align 1
 1583              	.L83:
 802:Drivers/STM32F1xx_HAL_Driver/Src/stm32f1xx_hal_tim.c ****   {
 803:Drivers/STM32F1xx_HAL_Driver/Src/stm32f1xx_hal_tim.c ****     case TIM_CHANNEL_1:
 804:Drivers/STM32F1xx_HAL_Driver/Src/stm32f1xx_hal_tim.c ****     {
 805:Drivers/STM32F1xx_HAL_Driver/Src/stm32f1xx_hal_tim.c ****       /* Set the DMA Period elapsed callback */
 806:Drivers/STM32F1xx_HAL_Driver/Src/stm32f1xx_hal_tim.c ****       htim->hdma[TIM_DMA_ID_CC1]->XferCpltCallback = TIM_DMADelayPulseCplt;
 1584              		.loc 1 806 0
 1585 0084 FB68     		ldr	r3, [r7, #12]
 1586 0086 5B6A     		ldr	r3, [r3, #36]
 1587 0088 454A     		ldr	r2, .L91
 1588 008a 9A62     		str	r2, [r3, #40]
 807:Drivers/STM32F1xx_HAL_Driver/Src/stm32f1xx_hal_tim.c **** 
 808:Drivers/STM32F1xx_HAL_Driver/Src/stm32f1xx_hal_tim.c ****       /* Set the DMA error callback */
 809:Drivers/STM32F1xx_HAL_Driver/Src/stm32f1xx_hal_tim.c ****       htim->hdma[TIM_DMA_ID_CC1]->XferErrorCallback = TIM_DMAError ;
 1589              		.loc 1 809 0
 1590 008c FB68     		ldr	r3, [r7, #12]
 1591 008e 5B6A     		ldr	r3, [r3, #36]
 1592 0090 444A     		ldr	r2, .L91+4
 1593 0092 1A63     		str	r2, [r3, #48]
 810:Drivers/STM32F1xx_HAL_Driver/Src/stm32f1xx_hal_tim.c **** 
 811:Drivers/STM32F1xx_HAL_Driver/Src/stm32f1xx_hal_tim.c ****       /* Enable the DMA channel */
 812:Drivers/STM32F1xx_HAL_Driver/Src/stm32f1xx_hal_tim.c ****       HAL_DMA_Start_IT(htim->hdma[TIM_DMA_ID_CC1], (uint32_t)pData, (uint32_t)&htim->Instance->CCR1
 1594              		.loc 1 812 0
 1595 0094 FB68     		ldr	r3, [r7, #12]
 1596 0096 586A     		ldr	r0, [r3, #36]
 1597 0098 7968     		ldr	r1, [r7, #4]
 1598 009a FB68     		ldr	r3, [r7, #12]
 1599 009c 1B68     		ldr	r3, [r3]
 1600 009e 3433     		adds	r3, r3, #52
 1601 00a0 1A46     		mov	r2, r3
 1602 00a2 7B88     		ldrh	r3, [r7, #2]
 1603 00a4 FFF7FEFF 		bl	HAL_DMA_Start_IT
 813:Drivers/STM32F1xx_HAL_Driver/Src/stm32f1xx_hal_tim.c **** 
 814:Drivers/STM32F1xx_HAL_Driver/Src/stm32f1xx_hal_tim.c ****       /* Enable the TIM Capture/Compare 1 DMA request */
 815:Drivers/STM32F1xx_HAL_Driver/Src/stm32f1xx_hal_tim.c ****       __HAL_TIM_ENABLE_DMA(htim, TIM_DMA_CC1);
 1604              		.loc 1 815 0
 1605 00a8 FB68     		ldr	r3, [r7, #12]
 1606 00aa 1B68     		ldr	r3, [r3]
 1607 00ac DA68     		ldr	r2, [r3, #12]
 1608 00ae FB68     		ldr	r3, [r7, #12]
 1609 00b0 1B68     		ldr	r3, [r3]
 1610 00b2 42F40072 		orr	r2, r2, #512
 1611 00b6 DA60     		str	r2, [r3, #12]
 816:Drivers/STM32F1xx_HAL_Driver/Src/stm32f1xx_hal_tim.c ****     }
 817:Drivers/STM32F1xx_HAL_Driver/Src/stm32f1xx_hal_tim.c ****     break;
 1612              		.loc 1 817 0
 1613 00b8 51E0     		b	.L88
 1614              	.L85:
ARM GAS  /tmp/cc5HGhWi.s 			page 43


 818:Drivers/STM32F1xx_HAL_Driver/Src/stm32f1xx_hal_tim.c **** 
 819:Drivers/STM32F1xx_HAL_Driver/Src/stm32f1xx_hal_tim.c ****     case TIM_CHANNEL_2:
 820:Drivers/STM32F1xx_HAL_Driver/Src/stm32f1xx_hal_tim.c ****     {
 821:Drivers/STM32F1xx_HAL_Driver/Src/stm32f1xx_hal_tim.c ****       /* Set the DMA Period elapsed callback */
 822:Drivers/STM32F1xx_HAL_Driver/Src/stm32f1xx_hal_tim.c ****       htim->hdma[TIM_DMA_ID_CC2]->XferCpltCallback = TIM_DMADelayPulseCplt;
 1615              		.loc 1 822 0
 1616 00ba FB68     		ldr	r3, [r7, #12]
 1617 00bc 9B6A     		ldr	r3, [r3, #40]
 1618 00be 384A     		ldr	r2, .L91
 1619 00c0 9A62     		str	r2, [r3, #40]
 823:Drivers/STM32F1xx_HAL_Driver/Src/stm32f1xx_hal_tim.c **** 
 824:Drivers/STM32F1xx_HAL_Driver/Src/stm32f1xx_hal_tim.c ****       /* Set the DMA error callback */
 825:Drivers/STM32F1xx_HAL_Driver/Src/stm32f1xx_hal_tim.c ****       htim->hdma[TIM_DMA_ID_CC2]->XferErrorCallback = TIM_DMAError ;
 1620              		.loc 1 825 0
 1621 00c2 FB68     		ldr	r3, [r7, #12]
 1622 00c4 9B6A     		ldr	r3, [r3, #40]
 1623 00c6 374A     		ldr	r2, .L91+4
 1624 00c8 1A63     		str	r2, [r3, #48]
 826:Drivers/STM32F1xx_HAL_Driver/Src/stm32f1xx_hal_tim.c **** 
 827:Drivers/STM32F1xx_HAL_Driver/Src/stm32f1xx_hal_tim.c ****       /* Enable the DMA channel */
 828:Drivers/STM32F1xx_HAL_Driver/Src/stm32f1xx_hal_tim.c ****       HAL_DMA_Start_IT(htim->hdma[TIM_DMA_ID_CC2], (uint32_t)pData, (uint32_t)&htim->Instance->CCR2
 1625              		.loc 1 828 0
 1626 00ca FB68     		ldr	r3, [r7, #12]
 1627 00cc 986A     		ldr	r0, [r3, #40]
 1628 00ce 7968     		ldr	r1, [r7, #4]
 1629 00d0 FB68     		ldr	r3, [r7, #12]
 1630 00d2 1B68     		ldr	r3, [r3]
 1631 00d4 3833     		adds	r3, r3, #56
 1632 00d6 1A46     		mov	r2, r3
 1633 00d8 7B88     		ldrh	r3, [r7, #2]
 1634 00da FFF7FEFF 		bl	HAL_DMA_Start_IT
 829:Drivers/STM32F1xx_HAL_Driver/Src/stm32f1xx_hal_tim.c **** 
 830:Drivers/STM32F1xx_HAL_Driver/Src/stm32f1xx_hal_tim.c ****       /* Enable the TIM Capture/Compare 2 DMA request */
 831:Drivers/STM32F1xx_HAL_Driver/Src/stm32f1xx_hal_tim.c ****       __HAL_TIM_ENABLE_DMA(htim, TIM_DMA_CC2);
 1635              		.loc 1 831 0
 1636 00de FB68     		ldr	r3, [r7, #12]
 1637 00e0 1B68     		ldr	r3, [r3]
 1638 00e2 DA68     		ldr	r2, [r3, #12]
 1639 00e4 FB68     		ldr	r3, [r7, #12]
 1640 00e6 1B68     		ldr	r3, [r3]
 1641 00e8 42F48062 		orr	r2, r2, #1024
 1642 00ec DA60     		str	r2, [r3, #12]
 832:Drivers/STM32F1xx_HAL_Driver/Src/stm32f1xx_hal_tim.c ****     }
 833:Drivers/STM32F1xx_HAL_Driver/Src/stm32f1xx_hal_tim.c ****     break;
 1643              		.loc 1 833 0
 1644 00ee 36E0     		b	.L88
 1645              	.L86:
 834:Drivers/STM32F1xx_HAL_Driver/Src/stm32f1xx_hal_tim.c **** 
 835:Drivers/STM32F1xx_HAL_Driver/Src/stm32f1xx_hal_tim.c ****     case TIM_CHANNEL_3:
 836:Drivers/STM32F1xx_HAL_Driver/Src/stm32f1xx_hal_tim.c ****     {
 837:Drivers/STM32F1xx_HAL_Driver/Src/stm32f1xx_hal_tim.c ****       /* Set the DMA Period elapsed callback */
 838:Drivers/STM32F1xx_HAL_Driver/Src/stm32f1xx_hal_tim.c ****       htim->hdma[TIM_DMA_ID_CC3]->XferCpltCallback = TIM_DMADelayPulseCplt;
 1646              		.loc 1 838 0
 1647 00f0 FB68     		ldr	r3, [r7, #12]
 1648 00f2 DB6A     		ldr	r3, [r3, #44]
 1649 00f4 2A4A     		ldr	r2, .L91
 1650 00f6 9A62     		str	r2, [r3, #40]
ARM GAS  /tmp/cc5HGhWi.s 			page 44


 839:Drivers/STM32F1xx_HAL_Driver/Src/stm32f1xx_hal_tim.c **** 
 840:Drivers/STM32F1xx_HAL_Driver/Src/stm32f1xx_hal_tim.c ****       /* Set the DMA error callback */
 841:Drivers/STM32F1xx_HAL_Driver/Src/stm32f1xx_hal_tim.c ****       htim->hdma[TIM_DMA_ID_CC3]->XferErrorCallback = TIM_DMAError ;
 1651              		.loc 1 841 0
 1652 00f8 FB68     		ldr	r3, [r7, #12]
 1653 00fa DB6A     		ldr	r3, [r3, #44]
 1654 00fc 294A     		ldr	r2, .L91+4
 1655 00fe 1A63     		str	r2, [r3, #48]
 842:Drivers/STM32F1xx_HAL_Driver/Src/stm32f1xx_hal_tim.c **** 
 843:Drivers/STM32F1xx_HAL_Driver/Src/stm32f1xx_hal_tim.c ****       /* Enable the DMA channel */
 844:Drivers/STM32F1xx_HAL_Driver/Src/stm32f1xx_hal_tim.c ****       HAL_DMA_Start_IT(htim->hdma[TIM_DMA_ID_CC3], (uint32_t)pData, (uint32_t)&htim->Instance->CCR3
 1656              		.loc 1 844 0
 1657 0100 FB68     		ldr	r3, [r7, #12]
 1658 0102 D86A     		ldr	r0, [r3, #44]
 1659 0104 7968     		ldr	r1, [r7, #4]
 1660 0106 FB68     		ldr	r3, [r7, #12]
 1661 0108 1B68     		ldr	r3, [r3]
 1662 010a 3C33     		adds	r3, r3, #60
 1663 010c 1A46     		mov	r2, r3
 1664 010e 7B88     		ldrh	r3, [r7, #2]
 1665 0110 FFF7FEFF 		bl	HAL_DMA_Start_IT
 845:Drivers/STM32F1xx_HAL_Driver/Src/stm32f1xx_hal_tim.c **** 
 846:Drivers/STM32F1xx_HAL_Driver/Src/stm32f1xx_hal_tim.c ****       /* Enable the TIM Capture/Compare 3 DMA request */
 847:Drivers/STM32F1xx_HAL_Driver/Src/stm32f1xx_hal_tim.c ****       __HAL_TIM_ENABLE_DMA(htim, TIM_DMA_CC3);
 1666              		.loc 1 847 0
 1667 0114 FB68     		ldr	r3, [r7, #12]
 1668 0116 1B68     		ldr	r3, [r3]
 1669 0118 DA68     		ldr	r2, [r3, #12]
 1670 011a FB68     		ldr	r3, [r7, #12]
 1671 011c 1B68     		ldr	r3, [r3]
 1672 011e 42F40062 		orr	r2, r2, #2048
 1673 0122 DA60     		str	r2, [r3, #12]
 848:Drivers/STM32F1xx_HAL_Driver/Src/stm32f1xx_hal_tim.c ****     }
 849:Drivers/STM32F1xx_HAL_Driver/Src/stm32f1xx_hal_tim.c ****     break;
 1674              		.loc 1 849 0
 1675 0124 1BE0     		b	.L88
 1676              	.L87:
 850:Drivers/STM32F1xx_HAL_Driver/Src/stm32f1xx_hal_tim.c **** 
 851:Drivers/STM32F1xx_HAL_Driver/Src/stm32f1xx_hal_tim.c ****     case TIM_CHANNEL_4:
 852:Drivers/STM32F1xx_HAL_Driver/Src/stm32f1xx_hal_tim.c ****     {
 853:Drivers/STM32F1xx_HAL_Driver/Src/stm32f1xx_hal_tim.c ****      /* Set the DMA Period elapsed callback */
 854:Drivers/STM32F1xx_HAL_Driver/Src/stm32f1xx_hal_tim.c ****       htim->hdma[TIM_DMA_ID_CC4]->XferCpltCallback = TIM_DMADelayPulseCplt;
 1677              		.loc 1 854 0
 1678 0126 FB68     		ldr	r3, [r7, #12]
 1679 0128 1B6B     		ldr	r3, [r3, #48]
 1680 012a 1D4A     		ldr	r2, .L91
 1681 012c 9A62     		str	r2, [r3, #40]
 855:Drivers/STM32F1xx_HAL_Driver/Src/stm32f1xx_hal_tim.c **** 
 856:Drivers/STM32F1xx_HAL_Driver/Src/stm32f1xx_hal_tim.c ****       /* Set the DMA error callback */
 857:Drivers/STM32F1xx_HAL_Driver/Src/stm32f1xx_hal_tim.c ****       htim->hdma[TIM_DMA_ID_CC4]->XferErrorCallback = TIM_DMAError ;
 1682              		.loc 1 857 0
 1683 012e FB68     		ldr	r3, [r7, #12]
 1684 0130 1B6B     		ldr	r3, [r3, #48]
 1685 0132 1C4A     		ldr	r2, .L91+4
 1686 0134 1A63     		str	r2, [r3, #48]
 858:Drivers/STM32F1xx_HAL_Driver/Src/stm32f1xx_hal_tim.c **** 
 859:Drivers/STM32F1xx_HAL_Driver/Src/stm32f1xx_hal_tim.c ****       /* Enable the DMA channel */
ARM GAS  /tmp/cc5HGhWi.s 			page 45


 860:Drivers/STM32F1xx_HAL_Driver/Src/stm32f1xx_hal_tim.c ****       HAL_DMA_Start_IT(htim->hdma[TIM_DMA_ID_CC4], (uint32_t)pData, (uint32_t)&htim->Instance->CCR4
 1687              		.loc 1 860 0
 1688 0136 FB68     		ldr	r3, [r7, #12]
 1689 0138 186B     		ldr	r0, [r3, #48]
 1690 013a 7968     		ldr	r1, [r7, #4]
 1691 013c FB68     		ldr	r3, [r7, #12]
 1692 013e 1B68     		ldr	r3, [r3]
 1693 0140 4033     		adds	r3, r3, #64
 1694 0142 1A46     		mov	r2, r3
 1695 0144 7B88     		ldrh	r3, [r7, #2]
 1696 0146 FFF7FEFF 		bl	HAL_DMA_Start_IT
 861:Drivers/STM32F1xx_HAL_Driver/Src/stm32f1xx_hal_tim.c **** 
 862:Drivers/STM32F1xx_HAL_Driver/Src/stm32f1xx_hal_tim.c ****       /* Enable the TIM Capture/Compare 4 DMA request */
 863:Drivers/STM32F1xx_HAL_Driver/Src/stm32f1xx_hal_tim.c ****       __HAL_TIM_ENABLE_DMA(htim, TIM_DMA_CC4);
 1697              		.loc 1 863 0
 1698 014a FB68     		ldr	r3, [r7, #12]
 1699 014c 1B68     		ldr	r3, [r3]
 1700 014e DA68     		ldr	r2, [r3, #12]
 1701 0150 FB68     		ldr	r3, [r7, #12]
 1702 0152 1B68     		ldr	r3, [r3]
 1703 0154 42F48052 		orr	r2, r2, #4096
 1704 0158 DA60     		str	r2, [r3, #12]
 864:Drivers/STM32F1xx_HAL_Driver/Src/stm32f1xx_hal_tim.c ****     }
 865:Drivers/STM32F1xx_HAL_Driver/Src/stm32f1xx_hal_tim.c ****     break;
 1705              		.loc 1 865 0
 1706 015a 00E0     		b	.L88
 1707              	.L90:
 866:Drivers/STM32F1xx_HAL_Driver/Src/stm32f1xx_hal_tim.c **** 
 867:Drivers/STM32F1xx_HAL_Driver/Src/stm32f1xx_hal_tim.c ****     default:
 868:Drivers/STM32F1xx_HAL_Driver/Src/stm32f1xx_hal_tim.c ****     break;
 1708              		.loc 1 868 0
 1709 015c 00BF     		nop
 1710              	.L88:
 869:Drivers/STM32F1xx_HAL_Driver/Src/stm32f1xx_hal_tim.c ****   }
 870:Drivers/STM32F1xx_HAL_Driver/Src/stm32f1xx_hal_tim.c **** 
 871:Drivers/STM32F1xx_HAL_Driver/Src/stm32f1xx_hal_tim.c ****   /* Enable the Output compare channel */
 872:Drivers/STM32F1xx_HAL_Driver/Src/stm32f1xx_hal_tim.c ****   TIM_CCxChannelCmd(htim->Instance, Channel, TIM_CCx_ENABLE);
 1711              		.loc 1 872 0
 1712 015e FB68     		ldr	r3, [r7, #12]
 1713 0160 1B68     		ldr	r3, [r3]
 1714 0162 0122     		movs	r2, #1
 1715 0164 B968     		ldr	r1, [r7, #8]
 1716 0166 1846     		mov	r0, r3
 1717 0168 FFF7FEFF 		bl	TIM_CCxChannelCmd
 873:Drivers/STM32F1xx_HAL_Driver/Src/stm32f1xx_hal_tim.c **** 
 874:Drivers/STM32F1xx_HAL_Driver/Src/stm32f1xx_hal_tim.c ****   if(IS_TIM_BREAK_INSTANCE(htim->Instance) != RESET)
 1718              		.loc 1 874 0
 1719 016c FB68     		ldr	r3, [r7, #12]
 1720 016e 1B68     		ldr	r3, [r3]
 1721 0170 0D4A     		ldr	r2, .L91+8
 1722 0172 9342     		cmp	r3, r2
 1723 0174 07D1     		bne	.L89
 875:Drivers/STM32F1xx_HAL_Driver/Src/stm32f1xx_hal_tim.c ****   {
 876:Drivers/STM32F1xx_HAL_Driver/Src/stm32f1xx_hal_tim.c ****     /* Enable the main output */
 877:Drivers/STM32F1xx_HAL_Driver/Src/stm32f1xx_hal_tim.c ****     __HAL_TIM_MOE_ENABLE(htim);
 1724              		.loc 1 877 0
 1725 0176 FB68     		ldr	r3, [r7, #12]
ARM GAS  /tmp/cc5HGhWi.s 			page 46


 1726 0178 1B68     		ldr	r3, [r3]
 1727 017a 5A6C     		ldr	r2, [r3, #68]
 1728 017c FB68     		ldr	r3, [r7, #12]
 1729 017e 1B68     		ldr	r3, [r3]
 1730 0180 42F40042 		orr	r2, r2, #32768
 1731 0184 5A64     		str	r2, [r3, #68]
 1732              	.L89:
 878:Drivers/STM32F1xx_HAL_Driver/Src/stm32f1xx_hal_tim.c ****   }
 879:Drivers/STM32F1xx_HAL_Driver/Src/stm32f1xx_hal_tim.c **** 
 880:Drivers/STM32F1xx_HAL_Driver/Src/stm32f1xx_hal_tim.c ****   /* Enable the Peripheral */
 881:Drivers/STM32F1xx_HAL_Driver/Src/stm32f1xx_hal_tim.c ****   __HAL_TIM_ENABLE(htim);
 1733              		.loc 1 881 0
 1734 0186 FB68     		ldr	r3, [r7, #12]
 1735 0188 1B68     		ldr	r3, [r3]
 1736 018a 1A68     		ldr	r2, [r3]
 1737 018c FB68     		ldr	r3, [r7, #12]
 1738 018e 1B68     		ldr	r3, [r3]
 1739 0190 42F00102 		orr	r2, r2, #1
 1740 0194 1A60     		str	r2, [r3]
 882:Drivers/STM32F1xx_HAL_Driver/Src/stm32f1xx_hal_tim.c **** 
 883:Drivers/STM32F1xx_HAL_Driver/Src/stm32f1xx_hal_tim.c ****   /* Return function status */
 884:Drivers/STM32F1xx_HAL_Driver/Src/stm32f1xx_hal_tim.c ****   return HAL_OK;
 1741              		.loc 1 884 0
 1742 0196 0023     		movs	r3, #0
 1743              	.L79:
 885:Drivers/STM32F1xx_HAL_Driver/Src/stm32f1xx_hal_tim.c **** }
 1744              		.loc 1 885 0
 1745 0198 1846     		mov	r0, r3
 1746 019a 1037     		adds	r7, r7, #16
 1747              	.LCFI102:
 1748              		.cfi_def_cfa_offset 8
 1749 019c BD46     		mov	sp, r7
 1750              	.LCFI103:
 1751              		.cfi_def_cfa_register 13
 1752              		@ sp needed
 1753 019e 80BD     		pop	{r7, pc}
 1754              	.L92:
 1755              		.align	2
 1756              	.L91:
 1757 01a0 00000000 		.word	TIM_DMADelayPulseCplt
 1758 01a4 00000000 		.word	TIM_DMAError
 1759 01a8 002C0140 		.word	1073818624
 1760              		.cfi_endproc
 1761              	.LFE84:
 1763              		.section	.text.HAL_TIM_OC_Stop_DMA,"ax",%progbits
 1764              		.align	1
 1765              		.global	HAL_TIM_OC_Stop_DMA
 1766              		.syntax unified
 1767              		.thumb
 1768              		.thumb_func
 1769              		.fpu softvfp
 1771              	HAL_TIM_OC_Stop_DMA:
 1772              	.LFB85:
 886:Drivers/STM32F1xx_HAL_Driver/Src/stm32f1xx_hal_tim.c **** 
 887:Drivers/STM32F1xx_HAL_Driver/Src/stm32f1xx_hal_tim.c **** /**
 888:Drivers/STM32F1xx_HAL_Driver/Src/stm32f1xx_hal_tim.c ****   * @brief  Stops the TIM Output Compare signal generation in DMA mode.
 889:Drivers/STM32F1xx_HAL_Driver/Src/stm32f1xx_hal_tim.c ****   * @param  htim : TIM Output Compare handle
ARM GAS  /tmp/cc5HGhWi.s 			page 47


 890:Drivers/STM32F1xx_HAL_Driver/Src/stm32f1xx_hal_tim.c ****   * @param  Channel : TIM Channel to be disabled
 891:Drivers/STM32F1xx_HAL_Driver/Src/stm32f1xx_hal_tim.c ****   *          This parameter can be one of the following values:
 892:Drivers/STM32F1xx_HAL_Driver/Src/stm32f1xx_hal_tim.c ****   *            @arg TIM_CHANNEL_1: TIM Channel 1 selected
 893:Drivers/STM32F1xx_HAL_Driver/Src/stm32f1xx_hal_tim.c ****   *            @arg TIM_CHANNEL_2: TIM Channel 2 selected
 894:Drivers/STM32F1xx_HAL_Driver/Src/stm32f1xx_hal_tim.c ****   *            @arg TIM_CHANNEL_3: TIM Channel 3 selected
 895:Drivers/STM32F1xx_HAL_Driver/Src/stm32f1xx_hal_tim.c ****   *            @arg TIM_CHANNEL_4: TIM Channel 4 selected
 896:Drivers/STM32F1xx_HAL_Driver/Src/stm32f1xx_hal_tim.c ****   * @retval HAL status
 897:Drivers/STM32F1xx_HAL_Driver/Src/stm32f1xx_hal_tim.c **** */
 898:Drivers/STM32F1xx_HAL_Driver/Src/stm32f1xx_hal_tim.c **** HAL_StatusTypeDef HAL_TIM_OC_Stop_DMA(TIM_HandleTypeDef *htim, uint32_t Channel)
 899:Drivers/STM32F1xx_HAL_Driver/Src/stm32f1xx_hal_tim.c **** {
 1773              		.loc 1 899 0
 1774              		.cfi_startproc
 1775              		@ args = 0, pretend = 0, frame = 8
 1776              		@ frame_needed = 1, uses_anonymous_args = 0
 1777 0000 80B5     		push	{r7, lr}
 1778              	.LCFI104:
 1779              		.cfi_def_cfa_offset 8
 1780              		.cfi_offset 7, -8
 1781              		.cfi_offset 14, -4
 1782 0002 82B0     		sub	sp, sp, #8
 1783              	.LCFI105:
 1784              		.cfi_def_cfa_offset 16
 1785 0004 00AF     		add	r7, sp, #0
 1786              	.LCFI106:
 1787              		.cfi_def_cfa_register 7
 1788 0006 7860     		str	r0, [r7, #4]
 1789 0008 3960     		str	r1, [r7]
 900:Drivers/STM32F1xx_HAL_Driver/Src/stm32f1xx_hal_tim.c ****   /* Check the parameters */
 901:Drivers/STM32F1xx_HAL_Driver/Src/stm32f1xx_hal_tim.c ****   assert_param(IS_TIM_CCX_INSTANCE(htim->Instance, Channel));
 902:Drivers/STM32F1xx_HAL_Driver/Src/stm32f1xx_hal_tim.c **** 
 903:Drivers/STM32F1xx_HAL_Driver/Src/stm32f1xx_hal_tim.c ****   switch (Channel)
 1790              		.loc 1 903 0
 1791 000a 3B68     		ldr	r3, [r7]
 1792 000c 0C2B     		cmp	r3, #12
 1793 000e 41D8     		bhi	.L104
 1794 0010 01A2     		adr	r2, .L96
 1795 0012 52F823F0 		ldr	pc, [r2, r3, lsl #2]
 1796 0016 00BF     		.p2align 2
 1797              	.L96:
 1798 0018 4D000000 		.word	.L95+1
 1799 001c 95000000 		.word	.L104+1
 1800 0020 95000000 		.word	.L104+1
 1801 0024 95000000 		.word	.L104+1
 1802 0028 5F000000 		.word	.L97+1
 1803 002c 95000000 		.word	.L104+1
 1804 0030 95000000 		.word	.L104+1
 1805 0034 95000000 		.word	.L104+1
 1806 0038 71000000 		.word	.L98+1
 1807 003c 95000000 		.word	.L104+1
 1808 0040 95000000 		.word	.L104+1
 1809 0044 95000000 		.word	.L104+1
 1810 0048 83000000 		.word	.L99+1
 1811              		.p2align 1
 1812              	.L95:
 904:Drivers/STM32F1xx_HAL_Driver/Src/stm32f1xx_hal_tim.c ****   {
 905:Drivers/STM32F1xx_HAL_Driver/Src/stm32f1xx_hal_tim.c ****     case TIM_CHANNEL_1:
 906:Drivers/STM32F1xx_HAL_Driver/Src/stm32f1xx_hal_tim.c ****     {
ARM GAS  /tmp/cc5HGhWi.s 			page 48


 907:Drivers/STM32F1xx_HAL_Driver/Src/stm32f1xx_hal_tim.c ****       /* Disable the TIM Capture/Compare 1 DMA request */
 908:Drivers/STM32F1xx_HAL_Driver/Src/stm32f1xx_hal_tim.c ****       __HAL_TIM_DISABLE_DMA(htim, TIM_DMA_CC1);
 1813              		.loc 1 908 0
 1814 004c 7B68     		ldr	r3, [r7, #4]
 1815 004e 1B68     		ldr	r3, [r3]
 1816 0050 DA68     		ldr	r2, [r3, #12]
 1817 0052 7B68     		ldr	r3, [r7, #4]
 1818 0054 1B68     		ldr	r3, [r3]
 1819 0056 22F40072 		bic	r2, r2, #512
 1820 005a DA60     		str	r2, [r3, #12]
 909:Drivers/STM32F1xx_HAL_Driver/Src/stm32f1xx_hal_tim.c ****     }
 910:Drivers/STM32F1xx_HAL_Driver/Src/stm32f1xx_hal_tim.c ****     break;
 1821              		.loc 1 910 0
 1822 005c 1BE0     		b	.L100
 1823              	.L97:
 911:Drivers/STM32F1xx_HAL_Driver/Src/stm32f1xx_hal_tim.c **** 
 912:Drivers/STM32F1xx_HAL_Driver/Src/stm32f1xx_hal_tim.c ****     case TIM_CHANNEL_2:
 913:Drivers/STM32F1xx_HAL_Driver/Src/stm32f1xx_hal_tim.c ****     {
 914:Drivers/STM32F1xx_HAL_Driver/Src/stm32f1xx_hal_tim.c ****       /* Disable the TIM Capture/Compare 2 DMA request */
 915:Drivers/STM32F1xx_HAL_Driver/Src/stm32f1xx_hal_tim.c ****       __HAL_TIM_DISABLE_DMA(htim, TIM_DMA_CC2);
 1824              		.loc 1 915 0
 1825 005e 7B68     		ldr	r3, [r7, #4]
 1826 0060 1B68     		ldr	r3, [r3]
 1827 0062 DA68     		ldr	r2, [r3, #12]
 1828 0064 7B68     		ldr	r3, [r7, #4]
 1829 0066 1B68     		ldr	r3, [r3]
 1830 0068 22F48062 		bic	r2, r2, #1024
 1831 006c DA60     		str	r2, [r3, #12]
 916:Drivers/STM32F1xx_HAL_Driver/Src/stm32f1xx_hal_tim.c ****     }
 917:Drivers/STM32F1xx_HAL_Driver/Src/stm32f1xx_hal_tim.c ****     break;
 1832              		.loc 1 917 0
 1833 006e 12E0     		b	.L100
 1834              	.L98:
 918:Drivers/STM32F1xx_HAL_Driver/Src/stm32f1xx_hal_tim.c **** 
 919:Drivers/STM32F1xx_HAL_Driver/Src/stm32f1xx_hal_tim.c ****     case TIM_CHANNEL_3:
 920:Drivers/STM32F1xx_HAL_Driver/Src/stm32f1xx_hal_tim.c ****     {
 921:Drivers/STM32F1xx_HAL_Driver/Src/stm32f1xx_hal_tim.c ****       /* Disable the TIM Capture/Compare 3 DMA request */
 922:Drivers/STM32F1xx_HAL_Driver/Src/stm32f1xx_hal_tim.c ****       __HAL_TIM_DISABLE_DMA(htim, TIM_DMA_CC3);
 1835              		.loc 1 922 0
 1836 0070 7B68     		ldr	r3, [r7, #4]
 1837 0072 1B68     		ldr	r3, [r3]
 1838 0074 DA68     		ldr	r2, [r3, #12]
 1839 0076 7B68     		ldr	r3, [r7, #4]
 1840 0078 1B68     		ldr	r3, [r3]
 1841 007a 22F40062 		bic	r2, r2, #2048
 1842 007e DA60     		str	r2, [r3, #12]
 923:Drivers/STM32F1xx_HAL_Driver/Src/stm32f1xx_hal_tim.c ****     }
 924:Drivers/STM32F1xx_HAL_Driver/Src/stm32f1xx_hal_tim.c ****     break;
 1843              		.loc 1 924 0
 1844 0080 09E0     		b	.L100
 1845              	.L99:
 925:Drivers/STM32F1xx_HAL_Driver/Src/stm32f1xx_hal_tim.c **** 
 926:Drivers/STM32F1xx_HAL_Driver/Src/stm32f1xx_hal_tim.c ****     case TIM_CHANNEL_4:
 927:Drivers/STM32F1xx_HAL_Driver/Src/stm32f1xx_hal_tim.c ****     {
 928:Drivers/STM32F1xx_HAL_Driver/Src/stm32f1xx_hal_tim.c ****       /* Disable the TIM Capture/Compare 4 interrupt */
 929:Drivers/STM32F1xx_HAL_Driver/Src/stm32f1xx_hal_tim.c ****       __HAL_TIM_DISABLE_DMA(htim, TIM_DMA_CC4);
 1846              		.loc 1 929 0
ARM GAS  /tmp/cc5HGhWi.s 			page 49


 1847 0082 7B68     		ldr	r3, [r7, #4]
 1848 0084 1B68     		ldr	r3, [r3]
 1849 0086 DA68     		ldr	r2, [r3, #12]
 1850 0088 7B68     		ldr	r3, [r7, #4]
 1851 008a 1B68     		ldr	r3, [r3]
 1852 008c 22F48052 		bic	r2, r2, #4096
 1853 0090 DA60     		str	r2, [r3, #12]
 930:Drivers/STM32F1xx_HAL_Driver/Src/stm32f1xx_hal_tim.c ****     }
 931:Drivers/STM32F1xx_HAL_Driver/Src/stm32f1xx_hal_tim.c ****     break;
 1854              		.loc 1 931 0
 1855 0092 00E0     		b	.L100
 1856              	.L104:
 932:Drivers/STM32F1xx_HAL_Driver/Src/stm32f1xx_hal_tim.c **** 
 933:Drivers/STM32F1xx_HAL_Driver/Src/stm32f1xx_hal_tim.c ****     default:
 934:Drivers/STM32F1xx_HAL_Driver/Src/stm32f1xx_hal_tim.c ****     break;
 1857              		.loc 1 934 0
 1858 0094 00BF     		nop
 1859              	.L100:
 935:Drivers/STM32F1xx_HAL_Driver/Src/stm32f1xx_hal_tim.c ****   }
 936:Drivers/STM32F1xx_HAL_Driver/Src/stm32f1xx_hal_tim.c **** 
 937:Drivers/STM32F1xx_HAL_Driver/Src/stm32f1xx_hal_tim.c ****   /* Disable the Output compare channel */
 938:Drivers/STM32F1xx_HAL_Driver/Src/stm32f1xx_hal_tim.c ****   TIM_CCxChannelCmd(htim->Instance, Channel, TIM_CCx_DISABLE);
 1860              		.loc 1 938 0
 1861 0096 7B68     		ldr	r3, [r7, #4]
 1862 0098 1B68     		ldr	r3, [r3]
 1863 009a 0022     		movs	r2, #0
 1864 009c 3968     		ldr	r1, [r7]
 1865 009e 1846     		mov	r0, r3
 1866 00a0 FFF7FEFF 		bl	TIM_CCxChannelCmd
 939:Drivers/STM32F1xx_HAL_Driver/Src/stm32f1xx_hal_tim.c **** 
 940:Drivers/STM32F1xx_HAL_Driver/Src/stm32f1xx_hal_tim.c ****   if(IS_TIM_BREAK_INSTANCE(htim->Instance) != RESET)
 1867              		.loc 1 940 0
 1868 00a4 7B68     		ldr	r3, [r7, #4]
 1869 00a6 1B68     		ldr	r3, [r3]
 1870 00a8 1D4A     		ldr	r2, .L105
 1871 00aa 9342     		cmp	r3, r2
 1872 00ac 17D1     		bne	.L101
 941:Drivers/STM32F1xx_HAL_Driver/Src/stm32f1xx_hal_tim.c ****   {
 942:Drivers/STM32F1xx_HAL_Driver/Src/stm32f1xx_hal_tim.c ****     /* Disable the Main Ouput */
 943:Drivers/STM32F1xx_HAL_Driver/Src/stm32f1xx_hal_tim.c ****     __HAL_TIM_MOE_DISABLE(htim);
 1873              		.loc 1 943 0
 1874 00ae 7B68     		ldr	r3, [r7, #4]
 1875 00b0 1B68     		ldr	r3, [r3]
 1876 00b2 1A6A     		ldr	r2, [r3, #32]
 1877 00b4 41F21113 		movw	r3, #4369
 1878 00b8 1340     		ands	r3, r3, r2
 1879 00ba 002B     		cmp	r3, #0
 1880 00bc 0FD1     		bne	.L101
 1881              		.loc 1 943 0 is_stmt 0 discriminator 1
 1882 00be 7B68     		ldr	r3, [r7, #4]
 1883 00c0 1B68     		ldr	r3, [r3]
 1884 00c2 1A6A     		ldr	r2, [r3, #32]
 1885 00c4 40F24443 		movw	r3, #1092
 1886 00c8 1340     		ands	r3, r3, r2
 1887 00ca 002B     		cmp	r3, #0
 1888 00cc 07D1     		bne	.L101
 1889              		.loc 1 943 0 discriminator 2
ARM GAS  /tmp/cc5HGhWi.s 			page 50


 1890 00ce 7B68     		ldr	r3, [r7, #4]
 1891 00d0 1B68     		ldr	r3, [r3]
 1892 00d2 5A6C     		ldr	r2, [r3, #68]
 1893 00d4 7B68     		ldr	r3, [r7, #4]
 1894 00d6 1B68     		ldr	r3, [r3]
 1895 00d8 22F40042 		bic	r2, r2, #32768
 1896 00dc 5A64     		str	r2, [r3, #68]
 1897              	.L101:
 944:Drivers/STM32F1xx_HAL_Driver/Src/stm32f1xx_hal_tim.c ****   }
 945:Drivers/STM32F1xx_HAL_Driver/Src/stm32f1xx_hal_tim.c **** 
 946:Drivers/STM32F1xx_HAL_Driver/Src/stm32f1xx_hal_tim.c ****   /* Disable the Peripheral */
 947:Drivers/STM32F1xx_HAL_Driver/Src/stm32f1xx_hal_tim.c ****   __HAL_TIM_DISABLE(htim);
 1898              		.loc 1 947 0 is_stmt 1
 1899 00de 7B68     		ldr	r3, [r7, #4]
 1900 00e0 1B68     		ldr	r3, [r3]
 1901 00e2 1A6A     		ldr	r2, [r3, #32]
 1902 00e4 41F21113 		movw	r3, #4369
 1903 00e8 1340     		ands	r3, r3, r2
 1904 00ea 002B     		cmp	r3, #0
 1905 00ec 0FD1     		bne	.L102
 1906              		.loc 1 947 0 is_stmt 0 discriminator 1
 1907 00ee 7B68     		ldr	r3, [r7, #4]
 1908 00f0 1B68     		ldr	r3, [r3]
 1909 00f2 1A6A     		ldr	r2, [r3, #32]
 1910 00f4 40F24443 		movw	r3, #1092
 1911 00f8 1340     		ands	r3, r3, r2
 1912 00fa 002B     		cmp	r3, #0
 1913 00fc 07D1     		bne	.L102
 1914              		.loc 1 947 0 discriminator 2
 1915 00fe 7B68     		ldr	r3, [r7, #4]
 1916 0100 1B68     		ldr	r3, [r3]
 1917 0102 1A68     		ldr	r2, [r3]
 1918 0104 7B68     		ldr	r3, [r7, #4]
 1919 0106 1B68     		ldr	r3, [r3]
 1920 0108 22F00102 		bic	r2, r2, #1
 1921 010c 1A60     		str	r2, [r3]
 1922              	.L102:
 948:Drivers/STM32F1xx_HAL_Driver/Src/stm32f1xx_hal_tim.c **** 
 949:Drivers/STM32F1xx_HAL_Driver/Src/stm32f1xx_hal_tim.c ****   /* Change the htim state */
 950:Drivers/STM32F1xx_HAL_Driver/Src/stm32f1xx_hal_tim.c ****   htim->State = HAL_TIM_STATE_READY;
 1923              		.loc 1 950 0 is_stmt 1
 1924 010e 7B68     		ldr	r3, [r7, #4]
 1925 0110 0122     		movs	r2, #1
 1926 0112 83F83D20 		strb	r2, [r3, #61]
 951:Drivers/STM32F1xx_HAL_Driver/Src/stm32f1xx_hal_tim.c **** 
 952:Drivers/STM32F1xx_HAL_Driver/Src/stm32f1xx_hal_tim.c ****   /* Return function status */
 953:Drivers/STM32F1xx_HAL_Driver/Src/stm32f1xx_hal_tim.c ****   return HAL_OK;
 1927              		.loc 1 953 0
 1928 0116 0023     		movs	r3, #0
 954:Drivers/STM32F1xx_HAL_Driver/Src/stm32f1xx_hal_tim.c **** }
 1929              		.loc 1 954 0
 1930 0118 1846     		mov	r0, r3
 1931 011a 0837     		adds	r7, r7, #8
 1932              	.LCFI107:
 1933              		.cfi_def_cfa_offset 8
 1934 011c BD46     		mov	sp, r7
 1935              	.LCFI108:
ARM GAS  /tmp/cc5HGhWi.s 			page 51


 1936              		.cfi_def_cfa_register 13
 1937              		@ sp needed
 1938 011e 80BD     		pop	{r7, pc}
 1939              	.L106:
 1940              		.align	2
 1941              	.L105:
 1942 0120 002C0140 		.word	1073818624
 1943              		.cfi_endproc
 1944              	.LFE85:
 1946              		.section	.text.HAL_TIM_PWM_Init,"ax",%progbits
 1947              		.align	1
 1948              		.global	HAL_TIM_PWM_Init
 1949              		.syntax unified
 1950              		.thumb
 1951              		.thumb_func
 1952              		.fpu softvfp
 1954              	HAL_TIM_PWM_Init:
 1955              	.LFB86:
 955:Drivers/STM32F1xx_HAL_Driver/Src/stm32f1xx_hal_tim.c **** 
 956:Drivers/STM32F1xx_HAL_Driver/Src/stm32f1xx_hal_tim.c **** /**
 957:Drivers/STM32F1xx_HAL_Driver/Src/stm32f1xx_hal_tim.c ****   * @}
 958:Drivers/STM32F1xx_HAL_Driver/Src/stm32f1xx_hal_tim.c ****   */
 959:Drivers/STM32F1xx_HAL_Driver/Src/stm32f1xx_hal_tim.c **** 
 960:Drivers/STM32F1xx_HAL_Driver/Src/stm32f1xx_hal_tim.c **** /** @defgroup TIM_Exported_Functions_Group3 Time PWM functions 
 961:Drivers/STM32F1xx_HAL_Driver/Src/stm32f1xx_hal_tim.c ****  *  @brief    Time PWM functions 
 962:Drivers/STM32F1xx_HAL_Driver/Src/stm32f1xx_hal_tim.c ****  *
 963:Drivers/STM32F1xx_HAL_Driver/Src/stm32f1xx_hal_tim.c **** @verbatim 
 964:Drivers/STM32F1xx_HAL_Driver/Src/stm32f1xx_hal_tim.c ****   ==============================================================================
 965:Drivers/STM32F1xx_HAL_Driver/Src/stm32f1xx_hal_tim.c ****                           ##### Time PWM functions #####
 966:Drivers/STM32F1xx_HAL_Driver/Src/stm32f1xx_hal_tim.c ****   ==============================================================================
 967:Drivers/STM32F1xx_HAL_Driver/Src/stm32f1xx_hal_tim.c ****   [..]
 968:Drivers/STM32F1xx_HAL_Driver/Src/stm32f1xx_hal_tim.c ****     This section provides functions allowing to:
 969:Drivers/STM32F1xx_HAL_Driver/Src/stm32f1xx_hal_tim.c ****     (+) Initialize and configure the TIM PWM.
 970:Drivers/STM32F1xx_HAL_Driver/Src/stm32f1xx_hal_tim.c ****     (+) De-initialize the TIM PWM.
 971:Drivers/STM32F1xx_HAL_Driver/Src/stm32f1xx_hal_tim.c ****     (+) Start the Time PWM.
 972:Drivers/STM32F1xx_HAL_Driver/Src/stm32f1xx_hal_tim.c ****     (+) Stop the Time PWM.
 973:Drivers/STM32F1xx_HAL_Driver/Src/stm32f1xx_hal_tim.c ****     (+) Start the Time PWM and enable interrupt.
 974:Drivers/STM32F1xx_HAL_Driver/Src/stm32f1xx_hal_tim.c ****     (+) Stop the Time PWM and disable interrupt.
 975:Drivers/STM32F1xx_HAL_Driver/Src/stm32f1xx_hal_tim.c ****     (+) Start the Time PWM and enable DMA transfer.
 976:Drivers/STM32F1xx_HAL_Driver/Src/stm32f1xx_hal_tim.c ****     (+) Stop the Time PWM and disable DMA transfer.
 977:Drivers/STM32F1xx_HAL_Driver/Src/stm32f1xx_hal_tim.c **** 
 978:Drivers/STM32F1xx_HAL_Driver/Src/stm32f1xx_hal_tim.c **** @endverbatim
 979:Drivers/STM32F1xx_HAL_Driver/Src/stm32f1xx_hal_tim.c ****   * @{
 980:Drivers/STM32F1xx_HAL_Driver/Src/stm32f1xx_hal_tim.c ****   */
 981:Drivers/STM32F1xx_HAL_Driver/Src/stm32f1xx_hal_tim.c **** /**
 982:Drivers/STM32F1xx_HAL_Driver/Src/stm32f1xx_hal_tim.c ****   * @brief  Initializes the TIM PWM Time Base according to the specified
 983:Drivers/STM32F1xx_HAL_Driver/Src/stm32f1xx_hal_tim.c ****   *         parameters in the TIM_HandleTypeDef and create the associated handle.
 984:Drivers/STM32F1xx_HAL_Driver/Src/stm32f1xx_hal_tim.c ****   * @param  htim : TIM handle
 985:Drivers/STM32F1xx_HAL_Driver/Src/stm32f1xx_hal_tim.c ****   * @retval HAL status
 986:Drivers/STM32F1xx_HAL_Driver/Src/stm32f1xx_hal_tim.c ****   */
 987:Drivers/STM32F1xx_HAL_Driver/Src/stm32f1xx_hal_tim.c **** HAL_StatusTypeDef HAL_TIM_PWM_Init(TIM_HandleTypeDef *htim)
 988:Drivers/STM32F1xx_HAL_Driver/Src/stm32f1xx_hal_tim.c **** {
 1956              		.loc 1 988 0
 1957              		.cfi_startproc
 1958              		@ args = 0, pretend = 0, frame = 8
 1959              		@ frame_needed = 1, uses_anonymous_args = 0
 1960 0000 80B5     		push	{r7, lr}
ARM GAS  /tmp/cc5HGhWi.s 			page 52


 1961              	.LCFI109:
 1962              		.cfi_def_cfa_offset 8
 1963              		.cfi_offset 7, -8
 1964              		.cfi_offset 14, -4
 1965 0002 82B0     		sub	sp, sp, #8
 1966              	.LCFI110:
 1967              		.cfi_def_cfa_offset 16
 1968 0004 00AF     		add	r7, sp, #0
 1969              	.LCFI111:
 1970              		.cfi_def_cfa_register 7
 1971 0006 7860     		str	r0, [r7, #4]
 989:Drivers/STM32F1xx_HAL_Driver/Src/stm32f1xx_hal_tim.c ****   /* Check the TIM handle allocation */
 990:Drivers/STM32F1xx_HAL_Driver/Src/stm32f1xx_hal_tim.c ****   if(htim == NULL)
 1972              		.loc 1 990 0
 1973 0008 7B68     		ldr	r3, [r7, #4]
 1974 000a 002B     		cmp	r3, #0
 1975 000c 01D1     		bne	.L108
 991:Drivers/STM32F1xx_HAL_Driver/Src/stm32f1xx_hal_tim.c ****   {
 992:Drivers/STM32F1xx_HAL_Driver/Src/stm32f1xx_hal_tim.c ****     return HAL_ERROR;
 1976              		.loc 1 992 0
 1977 000e 0123     		movs	r3, #1
 1978 0010 1DE0     		b	.L109
 1979              	.L108:
 993:Drivers/STM32F1xx_HAL_Driver/Src/stm32f1xx_hal_tim.c ****   }
 994:Drivers/STM32F1xx_HAL_Driver/Src/stm32f1xx_hal_tim.c **** 
 995:Drivers/STM32F1xx_HAL_Driver/Src/stm32f1xx_hal_tim.c ****   /* Check the parameters */
 996:Drivers/STM32F1xx_HAL_Driver/Src/stm32f1xx_hal_tim.c ****   assert_param(IS_TIM_INSTANCE(htim->Instance));
 997:Drivers/STM32F1xx_HAL_Driver/Src/stm32f1xx_hal_tim.c ****   assert_param(IS_TIM_COUNTER_MODE(htim->Init.CounterMode));
 998:Drivers/STM32F1xx_HAL_Driver/Src/stm32f1xx_hal_tim.c ****   assert_param(IS_TIM_CLOCKDIVISION_DIV(htim->Init.ClockDivision));
 999:Drivers/STM32F1xx_HAL_Driver/Src/stm32f1xx_hal_tim.c ****   assert_param(IS_TIM_AUTORELOAD_PRELOAD(htim->Init.AutoReloadPreload));
1000:Drivers/STM32F1xx_HAL_Driver/Src/stm32f1xx_hal_tim.c **** 
1001:Drivers/STM32F1xx_HAL_Driver/Src/stm32f1xx_hal_tim.c ****   if(htim->State == HAL_TIM_STATE_RESET)
 1980              		.loc 1 1001 0
 1981 0012 7B68     		ldr	r3, [r7, #4]
 1982 0014 93F83D30 		ldrb	r3, [r3, #61]
 1983 0018 DBB2     		uxtb	r3, r3
 1984 001a 002B     		cmp	r3, #0
 1985 001c 06D1     		bne	.L110
1002:Drivers/STM32F1xx_HAL_Driver/Src/stm32f1xx_hal_tim.c ****   {
1003:Drivers/STM32F1xx_HAL_Driver/Src/stm32f1xx_hal_tim.c ****     /* Allocate lock resource and initialize it */
1004:Drivers/STM32F1xx_HAL_Driver/Src/stm32f1xx_hal_tim.c ****     htim->Lock = HAL_UNLOCKED;
 1986              		.loc 1 1004 0
 1987 001e 7B68     		ldr	r3, [r7, #4]
 1988 0020 0022     		movs	r2, #0
 1989 0022 83F83C20 		strb	r2, [r3, #60]
1005:Drivers/STM32F1xx_HAL_Driver/Src/stm32f1xx_hal_tim.c ****     
1006:Drivers/STM32F1xx_HAL_Driver/Src/stm32f1xx_hal_tim.c ****     /* Init the low level hardware : GPIO, CLOCK, NVIC and DMA */
1007:Drivers/STM32F1xx_HAL_Driver/Src/stm32f1xx_hal_tim.c ****     HAL_TIM_PWM_MspInit(htim);
 1990              		.loc 1 1007 0
 1991 0026 7868     		ldr	r0, [r7, #4]
 1992 0028 FFF7FEFF 		bl	HAL_TIM_PWM_MspInit
 1993              	.L110:
1008:Drivers/STM32F1xx_HAL_Driver/Src/stm32f1xx_hal_tim.c ****   }
1009:Drivers/STM32F1xx_HAL_Driver/Src/stm32f1xx_hal_tim.c **** 
1010:Drivers/STM32F1xx_HAL_Driver/Src/stm32f1xx_hal_tim.c ****   /* Set the TIM state */
1011:Drivers/STM32F1xx_HAL_Driver/Src/stm32f1xx_hal_tim.c ****   htim->State= HAL_TIM_STATE_BUSY;
 1994              		.loc 1 1011 0
ARM GAS  /tmp/cc5HGhWi.s 			page 53


 1995 002c 7B68     		ldr	r3, [r7, #4]
 1996 002e 0222     		movs	r2, #2
 1997 0030 83F83D20 		strb	r2, [r3, #61]
1012:Drivers/STM32F1xx_HAL_Driver/Src/stm32f1xx_hal_tim.c **** 
1013:Drivers/STM32F1xx_HAL_Driver/Src/stm32f1xx_hal_tim.c ****   /* Init the base time for the PWM */
1014:Drivers/STM32F1xx_HAL_Driver/Src/stm32f1xx_hal_tim.c ****   TIM_Base_SetConfig(htim->Instance, &htim->Init);
 1998              		.loc 1 1014 0
 1999 0034 7B68     		ldr	r3, [r7, #4]
 2000 0036 1A68     		ldr	r2, [r3]
 2001 0038 7B68     		ldr	r3, [r7, #4]
 2002 003a 0433     		adds	r3, r3, #4
 2003 003c 1946     		mov	r1, r3
 2004 003e 1046     		mov	r0, r2
 2005 0040 FFF7FEFF 		bl	TIM_Base_SetConfig
1015:Drivers/STM32F1xx_HAL_Driver/Src/stm32f1xx_hal_tim.c **** 
1016:Drivers/STM32F1xx_HAL_Driver/Src/stm32f1xx_hal_tim.c ****   /* Initialize the TIM state*/
1017:Drivers/STM32F1xx_HAL_Driver/Src/stm32f1xx_hal_tim.c ****   htim->State= HAL_TIM_STATE_READY;
 2006              		.loc 1 1017 0
 2007 0044 7B68     		ldr	r3, [r7, #4]
 2008 0046 0122     		movs	r2, #1
 2009 0048 83F83D20 		strb	r2, [r3, #61]
1018:Drivers/STM32F1xx_HAL_Driver/Src/stm32f1xx_hal_tim.c **** 
1019:Drivers/STM32F1xx_HAL_Driver/Src/stm32f1xx_hal_tim.c ****   return HAL_OK;
 2010              		.loc 1 1019 0
 2011 004c 0023     		movs	r3, #0
 2012              	.L109:
1020:Drivers/STM32F1xx_HAL_Driver/Src/stm32f1xx_hal_tim.c **** }
 2013              		.loc 1 1020 0
 2014 004e 1846     		mov	r0, r3
 2015 0050 0837     		adds	r7, r7, #8
 2016              	.LCFI112:
 2017              		.cfi_def_cfa_offset 8
 2018 0052 BD46     		mov	sp, r7
 2019              	.LCFI113:
 2020              		.cfi_def_cfa_register 13
 2021              		@ sp needed
 2022 0054 80BD     		pop	{r7, pc}
 2023              		.cfi_endproc
 2024              	.LFE86:
 2026              		.section	.text.HAL_TIM_PWM_DeInit,"ax",%progbits
 2027              		.align	1
 2028              		.global	HAL_TIM_PWM_DeInit
 2029              		.syntax unified
 2030              		.thumb
 2031              		.thumb_func
 2032              		.fpu softvfp
 2034              	HAL_TIM_PWM_DeInit:
 2035              	.LFB87:
1021:Drivers/STM32F1xx_HAL_Driver/Src/stm32f1xx_hal_tim.c **** 
1022:Drivers/STM32F1xx_HAL_Driver/Src/stm32f1xx_hal_tim.c **** /**
1023:Drivers/STM32F1xx_HAL_Driver/Src/stm32f1xx_hal_tim.c ****   * @brief  DeInitializes the TIM peripheral 
1024:Drivers/STM32F1xx_HAL_Driver/Src/stm32f1xx_hal_tim.c ****   * @param  htim : TIM handle
1025:Drivers/STM32F1xx_HAL_Driver/Src/stm32f1xx_hal_tim.c ****   * @retval HAL status
1026:Drivers/STM32F1xx_HAL_Driver/Src/stm32f1xx_hal_tim.c ****   */
1027:Drivers/STM32F1xx_HAL_Driver/Src/stm32f1xx_hal_tim.c **** HAL_StatusTypeDef HAL_TIM_PWM_DeInit(TIM_HandleTypeDef *htim)
1028:Drivers/STM32F1xx_HAL_Driver/Src/stm32f1xx_hal_tim.c **** {
 2036              		.loc 1 1028 0
ARM GAS  /tmp/cc5HGhWi.s 			page 54


 2037              		.cfi_startproc
 2038              		@ args = 0, pretend = 0, frame = 8
 2039              		@ frame_needed = 1, uses_anonymous_args = 0
 2040 0000 80B5     		push	{r7, lr}
 2041              	.LCFI114:
 2042              		.cfi_def_cfa_offset 8
 2043              		.cfi_offset 7, -8
 2044              		.cfi_offset 14, -4
 2045 0002 82B0     		sub	sp, sp, #8
 2046              	.LCFI115:
 2047              		.cfi_def_cfa_offset 16
 2048 0004 00AF     		add	r7, sp, #0
 2049              	.LCFI116:
 2050              		.cfi_def_cfa_register 7
 2051 0006 7860     		str	r0, [r7, #4]
1029:Drivers/STM32F1xx_HAL_Driver/Src/stm32f1xx_hal_tim.c ****   /* Check the parameters */
1030:Drivers/STM32F1xx_HAL_Driver/Src/stm32f1xx_hal_tim.c ****   assert_param(IS_TIM_INSTANCE(htim->Instance));
1031:Drivers/STM32F1xx_HAL_Driver/Src/stm32f1xx_hal_tim.c **** 
1032:Drivers/STM32F1xx_HAL_Driver/Src/stm32f1xx_hal_tim.c ****   htim->State = HAL_TIM_STATE_BUSY;
 2052              		.loc 1 1032 0
 2053 0008 7B68     		ldr	r3, [r7, #4]
 2054 000a 0222     		movs	r2, #2
 2055 000c 83F83D20 		strb	r2, [r3, #61]
1033:Drivers/STM32F1xx_HAL_Driver/Src/stm32f1xx_hal_tim.c **** 
1034:Drivers/STM32F1xx_HAL_Driver/Src/stm32f1xx_hal_tim.c ****   /* Disable the TIM Peripheral Clock */
1035:Drivers/STM32F1xx_HAL_Driver/Src/stm32f1xx_hal_tim.c ****   __HAL_TIM_DISABLE(htim);
 2056              		.loc 1 1035 0
 2057 0010 7B68     		ldr	r3, [r7, #4]
 2058 0012 1B68     		ldr	r3, [r3]
 2059 0014 1A6A     		ldr	r2, [r3, #32]
 2060 0016 41F21113 		movw	r3, #4369
 2061 001a 1340     		ands	r3, r3, r2
 2062 001c 002B     		cmp	r3, #0
 2063 001e 0FD1     		bne	.L112
 2064              		.loc 1 1035 0 is_stmt 0 discriminator 1
 2065 0020 7B68     		ldr	r3, [r7, #4]
 2066 0022 1B68     		ldr	r3, [r3]
 2067 0024 1A6A     		ldr	r2, [r3, #32]
 2068 0026 40F24443 		movw	r3, #1092
 2069 002a 1340     		ands	r3, r3, r2
 2070 002c 002B     		cmp	r3, #0
 2071 002e 07D1     		bne	.L112
 2072              		.loc 1 1035 0 discriminator 2
 2073 0030 7B68     		ldr	r3, [r7, #4]
 2074 0032 1B68     		ldr	r3, [r3]
 2075 0034 1A68     		ldr	r2, [r3]
 2076 0036 7B68     		ldr	r3, [r7, #4]
 2077 0038 1B68     		ldr	r3, [r3]
 2078 003a 22F00102 		bic	r2, r2, #1
 2079 003e 1A60     		str	r2, [r3]
 2080              	.L112:
1036:Drivers/STM32F1xx_HAL_Driver/Src/stm32f1xx_hal_tim.c **** 
1037:Drivers/STM32F1xx_HAL_Driver/Src/stm32f1xx_hal_tim.c ****   /* DeInit the low level hardware: GPIO, CLOCK, NVIC and DMA */
1038:Drivers/STM32F1xx_HAL_Driver/Src/stm32f1xx_hal_tim.c ****   HAL_TIM_PWM_MspDeInit(htim);
 2081              		.loc 1 1038 0 is_stmt 1
 2082 0040 7868     		ldr	r0, [r7, #4]
 2083 0042 FFF7FEFF 		bl	HAL_TIM_PWM_MspDeInit
ARM GAS  /tmp/cc5HGhWi.s 			page 55


1039:Drivers/STM32F1xx_HAL_Driver/Src/stm32f1xx_hal_tim.c **** 
1040:Drivers/STM32F1xx_HAL_Driver/Src/stm32f1xx_hal_tim.c ****   /* Change TIM state */
1041:Drivers/STM32F1xx_HAL_Driver/Src/stm32f1xx_hal_tim.c ****   htim->State = HAL_TIM_STATE_RESET;
 2084              		.loc 1 1041 0
 2085 0046 7B68     		ldr	r3, [r7, #4]
 2086 0048 0022     		movs	r2, #0
 2087 004a 83F83D20 		strb	r2, [r3, #61]
1042:Drivers/STM32F1xx_HAL_Driver/Src/stm32f1xx_hal_tim.c **** 
1043:Drivers/STM32F1xx_HAL_Driver/Src/stm32f1xx_hal_tim.c ****   /* Release Lock */
1044:Drivers/STM32F1xx_HAL_Driver/Src/stm32f1xx_hal_tim.c ****   __HAL_UNLOCK(htim);
 2088              		.loc 1 1044 0
 2089 004e 7B68     		ldr	r3, [r7, #4]
 2090 0050 0022     		movs	r2, #0
 2091 0052 83F83C20 		strb	r2, [r3, #60]
1045:Drivers/STM32F1xx_HAL_Driver/Src/stm32f1xx_hal_tim.c **** 
1046:Drivers/STM32F1xx_HAL_Driver/Src/stm32f1xx_hal_tim.c ****   return HAL_OK;
 2092              		.loc 1 1046 0
 2093 0056 0023     		movs	r3, #0
1047:Drivers/STM32F1xx_HAL_Driver/Src/stm32f1xx_hal_tim.c **** }
 2094              		.loc 1 1047 0
 2095 0058 1846     		mov	r0, r3
 2096 005a 0837     		adds	r7, r7, #8
 2097              	.LCFI117:
 2098              		.cfi_def_cfa_offset 8
 2099 005c BD46     		mov	sp, r7
 2100              	.LCFI118:
 2101              		.cfi_def_cfa_register 13
 2102              		@ sp needed
 2103 005e 80BD     		pop	{r7, pc}
 2104              		.cfi_endproc
 2105              	.LFE87:
 2107              		.section	.text.HAL_TIM_PWM_MspInit,"ax",%progbits
 2108              		.align	1
 2109              		.weak	HAL_TIM_PWM_MspInit
 2110              		.syntax unified
 2111              		.thumb
 2112              		.thumb_func
 2113              		.fpu softvfp
 2115              	HAL_TIM_PWM_MspInit:
 2116              	.LFB88:
1048:Drivers/STM32F1xx_HAL_Driver/Src/stm32f1xx_hal_tim.c **** 
1049:Drivers/STM32F1xx_HAL_Driver/Src/stm32f1xx_hal_tim.c **** /**
1050:Drivers/STM32F1xx_HAL_Driver/Src/stm32f1xx_hal_tim.c ****   * @brief  Initializes the TIM PWM MSP.
1051:Drivers/STM32F1xx_HAL_Driver/Src/stm32f1xx_hal_tim.c ****   * @param  htim : TIM handle
1052:Drivers/STM32F1xx_HAL_Driver/Src/stm32f1xx_hal_tim.c ****   * @retval None
1053:Drivers/STM32F1xx_HAL_Driver/Src/stm32f1xx_hal_tim.c ****   */
1054:Drivers/STM32F1xx_HAL_Driver/Src/stm32f1xx_hal_tim.c **** __weak void HAL_TIM_PWM_MspInit(TIM_HandleTypeDef *htim)
1055:Drivers/STM32F1xx_HAL_Driver/Src/stm32f1xx_hal_tim.c **** {
 2117              		.loc 1 1055 0
 2118              		.cfi_startproc
 2119              		@ args = 0, pretend = 0, frame = 8
 2120              		@ frame_needed = 1, uses_anonymous_args = 0
 2121              		@ link register save eliminated.
 2122 0000 80B4     		push	{r7}
 2123              	.LCFI119:
 2124              		.cfi_def_cfa_offset 4
 2125              		.cfi_offset 7, -4
ARM GAS  /tmp/cc5HGhWi.s 			page 56


 2126 0002 83B0     		sub	sp, sp, #12
 2127              	.LCFI120:
 2128              		.cfi_def_cfa_offset 16
 2129 0004 00AF     		add	r7, sp, #0
 2130              	.LCFI121:
 2131              		.cfi_def_cfa_register 7
 2132 0006 7860     		str	r0, [r7, #4]
1056:Drivers/STM32F1xx_HAL_Driver/Src/stm32f1xx_hal_tim.c ****   /* Prevent unused argument(s) compilation warning */
1057:Drivers/STM32F1xx_HAL_Driver/Src/stm32f1xx_hal_tim.c ****   UNUSED(htim);
1058:Drivers/STM32F1xx_HAL_Driver/Src/stm32f1xx_hal_tim.c ****   /* NOTE : This function Should not be modified, when the callback is needed,
1059:Drivers/STM32F1xx_HAL_Driver/Src/stm32f1xx_hal_tim.c ****             the HAL_TIM_PWM_MspInit could be implemented in the user file
1060:Drivers/STM32F1xx_HAL_Driver/Src/stm32f1xx_hal_tim.c ****    */
1061:Drivers/STM32F1xx_HAL_Driver/Src/stm32f1xx_hal_tim.c **** }
 2133              		.loc 1 1061 0
 2134 0008 00BF     		nop
 2135 000a 0C37     		adds	r7, r7, #12
 2136              	.LCFI122:
 2137              		.cfi_def_cfa_offset 4
 2138 000c BD46     		mov	sp, r7
 2139              	.LCFI123:
 2140              		.cfi_def_cfa_register 13
 2141              		@ sp needed
 2142 000e 80BC     		pop	{r7}
 2143              	.LCFI124:
 2144              		.cfi_restore 7
 2145              		.cfi_def_cfa_offset 0
 2146 0010 7047     		bx	lr
 2147              		.cfi_endproc
 2148              	.LFE88:
 2150              		.section	.text.HAL_TIM_PWM_MspDeInit,"ax",%progbits
 2151              		.align	1
 2152              		.weak	HAL_TIM_PWM_MspDeInit
 2153              		.syntax unified
 2154              		.thumb
 2155              		.thumb_func
 2156              		.fpu softvfp
 2158              	HAL_TIM_PWM_MspDeInit:
 2159              	.LFB89:
1062:Drivers/STM32F1xx_HAL_Driver/Src/stm32f1xx_hal_tim.c **** 
1063:Drivers/STM32F1xx_HAL_Driver/Src/stm32f1xx_hal_tim.c **** /**
1064:Drivers/STM32F1xx_HAL_Driver/Src/stm32f1xx_hal_tim.c ****   * @brief  DeInitializes TIM PWM MSP.
1065:Drivers/STM32F1xx_HAL_Driver/Src/stm32f1xx_hal_tim.c ****   * @param  htim : TIM handle
1066:Drivers/STM32F1xx_HAL_Driver/Src/stm32f1xx_hal_tim.c ****   * @retval None
1067:Drivers/STM32F1xx_HAL_Driver/Src/stm32f1xx_hal_tim.c ****   */
1068:Drivers/STM32F1xx_HAL_Driver/Src/stm32f1xx_hal_tim.c **** __weak void HAL_TIM_PWM_MspDeInit(TIM_HandleTypeDef *htim)
1069:Drivers/STM32F1xx_HAL_Driver/Src/stm32f1xx_hal_tim.c **** {
 2160              		.loc 1 1069 0
 2161              		.cfi_startproc
 2162              		@ args = 0, pretend = 0, frame = 8
 2163              		@ frame_needed = 1, uses_anonymous_args = 0
 2164              		@ link register save eliminated.
 2165 0000 80B4     		push	{r7}
 2166              	.LCFI125:
 2167              		.cfi_def_cfa_offset 4
 2168              		.cfi_offset 7, -4
 2169 0002 83B0     		sub	sp, sp, #12
 2170              	.LCFI126:
ARM GAS  /tmp/cc5HGhWi.s 			page 57


 2171              		.cfi_def_cfa_offset 16
 2172 0004 00AF     		add	r7, sp, #0
 2173              	.LCFI127:
 2174              		.cfi_def_cfa_register 7
 2175 0006 7860     		str	r0, [r7, #4]
1070:Drivers/STM32F1xx_HAL_Driver/Src/stm32f1xx_hal_tim.c ****   /* Prevent unused argument(s) compilation warning */
1071:Drivers/STM32F1xx_HAL_Driver/Src/stm32f1xx_hal_tim.c ****   UNUSED(htim);
1072:Drivers/STM32F1xx_HAL_Driver/Src/stm32f1xx_hal_tim.c ****   /* NOTE : This function Should not be modified, when the callback is needed,
1073:Drivers/STM32F1xx_HAL_Driver/Src/stm32f1xx_hal_tim.c ****             the HAL_TIM_PWM_MspDeInit could be implemented in the user file
1074:Drivers/STM32F1xx_HAL_Driver/Src/stm32f1xx_hal_tim.c ****    */
1075:Drivers/STM32F1xx_HAL_Driver/Src/stm32f1xx_hal_tim.c **** }
 2176              		.loc 1 1075 0
 2177 0008 00BF     		nop
 2178 000a 0C37     		adds	r7, r7, #12
 2179              	.LCFI128:
 2180              		.cfi_def_cfa_offset 4
 2181 000c BD46     		mov	sp, r7
 2182              	.LCFI129:
 2183              		.cfi_def_cfa_register 13
 2184              		@ sp needed
 2185 000e 80BC     		pop	{r7}
 2186              	.LCFI130:
 2187              		.cfi_restore 7
 2188              		.cfi_def_cfa_offset 0
 2189 0010 7047     		bx	lr
 2190              		.cfi_endproc
 2191              	.LFE89:
 2193              		.section	.text.HAL_TIM_PWM_Start,"ax",%progbits
 2194              		.align	1
 2195              		.global	HAL_TIM_PWM_Start
 2196              		.syntax unified
 2197              		.thumb
 2198              		.thumb_func
 2199              		.fpu softvfp
 2201              	HAL_TIM_PWM_Start:
 2202              	.LFB90:
1076:Drivers/STM32F1xx_HAL_Driver/Src/stm32f1xx_hal_tim.c **** 
1077:Drivers/STM32F1xx_HAL_Driver/Src/stm32f1xx_hal_tim.c **** /**
1078:Drivers/STM32F1xx_HAL_Driver/Src/stm32f1xx_hal_tim.c ****   * @brief  Starts the PWM signal generation.
1079:Drivers/STM32F1xx_HAL_Driver/Src/stm32f1xx_hal_tim.c ****   * @param  htim : TIM handle
1080:Drivers/STM32F1xx_HAL_Driver/Src/stm32f1xx_hal_tim.c ****   * @param  Channel : TIM Channels to be enabled
1081:Drivers/STM32F1xx_HAL_Driver/Src/stm32f1xx_hal_tim.c ****   *          This parameter can be one of the following values:
1082:Drivers/STM32F1xx_HAL_Driver/Src/stm32f1xx_hal_tim.c ****   *            @arg TIM_CHANNEL_1: TIM Channel 1 selected
1083:Drivers/STM32F1xx_HAL_Driver/Src/stm32f1xx_hal_tim.c ****   *            @arg TIM_CHANNEL_2: TIM Channel 2 selected
1084:Drivers/STM32F1xx_HAL_Driver/Src/stm32f1xx_hal_tim.c ****   *            @arg TIM_CHANNEL_3: TIM Channel 3 selected
1085:Drivers/STM32F1xx_HAL_Driver/Src/stm32f1xx_hal_tim.c ****   *            @arg TIM_CHANNEL_4: TIM Channel 4 selected
1086:Drivers/STM32F1xx_HAL_Driver/Src/stm32f1xx_hal_tim.c ****   * @retval HAL status
1087:Drivers/STM32F1xx_HAL_Driver/Src/stm32f1xx_hal_tim.c **** */
1088:Drivers/STM32F1xx_HAL_Driver/Src/stm32f1xx_hal_tim.c **** HAL_StatusTypeDef HAL_TIM_PWM_Start(TIM_HandleTypeDef *htim, uint32_t Channel)
1089:Drivers/STM32F1xx_HAL_Driver/Src/stm32f1xx_hal_tim.c **** {
 2203              		.loc 1 1089 0
 2204              		.cfi_startproc
 2205              		@ args = 0, pretend = 0, frame = 8
 2206              		@ frame_needed = 1, uses_anonymous_args = 0
 2207 0000 80B5     		push	{r7, lr}
 2208              	.LCFI131:
 2209              		.cfi_def_cfa_offset 8
ARM GAS  /tmp/cc5HGhWi.s 			page 58


 2210              		.cfi_offset 7, -8
 2211              		.cfi_offset 14, -4
 2212 0002 82B0     		sub	sp, sp, #8
 2213              	.LCFI132:
 2214              		.cfi_def_cfa_offset 16
 2215 0004 00AF     		add	r7, sp, #0
 2216              	.LCFI133:
 2217              		.cfi_def_cfa_register 7
 2218 0006 7860     		str	r0, [r7, #4]
 2219 0008 3960     		str	r1, [r7]
1090:Drivers/STM32F1xx_HAL_Driver/Src/stm32f1xx_hal_tim.c ****   /* Check the parameters */
1091:Drivers/STM32F1xx_HAL_Driver/Src/stm32f1xx_hal_tim.c ****   assert_param(IS_TIM_CCX_INSTANCE(htim->Instance, Channel));
1092:Drivers/STM32F1xx_HAL_Driver/Src/stm32f1xx_hal_tim.c **** 
1093:Drivers/STM32F1xx_HAL_Driver/Src/stm32f1xx_hal_tim.c ****   /* Enable the Capture compare channel */
1094:Drivers/STM32F1xx_HAL_Driver/Src/stm32f1xx_hal_tim.c ****   TIM_CCxChannelCmd(htim->Instance, Channel, TIM_CCx_ENABLE);
 2220              		.loc 1 1094 0
 2221 000a 7B68     		ldr	r3, [r7, #4]
 2222 000c 1B68     		ldr	r3, [r3]
 2223 000e 0122     		movs	r2, #1
 2224 0010 3968     		ldr	r1, [r7]
 2225 0012 1846     		mov	r0, r3
 2226 0014 FFF7FEFF 		bl	TIM_CCxChannelCmd
1095:Drivers/STM32F1xx_HAL_Driver/Src/stm32f1xx_hal_tim.c **** 
1096:Drivers/STM32F1xx_HAL_Driver/Src/stm32f1xx_hal_tim.c ****   if(IS_TIM_BREAK_INSTANCE(htim->Instance) != RESET)
 2227              		.loc 1 1096 0
 2228 0018 7B68     		ldr	r3, [r7, #4]
 2229 001a 1B68     		ldr	r3, [r3]
 2230 001c 0B4A     		ldr	r2, .L119
 2231 001e 9342     		cmp	r3, r2
 2232 0020 07D1     		bne	.L117
1097:Drivers/STM32F1xx_HAL_Driver/Src/stm32f1xx_hal_tim.c ****   {
1098:Drivers/STM32F1xx_HAL_Driver/Src/stm32f1xx_hal_tim.c ****     /* Enable the main output */
1099:Drivers/STM32F1xx_HAL_Driver/Src/stm32f1xx_hal_tim.c ****     __HAL_TIM_MOE_ENABLE(htim);
 2233              		.loc 1 1099 0
 2234 0022 7B68     		ldr	r3, [r7, #4]
 2235 0024 1B68     		ldr	r3, [r3]
 2236 0026 5A6C     		ldr	r2, [r3, #68]
 2237 0028 7B68     		ldr	r3, [r7, #4]
 2238 002a 1B68     		ldr	r3, [r3]
 2239 002c 42F40042 		orr	r2, r2, #32768
 2240 0030 5A64     		str	r2, [r3, #68]
 2241              	.L117:
1100:Drivers/STM32F1xx_HAL_Driver/Src/stm32f1xx_hal_tim.c ****   }
1101:Drivers/STM32F1xx_HAL_Driver/Src/stm32f1xx_hal_tim.c **** 
1102:Drivers/STM32F1xx_HAL_Driver/Src/stm32f1xx_hal_tim.c ****   /* Enable the Peripheral */
1103:Drivers/STM32F1xx_HAL_Driver/Src/stm32f1xx_hal_tim.c ****   __HAL_TIM_ENABLE(htim);
 2242              		.loc 1 1103 0
 2243 0032 7B68     		ldr	r3, [r7, #4]
 2244 0034 1B68     		ldr	r3, [r3]
 2245 0036 1A68     		ldr	r2, [r3]
 2246 0038 7B68     		ldr	r3, [r7, #4]
 2247 003a 1B68     		ldr	r3, [r3]
 2248 003c 42F00102 		orr	r2, r2, #1
 2249 0040 1A60     		str	r2, [r3]
1104:Drivers/STM32F1xx_HAL_Driver/Src/stm32f1xx_hal_tim.c **** 
1105:Drivers/STM32F1xx_HAL_Driver/Src/stm32f1xx_hal_tim.c ****   /* Return function status */
1106:Drivers/STM32F1xx_HAL_Driver/Src/stm32f1xx_hal_tim.c ****   return HAL_OK;
ARM GAS  /tmp/cc5HGhWi.s 			page 59


 2250              		.loc 1 1106 0
 2251 0042 0023     		movs	r3, #0
1107:Drivers/STM32F1xx_HAL_Driver/Src/stm32f1xx_hal_tim.c **** }
 2252              		.loc 1 1107 0
 2253 0044 1846     		mov	r0, r3
 2254 0046 0837     		adds	r7, r7, #8
 2255              	.LCFI134:
 2256              		.cfi_def_cfa_offset 8
 2257 0048 BD46     		mov	sp, r7
 2258              	.LCFI135:
 2259              		.cfi_def_cfa_register 13
 2260              		@ sp needed
 2261 004a 80BD     		pop	{r7, pc}
 2262              	.L120:
 2263              		.align	2
 2264              	.L119:
 2265 004c 002C0140 		.word	1073818624
 2266              		.cfi_endproc
 2267              	.LFE90:
 2269              		.section	.text.HAL_TIM_PWM_Stop,"ax",%progbits
 2270              		.align	1
 2271              		.global	HAL_TIM_PWM_Stop
 2272              		.syntax unified
 2273              		.thumb
 2274              		.thumb_func
 2275              		.fpu softvfp
 2277              	HAL_TIM_PWM_Stop:
 2278              	.LFB91:
1108:Drivers/STM32F1xx_HAL_Driver/Src/stm32f1xx_hal_tim.c **** 
1109:Drivers/STM32F1xx_HAL_Driver/Src/stm32f1xx_hal_tim.c **** /**
1110:Drivers/STM32F1xx_HAL_Driver/Src/stm32f1xx_hal_tim.c ****   * @brief  Stops the PWM signal generation.
1111:Drivers/STM32F1xx_HAL_Driver/Src/stm32f1xx_hal_tim.c ****   * @param  htim : TIM handle
1112:Drivers/STM32F1xx_HAL_Driver/Src/stm32f1xx_hal_tim.c ****   * @param  Channel : TIM Channels to be disabled
1113:Drivers/STM32F1xx_HAL_Driver/Src/stm32f1xx_hal_tim.c ****   *          This parameter can be one of the following values:
1114:Drivers/STM32F1xx_HAL_Driver/Src/stm32f1xx_hal_tim.c ****   *            @arg TIM_CHANNEL_1: TIM Channel 1 selected
1115:Drivers/STM32F1xx_HAL_Driver/Src/stm32f1xx_hal_tim.c ****   *            @arg TIM_CHANNEL_2: TIM Channel 2 selected
1116:Drivers/STM32F1xx_HAL_Driver/Src/stm32f1xx_hal_tim.c ****   *            @arg TIM_CHANNEL_3: TIM Channel 3 selected
1117:Drivers/STM32F1xx_HAL_Driver/Src/stm32f1xx_hal_tim.c ****   *            @arg TIM_CHANNEL_4: TIM Channel 4 selected
1118:Drivers/STM32F1xx_HAL_Driver/Src/stm32f1xx_hal_tim.c ****   * @retval HAL status
1119:Drivers/STM32F1xx_HAL_Driver/Src/stm32f1xx_hal_tim.c **** */
1120:Drivers/STM32F1xx_HAL_Driver/Src/stm32f1xx_hal_tim.c **** HAL_StatusTypeDef HAL_TIM_PWM_Stop(TIM_HandleTypeDef *htim, uint32_t Channel)
1121:Drivers/STM32F1xx_HAL_Driver/Src/stm32f1xx_hal_tim.c **** {
 2279              		.loc 1 1121 0
 2280              		.cfi_startproc
 2281              		@ args = 0, pretend = 0, frame = 8
 2282              		@ frame_needed = 1, uses_anonymous_args = 0
 2283 0000 80B5     		push	{r7, lr}
 2284              	.LCFI136:
 2285              		.cfi_def_cfa_offset 8
 2286              		.cfi_offset 7, -8
 2287              		.cfi_offset 14, -4
 2288 0002 82B0     		sub	sp, sp, #8
 2289              	.LCFI137:
 2290              		.cfi_def_cfa_offset 16
 2291 0004 00AF     		add	r7, sp, #0
 2292              	.LCFI138:
 2293              		.cfi_def_cfa_register 7
ARM GAS  /tmp/cc5HGhWi.s 			page 60


 2294 0006 7860     		str	r0, [r7, #4]
 2295 0008 3960     		str	r1, [r7]
1122:Drivers/STM32F1xx_HAL_Driver/Src/stm32f1xx_hal_tim.c ****   /* Check the parameters */
1123:Drivers/STM32F1xx_HAL_Driver/Src/stm32f1xx_hal_tim.c ****   assert_param(IS_TIM_CCX_INSTANCE(htim->Instance, Channel));
1124:Drivers/STM32F1xx_HAL_Driver/Src/stm32f1xx_hal_tim.c **** 
1125:Drivers/STM32F1xx_HAL_Driver/Src/stm32f1xx_hal_tim.c ****   /* Disable the Capture compare channel */
1126:Drivers/STM32F1xx_HAL_Driver/Src/stm32f1xx_hal_tim.c ****   TIM_CCxChannelCmd(htim->Instance, Channel, TIM_CCx_DISABLE);
 2296              		.loc 1 1126 0
 2297 000a 7B68     		ldr	r3, [r7, #4]
 2298 000c 1B68     		ldr	r3, [r3]
 2299 000e 0022     		movs	r2, #0
 2300 0010 3968     		ldr	r1, [r7]
 2301 0012 1846     		mov	r0, r3
 2302 0014 FFF7FEFF 		bl	TIM_CCxChannelCmd
1127:Drivers/STM32F1xx_HAL_Driver/Src/stm32f1xx_hal_tim.c **** 
1128:Drivers/STM32F1xx_HAL_Driver/Src/stm32f1xx_hal_tim.c ****   if(IS_TIM_BREAK_INSTANCE(htim->Instance) != RESET)
 2303              		.loc 1 1128 0
 2304 0018 7B68     		ldr	r3, [r7, #4]
 2305 001a 1B68     		ldr	r3, [r3]
 2306 001c 1D4A     		ldr	r2, .L125
 2307 001e 9342     		cmp	r3, r2
 2308 0020 17D1     		bne	.L122
1129:Drivers/STM32F1xx_HAL_Driver/Src/stm32f1xx_hal_tim.c ****   {
1130:Drivers/STM32F1xx_HAL_Driver/Src/stm32f1xx_hal_tim.c ****     /* Disable the Main Ouput */
1131:Drivers/STM32F1xx_HAL_Driver/Src/stm32f1xx_hal_tim.c ****     __HAL_TIM_MOE_DISABLE(htim);
 2309              		.loc 1 1131 0
 2310 0022 7B68     		ldr	r3, [r7, #4]
 2311 0024 1B68     		ldr	r3, [r3]
 2312 0026 1A6A     		ldr	r2, [r3, #32]
 2313 0028 41F21113 		movw	r3, #4369
 2314 002c 1340     		ands	r3, r3, r2
 2315 002e 002B     		cmp	r3, #0
 2316 0030 0FD1     		bne	.L122
 2317              		.loc 1 1131 0 is_stmt 0 discriminator 1
 2318 0032 7B68     		ldr	r3, [r7, #4]
 2319 0034 1B68     		ldr	r3, [r3]
 2320 0036 1A6A     		ldr	r2, [r3, #32]
 2321 0038 40F24443 		movw	r3, #1092
 2322 003c 1340     		ands	r3, r3, r2
 2323 003e 002B     		cmp	r3, #0
 2324 0040 07D1     		bne	.L122
 2325              		.loc 1 1131 0 discriminator 2
 2326 0042 7B68     		ldr	r3, [r7, #4]
 2327 0044 1B68     		ldr	r3, [r3]
 2328 0046 5A6C     		ldr	r2, [r3, #68]
 2329 0048 7B68     		ldr	r3, [r7, #4]
 2330 004a 1B68     		ldr	r3, [r3]
 2331 004c 22F40042 		bic	r2, r2, #32768
 2332 0050 5A64     		str	r2, [r3, #68]
 2333              	.L122:
1132:Drivers/STM32F1xx_HAL_Driver/Src/stm32f1xx_hal_tim.c ****   }
1133:Drivers/STM32F1xx_HAL_Driver/Src/stm32f1xx_hal_tim.c **** 
1134:Drivers/STM32F1xx_HAL_Driver/Src/stm32f1xx_hal_tim.c ****   /* Disable the Peripheral */
1135:Drivers/STM32F1xx_HAL_Driver/Src/stm32f1xx_hal_tim.c ****   __HAL_TIM_DISABLE(htim);
 2334              		.loc 1 1135 0 is_stmt 1
 2335 0052 7B68     		ldr	r3, [r7, #4]
 2336 0054 1B68     		ldr	r3, [r3]
ARM GAS  /tmp/cc5HGhWi.s 			page 61


 2337 0056 1A6A     		ldr	r2, [r3, #32]
 2338 0058 41F21113 		movw	r3, #4369
 2339 005c 1340     		ands	r3, r3, r2
 2340 005e 002B     		cmp	r3, #0
 2341 0060 0FD1     		bne	.L123
 2342              		.loc 1 1135 0 is_stmt 0 discriminator 1
 2343 0062 7B68     		ldr	r3, [r7, #4]
 2344 0064 1B68     		ldr	r3, [r3]
 2345 0066 1A6A     		ldr	r2, [r3, #32]
 2346 0068 40F24443 		movw	r3, #1092
 2347 006c 1340     		ands	r3, r3, r2
 2348 006e 002B     		cmp	r3, #0
 2349 0070 07D1     		bne	.L123
 2350              		.loc 1 1135 0 discriminator 2
 2351 0072 7B68     		ldr	r3, [r7, #4]
 2352 0074 1B68     		ldr	r3, [r3]
 2353 0076 1A68     		ldr	r2, [r3]
 2354 0078 7B68     		ldr	r3, [r7, #4]
 2355 007a 1B68     		ldr	r3, [r3]
 2356 007c 22F00102 		bic	r2, r2, #1
 2357 0080 1A60     		str	r2, [r3]
 2358              	.L123:
1136:Drivers/STM32F1xx_HAL_Driver/Src/stm32f1xx_hal_tim.c **** 
1137:Drivers/STM32F1xx_HAL_Driver/Src/stm32f1xx_hal_tim.c ****   /* Change the htim state */
1138:Drivers/STM32F1xx_HAL_Driver/Src/stm32f1xx_hal_tim.c ****   htim->State = HAL_TIM_STATE_READY;
 2359              		.loc 1 1138 0 is_stmt 1
 2360 0082 7B68     		ldr	r3, [r7, #4]
 2361 0084 0122     		movs	r2, #1
 2362 0086 83F83D20 		strb	r2, [r3, #61]
1139:Drivers/STM32F1xx_HAL_Driver/Src/stm32f1xx_hal_tim.c **** 
1140:Drivers/STM32F1xx_HAL_Driver/Src/stm32f1xx_hal_tim.c ****   /* Return function status */
1141:Drivers/STM32F1xx_HAL_Driver/Src/stm32f1xx_hal_tim.c ****   return HAL_OK;
 2363              		.loc 1 1141 0
 2364 008a 0023     		movs	r3, #0
1142:Drivers/STM32F1xx_HAL_Driver/Src/stm32f1xx_hal_tim.c **** }
 2365              		.loc 1 1142 0
 2366 008c 1846     		mov	r0, r3
 2367 008e 0837     		adds	r7, r7, #8
 2368              	.LCFI139:
 2369              		.cfi_def_cfa_offset 8
 2370 0090 BD46     		mov	sp, r7
 2371              	.LCFI140:
 2372              		.cfi_def_cfa_register 13
 2373              		@ sp needed
 2374 0092 80BD     		pop	{r7, pc}
 2375              	.L126:
 2376              		.align	2
 2377              	.L125:
 2378 0094 002C0140 		.word	1073818624
 2379              		.cfi_endproc
 2380              	.LFE91:
 2382              		.section	.text.HAL_TIM_PWM_Start_IT,"ax",%progbits
 2383              		.align	1
 2384              		.global	HAL_TIM_PWM_Start_IT
 2385              		.syntax unified
 2386              		.thumb
 2387              		.thumb_func
ARM GAS  /tmp/cc5HGhWi.s 			page 62


 2388              		.fpu softvfp
 2390              	HAL_TIM_PWM_Start_IT:
 2391              	.LFB92:
1143:Drivers/STM32F1xx_HAL_Driver/Src/stm32f1xx_hal_tim.c **** 
1144:Drivers/STM32F1xx_HAL_Driver/Src/stm32f1xx_hal_tim.c **** /**
1145:Drivers/STM32F1xx_HAL_Driver/Src/stm32f1xx_hal_tim.c ****   * @brief  Starts the PWM signal generation in interrupt mode.
1146:Drivers/STM32F1xx_HAL_Driver/Src/stm32f1xx_hal_tim.c ****   * @param  htim : TIM handle
1147:Drivers/STM32F1xx_HAL_Driver/Src/stm32f1xx_hal_tim.c ****   * @param  Channel : TIM Channel to be enabled
1148:Drivers/STM32F1xx_HAL_Driver/Src/stm32f1xx_hal_tim.c ****   *          This parameter can be one of the following values:
1149:Drivers/STM32F1xx_HAL_Driver/Src/stm32f1xx_hal_tim.c ****   *            @arg TIM_CHANNEL_1: TIM Channel 1 selected
1150:Drivers/STM32F1xx_HAL_Driver/Src/stm32f1xx_hal_tim.c ****   *            @arg TIM_CHANNEL_2: TIM Channel 2 selected
1151:Drivers/STM32F1xx_HAL_Driver/Src/stm32f1xx_hal_tim.c ****   *            @arg TIM_CHANNEL_3: TIM Channel 3 selected
1152:Drivers/STM32F1xx_HAL_Driver/Src/stm32f1xx_hal_tim.c ****   *            @arg TIM_CHANNEL_4: TIM Channel 4 selected
1153:Drivers/STM32F1xx_HAL_Driver/Src/stm32f1xx_hal_tim.c ****   * @retval HAL status
1154:Drivers/STM32F1xx_HAL_Driver/Src/stm32f1xx_hal_tim.c **** */
1155:Drivers/STM32F1xx_HAL_Driver/Src/stm32f1xx_hal_tim.c **** HAL_StatusTypeDef HAL_TIM_PWM_Start_IT(TIM_HandleTypeDef *htim, uint32_t Channel)
1156:Drivers/STM32F1xx_HAL_Driver/Src/stm32f1xx_hal_tim.c **** {
 2392              		.loc 1 1156 0
 2393              		.cfi_startproc
 2394              		@ args = 0, pretend = 0, frame = 8
 2395              		@ frame_needed = 1, uses_anonymous_args = 0
 2396 0000 80B5     		push	{r7, lr}
 2397              	.LCFI141:
 2398              		.cfi_def_cfa_offset 8
 2399              		.cfi_offset 7, -8
 2400              		.cfi_offset 14, -4
 2401 0002 82B0     		sub	sp, sp, #8
 2402              	.LCFI142:
 2403              		.cfi_def_cfa_offset 16
 2404 0004 00AF     		add	r7, sp, #0
 2405              	.LCFI143:
 2406              		.cfi_def_cfa_register 7
 2407 0006 7860     		str	r0, [r7, #4]
 2408 0008 3960     		str	r1, [r7]
1157:Drivers/STM32F1xx_HAL_Driver/Src/stm32f1xx_hal_tim.c ****   /* Check the parameters */
1158:Drivers/STM32F1xx_HAL_Driver/Src/stm32f1xx_hal_tim.c ****   assert_param(IS_TIM_CCX_INSTANCE(htim->Instance, Channel));
1159:Drivers/STM32F1xx_HAL_Driver/Src/stm32f1xx_hal_tim.c **** 
1160:Drivers/STM32F1xx_HAL_Driver/Src/stm32f1xx_hal_tim.c ****   switch (Channel)
 2409              		.loc 1 1160 0
 2410 000a 3B68     		ldr	r3, [r7]
 2411 000c 0C2B     		cmp	r3, #12
 2412 000e 41D8     		bhi	.L137
 2413 0010 01A2     		adr	r2, .L130
 2414 0012 52F823F0 		ldr	pc, [r2, r3, lsl #2]
 2415 0016 00BF     		.p2align 2
 2416              	.L130:
 2417 0018 4D000000 		.word	.L129+1
 2418 001c 95000000 		.word	.L137+1
 2419 0020 95000000 		.word	.L137+1
 2420 0024 95000000 		.word	.L137+1
 2421 0028 5F000000 		.word	.L131+1
 2422 002c 95000000 		.word	.L137+1
 2423 0030 95000000 		.word	.L137+1
 2424 0034 95000000 		.word	.L137+1
 2425 0038 71000000 		.word	.L132+1
 2426 003c 95000000 		.word	.L137+1
 2427 0040 95000000 		.word	.L137+1
ARM GAS  /tmp/cc5HGhWi.s 			page 63


 2428 0044 95000000 		.word	.L137+1
 2429 0048 83000000 		.word	.L133+1
 2430              		.p2align 1
 2431              	.L129:
1161:Drivers/STM32F1xx_HAL_Driver/Src/stm32f1xx_hal_tim.c ****   {
1162:Drivers/STM32F1xx_HAL_Driver/Src/stm32f1xx_hal_tim.c ****     case TIM_CHANNEL_1:
1163:Drivers/STM32F1xx_HAL_Driver/Src/stm32f1xx_hal_tim.c ****     {
1164:Drivers/STM32F1xx_HAL_Driver/Src/stm32f1xx_hal_tim.c ****       /* Enable the TIM Capture/Compare 1 interrupt */
1165:Drivers/STM32F1xx_HAL_Driver/Src/stm32f1xx_hal_tim.c ****       __HAL_TIM_ENABLE_IT(htim, TIM_IT_CC1);
 2432              		.loc 1 1165 0
 2433 004c 7B68     		ldr	r3, [r7, #4]
 2434 004e 1B68     		ldr	r3, [r3]
 2435 0050 DA68     		ldr	r2, [r3, #12]
 2436 0052 7B68     		ldr	r3, [r7, #4]
 2437 0054 1B68     		ldr	r3, [r3]
 2438 0056 42F00202 		orr	r2, r2, #2
 2439 005a DA60     		str	r2, [r3, #12]
1166:Drivers/STM32F1xx_HAL_Driver/Src/stm32f1xx_hal_tim.c ****     }
1167:Drivers/STM32F1xx_HAL_Driver/Src/stm32f1xx_hal_tim.c ****     break;
 2440              		.loc 1 1167 0
 2441 005c 1BE0     		b	.L134
 2442              	.L131:
1168:Drivers/STM32F1xx_HAL_Driver/Src/stm32f1xx_hal_tim.c **** 
1169:Drivers/STM32F1xx_HAL_Driver/Src/stm32f1xx_hal_tim.c ****     case TIM_CHANNEL_2:
1170:Drivers/STM32F1xx_HAL_Driver/Src/stm32f1xx_hal_tim.c ****     {
1171:Drivers/STM32F1xx_HAL_Driver/Src/stm32f1xx_hal_tim.c ****       /* Enable the TIM Capture/Compare 2 interrupt */
1172:Drivers/STM32F1xx_HAL_Driver/Src/stm32f1xx_hal_tim.c ****       __HAL_TIM_ENABLE_IT(htim, TIM_IT_CC2);
 2443              		.loc 1 1172 0
 2444 005e 7B68     		ldr	r3, [r7, #4]
 2445 0060 1B68     		ldr	r3, [r3]
 2446 0062 DA68     		ldr	r2, [r3, #12]
 2447 0064 7B68     		ldr	r3, [r7, #4]
 2448 0066 1B68     		ldr	r3, [r3]
 2449 0068 42F00402 		orr	r2, r2, #4
 2450 006c DA60     		str	r2, [r3, #12]
1173:Drivers/STM32F1xx_HAL_Driver/Src/stm32f1xx_hal_tim.c ****     }
1174:Drivers/STM32F1xx_HAL_Driver/Src/stm32f1xx_hal_tim.c ****     break;
 2451              		.loc 1 1174 0
 2452 006e 12E0     		b	.L134
 2453              	.L132:
1175:Drivers/STM32F1xx_HAL_Driver/Src/stm32f1xx_hal_tim.c **** 
1176:Drivers/STM32F1xx_HAL_Driver/Src/stm32f1xx_hal_tim.c ****     case TIM_CHANNEL_3:
1177:Drivers/STM32F1xx_HAL_Driver/Src/stm32f1xx_hal_tim.c ****     {
1178:Drivers/STM32F1xx_HAL_Driver/Src/stm32f1xx_hal_tim.c ****       /* Enable the TIM Capture/Compare 3 interrupt */
1179:Drivers/STM32F1xx_HAL_Driver/Src/stm32f1xx_hal_tim.c ****       __HAL_TIM_ENABLE_IT(htim, TIM_IT_CC3);
 2454              		.loc 1 1179 0
 2455 0070 7B68     		ldr	r3, [r7, #4]
 2456 0072 1B68     		ldr	r3, [r3]
 2457 0074 DA68     		ldr	r2, [r3, #12]
 2458 0076 7B68     		ldr	r3, [r7, #4]
 2459 0078 1B68     		ldr	r3, [r3]
 2460 007a 42F00802 		orr	r2, r2, #8
 2461 007e DA60     		str	r2, [r3, #12]
1180:Drivers/STM32F1xx_HAL_Driver/Src/stm32f1xx_hal_tim.c ****     }
1181:Drivers/STM32F1xx_HAL_Driver/Src/stm32f1xx_hal_tim.c ****     break;
 2462              		.loc 1 1181 0
 2463 0080 09E0     		b	.L134
ARM GAS  /tmp/cc5HGhWi.s 			page 64


 2464              	.L133:
1182:Drivers/STM32F1xx_HAL_Driver/Src/stm32f1xx_hal_tim.c **** 
1183:Drivers/STM32F1xx_HAL_Driver/Src/stm32f1xx_hal_tim.c ****     case TIM_CHANNEL_4:
1184:Drivers/STM32F1xx_HAL_Driver/Src/stm32f1xx_hal_tim.c ****     {
1185:Drivers/STM32F1xx_HAL_Driver/Src/stm32f1xx_hal_tim.c ****       /* Enable the TIM Capture/Compare 4 interrupt */
1186:Drivers/STM32F1xx_HAL_Driver/Src/stm32f1xx_hal_tim.c ****       __HAL_TIM_ENABLE_IT(htim, TIM_IT_CC4);
 2465              		.loc 1 1186 0
 2466 0082 7B68     		ldr	r3, [r7, #4]
 2467 0084 1B68     		ldr	r3, [r3]
 2468 0086 DA68     		ldr	r2, [r3, #12]
 2469 0088 7B68     		ldr	r3, [r7, #4]
 2470 008a 1B68     		ldr	r3, [r3]
 2471 008c 42F01002 		orr	r2, r2, #16
 2472 0090 DA60     		str	r2, [r3, #12]
1187:Drivers/STM32F1xx_HAL_Driver/Src/stm32f1xx_hal_tim.c ****     }
1188:Drivers/STM32F1xx_HAL_Driver/Src/stm32f1xx_hal_tim.c ****     break;
 2473              		.loc 1 1188 0
 2474 0092 00E0     		b	.L134
 2475              	.L137:
1189:Drivers/STM32F1xx_HAL_Driver/Src/stm32f1xx_hal_tim.c **** 
1190:Drivers/STM32F1xx_HAL_Driver/Src/stm32f1xx_hal_tim.c ****     default:
1191:Drivers/STM32F1xx_HAL_Driver/Src/stm32f1xx_hal_tim.c ****     break;
 2476              		.loc 1 1191 0
 2477 0094 00BF     		nop
 2478              	.L134:
1192:Drivers/STM32F1xx_HAL_Driver/Src/stm32f1xx_hal_tim.c ****   }
1193:Drivers/STM32F1xx_HAL_Driver/Src/stm32f1xx_hal_tim.c **** 
1194:Drivers/STM32F1xx_HAL_Driver/Src/stm32f1xx_hal_tim.c ****   /* Enable the Capture compare channel */
1195:Drivers/STM32F1xx_HAL_Driver/Src/stm32f1xx_hal_tim.c ****   TIM_CCxChannelCmd(htim->Instance, Channel, TIM_CCx_ENABLE);
 2479              		.loc 1 1195 0
 2480 0096 7B68     		ldr	r3, [r7, #4]
 2481 0098 1B68     		ldr	r3, [r3]
 2482 009a 0122     		movs	r2, #1
 2483 009c 3968     		ldr	r1, [r7]
 2484 009e 1846     		mov	r0, r3
 2485 00a0 FFF7FEFF 		bl	TIM_CCxChannelCmd
1196:Drivers/STM32F1xx_HAL_Driver/Src/stm32f1xx_hal_tim.c **** 
1197:Drivers/STM32F1xx_HAL_Driver/Src/stm32f1xx_hal_tim.c ****   if(IS_TIM_BREAK_INSTANCE(htim->Instance) != RESET)
 2486              		.loc 1 1197 0
 2487 00a4 7B68     		ldr	r3, [r7, #4]
 2488 00a6 1B68     		ldr	r3, [r3]
 2489 00a8 0B4A     		ldr	r2, .L138
 2490 00aa 9342     		cmp	r3, r2
 2491 00ac 07D1     		bne	.L135
1198:Drivers/STM32F1xx_HAL_Driver/Src/stm32f1xx_hal_tim.c ****   {
1199:Drivers/STM32F1xx_HAL_Driver/Src/stm32f1xx_hal_tim.c ****     /* Enable the main output */
1200:Drivers/STM32F1xx_HAL_Driver/Src/stm32f1xx_hal_tim.c ****     __HAL_TIM_MOE_ENABLE(htim);
 2492              		.loc 1 1200 0
 2493 00ae 7B68     		ldr	r3, [r7, #4]
 2494 00b0 1B68     		ldr	r3, [r3]
 2495 00b2 5A6C     		ldr	r2, [r3, #68]
 2496 00b4 7B68     		ldr	r3, [r7, #4]
 2497 00b6 1B68     		ldr	r3, [r3]
 2498 00b8 42F40042 		orr	r2, r2, #32768
 2499 00bc 5A64     		str	r2, [r3, #68]
 2500              	.L135:
1201:Drivers/STM32F1xx_HAL_Driver/Src/stm32f1xx_hal_tim.c ****   }
ARM GAS  /tmp/cc5HGhWi.s 			page 65


1202:Drivers/STM32F1xx_HAL_Driver/Src/stm32f1xx_hal_tim.c **** 
1203:Drivers/STM32F1xx_HAL_Driver/Src/stm32f1xx_hal_tim.c ****   /* Enable the Peripheral */
1204:Drivers/STM32F1xx_HAL_Driver/Src/stm32f1xx_hal_tim.c ****   __HAL_TIM_ENABLE(htim);
 2501              		.loc 1 1204 0
 2502 00be 7B68     		ldr	r3, [r7, #4]
 2503 00c0 1B68     		ldr	r3, [r3]
 2504 00c2 1A68     		ldr	r2, [r3]
 2505 00c4 7B68     		ldr	r3, [r7, #4]
 2506 00c6 1B68     		ldr	r3, [r3]
 2507 00c8 42F00102 		orr	r2, r2, #1
 2508 00cc 1A60     		str	r2, [r3]
1205:Drivers/STM32F1xx_HAL_Driver/Src/stm32f1xx_hal_tim.c **** 
1206:Drivers/STM32F1xx_HAL_Driver/Src/stm32f1xx_hal_tim.c ****   /* Return function status */
1207:Drivers/STM32F1xx_HAL_Driver/Src/stm32f1xx_hal_tim.c ****   return HAL_OK;
 2509              		.loc 1 1207 0
 2510 00ce 0023     		movs	r3, #0
1208:Drivers/STM32F1xx_HAL_Driver/Src/stm32f1xx_hal_tim.c **** }
 2511              		.loc 1 1208 0
 2512 00d0 1846     		mov	r0, r3
 2513 00d2 0837     		adds	r7, r7, #8
 2514              	.LCFI144:
 2515              		.cfi_def_cfa_offset 8
 2516 00d4 BD46     		mov	sp, r7
 2517              	.LCFI145:
 2518              		.cfi_def_cfa_register 13
 2519              		@ sp needed
 2520 00d6 80BD     		pop	{r7, pc}
 2521              	.L139:
 2522              		.align	2
 2523              	.L138:
 2524 00d8 002C0140 		.word	1073818624
 2525              		.cfi_endproc
 2526              	.LFE92:
 2528              		.section	.text.HAL_TIM_PWM_Stop_IT,"ax",%progbits
 2529              		.align	1
 2530              		.global	HAL_TIM_PWM_Stop_IT
 2531              		.syntax unified
 2532              		.thumb
 2533              		.thumb_func
 2534              		.fpu softvfp
 2536              	HAL_TIM_PWM_Stop_IT:
 2537              	.LFB93:
1209:Drivers/STM32F1xx_HAL_Driver/Src/stm32f1xx_hal_tim.c **** 
1210:Drivers/STM32F1xx_HAL_Driver/Src/stm32f1xx_hal_tim.c **** /**
1211:Drivers/STM32F1xx_HAL_Driver/Src/stm32f1xx_hal_tim.c ****   * @brief  Stops the PWM signal generation in interrupt mode.
1212:Drivers/STM32F1xx_HAL_Driver/Src/stm32f1xx_hal_tim.c ****   * @param  htim : TIM handle
1213:Drivers/STM32F1xx_HAL_Driver/Src/stm32f1xx_hal_tim.c ****   * @param  Channel : TIM Channels to be disabled
1214:Drivers/STM32F1xx_HAL_Driver/Src/stm32f1xx_hal_tim.c ****   *          This parameter can be one of the following values:
1215:Drivers/STM32F1xx_HAL_Driver/Src/stm32f1xx_hal_tim.c ****   *            @arg TIM_CHANNEL_1: TIM Channel 1 selected
1216:Drivers/STM32F1xx_HAL_Driver/Src/stm32f1xx_hal_tim.c ****   *            @arg TIM_CHANNEL_2: TIM Channel 2 selected
1217:Drivers/STM32F1xx_HAL_Driver/Src/stm32f1xx_hal_tim.c ****   *            @arg TIM_CHANNEL_3: TIM Channel 3 selected
1218:Drivers/STM32F1xx_HAL_Driver/Src/stm32f1xx_hal_tim.c ****   *            @arg TIM_CHANNEL_4: TIM Channel 4 selected
1219:Drivers/STM32F1xx_HAL_Driver/Src/stm32f1xx_hal_tim.c ****   * @retval HAL status
1220:Drivers/STM32F1xx_HAL_Driver/Src/stm32f1xx_hal_tim.c **** */
1221:Drivers/STM32F1xx_HAL_Driver/Src/stm32f1xx_hal_tim.c **** HAL_StatusTypeDef HAL_TIM_PWM_Stop_IT (TIM_HandleTypeDef *htim, uint32_t Channel)
1222:Drivers/STM32F1xx_HAL_Driver/Src/stm32f1xx_hal_tim.c **** {
 2538              		.loc 1 1222 0
ARM GAS  /tmp/cc5HGhWi.s 			page 66


 2539              		.cfi_startproc
 2540              		@ args = 0, pretend = 0, frame = 8
 2541              		@ frame_needed = 1, uses_anonymous_args = 0
 2542 0000 80B5     		push	{r7, lr}
 2543              	.LCFI146:
 2544              		.cfi_def_cfa_offset 8
 2545              		.cfi_offset 7, -8
 2546              		.cfi_offset 14, -4
 2547 0002 82B0     		sub	sp, sp, #8
 2548              	.LCFI147:
 2549              		.cfi_def_cfa_offset 16
 2550 0004 00AF     		add	r7, sp, #0
 2551              	.LCFI148:
 2552              		.cfi_def_cfa_register 7
 2553 0006 7860     		str	r0, [r7, #4]
 2554 0008 3960     		str	r1, [r7]
1223:Drivers/STM32F1xx_HAL_Driver/Src/stm32f1xx_hal_tim.c ****   /* Check the parameters */
1224:Drivers/STM32F1xx_HAL_Driver/Src/stm32f1xx_hal_tim.c ****   assert_param(IS_TIM_CCX_INSTANCE(htim->Instance, Channel));
1225:Drivers/STM32F1xx_HAL_Driver/Src/stm32f1xx_hal_tim.c **** 
1226:Drivers/STM32F1xx_HAL_Driver/Src/stm32f1xx_hal_tim.c ****   switch (Channel)
 2555              		.loc 1 1226 0
 2556 000a 3B68     		ldr	r3, [r7]
 2557 000c 0C2B     		cmp	r3, #12
 2558 000e 41D8     		bhi	.L151
 2559 0010 01A2     		adr	r2, .L143
 2560 0012 52F823F0 		ldr	pc, [r2, r3, lsl #2]
 2561 0016 00BF     		.p2align 2
 2562              	.L143:
 2563 0018 4D000000 		.word	.L142+1
 2564 001c 95000000 		.word	.L151+1
 2565 0020 95000000 		.word	.L151+1
 2566 0024 95000000 		.word	.L151+1
 2567 0028 5F000000 		.word	.L144+1
 2568 002c 95000000 		.word	.L151+1
 2569 0030 95000000 		.word	.L151+1
 2570 0034 95000000 		.word	.L151+1
 2571 0038 71000000 		.word	.L145+1
 2572 003c 95000000 		.word	.L151+1
 2573 0040 95000000 		.word	.L151+1
 2574 0044 95000000 		.word	.L151+1
 2575 0048 83000000 		.word	.L146+1
 2576              		.p2align 1
 2577              	.L142:
1227:Drivers/STM32F1xx_HAL_Driver/Src/stm32f1xx_hal_tim.c ****   {
1228:Drivers/STM32F1xx_HAL_Driver/Src/stm32f1xx_hal_tim.c ****     case TIM_CHANNEL_1:
1229:Drivers/STM32F1xx_HAL_Driver/Src/stm32f1xx_hal_tim.c ****     {
1230:Drivers/STM32F1xx_HAL_Driver/Src/stm32f1xx_hal_tim.c ****       /* Disable the TIM Capture/Compare 1 interrupt */
1231:Drivers/STM32F1xx_HAL_Driver/Src/stm32f1xx_hal_tim.c ****       __HAL_TIM_DISABLE_IT(htim, TIM_IT_CC1);
 2578              		.loc 1 1231 0
 2579 004c 7B68     		ldr	r3, [r7, #4]
 2580 004e 1B68     		ldr	r3, [r3]
 2581 0050 DA68     		ldr	r2, [r3, #12]
 2582 0052 7B68     		ldr	r3, [r7, #4]
 2583 0054 1B68     		ldr	r3, [r3]
 2584 0056 22F00202 		bic	r2, r2, #2
 2585 005a DA60     		str	r2, [r3, #12]
1232:Drivers/STM32F1xx_HAL_Driver/Src/stm32f1xx_hal_tim.c ****     }
ARM GAS  /tmp/cc5HGhWi.s 			page 67


1233:Drivers/STM32F1xx_HAL_Driver/Src/stm32f1xx_hal_tim.c ****     break;
 2586              		.loc 1 1233 0
 2587 005c 1BE0     		b	.L147
 2588              	.L144:
1234:Drivers/STM32F1xx_HAL_Driver/Src/stm32f1xx_hal_tim.c **** 
1235:Drivers/STM32F1xx_HAL_Driver/Src/stm32f1xx_hal_tim.c ****     case TIM_CHANNEL_2:
1236:Drivers/STM32F1xx_HAL_Driver/Src/stm32f1xx_hal_tim.c ****     {
1237:Drivers/STM32F1xx_HAL_Driver/Src/stm32f1xx_hal_tim.c ****       /* Disable the TIM Capture/Compare 2 interrupt */
1238:Drivers/STM32F1xx_HAL_Driver/Src/stm32f1xx_hal_tim.c ****       __HAL_TIM_DISABLE_IT(htim, TIM_IT_CC2);
 2589              		.loc 1 1238 0
 2590 005e 7B68     		ldr	r3, [r7, #4]
 2591 0060 1B68     		ldr	r3, [r3]
 2592 0062 DA68     		ldr	r2, [r3, #12]
 2593 0064 7B68     		ldr	r3, [r7, #4]
 2594 0066 1B68     		ldr	r3, [r3]
 2595 0068 22F00402 		bic	r2, r2, #4
 2596 006c DA60     		str	r2, [r3, #12]
1239:Drivers/STM32F1xx_HAL_Driver/Src/stm32f1xx_hal_tim.c ****     }
1240:Drivers/STM32F1xx_HAL_Driver/Src/stm32f1xx_hal_tim.c ****     break;
 2597              		.loc 1 1240 0
 2598 006e 12E0     		b	.L147
 2599              	.L145:
1241:Drivers/STM32F1xx_HAL_Driver/Src/stm32f1xx_hal_tim.c **** 
1242:Drivers/STM32F1xx_HAL_Driver/Src/stm32f1xx_hal_tim.c ****     case TIM_CHANNEL_3:
1243:Drivers/STM32F1xx_HAL_Driver/Src/stm32f1xx_hal_tim.c ****     {
1244:Drivers/STM32F1xx_HAL_Driver/Src/stm32f1xx_hal_tim.c ****       /* Disable the TIM Capture/Compare 3 interrupt */
1245:Drivers/STM32F1xx_HAL_Driver/Src/stm32f1xx_hal_tim.c ****       __HAL_TIM_DISABLE_IT(htim, TIM_IT_CC3);
 2600              		.loc 1 1245 0
 2601 0070 7B68     		ldr	r3, [r7, #4]
 2602 0072 1B68     		ldr	r3, [r3]
 2603 0074 DA68     		ldr	r2, [r3, #12]
 2604 0076 7B68     		ldr	r3, [r7, #4]
 2605 0078 1B68     		ldr	r3, [r3]
 2606 007a 22F00802 		bic	r2, r2, #8
 2607 007e DA60     		str	r2, [r3, #12]
1246:Drivers/STM32F1xx_HAL_Driver/Src/stm32f1xx_hal_tim.c ****     }
1247:Drivers/STM32F1xx_HAL_Driver/Src/stm32f1xx_hal_tim.c ****     break;
 2608              		.loc 1 1247 0
 2609 0080 09E0     		b	.L147
 2610              	.L146:
1248:Drivers/STM32F1xx_HAL_Driver/Src/stm32f1xx_hal_tim.c **** 
1249:Drivers/STM32F1xx_HAL_Driver/Src/stm32f1xx_hal_tim.c ****     case TIM_CHANNEL_4:
1250:Drivers/STM32F1xx_HAL_Driver/Src/stm32f1xx_hal_tim.c ****     {
1251:Drivers/STM32F1xx_HAL_Driver/Src/stm32f1xx_hal_tim.c ****       /* Disable the TIM Capture/Compare 4 interrupt */
1252:Drivers/STM32F1xx_HAL_Driver/Src/stm32f1xx_hal_tim.c ****       __HAL_TIM_DISABLE_IT(htim, TIM_IT_CC4);
 2611              		.loc 1 1252 0
 2612 0082 7B68     		ldr	r3, [r7, #4]
 2613 0084 1B68     		ldr	r3, [r3]
 2614 0086 DA68     		ldr	r2, [r3, #12]
 2615 0088 7B68     		ldr	r3, [r7, #4]
 2616 008a 1B68     		ldr	r3, [r3]
 2617 008c 22F01002 		bic	r2, r2, #16
 2618 0090 DA60     		str	r2, [r3, #12]
1253:Drivers/STM32F1xx_HAL_Driver/Src/stm32f1xx_hal_tim.c ****     }
1254:Drivers/STM32F1xx_HAL_Driver/Src/stm32f1xx_hal_tim.c ****     break;
 2619              		.loc 1 1254 0
 2620 0092 00E0     		b	.L147
ARM GAS  /tmp/cc5HGhWi.s 			page 68


 2621              	.L151:
1255:Drivers/STM32F1xx_HAL_Driver/Src/stm32f1xx_hal_tim.c **** 
1256:Drivers/STM32F1xx_HAL_Driver/Src/stm32f1xx_hal_tim.c ****     default:
1257:Drivers/STM32F1xx_HAL_Driver/Src/stm32f1xx_hal_tim.c ****     break;
 2622              		.loc 1 1257 0
 2623 0094 00BF     		nop
 2624              	.L147:
1258:Drivers/STM32F1xx_HAL_Driver/Src/stm32f1xx_hal_tim.c ****   }
1259:Drivers/STM32F1xx_HAL_Driver/Src/stm32f1xx_hal_tim.c **** 
1260:Drivers/STM32F1xx_HAL_Driver/Src/stm32f1xx_hal_tim.c ****   /* Disable the Capture compare channel */
1261:Drivers/STM32F1xx_HAL_Driver/Src/stm32f1xx_hal_tim.c ****   TIM_CCxChannelCmd(htim->Instance, Channel, TIM_CCx_DISABLE);
 2625              		.loc 1 1261 0
 2626 0096 7B68     		ldr	r3, [r7, #4]
 2627 0098 1B68     		ldr	r3, [r3]
 2628 009a 0022     		movs	r2, #0
 2629 009c 3968     		ldr	r1, [r7]
 2630 009e 1846     		mov	r0, r3
 2631 00a0 FFF7FEFF 		bl	TIM_CCxChannelCmd
1262:Drivers/STM32F1xx_HAL_Driver/Src/stm32f1xx_hal_tim.c **** 
1263:Drivers/STM32F1xx_HAL_Driver/Src/stm32f1xx_hal_tim.c ****   if(IS_TIM_BREAK_INSTANCE(htim->Instance) != RESET)
 2632              		.loc 1 1263 0
 2633 00a4 7B68     		ldr	r3, [r7, #4]
 2634 00a6 1B68     		ldr	r3, [r3]
 2635 00a8 1B4A     		ldr	r2, .L152
 2636 00aa 9342     		cmp	r3, r2
 2637 00ac 17D1     		bne	.L148
1264:Drivers/STM32F1xx_HAL_Driver/Src/stm32f1xx_hal_tim.c ****   {
1265:Drivers/STM32F1xx_HAL_Driver/Src/stm32f1xx_hal_tim.c ****     /* Disable the Main Ouput */
1266:Drivers/STM32F1xx_HAL_Driver/Src/stm32f1xx_hal_tim.c ****     __HAL_TIM_MOE_DISABLE(htim);
 2638              		.loc 1 1266 0
 2639 00ae 7B68     		ldr	r3, [r7, #4]
 2640 00b0 1B68     		ldr	r3, [r3]
 2641 00b2 1A6A     		ldr	r2, [r3, #32]
 2642 00b4 41F21113 		movw	r3, #4369
 2643 00b8 1340     		ands	r3, r3, r2
 2644 00ba 002B     		cmp	r3, #0
 2645 00bc 0FD1     		bne	.L148
 2646              		.loc 1 1266 0 is_stmt 0 discriminator 1
 2647 00be 7B68     		ldr	r3, [r7, #4]
 2648 00c0 1B68     		ldr	r3, [r3]
 2649 00c2 1A6A     		ldr	r2, [r3, #32]
 2650 00c4 40F24443 		movw	r3, #1092
 2651 00c8 1340     		ands	r3, r3, r2
 2652 00ca 002B     		cmp	r3, #0
 2653 00cc 07D1     		bne	.L148
 2654              		.loc 1 1266 0 discriminator 2
 2655 00ce 7B68     		ldr	r3, [r7, #4]
 2656 00d0 1B68     		ldr	r3, [r3]
 2657 00d2 5A6C     		ldr	r2, [r3, #68]
 2658 00d4 7B68     		ldr	r3, [r7, #4]
 2659 00d6 1B68     		ldr	r3, [r3]
 2660 00d8 22F40042 		bic	r2, r2, #32768
 2661 00dc 5A64     		str	r2, [r3, #68]
 2662              	.L148:
1267:Drivers/STM32F1xx_HAL_Driver/Src/stm32f1xx_hal_tim.c ****   }
1268:Drivers/STM32F1xx_HAL_Driver/Src/stm32f1xx_hal_tim.c **** 
1269:Drivers/STM32F1xx_HAL_Driver/Src/stm32f1xx_hal_tim.c ****   /* Disable the Peripheral */
ARM GAS  /tmp/cc5HGhWi.s 			page 69


1270:Drivers/STM32F1xx_HAL_Driver/Src/stm32f1xx_hal_tim.c ****   __HAL_TIM_DISABLE(htim);
 2663              		.loc 1 1270 0 is_stmt 1
 2664 00de 7B68     		ldr	r3, [r7, #4]
 2665 00e0 1B68     		ldr	r3, [r3]
 2666 00e2 1A6A     		ldr	r2, [r3, #32]
 2667 00e4 41F21113 		movw	r3, #4369
 2668 00e8 1340     		ands	r3, r3, r2
 2669 00ea 002B     		cmp	r3, #0
 2670 00ec 0FD1     		bne	.L149
 2671              		.loc 1 1270 0 is_stmt 0 discriminator 1
 2672 00ee 7B68     		ldr	r3, [r7, #4]
 2673 00f0 1B68     		ldr	r3, [r3]
 2674 00f2 1A6A     		ldr	r2, [r3, #32]
 2675 00f4 40F24443 		movw	r3, #1092
 2676 00f8 1340     		ands	r3, r3, r2
 2677 00fa 002B     		cmp	r3, #0
 2678 00fc 07D1     		bne	.L149
 2679              		.loc 1 1270 0 discriminator 2
 2680 00fe 7B68     		ldr	r3, [r7, #4]
 2681 0100 1B68     		ldr	r3, [r3]
 2682 0102 1A68     		ldr	r2, [r3]
 2683 0104 7B68     		ldr	r3, [r7, #4]
 2684 0106 1B68     		ldr	r3, [r3]
 2685 0108 22F00102 		bic	r2, r2, #1
 2686 010c 1A60     		str	r2, [r3]
 2687              	.L149:
1271:Drivers/STM32F1xx_HAL_Driver/Src/stm32f1xx_hal_tim.c **** 
1272:Drivers/STM32F1xx_HAL_Driver/Src/stm32f1xx_hal_tim.c ****   /* Return function status */
1273:Drivers/STM32F1xx_HAL_Driver/Src/stm32f1xx_hal_tim.c ****   return HAL_OK;
 2688              		.loc 1 1273 0 is_stmt 1
 2689 010e 0023     		movs	r3, #0
1274:Drivers/STM32F1xx_HAL_Driver/Src/stm32f1xx_hal_tim.c **** }
 2690              		.loc 1 1274 0
 2691 0110 1846     		mov	r0, r3
 2692 0112 0837     		adds	r7, r7, #8
 2693              	.LCFI149:
 2694              		.cfi_def_cfa_offset 8
 2695 0114 BD46     		mov	sp, r7
 2696              	.LCFI150:
 2697              		.cfi_def_cfa_register 13
 2698              		@ sp needed
 2699 0116 80BD     		pop	{r7, pc}
 2700              	.L153:
 2701              		.align	2
 2702              	.L152:
 2703 0118 002C0140 		.word	1073818624
 2704              		.cfi_endproc
 2705              	.LFE93:
 2707              		.section	.text.HAL_TIM_PWM_Start_DMA,"ax",%progbits
 2708              		.align	1
 2709              		.global	HAL_TIM_PWM_Start_DMA
 2710              		.syntax unified
 2711              		.thumb
 2712              		.thumb_func
 2713              		.fpu softvfp
 2715              	HAL_TIM_PWM_Start_DMA:
 2716              	.LFB94:
ARM GAS  /tmp/cc5HGhWi.s 			page 70


1275:Drivers/STM32F1xx_HAL_Driver/Src/stm32f1xx_hal_tim.c **** 
1276:Drivers/STM32F1xx_HAL_Driver/Src/stm32f1xx_hal_tim.c **** /**
1277:Drivers/STM32F1xx_HAL_Driver/Src/stm32f1xx_hal_tim.c ****   * @brief  Starts the TIM PWM signal generation in DMA mode.
1278:Drivers/STM32F1xx_HAL_Driver/Src/stm32f1xx_hal_tim.c ****   * @param  htim : TIM handle
1279:Drivers/STM32F1xx_HAL_Driver/Src/stm32f1xx_hal_tim.c ****   * @param  Channel : TIM Channels to be enabled
1280:Drivers/STM32F1xx_HAL_Driver/Src/stm32f1xx_hal_tim.c ****   *          This parameter can be one of the following values:
1281:Drivers/STM32F1xx_HAL_Driver/Src/stm32f1xx_hal_tim.c ****   *            @arg TIM_CHANNEL_1: TIM Channel 1 selected
1282:Drivers/STM32F1xx_HAL_Driver/Src/stm32f1xx_hal_tim.c ****   *            @arg TIM_CHANNEL_2: TIM Channel 2 selected
1283:Drivers/STM32F1xx_HAL_Driver/Src/stm32f1xx_hal_tim.c ****   *            @arg TIM_CHANNEL_3: TIM Channel 3 selected
1284:Drivers/STM32F1xx_HAL_Driver/Src/stm32f1xx_hal_tim.c ****   *            @arg TIM_CHANNEL_4: TIM Channel 4 selected
1285:Drivers/STM32F1xx_HAL_Driver/Src/stm32f1xx_hal_tim.c ****   * @param  pData : The source Buffer address.
1286:Drivers/STM32F1xx_HAL_Driver/Src/stm32f1xx_hal_tim.c ****   * @param  Length : The length of data to be transferred from memory to TIM peripheral
1287:Drivers/STM32F1xx_HAL_Driver/Src/stm32f1xx_hal_tim.c ****   * @retval HAL status
1288:Drivers/STM32F1xx_HAL_Driver/Src/stm32f1xx_hal_tim.c **** */
1289:Drivers/STM32F1xx_HAL_Driver/Src/stm32f1xx_hal_tim.c **** HAL_StatusTypeDef HAL_TIM_PWM_Start_DMA(TIM_HandleTypeDef *htim, uint32_t Channel, uint32_t *pData,
1290:Drivers/STM32F1xx_HAL_Driver/Src/stm32f1xx_hal_tim.c **** {
 2717              		.loc 1 1290 0
 2718              		.cfi_startproc
 2719              		@ args = 0, pretend = 0, frame = 16
 2720              		@ frame_needed = 1, uses_anonymous_args = 0
 2721 0000 80B5     		push	{r7, lr}
 2722              	.LCFI151:
 2723              		.cfi_def_cfa_offset 8
 2724              		.cfi_offset 7, -8
 2725              		.cfi_offset 14, -4
 2726 0002 84B0     		sub	sp, sp, #16
 2727              	.LCFI152:
 2728              		.cfi_def_cfa_offset 24
 2729 0004 00AF     		add	r7, sp, #0
 2730              	.LCFI153:
 2731              		.cfi_def_cfa_register 7
 2732 0006 F860     		str	r0, [r7, #12]
 2733 0008 B960     		str	r1, [r7, #8]
 2734 000a 7A60     		str	r2, [r7, #4]
 2735 000c 7B80     		strh	r3, [r7, #2]	@ movhi
1291:Drivers/STM32F1xx_HAL_Driver/Src/stm32f1xx_hal_tim.c ****   /* Check the parameters */
1292:Drivers/STM32F1xx_HAL_Driver/Src/stm32f1xx_hal_tim.c ****   assert_param(IS_TIM_CCX_INSTANCE(htim->Instance, Channel));
1293:Drivers/STM32F1xx_HAL_Driver/Src/stm32f1xx_hal_tim.c **** 
1294:Drivers/STM32F1xx_HAL_Driver/Src/stm32f1xx_hal_tim.c ****   if((htim->State == HAL_TIM_STATE_BUSY))
 2736              		.loc 1 1294 0
 2737 000e FB68     		ldr	r3, [r7, #12]
 2738 0010 93F83D30 		ldrb	r3, [r3, #61]
 2739 0014 DBB2     		uxtb	r3, r3
 2740 0016 022B     		cmp	r3, #2
 2741 0018 01D1     		bne	.L155
1295:Drivers/STM32F1xx_HAL_Driver/Src/stm32f1xx_hal_tim.c ****   {
1296:Drivers/STM32F1xx_HAL_Driver/Src/stm32f1xx_hal_tim.c ****      return HAL_BUSY;
 2742              		.loc 1 1296 0
 2743 001a 0223     		movs	r3, #2
 2744 001c BCE0     		b	.L156
 2745              	.L155:
1297:Drivers/STM32F1xx_HAL_Driver/Src/stm32f1xx_hal_tim.c ****   }
1298:Drivers/STM32F1xx_HAL_Driver/Src/stm32f1xx_hal_tim.c ****   else if((htim->State == HAL_TIM_STATE_READY))
 2746              		.loc 1 1298 0
 2747 001e FB68     		ldr	r3, [r7, #12]
 2748 0020 93F83D30 		ldrb	r3, [r3, #61]
 2749 0024 DBB2     		uxtb	r3, r3
ARM GAS  /tmp/cc5HGhWi.s 			page 71


 2750 0026 012B     		cmp	r3, #1
 2751 0028 0BD1     		bne	.L157
1299:Drivers/STM32F1xx_HAL_Driver/Src/stm32f1xx_hal_tim.c ****   {
1300:Drivers/STM32F1xx_HAL_Driver/Src/stm32f1xx_hal_tim.c ****     if(((uint32_t)pData == 0U) && (Length > 0U))
 2752              		.loc 1 1300 0
 2753 002a 7B68     		ldr	r3, [r7, #4]
 2754 002c 002B     		cmp	r3, #0
 2755 002e 04D1     		bne	.L158
 2756              		.loc 1 1300 0 is_stmt 0 discriminator 1
 2757 0030 7B88     		ldrh	r3, [r7, #2]
 2758 0032 002B     		cmp	r3, #0
 2759 0034 01D0     		beq	.L158
1301:Drivers/STM32F1xx_HAL_Driver/Src/stm32f1xx_hal_tim.c ****     {
1302:Drivers/STM32F1xx_HAL_Driver/Src/stm32f1xx_hal_tim.c ****       return HAL_ERROR;
 2760              		.loc 1 1302 0 is_stmt 1
 2761 0036 0123     		movs	r3, #1
 2762 0038 AEE0     		b	.L156
 2763              	.L158:
1303:Drivers/STM32F1xx_HAL_Driver/Src/stm32f1xx_hal_tim.c ****     }
1304:Drivers/STM32F1xx_HAL_Driver/Src/stm32f1xx_hal_tim.c ****     else
1305:Drivers/STM32F1xx_HAL_Driver/Src/stm32f1xx_hal_tim.c ****     {
1306:Drivers/STM32F1xx_HAL_Driver/Src/stm32f1xx_hal_tim.c ****       htim->State = HAL_TIM_STATE_BUSY;
 2764              		.loc 1 1306 0
 2765 003a FB68     		ldr	r3, [r7, #12]
 2766 003c 0222     		movs	r2, #2
 2767 003e 83F83D20 		strb	r2, [r3, #61]
 2768              	.L157:
1307:Drivers/STM32F1xx_HAL_Driver/Src/stm32f1xx_hal_tim.c ****     }
1308:Drivers/STM32F1xx_HAL_Driver/Src/stm32f1xx_hal_tim.c ****   }
1309:Drivers/STM32F1xx_HAL_Driver/Src/stm32f1xx_hal_tim.c ****   switch (Channel)
 2769              		.loc 1 1309 0
 2770 0042 BB68     		ldr	r3, [r7, #8]
 2771 0044 0C2B     		cmp	r3, #12
 2772 0046 00F28980 		bhi	.L167
 2773 004a 01A2     		adr	r2, .L161
 2774 004c 52F823F0 		ldr	pc, [r2, r3, lsl #2]
 2775              		.p2align 2
 2776              	.L161:
 2777 0050 85000000 		.word	.L160+1
 2778 0054 5D010000 		.word	.L167+1
 2779 0058 5D010000 		.word	.L167+1
 2780 005c 5D010000 		.word	.L167+1
 2781 0060 BB000000 		.word	.L162+1
 2782 0064 5D010000 		.word	.L167+1
 2783 0068 5D010000 		.word	.L167+1
 2784 006c 5D010000 		.word	.L167+1
 2785 0070 F1000000 		.word	.L163+1
 2786 0074 5D010000 		.word	.L167+1
 2787 0078 5D010000 		.word	.L167+1
 2788 007c 5D010000 		.word	.L167+1
 2789 0080 27010000 		.word	.L164+1
 2790              		.p2align 1
 2791              	.L160:
1310:Drivers/STM32F1xx_HAL_Driver/Src/stm32f1xx_hal_tim.c ****   {
1311:Drivers/STM32F1xx_HAL_Driver/Src/stm32f1xx_hal_tim.c ****     case TIM_CHANNEL_1:
1312:Drivers/STM32F1xx_HAL_Driver/Src/stm32f1xx_hal_tim.c ****     {
1313:Drivers/STM32F1xx_HAL_Driver/Src/stm32f1xx_hal_tim.c ****       /* Set the DMA Period elapsed callback */
ARM GAS  /tmp/cc5HGhWi.s 			page 72


1314:Drivers/STM32F1xx_HAL_Driver/Src/stm32f1xx_hal_tim.c ****       htim->hdma[TIM_DMA_ID_CC1]->XferCpltCallback = TIM_DMADelayPulseCplt;
 2792              		.loc 1 1314 0
 2793 0084 FB68     		ldr	r3, [r7, #12]
 2794 0086 5B6A     		ldr	r3, [r3, #36]
 2795 0088 454A     		ldr	r2, .L168
 2796 008a 9A62     		str	r2, [r3, #40]
1315:Drivers/STM32F1xx_HAL_Driver/Src/stm32f1xx_hal_tim.c **** 
1316:Drivers/STM32F1xx_HAL_Driver/Src/stm32f1xx_hal_tim.c ****       /* Set the DMA error callback */
1317:Drivers/STM32F1xx_HAL_Driver/Src/stm32f1xx_hal_tim.c ****       htim->hdma[TIM_DMA_ID_CC1]->XferErrorCallback = TIM_DMAError ;
 2797              		.loc 1 1317 0
 2798 008c FB68     		ldr	r3, [r7, #12]
 2799 008e 5B6A     		ldr	r3, [r3, #36]
 2800 0090 444A     		ldr	r2, .L168+4
 2801 0092 1A63     		str	r2, [r3, #48]
1318:Drivers/STM32F1xx_HAL_Driver/Src/stm32f1xx_hal_tim.c **** 
1319:Drivers/STM32F1xx_HAL_Driver/Src/stm32f1xx_hal_tim.c ****       /* Enable the DMA channel */
1320:Drivers/STM32F1xx_HAL_Driver/Src/stm32f1xx_hal_tim.c ****       HAL_DMA_Start_IT(htim->hdma[TIM_DMA_ID_CC1], (uint32_t)pData, (uint32_t)&htim->Instance->CCR1
 2802              		.loc 1 1320 0
 2803 0094 FB68     		ldr	r3, [r7, #12]
 2804 0096 586A     		ldr	r0, [r3, #36]
 2805 0098 7968     		ldr	r1, [r7, #4]
 2806 009a FB68     		ldr	r3, [r7, #12]
 2807 009c 1B68     		ldr	r3, [r3]
 2808 009e 3433     		adds	r3, r3, #52
 2809 00a0 1A46     		mov	r2, r3
 2810 00a2 7B88     		ldrh	r3, [r7, #2]
 2811 00a4 FFF7FEFF 		bl	HAL_DMA_Start_IT
1321:Drivers/STM32F1xx_HAL_Driver/Src/stm32f1xx_hal_tim.c **** 
1322:Drivers/STM32F1xx_HAL_Driver/Src/stm32f1xx_hal_tim.c ****       /* Enable the TIM Capture/Compare 1 DMA request */
1323:Drivers/STM32F1xx_HAL_Driver/Src/stm32f1xx_hal_tim.c ****       __HAL_TIM_ENABLE_DMA(htim, TIM_DMA_CC1);
 2812              		.loc 1 1323 0
 2813 00a8 FB68     		ldr	r3, [r7, #12]
 2814 00aa 1B68     		ldr	r3, [r3]
 2815 00ac DA68     		ldr	r2, [r3, #12]
 2816 00ae FB68     		ldr	r3, [r7, #12]
 2817 00b0 1B68     		ldr	r3, [r3]
 2818 00b2 42F40072 		orr	r2, r2, #512
 2819 00b6 DA60     		str	r2, [r3, #12]
1324:Drivers/STM32F1xx_HAL_Driver/Src/stm32f1xx_hal_tim.c ****     }
1325:Drivers/STM32F1xx_HAL_Driver/Src/stm32f1xx_hal_tim.c ****     break;
 2820              		.loc 1 1325 0
 2821 00b8 51E0     		b	.L165
 2822              	.L162:
1326:Drivers/STM32F1xx_HAL_Driver/Src/stm32f1xx_hal_tim.c **** 
1327:Drivers/STM32F1xx_HAL_Driver/Src/stm32f1xx_hal_tim.c ****     case TIM_CHANNEL_2:
1328:Drivers/STM32F1xx_HAL_Driver/Src/stm32f1xx_hal_tim.c ****     {
1329:Drivers/STM32F1xx_HAL_Driver/Src/stm32f1xx_hal_tim.c ****       /* Set the DMA Period elapsed callback */
1330:Drivers/STM32F1xx_HAL_Driver/Src/stm32f1xx_hal_tim.c ****       htim->hdma[TIM_DMA_ID_CC2]->XferCpltCallback = TIM_DMADelayPulseCplt;
 2823              		.loc 1 1330 0
 2824 00ba FB68     		ldr	r3, [r7, #12]
 2825 00bc 9B6A     		ldr	r3, [r3, #40]
 2826 00be 384A     		ldr	r2, .L168
 2827 00c0 9A62     		str	r2, [r3, #40]
1331:Drivers/STM32F1xx_HAL_Driver/Src/stm32f1xx_hal_tim.c **** 
1332:Drivers/STM32F1xx_HAL_Driver/Src/stm32f1xx_hal_tim.c ****       /* Set the DMA error callback */
1333:Drivers/STM32F1xx_HAL_Driver/Src/stm32f1xx_hal_tim.c ****       htim->hdma[TIM_DMA_ID_CC2]->XferErrorCallback = TIM_DMAError ;
 2828              		.loc 1 1333 0
ARM GAS  /tmp/cc5HGhWi.s 			page 73


 2829 00c2 FB68     		ldr	r3, [r7, #12]
 2830 00c4 9B6A     		ldr	r3, [r3, #40]
 2831 00c6 374A     		ldr	r2, .L168+4
 2832 00c8 1A63     		str	r2, [r3, #48]
1334:Drivers/STM32F1xx_HAL_Driver/Src/stm32f1xx_hal_tim.c **** 
1335:Drivers/STM32F1xx_HAL_Driver/Src/stm32f1xx_hal_tim.c ****       /* Enable the DMA channel */
1336:Drivers/STM32F1xx_HAL_Driver/Src/stm32f1xx_hal_tim.c ****       HAL_DMA_Start_IT(htim->hdma[TIM_DMA_ID_CC2], (uint32_t)pData, (uint32_t)&htim->Instance->CCR2
 2833              		.loc 1 1336 0
 2834 00ca FB68     		ldr	r3, [r7, #12]
 2835 00cc 986A     		ldr	r0, [r3, #40]
 2836 00ce 7968     		ldr	r1, [r7, #4]
 2837 00d0 FB68     		ldr	r3, [r7, #12]
 2838 00d2 1B68     		ldr	r3, [r3]
 2839 00d4 3833     		adds	r3, r3, #56
 2840 00d6 1A46     		mov	r2, r3
 2841 00d8 7B88     		ldrh	r3, [r7, #2]
 2842 00da FFF7FEFF 		bl	HAL_DMA_Start_IT
1337:Drivers/STM32F1xx_HAL_Driver/Src/stm32f1xx_hal_tim.c **** 
1338:Drivers/STM32F1xx_HAL_Driver/Src/stm32f1xx_hal_tim.c ****       /* Enable the TIM Capture/Compare 2 DMA request */
1339:Drivers/STM32F1xx_HAL_Driver/Src/stm32f1xx_hal_tim.c ****       __HAL_TIM_ENABLE_DMA(htim, TIM_DMA_CC2);
 2843              		.loc 1 1339 0
 2844 00de FB68     		ldr	r3, [r7, #12]
 2845 00e0 1B68     		ldr	r3, [r3]
 2846 00e2 DA68     		ldr	r2, [r3, #12]
 2847 00e4 FB68     		ldr	r3, [r7, #12]
 2848 00e6 1B68     		ldr	r3, [r3]
 2849 00e8 42F48062 		orr	r2, r2, #1024
 2850 00ec DA60     		str	r2, [r3, #12]
1340:Drivers/STM32F1xx_HAL_Driver/Src/stm32f1xx_hal_tim.c ****     }
1341:Drivers/STM32F1xx_HAL_Driver/Src/stm32f1xx_hal_tim.c ****     break;
 2851              		.loc 1 1341 0
 2852 00ee 36E0     		b	.L165
 2853              	.L163:
1342:Drivers/STM32F1xx_HAL_Driver/Src/stm32f1xx_hal_tim.c **** 
1343:Drivers/STM32F1xx_HAL_Driver/Src/stm32f1xx_hal_tim.c ****     case TIM_CHANNEL_3:
1344:Drivers/STM32F1xx_HAL_Driver/Src/stm32f1xx_hal_tim.c ****     {
1345:Drivers/STM32F1xx_HAL_Driver/Src/stm32f1xx_hal_tim.c ****       /* Set the DMA Period elapsed callback */
1346:Drivers/STM32F1xx_HAL_Driver/Src/stm32f1xx_hal_tim.c ****       htim->hdma[TIM_DMA_ID_CC3]->XferCpltCallback = TIM_DMADelayPulseCplt;
 2854              		.loc 1 1346 0
 2855 00f0 FB68     		ldr	r3, [r7, #12]
 2856 00f2 DB6A     		ldr	r3, [r3, #44]
 2857 00f4 2A4A     		ldr	r2, .L168
 2858 00f6 9A62     		str	r2, [r3, #40]
1347:Drivers/STM32F1xx_HAL_Driver/Src/stm32f1xx_hal_tim.c **** 
1348:Drivers/STM32F1xx_HAL_Driver/Src/stm32f1xx_hal_tim.c ****       /* Set the DMA error callback */
1349:Drivers/STM32F1xx_HAL_Driver/Src/stm32f1xx_hal_tim.c ****       htim->hdma[TIM_DMA_ID_CC3]->XferErrorCallback = TIM_DMAError ;
 2859              		.loc 1 1349 0
 2860 00f8 FB68     		ldr	r3, [r7, #12]
 2861 00fa DB6A     		ldr	r3, [r3, #44]
 2862 00fc 294A     		ldr	r2, .L168+4
 2863 00fe 1A63     		str	r2, [r3, #48]
1350:Drivers/STM32F1xx_HAL_Driver/Src/stm32f1xx_hal_tim.c **** 
1351:Drivers/STM32F1xx_HAL_Driver/Src/stm32f1xx_hal_tim.c ****       /* Enable the DMA channel */
1352:Drivers/STM32F1xx_HAL_Driver/Src/stm32f1xx_hal_tim.c ****       HAL_DMA_Start_IT(htim->hdma[TIM_DMA_ID_CC3], (uint32_t)pData, (uint32_t)&htim->Instance->CCR3
 2864              		.loc 1 1352 0
 2865 0100 FB68     		ldr	r3, [r7, #12]
 2866 0102 D86A     		ldr	r0, [r3, #44]
ARM GAS  /tmp/cc5HGhWi.s 			page 74


 2867 0104 7968     		ldr	r1, [r7, #4]
 2868 0106 FB68     		ldr	r3, [r7, #12]
 2869 0108 1B68     		ldr	r3, [r3]
 2870 010a 3C33     		adds	r3, r3, #60
 2871 010c 1A46     		mov	r2, r3
 2872 010e 7B88     		ldrh	r3, [r7, #2]
 2873 0110 FFF7FEFF 		bl	HAL_DMA_Start_IT
1353:Drivers/STM32F1xx_HAL_Driver/Src/stm32f1xx_hal_tim.c **** 
1354:Drivers/STM32F1xx_HAL_Driver/Src/stm32f1xx_hal_tim.c ****       /* Enable the TIM Output Capture/Compare 3 request */
1355:Drivers/STM32F1xx_HAL_Driver/Src/stm32f1xx_hal_tim.c ****       __HAL_TIM_ENABLE_DMA(htim, TIM_DMA_CC3);
 2874              		.loc 1 1355 0
 2875 0114 FB68     		ldr	r3, [r7, #12]
 2876 0116 1B68     		ldr	r3, [r3]
 2877 0118 DA68     		ldr	r2, [r3, #12]
 2878 011a FB68     		ldr	r3, [r7, #12]
 2879 011c 1B68     		ldr	r3, [r3]
 2880 011e 42F40062 		orr	r2, r2, #2048
 2881 0122 DA60     		str	r2, [r3, #12]
1356:Drivers/STM32F1xx_HAL_Driver/Src/stm32f1xx_hal_tim.c ****     }
1357:Drivers/STM32F1xx_HAL_Driver/Src/stm32f1xx_hal_tim.c ****     break;
 2882              		.loc 1 1357 0
 2883 0124 1BE0     		b	.L165
 2884              	.L164:
1358:Drivers/STM32F1xx_HAL_Driver/Src/stm32f1xx_hal_tim.c **** 
1359:Drivers/STM32F1xx_HAL_Driver/Src/stm32f1xx_hal_tim.c ****     case TIM_CHANNEL_4:
1360:Drivers/STM32F1xx_HAL_Driver/Src/stm32f1xx_hal_tim.c ****     {
1361:Drivers/STM32F1xx_HAL_Driver/Src/stm32f1xx_hal_tim.c ****      /* Set the DMA Period elapsed callback */
1362:Drivers/STM32F1xx_HAL_Driver/Src/stm32f1xx_hal_tim.c ****       htim->hdma[TIM_DMA_ID_CC4]->XferCpltCallback = TIM_DMADelayPulseCplt;
 2885              		.loc 1 1362 0
 2886 0126 FB68     		ldr	r3, [r7, #12]
 2887 0128 1B6B     		ldr	r3, [r3, #48]
 2888 012a 1D4A     		ldr	r2, .L168
 2889 012c 9A62     		str	r2, [r3, #40]
1363:Drivers/STM32F1xx_HAL_Driver/Src/stm32f1xx_hal_tim.c **** 
1364:Drivers/STM32F1xx_HAL_Driver/Src/stm32f1xx_hal_tim.c ****       /* Set the DMA error callback */
1365:Drivers/STM32F1xx_HAL_Driver/Src/stm32f1xx_hal_tim.c ****       htim->hdma[TIM_DMA_ID_CC4]->XferErrorCallback = TIM_DMAError ;
 2890              		.loc 1 1365 0
 2891 012e FB68     		ldr	r3, [r7, #12]
 2892 0130 1B6B     		ldr	r3, [r3, #48]
 2893 0132 1C4A     		ldr	r2, .L168+4
 2894 0134 1A63     		str	r2, [r3, #48]
1366:Drivers/STM32F1xx_HAL_Driver/Src/stm32f1xx_hal_tim.c **** 
1367:Drivers/STM32F1xx_HAL_Driver/Src/stm32f1xx_hal_tim.c ****       /* Enable the DMA channel */
1368:Drivers/STM32F1xx_HAL_Driver/Src/stm32f1xx_hal_tim.c ****       HAL_DMA_Start_IT(htim->hdma[TIM_DMA_ID_CC4], (uint32_t)pData, (uint32_t)&htim->Instance->CCR4
 2895              		.loc 1 1368 0
 2896 0136 FB68     		ldr	r3, [r7, #12]
 2897 0138 186B     		ldr	r0, [r3, #48]
 2898 013a 7968     		ldr	r1, [r7, #4]
 2899 013c FB68     		ldr	r3, [r7, #12]
 2900 013e 1B68     		ldr	r3, [r3]
 2901 0140 4033     		adds	r3, r3, #64
 2902 0142 1A46     		mov	r2, r3
 2903 0144 7B88     		ldrh	r3, [r7, #2]
 2904 0146 FFF7FEFF 		bl	HAL_DMA_Start_IT
1369:Drivers/STM32F1xx_HAL_Driver/Src/stm32f1xx_hal_tim.c **** 
1370:Drivers/STM32F1xx_HAL_Driver/Src/stm32f1xx_hal_tim.c ****       /* Enable the TIM Capture/Compare 4 DMA request */
1371:Drivers/STM32F1xx_HAL_Driver/Src/stm32f1xx_hal_tim.c ****       __HAL_TIM_ENABLE_DMA(htim, TIM_DMA_CC4);
ARM GAS  /tmp/cc5HGhWi.s 			page 75


 2905              		.loc 1 1371 0
 2906 014a FB68     		ldr	r3, [r7, #12]
 2907 014c 1B68     		ldr	r3, [r3]
 2908 014e DA68     		ldr	r2, [r3, #12]
 2909 0150 FB68     		ldr	r3, [r7, #12]
 2910 0152 1B68     		ldr	r3, [r3]
 2911 0154 42F48052 		orr	r2, r2, #4096
 2912 0158 DA60     		str	r2, [r3, #12]
1372:Drivers/STM32F1xx_HAL_Driver/Src/stm32f1xx_hal_tim.c ****     }
1373:Drivers/STM32F1xx_HAL_Driver/Src/stm32f1xx_hal_tim.c ****     break;
 2913              		.loc 1 1373 0
 2914 015a 00E0     		b	.L165
 2915              	.L167:
1374:Drivers/STM32F1xx_HAL_Driver/Src/stm32f1xx_hal_tim.c **** 
1375:Drivers/STM32F1xx_HAL_Driver/Src/stm32f1xx_hal_tim.c ****     default:
1376:Drivers/STM32F1xx_HAL_Driver/Src/stm32f1xx_hal_tim.c ****     break;
 2916              		.loc 1 1376 0
 2917 015c 00BF     		nop
 2918              	.L165:
1377:Drivers/STM32F1xx_HAL_Driver/Src/stm32f1xx_hal_tim.c ****   }
1378:Drivers/STM32F1xx_HAL_Driver/Src/stm32f1xx_hal_tim.c **** 
1379:Drivers/STM32F1xx_HAL_Driver/Src/stm32f1xx_hal_tim.c ****   /* Enable the Capture compare channel */
1380:Drivers/STM32F1xx_HAL_Driver/Src/stm32f1xx_hal_tim.c ****   TIM_CCxChannelCmd(htim->Instance, Channel, TIM_CCx_ENABLE);
 2919              		.loc 1 1380 0
 2920 015e FB68     		ldr	r3, [r7, #12]
 2921 0160 1B68     		ldr	r3, [r3]
 2922 0162 0122     		movs	r2, #1
 2923 0164 B968     		ldr	r1, [r7, #8]
 2924 0166 1846     		mov	r0, r3
 2925 0168 FFF7FEFF 		bl	TIM_CCxChannelCmd
1381:Drivers/STM32F1xx_HAL_Driver/Src/stm32f1xx_hal_tim.c **** 
1382:Drivers/STM32F1xx_HAL_Driver/Src/stm32f1xx_hal_tim.c ****   if(IS_TIM_BREAK_INSTANCE(htim->Instance) != RESET)
 2926              		.loc 1 1382 0
 2927 016c FB68     		ldr	r3, [r7, #12]
 2928 016e 1B68     		ldr	r3, [r3]
 2929 0170 0D4A     		ldr	r2, .L168+8
 2930 0172 9342     		cmp	r3, r2
 2931 0174 07D1     		bne	.L166
1383:Drivers/STM32F1xx_HAL_Driver/Src/stm32f1xx_hal_tim.c ****   {
1384:Drivers/STM32F1xx_HAL_Driver/Src/stm32f1xx_hal_tim.c ****     /* Enable the main output */
1385:Drivers/STM32F1xx_HAL_Driver/Src/stm32f1xx_hal_tim.c ****     __HAL_TIM_MOE_ENABLE(htim);
 2932              		.loc 1 1385 0
 2933 0176 FB68     		ldr	r3, [r7, #12]
 2934 0178 1B68     		ldr	r3, [r3]
 2935 017a 5A6C     		ldr	r2, [r3, #68]
 2936 017c FB68     		ldr	r3, [r7, #12]
 2937 017e 1B68     		ldr	r3, [r3]
 2938 0180 42F40042 		orr	r2, r2, #32768
 2939 0184 5A64     		str	r2, [r3, #68]
 2940              	.L166:
1386:Drivers/STM32F1xx_HAL_Driver/Src/stm32f1xx_hal_tim.c ****   }
1387:Drivers/STM32F1xx_HAL_Driver/Src/stm32f1xx_hal_tim.c **** 
1388:Drivers/STM32F1xx_HAL_Driver/Src/stm32f1xx_hal_tim.c ****   /* Enable the Peripheral */
1389:Drivers/STM32F1xx_HAL_Driver/Src/stm32f1xx_hal_tim.c ****   __HAL_TIM_ENABLE(htim);
 2941              		.loc 1 1389 0
 2942 0186 FB68     		ldr	r3, [r7, #12]
 2943 0188 1B68     		ldr	r3, [r3]
ARM GAS  /tmp/cc5HGhWi.s 			page 76


 2944 018a 1A68     		ldr	r2, [r3]
 2945 018c FB68     		ldr	r3, [r7, #12]
 2946 018e 1B68     		ldr	r3, [r3]
 2947 0190 42F00102 		orr	r2, r2, #1
 2948 0194 1A60     		str	r2, [r3]
1390:Drivers/STM32F1xx_HAL_Driver/Src/stm32f1xx_hal_tim.c **** 
1391:Drivers/STM32F1xx_HAL_Driver/Src/stm32f1xx_hal_tim.c ****   /* Return function status */
1392:Drivers/STM32F1xx_HAL_Driver/Src/stm32f1xx_hal_tim.c ****   return HAL_OK;
 2949              		.loc 1 1392 0
 2950 0196 0023     		movs	r3, #0
 2951              	.L156:
1393:Drivers/STM32F1xx_HAL_Driver/Src/stm32f1xx_hal_tim.c **** }
 2952              		.loc 1 1393 0
 2953 0198 1846     		mov	r0, r3
 2954 019a 1037     		adds	r7, r7, #16
 2955              	.LCFI154:
 2956              		.cfi_def_cfa_offset 8
 2957 019c BD46     		mov	sp, r7
 2958              	.LCFI155:
 2959              		.cfi_def_cfa_register 13
 2960              		@ sp needed
 2961 019e 80BD     		pop	{r7, pc}
 2962              	.L169:
 2963              		.align	2
 2964              	.L168:
 2965 01a0 00000000 		.word	TIM_DMADelayPulseCplt
 2966 01a4 00000000 		.word	TIM_DMAError
 2967 01a8 002C0140 		.word	1073818624
 2968              		.cfi_endproc
 2969              	.LFE94:
 2971              		.section	.text.HAL_TIM_PWM_Stop_DMA,"ax",%progbits
 2972              		.align	1
 2973              		.global	HAL_TIM_PWM_Stop_DMA
 2974              		.syntax unified
 2975              		.thumb
 2976              		.thumb_func
 2977              		.fpu softvfp
 2979              	HAL_TIM_PWM_Stop_DMA:
 2980              	.LFB95:
1394:Drivers/STM32F1xx_HAL_Driver/Src/stm32f1xx_hal_tim.c **** 
1395:Drivers/STM32F1xx_HAL_Driver/Src/stm32f1xx_hal_tim.c **** /**
1396:Drivers/STM32F1xx_HAL_Driver/Src/stm32f1xx_hal_tim.c ****   * @brief  Stops the TIM PWM signal generation in DMA mode.
1397:Drivers/STM32F1xx_HAL_Driver/Src/stm32f1xx_hal_tim.c ****   * @param  htim : TIM handle
1398:Drivers/STM32F1xx_HAL_Driver/Src/stm32f1xx_hal_tim.c ****   * @param  Channel : TIM Channels to be disabled
1399:Drivers/STM32F1xx_HAL_Driver/Src/stm32f1xx_hal_tim.c ****   *          This parameter can be one of the following values:
1400:Drivers/STM32F1xx_HAL_Driver/Src/stm32f1xx_hal_tim.c ****   *            @arg TIM_CHANNEL_1: TIM Channel 1 selected
1401:Drivers/STM32F1xx_HAL_Driver/Src/stm32f1xx_hal_tim.c ****   *            @arg TIM_CHANNEL_2: TIM Channel 2 selected
1402:Drivers/STM32F1xx_HAL_Driver/Src/stm32f1xx_hal_tim.c ****   *            @arg TIM_CHANNEL_3: TIM Channel 3 selected
1403:Drivers/STM32F1xx_HAL_Driver/Src/stm32f1xx_hal_tim.c ****   *            @arg TIM_CHANNEL_4: TIM Channel 4 selected
1404:Drivers/STM32F1xx_HAL_Driver/Src/stm32f1xx_hal_tim.c ****   * @retval HAL status
1405:Drivers/STM32F1xx_HAL_Driver/Src/stm32f1xx_hal_tim.c **** */
1406:Drivers/STM32F1xx_HAL_Driver/Src/stm32f1xx_hal_tim.c **** HAL_StatusTypeDef HAL_TIM_PWM_Stop_DMA(TIM_HandleTypeDef *htim, uint32_t Channel)
1407:Drivers/STM32F1xx_HAL_Driver/Src/stm32f1xx_hal_tim.c **** {
 2981              		.loc 1 1407 0
 2982              		.cfi_startproc
 2983              		@ args = 0, pretend = 0, frame = 8
 2984              		@ frame_needed = 1, uses_anonymous_args = 0
ARM GAS  /tmp/cc5HGhWi.s 			page 77


 2985 0000 80B5     		push	{r7, lr}
 2986              	.LCFI156:
 2987              		.cfi_def_cfa_offset 8
 2988              		.cfi_offset 7, -8
 2989              		.cfi_offset 14, -4
 2990 0002 82B0     		sub	sp, sp, #8
 2991              	.LCFI157:
 2992              		.cfi_def_cfa_offset 16
 2993 0004 00AF     		add	r7, sp, #0
 2994              	.LCFI158:
 2995              		.cfi_def_cfa_register 7
 2996 0006 7860     		str	r0, [r7, #4]
 2997 0008 3960     		str	r1, [r7]
1408:Drivers/STM32F1xx_HAL_Driver/Src/stm32f1xx_hal_tim.c ****   /* Check the parameters */
1409:Drivers/STM32F1xx_HAL_Driver/Src/stm32f1xx_hal_tim.c ****   assert_param(IS_TIM_CCX_INSTANCE(htim->Instance, Channel));
1410:Drivers/STM32F1xx_HAL_Driver/Src/stm32f1xx_hal_tim.c **** 
1411:Drivers/STM32F1xx_HAL_Driver/Src/stm32f1xx_hal_tim.c ****   switch (Channel)
 2998              		.loc 1 1411 0
 2999 000a 3B68     		ldr	r3, [r7]
 3000 000c 0C2B     		cmp	r3, #12
 3001 000e 41D8     		bhi	.L181
 3002 0010 01A2     		adr	r2, .L173
 3003 0012 52F823F0 		ldr	pc, [r2, r3, lsl #2]
 3004 0016 00BF     		.p2align 2
 3005              	.L173:
 3006 0018 4D000000 		.word	.L172+1
 3007 001c 95000000 		.word	.L181+1
 3008 0020 95000000 		.word	.L181+1
 3009 0024 95000000 		.word	.L181+1
 3010 0028 5F000000 		.word	.L174+1
 3011 002c 95000000 		.word	.L181+1
 3012 0030 95000000 		.word	.L181+1
 3013 0034 95000000 		.word	.L181+1
 3014 0038 71000000 		.word	.L175+1
 3015 003c 95000000 		.word	.L181+1
 3016 0040 95000000 		.word	.L181+1
 3017 0044 95000000 		.word	.L181+1
 3018 0048 83000000 		.word	.L176+1
 3019              		.p2align 1
 3020              	.L172:
1412:Drivers/STM32F1xx_HAL_Driver/Src/stm32f1xx_hal_tim.c ****   {
1413:Drivers/STM32F1xx_HAL_Driver/Src/stm32f1xx_hal_tim.c ****     case TIM_CHANNEL_1:
1414:Drivers/STM32F1xx_HAL_Driver/Src/stm32f1xx_hal_tim.c ****     {
1415:Drivers/STM32F1xx_HAL_Driver/Src/stm32f1xx_hal_tim.c ****       /* Disable the TIM Capture/Compare 1 DMA request */
1416:Drivers/STM32F1xx_HAL_Driver/Src/stm32f1xx_hal_tim.c ****       __HAL_TIM_DISABLE_DMA(htim, TIM_DMA_CC1);
 3021              		.loc 1 1416 0
 3022 004c 7B68     		ldr	r3, [r7, #4]
 3023 004e 1B68     		ldr	r3, [r3]
 3024 0050 DA68     		ldr	r2, [r3, #12]
 3025 0052 7B68     		ldr	r3, [r7, #4]
 3026 0054 1B68     		ldr	r3, [r3]
 3027 0056 22F40072 		bic	r2, r2, #512
 3028 005a DA60     		str	r2, [r3, #12]
1417:Drivers/STM32F1xx_HAL_Driver/Src/stm32f1xx_hal_tim.c ****     }
1418:Drivers/STM32F1xx_HAL_Driver/Src/stm32f1xx_hal_tim.c ****     break;
 3029              		.loc 1 1418 0
 3030 005c 1BE0     		b	.L177
ARM GAS  /tmp/cc5HGhWi.s 			page 78


 3031              	.L174:
1419:Drivers/STM32F1xx_HAL_Driver/Src/stm32f1xx_hal_tim.c **** 
1420:Drivers/STM32F1xx_HAL_Driver/Src/stm32f1xx_hal_tim.c ****     case TIM_CHANNEL_2:
1421:Drivers/STM32F1xx_HAL_Driver/Src/stm32f1xx_hal_tim.c ****     {
1422:Drivers/STM32F1xx_HAL_Driver/Src/stm32f1xx_hal_tim.c ****       /* Disable the TIM Capture/Compare 2 DMA request */
1423:Drivers/STM32F1xx_HAL_Driver/Src/stm32f1xx_hal_tim.c ****       __HAL_TIM_DISABLE_DMA(htim, TIM_DMA_CC2);
 3032              		.loc 1 1423 0
 3033 005e 7B68     		ldr	r3, [r7, #4]
 3034 0060 1B68     		ldr	r3, [r3]
 3035 0062 DA68     		ldr	r2, [r3, #12]
 3036 0064 7B68     		ldr	r3, [r7, #4]
 3037 0066 1B68     		ldr	r3, [r3]
 3038 0068 22F48062 		bic	r2, r2, #1024
 3039 006c DA60     		str	r2, [r3, #12]
1424:Drivers/STM32F1xx_HAL_Driver/Src/stm32f1xx_hal_tim.c ****     }
1425:Drivers/STM32F1xx_HAL_Driver/Src/stm32f1xx_hal_tim.c ****     break;
 3040              		.loc 1 1425 0
 3041 006e 12E0     		b	.L177
 3042              	.L175:
1426:Drivers/STM32F1xx_HAL_Driver/Src/stm32f1xx_hal_tim.c **** 
1427:Drivers/STM32F1xx_HAL_Driver/Src/stm32f1xx_hal_tim.c ****     case TIM_CHANNEL_3:
1428:Drivers/STM32F1xx_HAL_Driver/Src/stm32f1xx_hal_tim.c ****     {
1429:Drivers/STM32F1xx_HAL_Driver/Src/stm32f1xx_hal_tim.c ****       /* Disable the TIM Capture/Compare 3 DMA request */
1430:Drivers/STM32F1xx_HAL_Driver/Src/stm32f1xx_hal_tim.c ****       __HAL_TIM_DISABLE_DMA(htim, TIM_DMA_CC3);
 3043              		.loc 1 1430 0
 3044 0070 7B68     		ldr	r3, [r7, #4]
 3045 0072 1B68     		ldr	r3, [r3]
 3046 0074 DA68     		ldr	r2, [r3, #12]
 3047 0076 7B68     		ldr	r3, [r7, #4]
 3048 0078 1B68     		ldr	r3, [r3]
 3049 007a 22F40062 		bic	r2, r2, #2048
 3050 007e DA60     		str	r2, [r3, #12]
1431:Drivers/STM32F1xx_HAL_Driver/Src/stm32f1xx_hal_tim.c ****     }
1432:Drivers/STM32F1xx_HAL_Driver/Src/stm32f1xx_hal_tim.c ****     break;
 3051              		.loc 1 1432 0
 3052 0080 09E0     		b	.L177
 3053              	.L176:
1433:Drivers/STM32F1xx_HAL_Driver/Src/stm32f1xx_hal_tim.c **** 
1434:Drivers/STM32F1xx_HAL_Driver/Src/stm32f1xx_hal_tim.c ****     case TIM_CHANNEL_4:
1435:Drivers/STM32F1xx_HAL_Driver/Src/stm32f1xx_hal_tim.c ****     {
1436:Drivers/STM32F1xx_HAL_Driver/Src/stm32f1xx_hal_tim.c ****       /* Disable the TIM Capture/Compare 4 interrupt */
1437:Drivers/STM32F1xx_HAL_Driver/Src/stm32f1xx_hal_tim.c ****       __HAL_TIM_DISABLE_DMA(htim, TIM_DMA_CC4);
 3054              		.loc 1 1437 0
 3055 0082 7B68     		ldr	r3, [r7, #4]
 3056 0084 1B68     		ldr	r3, [r3]
 3057 0086 DA68     		ldr	r2, [r3, #12]
 3058 0088 7B68     		ldr	r3, [r7, #4]
 3059 008a 1B68     		ldr	r3, [r3]
 3060 008c 22F48052 		bic	r2, r2, #4096
 3061 0090 DA60     		str	r2, [r3, #12]
1438:Drivers/STM32F1xx_HAL_Driver/Src/stm32f1xx_hal_tim.c ****     }
1439:Drivers/STM32F1xx_HAL_Driver/Src/stm32f1xx_hal_tim.c ****     break;
 3062              		.loc 1 1439 0
 3063 0092 00E0     		b	.L177
 3064              	.L181:
1440:Drivers/STM32F1xx_HAL_Driver/Src/stm32f1xx_hal_tim.c **** 
1441:Drivers/STM32F1xx_HAL_Driver/Src/stm32f1xx_hal_tim.c ****     default:
ARM GAS  /tmp/cc5HGhWi.s 			page 79


1442:Drivers/STM32F1xx_HAL_Driver/Src/stm32f1xx_hal_tim.c ****     break;
 3065              		.loc 1 1442 0
 3066 0094 00BF     		nop
 3067              	.L177:
1443:Drivers/STM32F1xx_HAL_Driver/Src/stm32f1xx_hal_tim.c ****   }
1444:Drivers/STM32F1xx_HAL_Driver/Src/stm32f1xx_hal_tim.c **** 
1445:Drivers/STM32F1xx_HAL_Driver/Src/stm32f1xx_hal_tim.c ****   /* Disable the Capture compare channel */
1446:Drivers/STM32F1xx_HAL_Driver/Src/stm32f1xx_hal_tim.c ****   TIM_CCxChannelCmd(htim->Instance, Channel, TIM_CCx_DISABLE);
 3068              		.loc 1 1446 0
 3069 0096 7B68     		ldr	r3, [r7, #4]
 3070 0098 1B68     		ldr	r3, [r3]
 3071 009a 0022     		movs	r2, #0
 3072 009c 3968     		ldr	r1, [r7]
 3073 009e 1846     		mov	r0, r3
 3074 00a0 FFF7FEFF 		bl	TIM_CCxChannelCmd
1447:Drivers/STM32F1xx_HAL_Driver/Src/stm32f1xx_hal_tim.c **** 
1448:Drivers/STM32F1xx_HAL_Driver/Src/stm32f1xx_hal_tim.c ****   if(IS_TIM_BREAK_INSTANCE(htim->Instance) != RESET)
 3075              		.loc 1 1448 0
 3076 00a4 7B68     		ldr	r3, [r7, #4]
 3077 00a6 1B68     		ldr	r3, [r3]
 3078 00a8 1D4A     		ldr	r2, .L182
 3079 00aa 9342     		cmp	r3, r2
 3080 00ac 17D1     		bne	.L178
1449:Drivers/STM32F1xx_HAL_Driver/Src/stm32f1xx_hal_tim.c ****   {
1450:Drivers/STM32F1xx_HAL_Driver/Src/stm32f1xx_hal_tim.c ****     /* Disable the Main Ouput */
1451:Drivers/STM32F1xx_HAL_Driver/Src/stm32f1xx_hal_tim.c ****     __HAL_TIM_MOE_DISABLE(htim);
 3081              		.loc 1 1451 0
 3082 00ae 7B68     		ldr	r3, [r7, #4]
 3083 00b0 1B68     		ldr	r3, [r3]
 3084 00b2 1A6A     		ldr	r2, [r3, #32]
 3085 00b4 41F21113 		movw	r3, #4369
 3086 00b8 1340     		ands	r3, r3, r2
 3087 00ba 002B     		cmp	r3, #0
 3088 00bc 0FD1     		bne	.L178
 3089              		.loc 1 1451 0 is_stmt 0 discriminator 1
 3090 00be 7B68     		ldr	r3, [r7, #4]
 3091 00c0 1B68     		ldr	r3, [r3]
 3092 00c2 1A6A     		ldr	r2, [r3, #32]
 3093 00c4 40F24443 		movw	r3, #1092
 3094 00c8 1340     		ands	r3, r3, r2
 3095 00ca 002B     		cmp	r3, #0
 3096 00cc 07D1     		bne	.L178
 3097              		.loc 1 1451 0 discriminator 2
 3098 00ce 7B68     		ldr	r3, [r7, #4]
 3099 00d0 1B68     		ldr	r3, [r3]
 3100 00d2 5A6C     		ldr	r2, [r3, #68]
 3101 00d4 7B68     		ldr	r3, [r7, #4]
 3102 00d6 1B68     		ldr	r3, [r3]
 3103 00d8 22F40042 		bic	r2, r2, #32768
 3104 00dc 5A64     		str	r2, [r3, #68]
 3105              	.L178:
1452:Drivers/STM32F1xx_HAL_Driver/Src/stm32f1xx_hal_tim.c ****   }
1453:Drivers/STM32F1xx_HAL_Driver/Src/stm32f1xx_hal_tim.c **** 
1454:Drivers/STM32F1xx_HAL_Driver/Src/stm32f1xx_hal_tim.c ****   /* Disable the Peripheral */
1455:Drivers/STM32F1xx_HAL_Driver/Src/stm32f1xx_hal_tim.c ****   __HAL_TIM_DISABLE(htim);
 3106              		.loc 1 1455 0 is_stmt 1
 3107 00de 7B68     		ldr	r3, [r7, #4]
ARM GAS  /tmp/cc5HGhWi.s 			page 80


 3108 00e0 1B68     		ldr	r3, [r3]
 3109 00e2 1A6A     		ldr	r2, [r3, #32]
 3110 00e4 41F21113 		movw	r3, #4369
 3111 00e8 1340     		ands	r3, r3, r2
 3112 00ea 002B     		cmp	r3, #0
 3113 00ec 0FD1     		bne	.L179
 3114              		.loc 1 1455 0 is_stmt 0 discriminator 1
 3115 00ee 7B68     		ldr	r3, [r7, #4]
 3116 00f0 1B68     		ldr	r3, [r3]
 3117 00f2 1A6A     		ldr	r2, [r3, #32]
 3118 00f4 40F24443 		movw	r3, #1092
 3119 00f8 1340     		ands	r3, r3, r2
 3120 00fa 002B     		cmp	r3, #0
 3121 00fc 07D1     		bne	.L179
 3122              		.loc 1 1455 0 discriminator 2
 3123 00fe 7B68     		ldr	r3, [r7, #4]
 3124 0100 1B68     		ldr	r3, [r3]
 3125 0102 1A68     		ldr	r2, [r3]
 3126 0104 7B68     		ldr	r3, [r7, #4]
 3127 0106 1B68     		ldr	r3, [r3]
 3128 0108 22F00102 		bic	r2, r2, #1
 3129 010c 1A60     		str	r2, [r3]
 3130              	.L179:
1456:Drivers/STM32F1xx_HAL_Driver/Src/stm32f1xx_hal_tim.c **** 
1457:Drivers/STM32F1xx_HAL_Driver/Src/stm32f1xx_hal_tim.c ****   /* Change the htim state */
1458:Drivers/STM32F1xx_HAL_Driver/Src/stm32f1xx_hal_tim.c ****   htim->State = HAL_TIM_STATE_READY;
 3131              		.loc 1 1458 0 is_stmt 1
 3132 010e 7B68     		ldr	r3, [r7, #4]
 3133 0110 0122     		movs	r2, #1
 3134 0112 83F83D20 		strb	r2, [r3, #61]
1459:Drivers/STM32F1xx_HAL_Driver/Src/stm32f1xx_hal_tim.c **** 
1460:Drivers/STM32F1xx_HAL_Driver/Src/stm32f1xx_hal_tim.c ****   /* Return function status */
1461:Drivers/STM32F1xx_HAL_Driver/Src/stm32f1xx_hal_tim.c ****   return HAL_OK;
 3135              		.loc 1 1461 0
 3136 0116 0023     		movs	r3, #0
1462:Drivers/STM32F1xx_HAL_Driver/Src/stm32f1xx_hal_tim.c **** }
 3137              		.loc 1 1462 0
 3138 0118 1846     		mov	r0, r3
 3139 011a 0837     		adds	r7, r7, #8
 3140              	.LCFI159:
 3141              		.cfi_def_cfa_offset 8
 3142 011c BD46     		mov	sp, r7
 3143              	.LCFI160:
 3144              		.cfi_def_cfa_register 13
 3145              		@ sp needed
 3146 011e 80BD     		pop	{r7, pc}
 3147              	.L183:
 3148              		.align	2
 3149              	.L182:
 3150 0120 002C0140 		.word	1073818624
 3151              		.cfi_endproc
 3152              	.LFE95:
 3154              		.section	.text.HAL_TIM_IC_Init,"ax",%progbits
 3155              		.align	1
 3156              		.global	HAL_TIM_IC_Init
 3157              		.syntax unified
 3158              		.thumb
ARM GAS  /tmp/cc5HGhWi.s 			page 81


 3159              		.thumb_func
 3160              		.fpu softvfp
 3162              	HAL_TIM_IC_Init:
 3163              	.LFB96:
1463:Drivers/STM32F1xx_HAL_Driver/Src/stm32f1xx_hal_tim.c **** 
1464:Drivers/STM32F1xx_HAL_Driver/Src/stm32f1xx_hal_tim.c **** /**
1465:Drivers/STM32F1xx_HAL_Driver/Src/stm32f1xx_hal_tim.c ****   * @}
1466:Drivers/STM32F1xx_HAL_Driver/Src/stm32f1xx_hal_tim.c ****   */
1467:Drivers/STM32F1xx_HAL_Driver/Src/stm32f1xx_hal_tim.c **** 
1468:Drivers/STM32F1xx_HAL_Driver/Src/stm32f1xx_hal_tim.c **** /** @defgroup TIM_Exported_Functions_Group4 Time Input Capture functions 
1469:Drivers/STM32F1xx_HAL_Driver/Src/stm32f1xx_hal_tim.c ****  *  @brief    Time Input Capture functions 
1470:Drivers/STM32F1xx_HAL_Driver/Src/stm32f1xx_hal_tim.c ****  *
1471:Drivers/STM32F1xx_HAL_Driver/Src/stm32f1xx_hal_tim.c **** @verbatim 
1472:Drivers/STM32F1xx_HAL_Driver/Src/stm32f1xx_hal_tim.c ****   ==============================================================================
1473:Drivers/STM32F1xx_HAL_Driver/Src/stm32f1xx_hal_tim.c ****               ##### Time Input Capture functions #####
1474:Drivers/STM32F1xx_HAL_Driver/Src/stm32f1xx_hal_tim.c ****   ==============================================================================
1475:Drivers/STM32F1xx_HAL_Driver/Src/stm32f1xx_hal_tim.c ****  [..]
1476:Drivers/STM32F1xx_HAL_Driver/Src/stm32f1xx_hal_tim.c ****    This section provides functions allowing to:
1477:Drivers/STM32F1xx_HAL_Driver/Src/stm32f1xx_hal_tim.c ****    (+) Initialize and configure the TIM Input Capture.
1478:Drivers/STM32F1xx_HAL_Driver/Src/stm32f1xx_hal_tim.c ****    (+) De-initialize the TIM Input Capture.
1479:Drivers/STM32F1xx_HAL_Driver/Src/stm32f1xx_hal_tim.c ****    (+) Start the Time Input Capture.
1480:Drivers/STM32F1xx_HAL_Driver/Src/stm32f1xx_hal_tim.c ****    (+) Stop the Time Input Capture.
1481:Drivers/STM32F1xx_HAL_Driver/Src/stm32f1xx_hal_tim.c ****    (+) Start the Time Input Capture and enable interrupt.
1482:Drivers/STM32F1xx_HAL_Driver/Src/stm32f1xx_hal_tim.c ****    (+) Stop the Time Input Capture and disable interrupt.
1483:Drivers/STM32F1xx_HAL_Driver/Src/stm32f1xx_hal_tim.c ****    (+) Start the Time Input Capture and enable DMA transfer.
1484:Drivers/STM32F1xx_HAL_Driver/Src/stm32f1xx_hal_tim.c ****    (+) Stop the Time Input Capture and disable DMA transfer.
1485:Drivers/STM32F1xx_HAL_Driver/Src/stm32f1xx_hal_tim.c **** 
1486:Drivers/STM32F1xx_HAL_Driver/Src/stm32f1xx_hal_tim.c **** @endverbatim
1487:Drivers/STM32F1xx_HAL_Driver/Src/stm32f1xx_hal_tim.c ****   * @{
1488:Drivers/STM32F1xx_HAL_Driver/Src/stm32f1xx_hal_tim.c ****   */
1489:Drivers/STM32F1xx_HAL_Driver/Src/stm32f1xx_hal_tim.c **** /**
1490:Drivers/STM32F1xx_HAL_Driver/Src/stm32f1xx_hal_tim.c ****   * @brief  Initializes the TIM Input Capture Time base according to the specified
1491:Drivers/STM32F1xx_HAL_Driver/Src/stm32f1xx_hal_tim.c ****   *         parameters in the TIM_HandleTypeDef and create the associated handle.
1492:Drivers/STM32F1xx_HAL_Driver/Src/stm32f1xx_hal_tim.c ****   * @param  htim : TIM Input Capture handle
1493:Drivers/STM32F1xx_HAL_Driver/Src/stm32f1xx_hal_tim.c ****   * @retval HAL status
1494:Drivers/STM32F1xx_HAL_Driver/Src/stm32f1xx_hal_tim.c ****   */
1495:Drivers/STM32F1xx_HAL_Driver/Src/stm32f1xx_hal_tim.c **** HAL_StatusTypeDef HAL_TIM_IC_Init(TIM_HandleTypeDef *htim)
1496:Drivers/STM32F1xx_HAL_Driver/Src/stm32f1xx_hal_tim.c **** {
 3164              		.loc 1 1496 0
 3165              		.cfi_startproc
 3166              		@ args = 0, pretend = 0, frame = 8
 3167              		@ frame_needed = 1, uses_anonymous_args = 0
 3168 0000 80B5     		push	{r7, lr}
 3169              	.LCFI161:
 3170              		.cfi_def_cfa_offset 8
 3171              		.cfi_offset 7, -8
 3172              		.cfi_offset 14, -4
 3173 0002 82B0     		sub	sp, sp, #8
 3174              	.LCFI162:
 3175              		.cfi_def_cfa_offset 16
 3176 0004 00AF     		add	r7, sp, #0
 3177              	.LCFI163:
 3178              		.cfi_def_cfa_register 7
 3179 0006 7860     		str	r0, [r7, #4]
1497:Drivers/STM32F1xx_HAL_Driver/Src/stm32f1xx_hal_tim.c ****   /* Check the TIM handle allocation */
1498:Drivers/STM32F1xx_HAL_Driver/Src/stm32f1xx_hal_tim.c ****   if(htim == NULL)
 3180              		.loc 1 1498 0
ARM GAS  /tmp/cc5HGhWi.s 			page 82


 3181 0008 7B68     		ldr	r3, [r7, #4]
 3182 000a 002B     		cmp	r3, #0
 3183 000c 01D1     		bne	.L185
1499:Drivers/STM32F1xx_HAL_Driver/Src/stm32f1xx_hal_tim.c ****   {
1500:Drivers/STM32F1xx_HAL_Driver/Src/stm32f1xx_hal_tim.c ****     return HAL_ERROR;
 3184              		.loc 1 1500 0
 3185 000e 0123     		movs	r3, #1
 3186 0010 1DE0     		b	.L186
 3187              	.L185:
1501:Drivers/STM32F1xx_HAL_Driver/Src/stm32f1xx_hal_tim.c ****   }
1502:Drivers/STM32F1xx_HAL_Driver/Src/stm32f1xx_hal_tim.c **** 
1503:Drivers/STM32F1xx_HAL_Driver/Src/stm32f1xx_hal_tim.c ****   /* Check the parameters */
1504:Drivers/STM32F1xx_HAL_Driver/Src/stm32f1xx_hal_tim.c ****   assert_param(IS_TIM_INSTANCE(htim->Instance));
1505:Drivers/STM32F1xx_HAL_Driver/Src/stm32f1xx_hal_tim.c ****   assert_param(IS_TIM_COUNTER_MODE(htim->Init.CounterMode));
1506:Drivers/STM32F1xx_HAL_Driver/Src/stm32f1xx_hal_tim.c ****   assert_param(IS_TIM_CLOCKDIVISION_DIV(htim->Init.ClockDivision));
1507:Drivers/STM32F1xx_HAL_Driver/Src/stm32f1xx_hal_tim.c ****   assert_param(IS_TIM_AUTORELOAD_PRELOAD(htim->Init.AutoReloadPreload));
1508:Drivers/STM32F1xx_HAL_Driver/Src/stm32f1xx_hal_tim.c **** 
1509:Drivers/STM32F1xx_HAL_Driver/Src/stm32f1xx_hal_tim.c ****   if(htim->State == HAL_TIM_STATE_RESET)
 3188              		.loc 1 1509 0
 3189 0012 7B68     		ldr	r3, [r7, #4]
 3190 0014 93F83D30 		ldrb	r3, [r3, #61]
 3191 0018 DBB2     		uxtb	r3, r3
 3192 001a 002B     		cmp	r3, #0
 3193 001c 06D1     		bne	.L187
1510:Drivers/STM32F1xx_HAL_Driver/Src/stm32f1xx_hal_tim.c ****   {
1511:Drivers/STM32F1xx_HAL_Driver/Src/stm32f1xx_hal_tim.c ****     /* Allocate lock resource and initialize it */
1512:Drivers/STM32F1xx_HAL_Driver/Src/stm32f1xx_hal_tim.c ****     htim->Lock = HAL_UNLOCKED;
 3194              		.loc 1 1512 0
 3195 001e 7B68     		ldr	r3, [r7, #4]
 3196 0020 0022     		movs	r2, #0
 3197 0022 83F83C20 		strb	r2, [r3, #60]
1513:Drivers/STM32F1xx_HAL_Driver/Src/stm32f1xx_hal_tim.c ****     
1514:Drivers/STM32F1xx_HAL_Driver/Src/stm32f1xx_hal_tim.c ****     /* Init the low level hardware : GPIO, CLOCK, NVIC and DMA */
1515:Drivers/STM32F1xx_HAL_Driver/Src/stm32f1xx_hal_tim.c ****     HAL_TIM_IC_MspInit(htim);
 3198              		.loc 1 1515 0
 3199 0026 7868     		ldr	r0, [r7, #4]
 3200 0028 FFF7FEFF 		bl	HAL_TIM_IC_MspInit
 3201              	.L187:
1516:Drivers/STM32F1xx_HAL_Driver/Src/stm32f1xx_hal_tim.c ****   }
1517:Drivers/STM32F1xx_HAL_Driver/Src/stm32f1xx_hal_tim.c **** 
1518:Drivers/STM32F1xx_HAL_Driver/Src/stm32f1xx_hal_tim.c ****   /* Set the TIM state */
1519:Drivers/STM32F1xx_HAL_Driver/Src/stm32f1xx_hal_tim.c ****   htim->State= HAL_TIM_STATE_BUSY;
 3202              		.loc 1 1519 0
 3203 002c 7B68     		ldr	r3, [r7, #4]
 3204 002e 0222     		movs	r2, #2
 3205 0030 83F83D20 		strb	r2, [r3, #61]
1520:Drivers/STM32F1xx_HAL_Driver/Src/stm32f1xx_hal_tim.c **** 
1521:Drivers/STM32F1xx_HAL_Driver/Src/stm32f1xx_hal_tim.c ****   /* Init the base time for the input capture */
1522:Drivers/STM32F1xx_HAL_Driver/Src/stm32f1xx_hal_tim.c ****   TIM_Base_SetConfig(htim->Instance, &htim->Init);
 3206              		.loc 1 1522 0
 3207 0034 7B68     		ldr	r3, [r7, #4]
 3208 0036 1A68     		ldr	r2, [r3]
 3209 0038 7B68     		ldr	r3, [r7, #4]
 3210 003a 0433     		adds	r3, r3, #4
 3211 003c 1946     		mov	r1, r3
 3212 003e 1046     		mov	r0, r2
 3213 0040 FFF7FEFF 		bl	TIM_Base_SetConfig
ARM GAS  /tmp/cc5HGhWi.s 			page 83


1523:Drivers/STM32F1xx_HAL_Driver/Src/stm32f1xx_hal_tim.c **** 
1524:Drivers/STM32F1xx_HAL_Driver/Src/stm32f1xx_hal_tim.c ****   /* Initialize the TIM state*/
1525:Drivers/STM32F1xx_HAL_Driver/Src/stm32f1xx_hal_tim.c ****   htim->State= HAL_TIM_STATE_READY;
 3214              		.loc 1 1525 0
 3215 0044 7B68     		ldr	r3, [r7, #4]
 3216 0046 0122     		movs	r2, #1
 3217 0048 83F83D20 		strb	r2, [r3, #61]
1526:Drivers/STM32F1xx_HAL_Driver/Src/stm32f1xx_hal_tim.c **** 
1527:Drivers/STM32F1xx_HAL_Driver/Src/stm32f1xx_hal_tim.c ****   return HAL_OK;
 3218              		.loc 1 1527 0
 3219 004c 0023     		movs	r3, #0
 3220              	.L186:
1528:Drivers/STM32F1xx_HAL_Driver/Src/stm32f1xx_hal_tim.c **** }
 3221              		.loc 1 1528 0
 3222 004e 1846     		mov	r0, r3
 3223 0050 0837     		adds	r7, r7, #8
 3224              	.LCFI164:
 3225              		.cfi_def_cfa_offset 8
 3226 0052 BD46     		mov	sp, r7
 3227              	.LCFI165:
 3228              		.cfi_def_cfa_register 13
 3229              		@ sp needed
 3230 0054 80BD     		pop	{r7, pc}
 3231              		.cfi_endproc
 3232              	.LFE96:
 3234              		.section	.text.HAL_TIM_IC_DeInit,"ax",%progbits
 3235              		.align	1
 3236              		.global	HAL_TIM_IC_DeInit
 3237              		.syntax unified
 3238              		.thumb
 3239              		.thumb_func
 3240              		.fpu softvfp
 3242              	HAL_TIM_IC_DeInit:
 3243              	.LFB97:
1529:Drivers/STM32F1xx_HAL_Driver/Src/stm32f1xx_hal_tim.c **** 
1530:Drivers/STM32F1xx_HAL_Driver/Src/stm32f1xx_hal_tim.c **** /**
1531:Drivers/STM32F1xx_HAL_Driver/Src/stm32f1xx_hal_tim.c ****   * @brief  DeInitializes the TIM peripheral 
1532:Drivers/STM32F1xx_HAL_Driver/Src/stm32f1xx_hal_tim.c ****   * @param  htim : TIM Input Capture handle
1533:Drivers/STM32F1xx_HAL_Driver/Src/stm32f1xx_hal_tim.c ****   * @retval HAL status
1534:Drivers/STM32F1xx_HAL_Driver/Src/stm32f1xx_hal_tim.c ****   */
1535:Drivers/STM32F1xx_HAL_Driver/Src/stm32f1xx_hal_tim.c **** HAL_StatusTypeDef HAL_TIM_IC_DeInit(TIM_HandleTypeDef *htim)
1536:Drivers/STM32F1xx_HAL_Driver/Src/stm32f1xx_hal_tim.c **** {
 3244              		.loc 1 1536 0
 3245              		.cfi_startproc
 3246              		@ args = 0, pretend = 0, frame = 8
 3247              		@ frame_needed = 1, uses_anonymous_args = 0
 3248 0000 80B5     		push	{r7, lr}
 3249              	.LCFI166:
 3250              		.cfi_def_cfa_offset 8
 3251              		.cfi_offset 7, -8
 3252              		.cfi_offset 14, -4
 3253 0002 82B0     		sub	sp, sp, #8
 3254              	.LCFI167:
 3255              		.cfi_def_cfa_offset 16
 3256 0004 00AF     		add	r7, sp, #0
 3257              	.LCFI168:
 3258              		.cfi_def_cfa_register 7
ARM GAS  /tmp/cc5HGhWi.s 			page 84


 3259 0006 7860     		str	r0, [r7, #4]
1537:Drivers/STM32F1xx_HAL_Driver/Src/stm32f1xx_hal_tim.c ****   /* Check the parameters */
1538:Drivers/STM32F1xx_HAL_Driver/Src/stm32f1xx_hal_tim.c ****   assert_param(IS_TIM_INSTANCE(htim->Instance));
1539:Drivers/STM32F1xx_HAL_Driver/Src/stm32f1xx_hal_tim.c **** 
1540:Drivers/STM32F1xx_HAL_Driver/Src/stm32f1xx_hal_tim.c ****   htim->State = HAL_TIM_STATE_BUSY;
 3260              		.loc 1 1540 0
 3261 0008 7B68     		ldr	r3, [r7, #4]
 3262 000a 0222     		movs	r2, #2
 3263 000c 83F83D20 		strb	r2, [r3, #61]
1541:Drivers/STM32F1xx_HAL_Driver/Src/stm32f1xx_hal_tim.c **** 
1542:Drivers/STM32F1xx_HAL_Driver/Src/stm32f1xx_hal_tim.c ****   /* Disable the TIM Peripheral Clock */
1543:Drivers/STM32F1xx_HAL_Driver/Src/stm32f1xx_hal_tim.c ****   __HAL_TIM_DISABLE(htim);
 3264              		.loc 1 1543 0
 3265 0010 7B68     		ldr	r3, [r7, #4]
 3266 0012 1B68     		ldr	r3, [r3]
 3267 0014 1A6A     		ldr	r2, [r3, #32]
 3268 0016 41F21113 		movw	r3, #4369
 3269 001a 1340     		ands	r3, r3, r2
 3270 001c 002B     		cmp	r3, #0
 3271 001e 0FD1     		bne	.L189
 3272              		.loc 1 1543 0 is_stmt 0 discriminator 1
 3273 0020 7B68     		ldr	r3, [r7, #4]
 3274 0022 1B68     		ldr	r3, [r3]
 3275 0024 1A6A     		ldr	r2, [r3, #32]
 3276 0026 40F24443 		movw	r3, #1092
 3277 002a 1340     		ands	r3, r3, r2
 3278 002c 002B     		cmp	r3, #0
 3279 002e 07D1     		bne	.L189
 3280              		.loc 1 1543 0 discriminator 2
 3281 0030 7B68     		ldr	r3, [r7, #4]
 3282 0032 1B68     		ldr	r3, [r3]
 3283 0034 1A68     		ldr	r2, [r3]
 3284 0036 7B68     		ldr	r3, [r7, #4]
 3285 0038 1B68     		ldr	r3, [r3]
 3286 003a 22F00102 		bic	r2, r2, #1
 3287 003e 1A60     		str	r2, [r3]
 3288              	.L189:
1544:Drivers/STM32F1xx_HAL_Driver/Src/stm32f1xx_hal_tim.c **** 
1545:Drivers/STM32F1xx_HAL_Driver/Src/stm32f1xx_hal_tim.c ****   /* DeInit the low level hardware: GPIO, CLOCK, NVIC and DMA */
1546:Drivers/STM32F1xx_HAL_Driver/Src/stm32f1xx_hal_tim.c ****   HAL_TIM_IC_MspDeInit(htim);
 3289              		.loc 1 1546 0 is_stmt 1
 3290 0040 7868     		ldr	r0, [r7, #4]
 3291 0042 FFF7FEFF 		bl	HAL_TIM_IC_MspDeInit
1547:Drivers/STM32F1xx_HAL_Driver/Src/stm32f1xx_hal_tim.c **** 
1548:Drivers/STM32F1xx_HAL_Driver/Src/stm32f1xx_hal_tim.c ****   /* Change TIM state */
1549:Drivers/STM32F1xx_HAL_Driver/Src/stm32f1xx_hal_tim.c ****   htim->State = HAL_TIM_STATE_RESET;
 3292              		.loc 1 1549 0
 3293 0046 7B68     		ldr	r3, [r7, #4]
 3294 0048 0022     		movs	r2, #0
 3295 004a 83F83D20 		strb	r2, [r3, #61]
1550:Drivers/STM32F1xx_HAL_Driver/Src/stm32f1xx_hal_tim.c **** 
1551:Drivers/STM32F1xx_HAL_Driver/Src/stm32f1xx_hal_tim.c ****   /* Release Lock */
1552:Drivers/STM32F1xx_HAL_Driver/Src/stm32f1xx_hal_tim.c ****   __HAL_UNLOCK(htim);
 3296              		.loc 1 1552 0
 3297 004e 7B68     		ldr	r3, [r7, #4]
 3298 0050 0022     		movs	r2, #0
 3299 0052 83F83C20 		strb	r2, [r3, #60]
ARM GAS  /tmp/cc5HGhWi.s 			page 85


1553:Drivers/STM32F1xx_HAL_Driver/Src/stm32f1xx_hal_tim.c **** 
1554:Drivers/STM32F1xx_HAL_Driver/Src/stm32f1xx_hal_tim.c ****   return HAL_OK;
 3300              		.loc 1 1554 0
 3301 0056 0023     		movs	r3, #0
1555:Drivers/STM32F1xx_HAL_Driver/Src/stm32f1xx_hal_tim.c **** }
 3302              		.loc 1 1555 0
 3303 0058 1846     		mov	r0, r3
 3304 005a 0837     		adds	r7, r7, #8
 3305              	.LCFI169:
 3306              		.cfi_def_cfa_offset 8
 3307 005c BD46     		mov	sp, r7
 3308              	.LCFI170:
 3309              		.cfi_def_cfa_register 13
 3310              		@ sp needed
 3311 005e 80BD     		pop	{r7, pc}
 3312              		.cfi_endproc
 3313              	.LFE97:
 3315              		.section	.text.HAL_TIM_IC_MspInit,"ax",%progbits
 3316              		.align	1
 3317              		.weak	HAL_TIM_IC_MspInit
 3318              		.syntax unified
 3319              		.thumb
 3320              		.thumb_func
 3321              		.fpu softvfp
 3323              	HAL_TIM_IC_MspInit:
 3324              	.LFB98:
1556:Drivers/STM32F1xx_HAL_Driver/Src/stm32f1xx_hal_tim.c **** 
1557:Drivers/STM32F1xx_HAL_Driver/Src/stm32f1xx_hal_tim.c **** /**
1558:Drivers/STM32F1xx_HAL_Driver/Src/stm32f1xx_hal_tim.c ****   * @brief  Initializes the TIM Input Capture MSP.
1559:Drivers/STM32F1xx_HAL_Driver/Src/stm32f1xx_hal_tim.c ****   * @param  htim : TIM handle
1560:Drivers/STM32F1xx_HAL_Driver/Src/stm32f1xx_hal_tim.c ****   * @retval None
1561:Drivers/STM32F1xx_HAL_Driver/Src/stm32f1xx_hal_tim.c ****   */
1562:Drivers/STM32F1xx_HAL_Driver/Src/stm32f1xx_hal_tim.c **** __weak void HAL_TIM_IC_MspInit(TIM_HandleTypeDef *htim)
1563:Drivers/STM32F1xx_HAL_Driver/Src/stm32f1xx_hal_tim.c **** {
 3325              		.loc 1 1563 0
 3326              		.cfi_startproc
 3327              		@ args = 0, pretend = 0, frame = 8
 3328              		@ frame_needed = 1, uses_anonymous_args = 0
 3329              		@ link register save eliminated.
 3330 0000 80B4     		push	{r7}
 3331              	.LCFI171:
 3332              		.cfi_def_cfa_offset 4
 3333              		.cfi_offset 7, -4
 3334 0002 83B0     		sub	sp, sp, #12
 3335              	.LCFI172:
 3336              		.cfi_def_cfa_offset 16
 3337 0004 00AF     		add	r7, sp, #0
 3338              	.LCFI173:
 3339              		.cfi_def_cfa_register 7
 3340 0006 7860     		str	r0, [r7, #4]
1564:Drivers/STM32F1xx_HAL_Driver/Src/stm32f1xx_hal_tim.c ****   /* Prevent unused argument(s) compilation warning */
1565:Drivers/STM32F1xx_HAL_Driver/Src/stm32f1xx_hal_tim.c ****   UNUSED(htim);
1566:Drivers/STM32F1xx_HAL_Driver/Src/stm32f1xx_hal_tim.c ****   /* NOTE : This function Should not be modified, when the callback is needed,
1567:Drivers/STM32F1xx_HAL_Driver/Src/stm32f1xx_hal_tim.c ****             the HAL_TIM_IC_MspInit could be implemented in the user file
1568:Drivers/STM32F1xx_HAL_Driver/Src/stm32f1xx_hal_tim.c ****    */
1569:Drivers/STM32F1xx_HAL_Driver/Src/stm32f1xx_hal_tim.c **** }
 3341              		.loc 1 1569 0
ARM GAS  /tmp/cc5HGhWi.s 			page 86


 3342 0008 00BF     		nop
 3343 000a 0C37     		adds	r7, r7, #12
 3344              	.LCFI174:
 3345              		.cfi_def_cfa_offset 4
 3346 000c BD46     		mov	sp, r7
 3347              	.LCFI175:
 3348              		.cfi_def_cfa_register 13
 3349              		@ sp needed
 3350 000e 80BC     		pop	{r7}
 3351              	.LCFI176:
 3352              		.cfi_restore 7
 3353              		.cfi_def_cfa_offset 0
 3354 0010 7047     		bx	lr
 3355              		.cfi_endproc
 3356              	.LFE98:
 3358              		.section	.text.HAL_TIM_IC_MspDeInit,"ax",%progbits
 3359              		.align	1
 3360              		.weak	HAL_TIM_IC_MspDeInit
 3361              		.syntax unified
 3362              		.thumb
 3363              		.thumb_func
 3364              		.fpu softvfp
 3366              	HAL_TIM_IC_MspDeInit:
 3367              	.LFB99:
1570:Drivers/STM32F1xx_HAL_Driver/Src/stm32f1xx_hal_tim.c **** 
1571:Drivers/STM32F1xx_HAL_Driver/Src/stm32f1xx_hal_tim.c **** /**
1572:Drivers/STM32F1xx_HAL_Driver/Src/stm32f1xx_hal_tim.c ****   * @brief  DeInitializes TIM Input Capture MSP.
1573:Drivers/STM32F1xx_HAL_Driver/Src/stm32f1xx_hal_tim.c ****   * @param  htim : TIM handle
1574:Drivers/STM32F1xx_HAL_Driver/Src/stm32f1xx_hal_tim.c ****   * @retval None
1575:Drivers/STM32F1xx_HAL_Driver/Src/stm32f1xx_hal_tim.c ****   */
1576:Drivers/STM32F1xx_HAL_Driver/Src/stm32f1xx_hal_tim.c **** __weak void HAL_TIM_IC_MspDeInit(TIM_HandleTypeDef *htim)
1577:Drivers/STM32F1xx_HAL_Driver/Src/stm32f1xx_hal_tim.c **** {
 3368              		.loc 1 1577 0
 3369              		.cfi_startproc
 3370              		@ args = 0, pretend = 0, frame = 8
 3371              		@ frame_needed = 1, uses_anonymous_args = 0
 3372              		@ link register save eliminated.
 3373 0000 80B4     		push	{r7}
 3374              	.LCFI177:
 3375              		.cfi_def_cfa_offset 4
 3376              		.cfi_offset 7, -4
 3377 0002 83B0     		sub	sp, sp, #12
 3378              	.LCFI178:
 3379              		.cfi_def_cfa_offset 16
 3380 0004 00AF     		add	r7, sp, #0
 3381              	.LCFI179:
 3382              		.cfi_def_cfa_register 7
 3383 0006 7860     		str	r0, [r7, #4]
1578:Drivers/STM32F1xx_HAL_Driver/Src/stm32f1xx_hal_tim.c ****   /* Prevent unused argument(s) compilation warning */
1579:Drivers/STM32F1xx_HAL_Driver/Src/stm32f1xx_hal_tim.c ****   UNUSED(htim);
1580:Drivers/STM32F1xx_HAL_Driver/Src/stm32f1xx_hal_tim.c ****   /* NOTE : This function Should not be modified, when the callback is needed,
1581:Drivers/STM32F1xx_HAL_Driver/Src/stm32f1xx_hal_tim.c ****             the HAL_TIM_IC_MspDeInit could be implemented in the user file
1582:Drivers/STM32F1xx_HAL_Driver/Src/stm32f1xx_hal_tim.c ****    */
1583:Drivers/STM32F1xx_HAL_Driver/Src/stm32f1xx_hal_tim.c **** }
 3384              		.loc 1 1583 0
 3385 0008 00BF     		nop
 3386 000a 0C37     		adds	r7, r7, #12
ARM GAS  /tmp/cc5HGhWi.s 			page 87


 3387              	.LCFI180:
 3388              		.cfi_def_cfa_offset 4
 3389 000c BD46     		mov	sp, r7
 3390              	.LCFI181:
 3391              		.cfi_def_cfa_register 13
 3392              		@ sp needed
 3393 000e 80BC     		pop	{r7}
 3394              	.LCFI182:
 3395              		.cfi_restore 7
 3396              		.cfi_def_cfa_offset 0
 3397 0010 7047     		bx	lr
 3398              		.cfi_endproc
 3399              	.LFE99:
 3401              		.section	.text.HAL_TIM_IC_Start,"ax",%progbits
 3402              		.align	1
 3403              		.global	HAL_TIM_IC_Start
 3404              		.syntax unified
 3405              		.thumb
 3406              		.thumb_func
 3407              		.fpu softvfp
 3409              	HAL_TIM_IC_Start:
 3410              	.LFB100:
1584:Drivers/STM32F1xx_HAL_Driver/Src/stm32f1xx_hal_tim.c **** 
1585:Drivers/STM32F1xx_HAL_Driver/Src/stm32f1xx_hal_tim.c **** /**
1586:Drivers/STM32F1xx_HAL_Driver/Src/stm32f1xx_hal_tim.c ****   * @brief  Starts the TIM Input Capture measurement.
1587:Drivers/STM32F1xx_HAL_Driver/Src/stm32f1xx_hal_tim.c ****   * @param  htim : TIM Input Capture handle
1588:Drivers/STM32F1xx_HAL_Driver/Src/stm32f1xx_hal_tim.c ****   * @param  Channel : TIM Channels to be enabled
1589:Drivers/STM32F1xx_HAL_Driver/Src/stm32f1xx_hal_tim.c ****   *          This parameter can be one of the following values:
1590:Drivers/STM32F1xx_HAL_Driver/Src/stm32f1xx_hal_tim.c ****   *            @arg TIM_CHANNEL_1: TIM Channel 1 selected
1591:Drivers/STM32F1xx_HAL_Driver/Src/stm32f1xx_hal_tim.c ****   *            @arg TIM_CHANNEL_2: TIM Channel 2 selected
1592:Drivers/STM32F1xx_HAL_Driver/Src/stm32f1xx_hal_tim.c ****   *            @arg TIM_CHANNEL_3: TIM Channel 3 selected
1593:Drivers/STM32F1xx_HAL_Driver/Src/stm32f1xx_hal_tim.c ****   *            @arg TIM_CHANNEL_4: TIM Channel 4 selected
1594:Drivers/STM32F1xx_HAL_Driver/Src/stm32f1xx_hal_tim.c ****   * @retval HAL status
1595:Drivers/STM32F1xx_HAL_Driver/Src/stm32f1xx_hal_tim.c **** */
1596:Drivers/STM32F1xx_HAL_Driver/Src/stm32f1xx_hal_tim.c **** HAL_StatusTypeDef HAL_TIM_IC_Start (TIM_HandleTypeDef *htim, uint32_t Channel)
1597:Drivers/STM32F1xx_HAL_Driver/Src/stm32f1xx_hal_tim.c **** {
 3411              		.loc 1 1597 0
 3412              		.cfi_startproc
 3413              		@ args = 0, pretend = 0, frame = 8
 3414              		@ frame_needed = 1, uses_anonymous_args = 0
 3415 0000 80B5     		push	{r7, lr}
 3416              	.LCFI183:
 3417              		.cfi_def_cfa_offset 8
 3418              		.cfi_offset 7, -8
 3419              		.cfi_offset 14, -4
 3420 0002 82B0     		sub	sp, sp, #8
 3421              	.LCFI184:
 3422              		.cfi_def_cfa_offset 16
 3423 0004 00AF     		add	r7, sp, #0
 3424              	.LCFI185:
 3425              		.cfi_def_cfa_register 7
 3426 0006 7860     		str	r0, [r7, #4]
 3427 0008 3960     		str	r1, [r7]
1598:Drivers/STM32F1xx_HAL_Driver/Src/stm32f1xx_hal_tim.c ****   /* Check the parameters */
1599:Drivers/STM32F1xx_HAL_Driver/Src/stm32f1xx_hal_tim.c ****   assert_param(IS_TIM_CCX_INSTANCE(htim->Instance, Channel));
1600:Drivers/STM32F1xx_HAL_Driver/Src/stm32f1xx_hal_tim.c **** 
1601:Drivers/STM32F1xx_HAL_Driver/Src/stm32f1xx_hal_tim.c ****   /* Enable the Input Capture channel */
ARM GAS  /tmp/cc5HGhWi.s 			page 88


1602:Drivers/STM32F1xx_HAL_Driver/Src/stm32f1xx_hal_tim.c ****   TIM_CCxChannelCmd(htim->Instance, Channel, TIM_CCx_ENABLE);
 3428              		.loc 1 1602 0
 3429 000a 7B68     		ldr	r3, [r7, #4]
 3430 000c 1B68     		ldr	r3, [r3]
 3431 000e 0122     		movs	r2, #1
 3432 0010 3968     		ldr	r1, [r7]
 3433 0012 1846     		mov	r0, r3
 3434 0014 FFF7FEFF 		bl	TIM_CCxChannelCmd
1603:Drivers/STM32F1xx_HAL_Driver/Src/stm32f1xx_hal_tim.c **** 
1604:Drivers/STM32F1xx_HAL_Driver/Src/stm32f1xx_hal_tim.c ****   /* Enable the Peripheral */
1605:Drivers/STM32F1xx_HAL_Driver/Src/stm32f1xx_hal_tim.c ****   __HAL_TIM_ENABLE(htim);
 3435              		.loc 1 1605 0
 3436 0018 7B68     		ldr	r3, [r7, #4]
 3437 001a 1B68     		ldr	r3, [r3]
 3438 001c 1A68     		ldr	r2, [r3]
 3439 001e 7B68     		ldr	r3, [r7, #4]
 3440 0020 1B68     		ldr	r3, [r3]
 3441 0022 42F00102 		orr	r2, r2, #1
 3442 0026 1A60     		str	r2, [r3]
1606:Drivers/STM32F1xx_HAL_Driver/Src/stm32f1xx_hal_tim.c **** 
1607:Drivers/STM32F1xx_HAL_Driver/Src/stm32f1xx_hal_tim.c ****   /* Return function status */
1608:Drivers/STM32F1xx_HAL_Driver/Src/stm32f1xx_hal_tim.c ****   return HAL_OK;
 3443              		.loc 1 1608 0
 3444 0028 0023     		movs	r3, #0
1609:Drivers/STM32F1xx_HAL_Driver/Src/stm32f1xx_hal_tim.c **** }
 3445              		.loc 1 1609 0
 3446 002a 1846     		mov	r0, r3
 3447 002c 0837     		adds	r7, r7, #8
 3448              	.LCFI186:
 3449              		.cfi_def_cfa_offset 8
 3450 002e BD46     		mov	sp, r7
 3451              	.LCFI187:
 3452              		.cfi_def_cfa_register 13
 3453              		@ sp needed
 3454 0030 80BD     		pop	{r7, pc}
 3455              		.cfi_endproc
 3456              	.LFE100:
 3458              		.section	.text.HAL_TIM_IC_Stop,"ax",%progbits
 3459              		.align	1
 3460              		.global	HAL_TIM_IC_Stop
 3461              		.syntax unified
 3462              		.thumb
 3463              		.thumb_func
 3464              		.fpu softvfp
 3466              	HAL_TIM_IC_Stop:
 3467              	.LFB101:
1610:Drivers/STM32F1xx_HAL_Driver/Src/stm32f1xx_hal_tim.c **** 
1611:Drivers/STM32F1xx_HAL_Driver/Src/stm32f1xx_hal_tim.c **** /**
1612:Drivers/STM32F1xx_HAL_Driver/Src/stm32f1xx_hal_tim.c ****   * @brief  Stops the TIM Input Capture measurement.
1613:Drivers/STM32F1xx_HAL_Driver/Src/stm32f1xx_hal_tim.c ****   * @param  htim : TIM handle
1614:Drivers/STM32F1xx_HAL_Driver/Src/stm32f1xx_hal_tim.c ****   * @param  Channel : TIM Channels to be disabled
1615:Drivers/STM32F1xx_HAL_Driver/Src/stm32f1xx_hal_tim.c ****   *          This parameter can be one of the following values:
1616:Drivers/STM32F1xx_HAL_Driver/Src/stm32f1xx_hal_tim.c ****   *            @arg TIM_CHANNEL_1: TIM Channel 1 selected
1617:Drivers/STM32F1xx_HAL_Driver/Src/stm32f1xx_hal_tim.c ****   *            @arg TIM_CHANNEL_2: TIM Channel 2 selected
1618:Drivers/STM32F1xx_HAL_Driver/Src/stm32f1xx_hal_tim.c ****   *            @arg TIM_CHANNEL_3: TIM Channel 3 selected
1619:Drivers/STM32F1xx_HAL_Driver/Src/stm32f1xx_hal_tim.c ****   *            @arg TIM_CHANNEL_4: TIM Channel 4 selected
1620:Drivers/STM32F1xx_HAL_Driver/Src/stm32f1xx_hal_tim.c ****   * @retval HAL status
ARM GAS  /tmp/cc5HGhWi.s 			page 89


1621:Drivers/STM32F1xx_HAL_Driver/Src/stm32f1xx_hal_tim.c **** */
1622:Drivers/STM32F1xx_HAL_Driver/Src/stm32f1xx_hal_tim.c **** HAL_StatusTypeDef HAL_TIM_IC_Stop(TIM_HandleTypeDef *htim, uint32_t Channel)
1623:Drivers/STM32F1xx_HAL_Driver/Src/stm32f1xx_hal_tim.c **** {
 3468              		.loc 1 1623 0
 3469              		.cfi_startproc
 3470              		@ args = 0, pretend = 0, frame = 8
 3471              		@ frame_needed = 1, uses_anonymous_args = 0
 3472 0000 80B5     		push	{r7, lr}
 3473              	.LCFI188:
 3474              		.cfi_def_cfa_offset 8
 3475              		.cfi_offset 7, -8
 3476              		.cfi_offset 14, -4
 3477 0002 82B0     		sub	sp, sp, #8
 3478              	.LCFI189:
 3479              		.cfi_def_cfa_offset 16
 3480 0004 00AF     		add	r7, sp, #0
 3481              	.LCFI190:
 3482              		.cfi_def_cfa_register 7
 3483 0006 7860     		str	r0, [r7, #4]
 3484 0008 3960     		str	r1, [r7]
1624:Drivers/STM32F1xx_HAL_Driver/Src/stm32f1xx_hal_tim.c ****   /* Check the parameters */
1625:Drivers/STM32F1xx_HAL_Driver/Src/stm32f1xx_hal_tim.c ****   assert_param(IS_TIM_CCX_INSTANCE(htim->Instance, Channel));
1626:Drivers/STM32F1xx_HAL_Driver/Src/stm32f1xx_hal_tim.c **** 
1627:Drivers/STM32F1xx_HAL_Driver/Src/stm32f1xx_hal_tim.c ****   /* Disable the Input Capture channel */
1628:Drivers/STM32F1xx_HAL_Driver/Src/stm32f1xx_hal_tim.c ****   TIM_CCxChannelCmd(htim->Instance, Channel, TIM_CCx_DISABLE);
 3485              		.loc 1 1628 0
 3486 000a 7B68     		ldr	r3, [r7, #4]
 3487 000c 1B68     		ldr	r3, [r3]
 3488 000e 0022     		movs	r2, #0
 3489 0010 3968     		ldr	r1, [r7]
 3490 0012 1846     		mov	r0, r3
 3491 0014 FFF7FEFF 		bl	TIM_CCxChannelCmd
1629:Drivers/STM32F1xx_HAL_Driver/Src/stm32f1xx_hal_tim.c **** 
1630:Drivers/STM32F1xx_HAL_Driver/Src/stm32f1xx_hal_tim.c ****   /* Disable the Peripheral */
1631:Drivers/STM32F1xx_HAL_Driver/Src/stm32f1xx_hal_tim.c ****   __HAL_TIM_DISABLE(htim);
 3492              		.loc 1 1631 0
 3493 0018 7B68     		ldr	r3, [r7, #4]
 3494 001a 1B68     		ldr	r3, [r3]
 3495 001c 1A6A     		ldr	r2, [r3, #32]
 3496 001e 41F21113 		movw	r3, #4369
 3497 0022 1340     		ands	r3, r3, r2
 3498 0024 002B     		cmp	r3, #0
 3499 0026 0FD1     		bne	.L196
 3500              		.loc 1 1631 0 is_stmt 0 discriminator 1
 3501 0028 7B68     		ldr	r3, [r7, #4]
 3502 002a 1B68     		ldr	r3, [r3]
 3503 002c 1A6A     		ldr	r2, [r3, #32]
 3504 002e 40F24443 		movw	r3, #1092
 3505 0032 1340     		ands	r3, r3, r2
 3506 0034 002B     		cmp	r3, #0
 3507 0036 07D1     		bne	.L196
 3508              		.loc 1 1631 0 discriminator 2
 3509 0038 7B68     		ldr	r3, [r7, #4]
 3510 003a 1B68     		ldr	r3, [r3]
 3511 003c 1A68     		ldr	r2, [r3]
 3512 003e 7B68     		ldr	r3, [r7, #4]
 3513 0040 1B68     		ldr	r3, [r3]
ARM GAS  /tmp/cc5HGhWi.s 			page 90


 3514 0042 22F00102 		bic	r2, r2, #1
 3515 0046 1A60     		str	r2, [r3]
 3516              	.L196:
1632:Drivers/STM32F1xx_HAL_Driver/Src/stm32f1xx_hal_tim.c **** 
1633:Drivers/STM32F1xx_HAL_Driver/Src/stm32f1xx_hal_tim.c ****   /* Return function status */
1634:Drivers/STM32F1xx_HAL_Driver/Src/stm32f1xx_hal_tim.c ****   return HAL_OK;
 3517              		.loc 1 1634 0 is_stmt 1
 3518 0048 0023     		movs	r3, #0
1635:Drivers/STM32F1xx_HAL_Driver/Src/stm32f1xx_hal_tim.c **** }
 3519              		.loc 1 1635 0
 3520 004a 1846     		mov	r0, r3
 3521 004c 0837     		adds	r7, r7, #8
 3522              	.LCFI191:
 3523              		.cfi_def_cfa_offset 8
 3524 004e BD46     		mov	sp, r7
 3525              	.LCFI192:
 3526              		.cfi_def_cfa_register 13
 3527              		@ sp needed
 3528 0050 80BD     		pop	{r7, pc}
 3529              		.cfi_endproc
 3530              	.LFE101:
 3532              		.section	.text.HAL_TIM_IC_Start_IT,"ax",%progbits
 3533              		.align	1
 3534              		.global	HAL_TIM_IC_Start_IT
 3535              		.syntax unified
 3536              		.thumb
 3537              		.thumb_func
 3538              		.fpu softvfp
 3540              	HAL_TIM_IC_Start_IT:
 3541              	.LFB102:
1636:Drivers/STM32F1xx_HAL_Driver/Src/stm32f1xx_hal_tim.c **** 
1637:Drivers/STM32F1xx_HAL_Driver/Src/stm32f1xx_hal_tim.c **** /**
1638:Drivers/STM32F1xx_HAL_Driver/Src/stm32f1xx_hal_tim.c ****   * @brief  Starts the TIM Input Capture measurement in interrupt mode.
1639:Drivers/STM32F1xx_HAL_Driver/Src/stm32f1xx_hal_tim.c ****   * @param  htim : TIM Input Capture handle
1640:Drivers/STM32F1xx_HAL_Driver/Src/stm32f1xx_hal_tim.c ****   * @param  Channel : TIM Channels to be enabled
1641:Drivers/STM32F1xx_HAL_Driver/Src/stm32f1xx_hal_tim.c ****   *          This parameter can be one of the following values:
1642:Drivers/STM32F1xx_HAL_Driver/Src/stm32f1xx_hal_tim.c ****   *            @arg TIM_CHANNEL_1: TIM Channel 1 selected
1643:Drivers/STM32F1xx_HAL_Driver/Src/stm32f1xx_hal_tim.c ****   *            @arg TIM_CHANNEL_2: TIM Channel 2 selected
1644:Drivers/STM32F1xx_HAL_Driver/Src/stm32f1xx_hal_tim.c ****   *            @arg TIM_CHANNEL_3: TIM Channel 3 selected
1645:Drivers/STM32F1xx_HAL_Driver/Src/stm32f1xx_hal_tim.c ****   *            @arg TIM_CHANNEL_4: TIM Channel 4 selected
1646:Drivers/STM32F1xx_HAL_Driver/Src/stm32f1xx_hal_tim.c ****   * @retval HAL status
1647:Drivers/STM32F1xx_HAL_Driver/Src/stm32f1xx_hal_tim.c **** */
1648:Drivers/STM32F1xx_HAL_Driver/Src/stm32f1xx_hal_tim.c **** HAL_StatusTypeDef HAL_TIM_IC_Start_IT (TIM_HandleTypeDef *htim, uint32_t Channel)
1649:Drivers/STM32F1xx_HAL_Driver/Src/stm32f1xx_hal_tim.c **** {
 3542              		.loc 1 1649 0
 3543              		.cfi_startproc
 3544              		@ args = 0, pretend = 0, frame = 8
 3545              		@ frame_needed = 1, uses_anonymous_args = 0
 3546 0000 80B5     		push	{r7, lr}
 3547              	.LCFI193:
 3548              		.cfi_def_cfa_offset 8
 3549              		.cfi_offset 7, -8
 3550              		.cfi_offset 14, -4
 3551 0002 82B0     		sub	sp, sp, #8
 3552              	.LCFI194:
 3553              		.cfi_def_cfa_offset 16
 3554 0004 00AF     		add	r7, sp, #0
ARM GAS  /tmp/cc5HGhWi.s 			page 91


 3555              	.LCFI195:
 3556              		.cfi_def_cfa_register 7
 3557 0006 7860     		str	r0, [r7, #4]
 3558 0008 3960     		str	r1, [r7]
1650:Drivers/STM32F1xx_HAL_Driver/Src/stm32f1xx_hal_tim.c ****   /* Check the parameters */
1651:Drivers/STM32F1xx_HAL_Driver/Src/stm32f1xx_hal_tim.c ****   assert_param(IS_TIM_CCX_INSTANCE(htim->Instance, Channel));
1652:Drivers/STM32F1xx_HAL_Driver/Src/stm32f1xx_hal_tim.c **** 
1653:Drivers/STM32F1xx_HAL_Driver/Src/stm32f1xx_hal_tim.c ****   switch (Channel)
 3559              		.loc 1 1653 0
 3560 000a 3B68     		ldr	r3, [r7]
 3561 000c 0C2B     		cmp	r3, #12
 3562 000e 41D8     		bhi	.L207
 3563 0010 01A2     		adr	r2, .L201
 3564 0012 52F823F0 		ldr	pc, [r2, r3, lsl #2]
 3565 0016 00BF     		.p2align 2
 3566              	.L201:
 3567 0018 4D000000 		.word	.L200+1
 3568 001c 95000000 		.word	.L207+1
 3569 0020 95000000 		.word	.L207+1
 3570 0024 95000000 		.word	.L207+1
 3571 0028 5F000000 		.word	.L202+1
 3572 002c 95000000 		.word	.L207+1
 3573 0030 95000000 		.word	.L207+1
 3574 0034 95000000 		.word	.L207+1
 3575 0038 71000000 		.word	.L203+1
 3576 003c 95000000 		.word	.L207+1
 3577 0040 95000000 		.word	.L207+1
 3578 0044 95000000 		.word	.L207+1
 3579 0048 83000000 		.word	.L204+1
 3580              		.p2align 1
 3581              	.L200:
1654:Drivers/STM32F1xx_HAL_Driver/Src/stm32f1xx_hal_tim.c ****   {
1655:Drivers/STM32F1xx_HAL_Driver/Src/stm32f1xx_hal_tim.c ****     case TIM_CHANNEL_1:
1656:Drivers/STM32F1xx_HAL_Driver/Src/stm32f1xx_hal_tim.c ****     {
1657:Drivers/STM32F1xx_HAL_Driver/Src/stm32f1xx_hal_tim.c ****       /* Enable the TIM Capture/Compare 1 interrupt */
1658:Drivers/STM32F1xx_HAL_Driver/Src/stm32f1xx_hal_tim.c ****       __HAL_TIM_ENABLE_IT(htim, TIM_IT_CC1);
 3582              		.loc 1 1658 0
 3583 004c 7B68     		ldr	r3, [r7, #4]
 3584 004e 1B68     		ldr	r3, [r3]
 3585 0050 DA68     		ldr	r2, [r3, #12]
 3586 0052 7B68     		ldr	r3, [r7, #4]
 3587 0054 1B68     		ldr	r3, [r3]
 3588 0056 42F00202 		orr	r2, r2, #2
 3589 005a DA60     		str	r2, [r3, #12]
1659:Drivers/STM32F1xx_HAL_Driver/Src/stm32f1xx_hal_tim.c ****     }
1660:Drivers/STM32F1xx_HAL_Driver/Src/stm32f1xx_hal_tim.c ****     break;
 3590              		.loc 1 1660 0
 3591 005c 1BE0     		b	.L205
 3592              	.L202:
1661:Drivers/STM32F1xx_HAL_Driver/Src/stm32f1xx_hal_tim.c **** 
1662:Drivers/STM32F1xx_HAL_Driver/Src/stm32f1xx_hal_tim.c ****     case TIM_CHANNEL_2:
1663:Drivers/STM32F1xx_HAL_Driver/Src/stm32f1xx_hal_tim.c ****     {
1664:Drivers/STM32F1xx_HAL_Driver/Src/stm32f1xx_hal_tim.c ****       /* Enable the TIM Capture/Compare 2 interrupt */
1665:Drivers/STM32F1xx_HAL_Driver/Src/stm32f1xx_hal_tim.c ****       __HAL_TIM_ENABLE_IT(htim, TIM_IT_CC2);
 3593              		.loc 1 1665 0
 3594 005e 7B68     		ldr	r3, [r7, #4]
 3595 0060 1B68     		ldr	r3, [r3]
ARM GAS  /tmp/cc5HGhWi.s 			page 92


 3596 0062 DA68     		ldr	r2, [r3, #12]
 3597 0064 7B68     		ldr	r3, [r7, #4]
 3598 0066 1B68     		ldr	r3, [r3]
 3599 0068 42F00402 		orr	r2, r2, #4
 3600 006c DA60     		str	r2, [r3, #12]
1666:Drivers/STM32F1xx_HAL_Driver/Src/stm32f1xx_hal_tim.c ****     }
1667:Drivers/STM32F1xx_HAL_Driver/Src/stm32f1xx_hal_tim.c ****     break;
 3601              		.loc 1 1667 0
 3602 006e 12E0     		b	.L205
 3603              	.L203:
1668:Drivers/STM32F1xx_HAL_Driver/Src/stm32f1xx_hal_tim.c **** 
1669:Drivers/STM32F1xx_HAL_Driver/Src/stm32f1xx_hal_tim.c ****     case TIM_CHANNEL_3:
1670:Drivers/STM32F1xx_HAL_Driver/Src/stm32f1xx_hal_tim.c ****     {
1671:Drivers/STM32F1xx_HAL_Driver/Src/stm32f1xx_hal_tim.c ****       /* Enable the TIM Capture/Compare 3 interrupt */
1672:Drivers/STM32F1xx_HAL_Driver/Src/stm32f1xx_hal_tim.c ****       __HAL_TIM_ENABLE_IT(htim, TIM_IT_CC3);
 3604              		.loc 1 1672 0
 3605 0070 7B68     		ldr	r3, [r7, #4]
 3606 0072 1B68     		ldr	r3, [r3]
 3607 0074 DA68     		ldr	r2, [r3, #12]
 3608 0076 7B68     		ldr	r3, [r7, #4]
 3609 0078 1B68     		ldr	r3, [r3]
 3610 007a 42F00802 		orr	r2, r2, #8
 3611 007e DA60     		str	r2, [r3, #12]
1673:Drivers/STM32F1xx_HAL_Driver/Src/stm32f1xx_hal_tim.c ****     }
1674:Drivers/STM32F1xx_HAL_Driver/Src/stm32f1xx_hal_tim.c ****     break;
 3612              		.loc 1 1674 0
 3613 0080 09E0     		b	.L205
 3614              	.L204:
1675:Drivers/STM32F1xx_HAL_Driver/Src/stm32f1xx_hal_tim.c **** 
1676:Drivers/STM32F1xx_HAL_Driver/Src/stm32f1xx_hal_tim.c ****     case TIM_CHANNEL_4:
1677:Drivers/STM32F1xx_HAL_Driver/Src/stm32f1xx_hal_tim.c ****     {
1678:Drivers/STM32F1xx_HAL_Driver/Src/stm32f1xx_hal_tim.c ****       /* Enable the TIM Capture/Compare 4 interrupt */
1679:Drivers/STM32F1xx_HAL_Driver/Src/stm32f1xx_hal_tim.c ****       __HAL_TIM_ENABLE_IT(htim, TIM_IT_CC4);
 3615              		.loc 1 1679 0
 3616 0082 7B68     		ldr	r3, [r7, #4]
 3617 0084 1B68     		ldr	r3, [r3]
 3618 0086 DA68     		ldr	r2, [r3, #12]
 3619 0088 7B68     		ldr	r3, [r7, #4]
 3620 008a 1B68     		ldr	r3, [r3]
 3621 008c 42F01002 		orr	r2, r2, #16
 3622 0090 DA60     		str	r2, [r3, #12]
1680:Drivers/STM32F1xx_HAL_Driver/Src/stm32f1xx_hal_tim.c ****     }
1681:Drivers/STM32F1xx_HAL_Driver/Src/stm32f1xx_hal_tim.c ****     break;
 3623              		.loc 1 1681 0
 3624 0092 00E0     		b	.L205
 3625              	.L207:
1682:Drivers/STM32F1xx_HAL_Driver/Src/stm32f1xx_hal_tim.c **** 
1683:Drivers/STM32F1xx_HAL_Driver/Src/stm32f1xx_hal_tim.c ****     default:
1684:Drivers/STM32F1xx_HAL_Driver/Src/stm32f1xx_hal_tim.c ****     break;
 3626              		.loc 1 1684 0
 3627 0094 00BF     		nop
 3628              	.L205:
1685:Drivers/STM32F1xx_HAL_Driver/Src/stm32f1xx_hal_tim.c ****   }
1686:Drivers/STM32F1xx_HAL_Driver/Src/stm32f1xx_hal_tim.c ****   /* Enable the Input Capture channel */
1687:Drivers/STM32F1xx_HAL_Driver/Src/stm32f1xx_hal_tim.c ****   TIM_CCxChannelCmd(htim->Instance, Channel, TIM_CCx_ENABLE);
 3629              		.loc 1 1687 0
 3630 0096 7B68     		ldr	r3, [r7, #4]
ARM GAS  /tmp/cc5HGhWi.s 			page 93


 3631 0098 1B68     		ldr	r3, [r3]
 3632 009a 0122     		movs	r2, #1
 3633 009c 3968     		ldr	r1, [r7]
 3634 009e 1846     		mov	r0, r3
 3635 00a0 FFF7FEFF 		bl	TIM_CCxChannelCmd
1688:Drivers/STM32F1xx_HAL_Driver/Src/stm32f1xx_hal_tim.c **** 
1689:Drivers/STM32F1xx_HAL_Driver/Src/stm32f1xx_hal_tim.c ****   /* Enable the Peripheral */
1690:Drivers/STM32F1xx_HAL_Driver/Src/stm32f1xx_hal_tim.c ****   __HAL_TIM_ENABLE(htim);
 3636              		.loc 1 1690 0
 3637 00a4 7B68     		ldr	r3, [r7, #4]
 3638 00a6 1B68     		ldr	r3, [r3]
 3639 00a8 1A68     		ldr	r2, [r3]
 3640 00aa 7B68     		ldr	r3, [r7, #4]
 3641 00ac 1B68     		ldr	r3, [r3]
 3642 00ae 42F00102 		orr	r2, r2, #1
 3643 00b2 1A60     		str	r2, [r3]
1691:Drivers/STM32F1xx_HAL_Driver/Src/stm32f1xx_hal_tim.c **** 
1692:Drivers/STM32F1xx_HAL_Driver/Src/stm32f1xx_hal_tim.c ****   /* Return function status */
1693:Drivers/STM32F1xx_HAL_Driver/Src/stm32f1xx_hal_tim.c ****   return HAL_OK;
 3644              		.loc 1 1693 0
 3645 00b4 0023     		movs	r3, #0
1694:Drivers/STM32F1xx_HAL_Driver/Src/stm32f1xx_hal_tim.c **** }
 3646              		.loc 1 1694 0
 3647 00b6 1846     		mov	r0, r3
 3648 00b8 0837     		adds	r7, r7, #8
 3649              	.LCFI196:
 3650              		.cfi_def_cfa_offset 8
 3651 00ba BD46     		mov	sp, r7
 3652              	.LCFI197:
 3653              		.cfi_def_cfa_register 13
 3654              		@ sp needed
 3655 00bc 80BD     		pop	{r7, pc}
 3656              		.cfi_endproc
 3657              	.LFE102:
 3659 00be 00BF     		.section	.text.HAL_TIM_IC_Stop_IT,"ax",%progbits
 3660              		.align	1
 3661              		.global	HAL_TIM_IC_Stop_IT
 3662              		.syntax unified
 3663              		.thumb
 3664              		.thumb_func
 3665              		.fpu softvfp
 3667              	HAL_TIM_IC_Stop_IT:
 3668              	.LFB103:
1695:Drivers/STM32F1xx_HAL_Driver/Src/stm32f1xx_hal_tim.c **** 
1696:Drivers/STM32F1xx_HAL_Driver/Src/stm32f1xx_hal_tim.c **** /**
1697:Drivers/STM32F1xx_HAL_Driver/Src/stm32f1xx_hal_tim.c ****   * @brief  Stops the TIM Input Capture measurement in interrupt mode.
1698:Drivers/STM32F1xx_HAL_Driver/Src/stm32f1xx_hal_tim.c ****   * @param  htim : TIM handle
1699:Drivers/STM32F1xx_HAL_Driver/Src/stm32f1xx_hal_tim.c ****   * @param  Channel : TIM Channels to be disabled
1700:Drivers/STM32F1xx_HAL_Driver/Src/stm32f1xx_hal_tim.c ****   *          This parameter can be one of the following values:
1701:Drivers/STM32F1xx_HAL_Driver/Src/stm32f1xx_hal_tim.c ****   *            @arg TIM_CHANNEL_1: TIM Channel 1 selected
1702:Drivers/STM32F1xx_HAL_Driver/Src/stm32f1xx_hal_tim.c ****   *            @arg TIM_CHANNEL_2: TIM Channel 2 selected
1703:Drivers/STM32F1xx_HAL_Driver/Src/stm32f1xx_hal_tim.c ****   *            @arg TIM_CHANNEL_3: TIM Channel 3 selected
1704:Drivers/STM32F1xx_HAL_Driver/Src/stm32f1xx_hal_tim.c ****   *            @arg TIM_CHANNEL_4: TIM Channel 4 selected
1705:Drivers/STM32F1xx_HAL_Driver/Src/stm32f1xx_hal_tim.c ****   * @retval HAL status
1706:Drivers/STM32F1xx_HAL_Driver/Src/stm32f1xx_hal_tim.c **** */
1707:Drivers/STM32F1xx_HAL_Driver/Src/stm32f1xx_hal_tim.c **** HAL_StatusTypeDef HAL_TIM_IC_Stop_IT(TIM_HandleTypeDef *htim, uint32_t Channel)
1708:Drivers/STM32F1xx_HAL_Driver/Src/stm32f1xx_hal_tim.c **** {
ARM GAS  /tmp/cc5HGhWi.s 			page 94


 3669              		.loc 1 1708 0
 3670              		.cfi_startproc
 3671              		@ args = 0, pretend = 0, frame = 8
 3672              		@ frame_needed = 1, uses_anonymous_args = 0
 3673 0000 80B5     		push	{r7, lr}
 3674              	.LCFI198:
 3675              		.cfi_def_cfa_offset 8
 3676              		.cfi_offset 7, -8
 3677              		.cfi_offset 14, -4
 3678 0002 82B0     		sub	sp, sp, #8
 3679              	.LCFI199:
 3680              		.cfi_def_cfa_offset 16
 3681 0004 00AF     		add	r7, sp, #0
 3682              	.LCFI200:
 3683              		.cfi_def_cfa_register 7
 3684 0006 7860     		str	r0, [r7, #4]
 3685 0008 3960     		str	r1, [r7]
1709:Drivers/STM32F1xx_HAL_Driver/Src/stm32f1xx_hal_tim.c ****   /* Check the parameters */
1710:Drivers/STM32F1xx_HAL_Driver/Src/stm32f1xx_hal_tim.c ****   assert_param(IS_TIM_CCX_INSTANCE(htim->Instance, Channel));
1711:Drivers/STM32F1xx_HAL_Driver/Src/stm32f1xx_hal_tim.c **** 
1712:Drivers/STM32F1xx_HAL_Driver/Src/stm32f1xx_hal_tim.c ****   switch (Channel)
 3686              		.loc 1 1712 0
 3687 000a 3B68     		ldr	r3, [r7]
 3688 000c 0C2B     		cmp	r3, #12
 3689 000e 41D8     		bhi	.L218
 3690 0010 01A2     		adr	r2, .L211
 3691 0012 52F823F0 		ldr	pc, [r2, r3, lsl #2]
 3692 0016 00BF     		.p2align 2
 3693              	.L211:
 3694 0018 4D000000 		.word	.L210+1
 3695 001c 95000000 		.word	.L218+1
 3696 0020 95000000 		.word	.L218+1
 3697 0024 95000000 		.word	.L218+1
 3698 0028 5F000000 		.word	.L212+1
 3699 002c 95000000 		.word	.L218+1
 3700 0030 95000000 		.word	.L218+1
 3701 0034 95000000 		.word	.L218+1
 3702 0038 71000000 		.word	.L213+1
 3703 003c 95000000 		.word	.L218+1
 3704 0040 95000000 		.word	.L218+1
 3705 0044 95000000 		.word	.L218+1
 3706 0048 83000000 		.word	.L214+1
 3707              		.p2align 1
 3708              	.L210:
1713:Drivers/STM32F1xx_HAL_Driver/Src/stm32f1xx_hal_tim.c ****   {
1714:Drivers/STM32F1xx_HAL_Driver/Src/stm32f1xx_hal_tim.c ****     case TIM_CHANNEL_1:
1715:Drivers/STM32F1xx_HAL_Driver/Src/stm32f1xx_hal_tim.c ****     {
1716:Drivers/STM32F1xx_HAL_Driver/Src/stm32f1xx_hal_tim.c ****       /* Disable the TIM Capture/Compare 1 interrupt */
1717:Drivers/STM32F1xx_HAL_Driver/Src/stm32f1xx_hal_tim.c ****       __HAL_TIM_DISABLE_IT(htim, TIM_IT_CC1);
 3709              		.loc 1 1717 0
 3710 004c 7B68     		ldr	r3, [r7, #4]
 3711 004e 1B68     		ldr	r3, [r3]
 3712 0050 DA68     		ldr	r2, [r3, #12]
 3713 0052 7B68     		ldr	r3, [r7, #4]
 3714 0054 1B68     		ldr	r3, [r3]
 3715 0056 22F00202 		bic	r2, r2, #2
 3716 005a DA60     		str	r2, [r3, #12]
ARM GAS  /tmp/cc5HGhWi.s 			page 95


1718:Drivers/STM32F1xx_HAL_Driver/Src/stm32f1xx_hal_tim.c ****     }
1719:Drivers/STM32F1xx_HAL_Driver/Src/stm32f1xx_hal_tim.c ****     break;
 3717              		.loc 1 1719 0
 3718 005c 1BE0     		b	.L215
 3719              	.L212:
1720:Drivers/STM32F1xx_HAL_Driver/Src/stm32f1xx_hal_tim.c **** 
1721:Drivers/STM32F1xx_HAL_Driver/Src/stm32f1xx_hal_tim.c ****     case TIM_CHANNEL_2:
1722:Drivers/STM32F1xx_HAL_Driver/Src/stm32f1xx_hal_tim.c ****     {
1723:Drivers/STM32F1xx_HAL_Driver/Src/stm32f1xx_hal_tim.c ****       /* Disable the TIM Capture/Compare 2 interrupt */
1724:Drivers/STM32F1xx_HAL_Driver/Src/stm32f1xx_hal_tim.c ****       __HAL_TIM_DISABLE_IT(htim, TIM_IT_CC2);
 3720              		.loc 1 1724 0
 3721 005e 7B68     		ldr	r3, [r7, #4]
 3722 0060 1B68     		ldr	r3, [r3]
 3723 0062 DA68     		ldr	r2, [r3, #12]
 3724 0064 7B68     		ldr	r3, [r7, #4]
 3725 0066 1B68     		ldr	r3, [r3]
 3726 0068 22F00402 		bic	r2, r2, #4
 3727 006c DA60     		str	r2, [r3, #12]
1725:Drivers/STM32F1xx_HAL_Driver/Src/stm32f1xx_hal_tim.c ****     }
1726:Drivers/STM32F1xx_HAL_Driver/Src/stm32f1xx_hal_tim.c ****     break;
 3728              		.loc 1 1726 0
 3729 006e 12E0     		b	.L215
 3730              	.L213:
1727:Drivers/STM32F1xx_HAL_Driver/Src/stm32f1xx_hal_tim.c **** 
1728:Drivers/STM32F1xx_HAL_Driver/Src/stm32f1xx_hal_tim.c ****     case TIM_CHANNEL_3:
1729:Drivers/STM32F1xx_HAL_Driver/Src/stm32f1xx_hal_tim.c ****     {
1730:Drivers/STM32F1xx_HAL_Driver/Src/stm32f1xx_hal_tim.c ****       /* Disable the TIM Capture/Compare 3 interrupt */
1731:Drivers/STM32F1xx_HAL_Driver/Src/stm32f1xx_hal_tim.c ****       __HAL_TIM_DISABLE_IT(htim, TIM_IT_CC3);
 3731              		.loc 1 1731 0
 3732 0070 7B68     		ldr	r3, [r7, #4]
 3733 0072 1B68     		ldr	r3, [r3]
 3734 0074 DA68     		ldr	r2, [r3, #12]
 3735 0076 7B68     		ldr	r3, [r7, #4]
 3736 0078 1B68     		ldr	r3, [r3]
 3737 007a 22F00802 		bic	r2, r2, #8
 3738 007e DA60     		str	r2, [r3, #12]
1732:Drivers/STM32F1xx_HAL_Driver/Src/stm32f1xx_hal_tim.c ****     }
1733:Drivers/STM32F1xx_HAL_Driver/Src/stm32f1xx_hal_tim.c ****     break;
 3739              		.loc 1 1733 0
 3740 0080 09E0     		b	.L215
 3741              	.L214:
1734:Drivers/STM32F1xx_HAL_Driver/Src/stm32f1xx_hal_tim.c **** 
1735:Drivers/STM32F1xx_HAL_Driver/Src/stm32f1xx_hal_tim.c ****     case TIM_CHANNEL_4:
1736:Drivers/STM32F1xx_HAL_Driver/Src/stm32f1xx_hal_tim.c ****     {
1737:Drivers/STM32F1xx_HAL_Driver/Src/stm32f1xx_hal_tim.c ****       /* Disable the TIM Capture/Compare 4 interrupt */
1738:Drivers/STM32F1xx_HAL_Driver/Src/stm32f1xx_hal_tim.c ****       __HAL_TIM_DISABLE_IT(htim, TIM_IT_CC4);
 3742              		.loc 1 1738 0
 3743 0082 7B68     		ldr	r3, [r7, #4]
 3744 0084 1B68     		ldr	r3, [r3]
 3745 0086 DA68     		ldr	r2, [r3, #12]
 3746 0088 7B68     		ldr	r3, [r7, #4]
 3747 008a 1B68     		ldr	r3, [r3]
 3748 008c 22F01002 		bic	r2, r2, #16
 3749 0090 DA60     		str	r2, [r3, #12]
1739:Drivers/STM32F1xx_HAL_Driver/Src/stm32f1xx_hal_tim.c ****     }
1740:Drivers/STM32F1xx_HAL_Driver/Src/stm32f1xx_hal_tim.c ****     break;
 3750              		.loc 1 1740 0
ARM GAS  /tmp/cc5HGhWi.s 			page 96


 3751 0092 00E0     		b	.L215
 3752              	.L218:
1741:Drivers/STM32F1xx_HAL_Driver/Src/stm32f1xx_hal_tim.c **** 
1742:Drivers/STM32F1xx_HAL_Driver/Src/stm32f1xx_hal_tim.c ****     default:
1743:Drivers/STM32F1xx_HAL_Driver/Src/stm32f1xx_hal_tim.c ****     break;
 3753              		.loc 1 1743 0
 3754 0094 00BF     		nop
 3755              	.L215:
1744:Drivers/STM32F1xx_HAL_Driver/Src/stm32f1xx_hal_tim.c ****   }
1745:Drivers/STM32F1xx_HAL_Driver/Src/stm32f1xx_hal_tim.c **** 
1746:Drivers/STM32F1xx_HAL_Driver/Src/stm32f1xx_hal_tim.c ****   /* Disable the Input Capture channel */
1747:Drivers/STM32F1xx_HAL_Driver/Src/stm32f1xx_hal_tim.c ****   TIM_CCxChannelCmd(htim->Instance, Channel, TIM_CCx_DISABLE);
 3756              		.loc 1 1747 0
 3757 0096 7B68     		ldr	r3, [r7, #4]
 3758 0098 1B68     		ldr	r3, [r3]
 3759 009a 0022     		movs	r2, #0
 3760 009c 3968     		ldr	r1, [r7]
 3761 009e 1846     		mov	r0, r3
 3762 00a0 FFF7FEFF 		bl	TIM_CCxChannelCmd
1748:Drivers/STM32F1xx_HAL_Driver/Src/stm32f1xx_hal_tim.c **** 
1749:Drivers/STM32F1xx_HAL_Driver/Src/stm32f1xx_hal_tim.c ****   /* Disable the Peripheral */
1750:Drivers/STM32F1xx_HAL_Driver/Src/stm32f1xx_hal_tim.c ****   __HAL_TIM_DISABLE(htim);
 3763              		.loc 1 1750 0
 3764 00a4 7B68     		ldr	r3, [r7, #4]
 3765 00a6 1B68     		ldr	r3, [r3]
 3766 00a8 1A6A     		ldr	r2, [r3, #32]
 3767 00aa 41F21113 		movw	r3, #4369
 3768 00ae 1340     		ands	r3, r3, r2
 3769 00b0 002B     		cmp	r3, #0
 3770 00b2 0FD1     		bne	.L216
 3771              		.loc 1 1750 0 is_stmt 0 discriminator 1
 3772 00b4 7B68     		ldr	r3, [r7, #4]
 3773 00b6 1B68     		ldr	r3, [r3]
 3774 00b8 1A6A     		ldr	r2, [r3, #32]
 3775 00ba 40F24443 		movw	r3, #1092
 3776 00be 1340     		ands	r3, r3, r2
 3777 00c0 002B     		cmp	r3, #0
 3778 00c2 07D1     		bne	.L216
 3779              		.loc 1 1750 0 discriminator 2
 3780 00c4 7B68     		ldr	r3, [r7, #4]
 3781 00c6 1B68     		ldr	r3, [r3]
 3782 00c8 1A68     		ldr	r2, [r3]
 3783 00ca 7B68     		ldr	r3, [r7, #4]
 3784 00cc 1B68     		ldr	r3, [r3]
 3785 00ce 22F00102 		bic	r2, r2, #1
 3786 00d2 1A60     		str	r2, [r3]
 3787              	.L216:
1751:Drivers/STM32F1xx_HAL_Driver/Src/stm32f1xx_hal_tim.c **** 
1752:Drivers/STM32F1xx_HAL_Driver/Src/stm32f1xx_hal_tim.c ****   /* Return function status */
1753:Drivers/STM32F1xx_HAL_Driver/Src/stm32f1xx_hal_tim.c ****   return HAL_OK;
 3788              		.loc 1 1753 0 is_stmt 1
 3789 00d4 0023     		movs	r3, #0
1754:Drivers/STM32F1xx_HAL_Driver/Src/stm32f1xx_hal_tim.c **** }
 3790              		.loc 1 1754 0
 3791 00d6 1846     		mov	r0, r3
 3792 00d8 0837     		adds	r7, r7, #8
 3793              	.LCFI201:
ARM GAS  /tmp/cc5HGhWi.s 			page 97


 3794              		.cfi_def_cfa_offset 8
 3795 00da BD46     		mov	sp, r7
 3796              	.LCFI202:
 3797              		.cfi_def_cfa_register 13
 3798              		@ sp needed
 3799 00dc 80BD     		pop	{r7, pc}
 3800              		.cfi_endproc
 3801              	.LFE103:
 3803 00de 00BF     		.section	.text.HAL_TIM_IC_Start_DMA,"ax",%progbits
 3804              		.align	1
 3805              		.global	HAL_TIM_IC_Start_DMA
 3806              		.syntax unified
 3807              		.thumb
 3808              		.thumb_func
 3809              		.fpu softvfp
 3811              	HAL_TIM_IC_Start_DMA:
 3812              	.LFB104:
1755:Drivers/STM32F1xx_HAL_Driver/Src/stm32f1xx_hal_tim.c **** 
1756:Drivers/STM32F1xx_HAL_Driver/Src/stm32f1xx_hal_tim.c **** /**
1757:Drivers/STM32F1xx_HAL_Driver/Src/stm32f1xx_hal_tim.c ****   * @brief  Starts the TIM Input Capture measurement in DMA mode.
1758:Drivers/STM32F1xx_HAL_Driver/Src/stm32f1xx_hal_tim.c ****   * @param  htim : TIM Input Capture handle
1759:Drivers/STM32F1xx_HAL_Driver/Src/stm32f1xx_hal_tim.c ****   * @param  Channel : TIM Channels to be enabled
1760:Drivers/STM32F1xx_HAL_Driver/Src/stm32f1xx_hal_tim.c ****   *          This parameter can be one of the following values:
1761:Drivers/STM32F1xx_HAL_Driver/Src/stm32f1xx_hal_tim.c ****   *            @arg TIM_CHANNEL_1: TIM Channel 1 selected
1762:Drivers/STM32F1xx_HAL_Driver/Src/stm32f1xx_hal_tim.c ****   *            @arg TIM_CHANNEL_2: TIM Channel 2 selected
1763:Drivers/STM32F1xx_HAL_Driver/Src/stm32f1xx_hal_tim.c ****   *            @arg TIM_CHANNEL_3: TIM Channel 3 selected
1764:Drivers/STM32F1xx_HAL_Driver/Src/stm32f1xx_hal_tim.c ****   *            @arg TIM_CHANNEL_4: TIM Channel 4 selected
1765:Drivers/STM32F1xx_HAL_Driver/Src/stm32f1xx_hal_tim.c ****   * @param  pData : The destination Buffer address.
1766:Drivers/STM32F1xx_HAL_Driver/Src/stm32f1xx_hal_tim.c ****   * @param  Length : The length of data to be transferred from TIM peripheral to memory.
1767:Drivers/STM32F1xx_HAL_Driver/Src/stm32f1xx_hal_tim.c ****   * @retval HAL status
1768:Drivers/STM32F1xx_HAL_Driver/Src/stm32f1xx_hal_tim.c **** */
1769:Drivers/STM32F1xx_HAL_Driver/Src/stm32f1xx_hal_tim.c **** HAL_StatusTypeDef HAL_TIM_IC_Start_DMA(TIM_HandleTypeDef *htim, uint32_t Channel, uint32_t *pData, 
1770:Drivers/STM32F1xx_HAL_Driver/Src/stm32f1xx_hal_tim.c **** {
 3813              		.loc 1 1770 0
 3814              		.cfi_startproc
 3815              		@ args = 0, pretend = 0, frame = 16
 3816              		@ frame_needed = 1, uses_anonymous_args = 0
 3817 0000 80B5     		push	{r7, lr}
 3818              	.LCFI203:
 3819              		.cfi_def_cfa_offset 8
 3820              		.cfi_offset 7, -8
 3821              		.cfi_offset 14, -4
 3822 0002 84B0     		sub	sp, sp, #16
 3823              	.LCFI204:
 3824              		.cfi_def_cfa_offset 24
 3825 0004 00AF     		add	r7, sp, #0
 3826              	.LCFI205:
 3827              		.cfi_def_cfa_register 7
 3828 0006 F860     		str	r0, [r7, #12]
 3829 0008 B960     		str	r1, [r7, #8]
 3830 000a 7A60     		str	r2, [r7, #4]
 3831 000c 7B80     		strh	r3, [r7, #2]	@ movhi
1771:Drivers/STM32F1xx_HAL_Driver/Src/stm32f1xx_hal_tim.c ****   /* Check the parameters */
1772:Drivers/STM32F1xx_HAL_Driver/Src/stm32f1xx_hal_tim.c ****   assert_param(IS_TIM_CCX_INSTANCE(htim->Instance, Channel));
1773:Drivers/STM32F1xx_HAL_Driver/Src/stm32f1xx_hal_tim.c ****   assert_param(IS_TIM_DMA_CC_INSTANCE(htim->Instance));
1774:Drivers/STM32F1xx_HAL_Driver/Src/stm32f1xx_hal_tim.c **** 
1775:Drivers/STM32F1xx_HAL_Driver/Src/stm32f1xx_hal_tim.c ****   if((htim->State == HAL_TIM_STATE_BUSY))
ARM GAS  /tmp/cc5HGhWi.s 			page 98


 3832              		.loc 1 1775 0
 3833 000e FB68     		ldr	r3, [r7, #12]
 3834 0010 93F83D30 		ldrb	r3, [r3, #61]
 3835 0014 DBB2     		uxtb	r3, r3
 3836 0016 022B     		cmp	r3, #2
 3837 0018 01D1     		bne	.L220
1776:Drivers/STM32F1xx_HAL_Driver/Src/stm32f1xx_hal_tim.c ****   {
1777:Drivers/STM32F1xx_HAL_Driver/Src/stm32f1xx_hal_tim.c ****      return HAL_BUSY;
 3838              		.loc 1 1777 0
 3839 001a 0223     		movs	r3, #2
 3840 001c AFE0     		b	.L221
 3841              	.L220:
1778:Drivers/STM32F1xx_HAL_Driver/Src/stm32f1xx_hal_tim.c ****   }
1779:Drivers/STM32F1xx_HAL_Driver/Src/stm32f1xx_hal_tim.c ****   else if((htim->State == HAL_TIM_STATE_READY))
 3842              		.loc 1 1779 0
 3843 001e FB68     		ldr	r3, [r7, #12]
 3844 0020 93F83D30 		ldrb	r3, [r3, #61]
 3845 0024 DBB2     		uxtb	r3, r3
 3846 0026 012B     		cmp	r3, #1
 3847 0028 0BD1     		bne	.L222
1780:Drivers/STM32F1xx_HAL_Driver/Src/stm32f1xx_hal_tim.c ****   {
1781:Drivers/STM32F1xx_HAL_Driver/Src/stm32f1xx_hal_tim.c ****     if((pData == 0U) && (Length > 0U))
 3848              		.loc 1 1781 0
 3849 002a 7B68     		ldr	r3, [r7, #4]
 3850 002c 002B     		cmp	r3, #0
 3851 002e 04D1     		bne	.L223
 3852              		.loc 1 1781 0 is_stmt 0 discriminator 1
 3853 0030 7B88     		ldrh	r3, [r7, #2]
 3854 0032 002B     		cmp	r3, #0
 3855 0034 01D0     		beq	.L223
1782:Drivers/STM32F1xx_HAL_Driver/Src/stm32f1xx_hal_tim.c ****     {
1783:Drivers/STM32F1xx_HAL_Driver/Src/stm32f1xx_hal_tim.c ****       return HAL_ERROR;
 3856              		.loc 1 1783 0 is_stmt 1
 3857 0036 0123     		movs	r3, #1
 3858 0038 A1E0     		b	.L221
 3859              	.L223:
1784:Drivers/STM32F1xx_HAL_Driver/Src/stm32f1xx_hal_tim.c ****     }
1785:Drivers/STM32F1xx_HAL_Driver/Src/stm32f1xx_hal_tim.c ****     else
1786:Drivers/STM32F1xx_HAL_Driver/Src/stm32f1xx_hal_tim.c ****     {
1787:Drivers/STM32F1xx_HAL_Driver/Src/stm32f1xx_hal_tim.c ****       htim->State = HAL_TIM_STATE_BUSY;
 3860              		.loc 1 1787 0
 3861 003a FB68     		ldr	r3, [r7, #12]
 3862 003c 0222     		movs	r2, #2
 3863 003e 83F83D20 		strb	r2, [r3, #61]
 3864              	.L222:
1788:Drivers/STM32F1xx_HAL_Driver/Src/stm32f1xx_hal_tim.c ****     }
1789:Drivers/STM32F1xx_HAL_Driver/Src/stm32f1xx_hal_tim.c ****   }
1790:Drivers/STM32F1xx_HAL_Driver/Src/stm32f1xx_hal_tim.c **** 
1791:Drivers/STM32F1xx_HAL_Driver/Src/stm32f1xx_hal_tim.c ****   switch (Channel)
 3865              		.loc 1 1791 0
 3866 0042 BB68     		ldr	r3, [r7, #8]
 3867 0044 0C2B     		cmp	r3, #12
 3868 0046 00F28980 		bhi	.L231
 3869 004a 01A2     		adr	r2, .L226
 3870 004c 52F823F0 		ldr	pc, [r2, r3, lsl #2]
 3871              		.p2align 2
 3872              	.L226:
ARM GAS  /tmp/cc5HGhWi.s 			page 99


 3873 0050 85000000 		.word	.L225+1
 3874 0054 5D010000 		.word	.L231+1
 3875 0058 5D010000 		.word	.L231+1
 3876 005c 5D010000 		.word	.L231+1
 3877 0060 BB000000 		.word	.L227+1
 3878 0064 5D010000 		.word	.L231+1
 3879 0068 5D010000 		.word	.L231+1
 3880 006c 5D010000 		.word	.L231+1
 3881 0070 F1000000 		.word	.L228+1
 3882 0074 5D010000 		.word	.L231+1
 3883 0078 5D010000 		.word	.L231+1
 3884 007c 5D010000 		.word	.L231+1
 3885 0080 27010000 		.word	.L229+1
 3886              		.p2align 1
 3887              	.L225:
1792:Drivers/STM32F1xx_HAL_Driver/Src/stm32f1xx_hal_tim.c ****   {
1793:Drivers/STM32F1xx_HAL_Driver/Src/stm32f1xx_hal_tim.c ****     case TIM_CHANNEL_1:
1794:Drivers/STM32F1xx_HAL_Driver/Src/stm32f1xx_hal_tim.c ****     {
1795:Drivers/STM32F1xx_HAL_Driver/Src/stm32f1xx_hal_tim.c ****       /* Set the DMA Period elapsed callback */
1796:Drivers/STM32F1xx_HAL_Driver/Src/stm32f1xx_hal_tim.c ****       htim->hdma[TIM_DMA_ID_CC1]->XferCpltCallback = TIM_DMACaptureCplt;
 3888              		.loc 1 1796 0
 3889 0084 FB68     		ldr	r3, [r7, #12]
 3890 0086 5B6A     		ldr	r3, [r3, #36]
 3891 0088 3F4A     		ldr	r2, .L232
 3892 008a 9A62     		str	r2, [r3, #40]
1797:Drivers/STM32F1xx_HAL_Driver/Src/stm32f1xx_hal_tim.c **** 
1798:Drivers/STM32F1xx_HAL_Driver/Src/stm32f1xx_hal_tim.c ****       /* Set the DMA error callback */
1799:Drivers/STM32F1xx_HAL_Driver/Src/stm32f1xx_hal_tim.c ****       htim->hdma[TIM_DMA_ID_CC1]->XferErrorCallback = TIM_DMAError ;
 3893              		.loc 1 1799 0
 3894 008c FB68     		ldr	r3, [r7, #12]
 3895 008e 5B6A     		ldr	r3, [r3, #36]
 3896 0090 3E4A     		ldr	r2, .L232+4
 3897 0092 1A63     		str	r2, [r3, #48]
1800:Drivers/STM32F1xx_HAL_Driver/Src/stm32f1xx_hal_tim.c **** 
1801:Drivers/STM32F1xx_HAL_Driver/Src/stm32f1xx_hal_tim.c ****       /* Enable the DMA channel */
1802:Drivers/STM32F1xx_HAL_Driver/Src/stm32f1xx_hal_tim.c ****       HAL_DMA_Start_IT(htim->hdma[TIM_DMA_ID_CC1], (uint32_t)&htim->Instance->CCR1, (uint32_t)pData
 3898              		.loc 1 1802 0
 3899 0094 FB68     		ldr	r3, [r7, #12]
 3900 0096 586A     		ldr	r0, [r3, #36]
 3901 0098 FB68     		ldr	r3, [r7, #12]
 3902 009a 1B68     		ldr	r3, [r3]
 3903 009c 3433     		adds	r3, r3, #52
 3904 009e 1946     		mov	r1, r3
 3905 00a0 7A68     		ldr	r2, [r7, #4]
 3906 00a2 7B88     		ldrh	r3, [r7, #2]
 3907 00a4 FFF7FEFF 		bl	HAL_DMA_Start_IT
1803:Drivers/STM32F1xx_HAL_Driver/Src/stm32f1xx_hal_tim.c **** 
1804:Drivers/STM32F1xx_HAL_Driver/Src/stm32f1xx_hal_tim.c ****       /* Enable the TIM Capture/Compare 1 DMA request */
1805:Drivers/STM32F1xx_HAL_Driver/Src/stm32f1xx_hal_tim.c ****       __HAL_TIM_ENABLE_DMA(htim, TIM_DMA_CC1);
 3908              		.loc 1 1805 0
 3909 00a8 FB68     		ldr	r3, [r7, #12]
 3910 00aa 1B68     		ldr	r3, [r3]
 3911 00ac DA68     		ldr	r2, [r3, #12]
 3912 00ae FB68     		ldr	r3, [r7, #12]
 3913 00b0 1B68     		ldr	r3, [r3]
 3914 00b2 42F40072 		orr	r2, r2, #512
 3915 00b6 DA60     		str	r2, [r3, #12]
ARM GAS  /tmp/cc5HGhWi.s 			page 100


1806:Drivers/STM32F1xx_HAL_Driver/Src/stm32f1xx_hal_tim.c ****     }
1807:Drivers/STM32F1xx_HAL_Driver/Src/stm32f1xx_hal_tim.c ****     break;
 3916              		.loc 1 1807 0
 3917 00b8 51E0     		b	.L230
 3918              	.L227:
1808:Drivers/STM32F1xx_HAL_Driver/Src/stm32f1xx_hal_tim.c **** 
1809:Drivers/STM32F1xx_HAL_Driver/Src/stm32f1xx_hal_tim.c ****     case TIM_CHANNEL_2:
1810:Drivers/STM32F1xx_HAL_Driver/Src/stm32f1xx_hal_tim.c ****     {
1811:Drivers/STM32F1xx_HAL_Driver/Src/stm32f1xx_hal_tim.c ****       /* Set the DMA Period elapsed callback */
1812:Drivers/STM32F1xx_HAL_Driver/Src/stm32f1xx_hal_tim.c ****       htim->hdma[TIM_DMA_ID_CC2]->XferCpltCallback = TIM_DMACaptureCplt;
 3919              		.loc 1 1812 0
 3920 00ba FB68     		ldr	r3, [r7, #12]
 3921 00bc 9B6A     		ldr	r3, [r3, #40]
 3922 00be 324A     		ldr	r2, .L232
 3923 00c0 9A62     		str	r2, [r3, #40]
1813:Drivers/STM32F1xx_HAL_Driver/Src/stm32f1xx_hal_tim.c **** 
1814:Drivers/STM32F1xx_HAL_Driver/Src/stm32f1xx_hal_tim.c ****       /* Set the DMA error callback */
1815:Drivers/STM32F1xx_HAL_Driver/Src/stm32f1xx_hal_tim.c ****       htim->hdma[TIM_DMA_ID_CC2]->XferErrorCallback = TIM_DMAError ;
 3924              		.loc 1 1815 0
 3925 00c2 FB68     		ldr	r3, [r7, #12]
 3926 00c4 9B6A     		ldr	r3, [r3, #40]
 3927 00c6 314A     		ldr	r2, .L232+4
 3928 00c8 1A63     		str	r2, [r3, #48]
1816:Drivers/STM32F1xx_HAL_Driver/Src/stm32f1xx_hal_tim.c **** 
1817:Drivers/STM32F1xx_HAL_Driver/Src/stm32f1xx_hal_tim.c ****       /* Enable the DMA channel */
1818:Drivers/STM32F1xx_HAL_Driver/Src/stm32f1xx_hal_tim.c ****       HAL_DMA_Start_IT(htim->hdma[TIM_DMA_ID_CC2], (uint32_t)&htim->Instance->CCR2, (uint32_t)pData
 3929              		.loc 1 1818 0
 3930 00ca FB68     		ldr	r3, [r7, #12]
 3931 00cc 986A     		ldr	r0, [r3, #40]
 3932 00ce FB68     		ldr	r3, [r7, #12]
 3933 00d0 1B68     		ldr	r3, [r3]
 3934 00d2 3833     		adds	r3, r3, #56
 3935 00d4 1946     		mov	r1, r3
 3936 00d6 7A68     		ldr	r2, [r7, #4]
 3937 00d8 7B88     		ldrh	r3, [r7, #2]
 3938 00da FFF7FEFF 		bl	HAL_DMA_Start_IT
1819:Drivers/STM32F1xx_HAL_Driver/Src/stm32f1xx_hal_tim.c **** 
1820:Drivers/STM32F1xx_HAL_Driver/Src/stm32f1xx_hal_tim.c ****       /* Enable the TIM Capture/Compare 2  DMA request */
1821:Drivers/STM32F1xx_HAL_Driver/Src/stm32f1xx_hal_tim.c ****       __HAL_TIM_ENABLE_DMA(htim, TIM_DMA_CC2);
 3939              		.loc 1 1821 0
 3940 00de FB68     		ldr	r3, [r7, #12]
 3941 00e0 1B68     		ldr	r3, [r3]
 3942 00e2 DA68     		ldr	r2, [r3, #12]
 3943 00e4 FB68     		ldr	r3, [r7, #12]
 3944 00e6 1B68     		ldr	r3, [r3]
 3945 00e8 42F48062 		orr	r2, r2, #1024
 3946 00ec DA60     		str	r2, [r3, #12]
1822:Drivers/STM32F1xx_HAL_Driver/Src/stm32f1xx_hal_tim.c ****     }
1823:Drivers/STM32F1xx_HAL_Driver/Src/stm32f1xx_hal_tim.c ****     break;
 3947              		.loc 1 1823 0
 3948 00ee 36E0     		b	.L230
 3949              	.L228:
1824:Drivers/STM32F1xx_HAL_Driver/Src/stm32f1xx_hal_tim.c **** 
1825:Drivers/STM32F1xx_HAL_Driver/Src/stm32f1xx_hal_tim.c ****     case TIM_CHANNEL_3:
1826:Drivers/STM32F1xx_HAL_Driver/Src/stm32f1xx_hal_tim.c ****     {
1827:Drivers/STM32F1xx_HAL_Driver/Src/stm32f1xx_hal_tim.c ****       /* Set the DMA Period elapsed callback */
1828:Drivers/STM32F1xx_HAL_Driver/Src/stm32f1xx_hal_tim.c ****       htim->hdma[TIM_DMA_ID_CC3]->XferCpltCallback = TIM_DMACaptureCplt;
ARM GAS  /tmp/cc5HGhWi.s 			page 101


 3950              		.loc 1 1828 0
 3951 00f0 FB68     		ldr	r3, [r7, #12]
 3952 00f2 DB6A     		ldr	r3, [r3, #44]
 3953 00f4 244A     		ldr	r2, .L232
 3954 00f6 9A62     		str	r2, [r3, #40]
1829:Drivers/STM32F1xx_HAL_Driver/Src/stm32f1xx_hal_tim.c **** 
1830:Drivers/STM32F1xx_HAL_Driver/Src/stm32f1xx_hal_tim.c ****       /* Set the DMA error callback */
1831:Drivers/STM32F1xx_HAL_Driver/Src/stm32f1xx_hal_tim.c ****       htim->hdma[TIM_DMA_ID_CC3]->XferErrorCallback = TIM_DMAError ;
 3955              		.loc 1 1831 0
 3956 00f8 FB68     		ldr	r3, [r7, #12]
 3957 00fa DB6A     		ldr	r3, [r3, #44]
 3958 00fc 234A     		ldr	r2, .L232+4
 3959 00fe 1A63     		str	r2, [r3, #48]
1832:Drivers/STM32F1xx_HAL_Driver/Src/stm32f1xx_hal_tim.c **** 
1833:Drivers/STM32F1xx_HAL_Driver/Src/stm32f1xx_hal_tim.c ****       /* Enable the DMA channel */
1834:Drivers/STM32F1xx_HAL_Driver/Src/stm32f1xx_hal_tim.c ****       HAL_DMA_Start_IT(htim->hdma[TIM_DMA_ID_CC3], (uint32_t)&htim->Instance->CCR3, (uint32_t)pData
 3960              		.loc 1 1834 0
 3961 0100 FB68     		ldr	r3, [r7, #12]
 3962 0102 D86A     		ldr	r0, [r3, #44]
 3963 0104 FB68     		ldr	r3, [r7, #12]
 3964 0106 1B68     		ldr	r3, [r3]
 3965 0108 3C33     		adds	r3, r3, #60
 3966 010a 1946     		mov	r1, r3
 3967 010c 7A68     		ldr	r2, [r7, #4]
 3968 010e 7B88     		ldrh	r3, [r7, #2]
 3969 0110 FFF7FEFF 		bl	HAL_DMA_Start_IT
1835:Drivers/STM32F1xx_HAL_Driver/Src/stm32f1xx_hal_tim.c **** 
1836:Drivers/STM32F1xx_HAL_Driver/Src/stm32f1xx_hal_tim.c ****       /* Enable the TIM Capture/Compare 3  DMA request */
1837:Drivers/STM32F1xx_HAL_Driver/Src/stm32f1xx_hal_tim.c ****       __HAL_TIM_ENABLE_DMA(htim, TIM_DMA_CC3);
 3970              		.loc 1 1837 0
 3971 0114 FB68     		ldr	r3, [r7, #12]
 3972 0116 1B68     		ldr	r3, [r3]
 3973 0118 DA68     		ldr	r2, [r3, #12]
 3974 011a FB68     		ldr	r3, [r7, #12]
 3975 011c 1B68     		ldr	r3, [r3]
 3976 011e 42F40062 		orr	r2, r2, #2048
 3977 0122 DA60     		str	r2, [r3, #12]
1838:Drivers/STM32F1xx_HAL_Driver/Src/stm32f1xx_hal_tim.c ****     }
1839:Drivers/STM32F1xx_HAL_Driver/Src/stm32f1xx_hal_tim.c ****     break;
 3978              		.loc 1 1839 0
 3979 0124 1BE0     		b	.L230
 3980              	.L229:
1840:Drivers/STM32F1xx_HAL_Driver/Src/stm32f1xx_hal_tim.c **** 
1841:Drivers/STM32F1xx_HAL_Driver/Src/stm32f1xx_hal_tim.c ****     case TIM_CHANNEL_4:
1842:Drivers/STM32F1xx_HAL_Driver/Src/stm32f1xx_hal_tim.c ****     {
1843:Drivers/STM32F1xx_HAL_Driver/Src/stm32f1xx_hal_tim.c ****       /* Set the DMA Period elapsed callback */
1844:Drivers/STM32F1xx_HAL_Driver/Src/stm32f1xx_hal_tim.c ****       htim->hdma[TIM_DMA_ID_CC4]->XferCpltCallback = TIM_DMACaptureCplt;
 3981              		.loc 1 1844 0
 3982 0126 FB68     		ldr	r3, [r7, #12]
 3983 0128 1B6B     		ldr	r3, [r3, #48]
 3984 012a 174A     		ldr	r2, .L232
 3985 012c 9A62     		str	r2, [r3, #40]
1845:Drivers/STM32F1xx_HAL_Driver/Src/stm32f1xx_hal_tim.c **** 
1846:Drivers/STM32F1xx_HAL_Driver/Src/stm32f1xx_hal_tim.c ****       /* Set the DMA error callback */
1847:Drivers/STM32F1xx_HAL_Driver/Src/stm32f1xx_hal_tim.c ****       htim->hdma[TIM_DMA_ID_CC4]->XferErrorCallback = TIM_DMAError ;
 3986              		.loc 1 1847 0
 3987 012e FB68     		ldr	r3, [r7, #12]
ARM GAS  /tmp/cc5HGhWi.s 			page 102


 3988 0130 1B6B     		ldr	r3, [r3, #48]
 3989 0132 164A     		ldr	r2, .L232+4
 3990 0134 1A63     		str	r2, [r3, #48]
1848:Drivers/STM32F1xx_HAL_Driver/Src/stm32f1xx_hal_tim.c **** 
1849:Drivers/STM32F1xx_HAL_Driver/Src/stm32f1xx_hal_tim.c ****       /* Enable the DMA channel */
1850:Drivers/STM32F1xx_HAL_Driver/Src/stm32f1xx_hal_tim.c ****       HAL_DMA_Start_IT(htim->hdma[TIM_DMA_ID_CC4], (uint32_t)&htim->Instance->CCR4, (uint32_t)pData
 3991              		.loc 1 1850 0
 3992 0136 FB68     		ldr	r3, [r7, #12]
 3993 0138 186B     		ldr	r0, [r3, #48]
 3994 013a FB68     		ldr	r3, [r7, #12]
 3995 013c 1B68     		ldr	r3, [r3]
 3996 013e 4033     		adds	r3, r3, #64
 3997 0140 1946     		mov	r1, r3
 3998 0142 7A68     		ldr	r2, [r7, #4]
 3999 0144 7B88     		ldrh	r3, [r7, #2]
 4000 0146 FFF7FEFF 		bl	HAL_DMA_Start_IT
1851:Drivers/STM32F1xx_HAL_Driver/Src/stm32f1xx_hal_tim.c **** 
1852:Drivers/STM32F1xx_HAL_Driver/Src/stm32f1xx_hal_tim.c ****       /* Enable the TIM Capture/Compare 4  DMA request */
1853:Drivers/STM32F1xx_HAL_Driver/Src/stm32f1xx_hal_tim.c ****       __HAL_TIM_ENABLE_DMA(htim, TIM_DMA_CC4);
 4001              		.loc 1 1853 0
 4002 014a FB68     		ldr	r3, [r7, #12]
 4003 014c 1B68     		ldr	r3, [r3]
 4004 014e DA68     		ldr	r2, [r3, #12]
 4005 0150 FB68     		ldr	r3, [r7, #12]
 4006 0152 1B68     		ldr	r3, [r3]
 4007 0154 42F48052 		orr	r2, r2, #4096
 4008 0158 DA60     		str	r2, [r3, #12]
1854:Drivers/STM32F1xx_HAL_Driver/Src/stm32f1xx_hal_tim.c ****     }
1855:Drivers/STM32F1xx_HAL_Driver/Src/stm32f1xx_hal_tim.c ****     break;
 4009              		.loc 1 1855 0
 4010 015a 00E0     		b	.L230
 4011              	.L231:
1856:Drivers/STM32F1xx_HAL_Driver/Src/stm32f1xx_hal_tim.c **** 
1857:Drivers/STM32F1xx_HAL_Driver/Src/stm32f1xx_hal_tim.c ****     default:
1858:Drivers/STM32F1xx_HAL_Driver/Src/stm32f1xx_hal_tim.c ****     break;
 4012              		.loc 1 1858 0
 4013 015c 00BF     		nop
 4014              	.L230:
1859:Drivers/STM32F1xx_HAL_Driver/Src/stm32f1xx_hal_tim.c ****   }
1860:Drivers/STM32F1xx_HAL_Driver/Src/stm32f1xx_hal_tim.c **** 
1861:Drivers/STM32F1xx_HAL_Driver/Src/stm32f1xx_hal_tim.c ****   /* Enable the Input Capture channel */
1862:Drivers/STM32F1xx_HAL_Driver/Src/stm32f1xx_hal_tim.c ****   TIM_CCxChannelCmd(htim->Instance, Channel, TIM_CCx_ENABLE);
 4015              		.loc 1 1862 0
 4016 015e FB68     		ldr	r3, [r7, #12]
 4017 0160 1B68     		ldr	r3, [r3]
 4018 0162 0122     		movs	r2, #1
 4019 0164 B968     		ldr	r1, [r7, #8]
 4020 0166 1846     		mov	r0, r3
 4021 0168 FFF7FEFF 		bl	TIM_CCxChannelCmd
1863:Drivers/STM32F1xx_HAL_Driver/Src/stm32f1xx_hal_tim.c **** 
1864:Drivers/STM32F1xx_HAL_Driver/Src/stm32f1xx_hal_tim.c ****   /* Enable the Peripheral */
1865:Drivers/STM32F1xx_HAL_Driver/Src/stm32f1xx_hal_tim.c ****   __HAL_TIM_ENABLE(htim);
 4022              		.loc 1 1865 0
 4023 016c FB68     		ldr	r3, [r7, #12]
 4024 016e 1B68     		ldr	r3, [r3]
 4025 0170 1A68     		ldr	r2, [r3]
 4026 0172 FB68     		ldr	r3, [r7, #12]
ARM GAS  /tmp/cc5HGhWi.s 			page 103


 4027 0174 1B68     		ldr	r3, [r3]
 4028 0176 42F00102 		orr	r2, r2, #1
 4029 017a 1A60     		str	r2, [r3]
1866:Drivers/STM32F1xx_HAL_Driver/Src/stm32f1xx_hal_tim.c **** 
1867:Drivers/STM32F1xx_HAL_Driver/Src/stm32f1xx_hal_tim.c ****   /* Return function status */
1868:Drivers/STM32F1xx_HAL_Driver/Src/stm32f1xx_hal_tim.c ****   return HAL_OK;
 4030              		.loc 1 1868 0
 4031 017c 0023     		movs	r3, #0
 4032              	.L221:
1869:Drivers/STM32F1xx_HAL_Driver/Src/stm32f1xx_hal_tim.c **** }
 4033              		.loc 1 1869 0
 4034 017e 1846     		mov	r0, r3
 4035 0180 1037     		adds	r7, r7, #16
 4036              	.LCFI206:
 4037              		.cfi_def_cfa_offset 8
 4038 0182 BD46     		mov	sp, r7
 4039              	.LCFI207:
 4040              		.cfi_def_cfa_register 13
 4041              		@ sp needed
 4042 0184 80BD     		pop	{r7, pc}
 4043              	.L233:
 4044 0186 00BF     		.align	2
 4045              	.L232:
 4046 0188 00000000 		.word	TIM_DMACaptureCplt
 4047 018c 00000000 		.word	TIM_DMAError
 4048              		.cfi_endproc
 4049              	.LFE104:
 4051              		.section	.text.HAL_TIM_IC_Stop_DMA,"ax",%progbits
 4052              		.align	1
 4053              		.global	HAL_TIM_IC_Stop_DMA
 4054              		.syntax unified
 4055              		.thumb
 4056              		.thumb_func
 4057              		.fpu softvfp
 4059              	HAL_TIM_IC_Stop_DMA:
 4060              	.LFB105:
1870:Drivers/STM32F1xx_HAL_Driver/Src/stm32f1xx_hal_tim.c **** 
1871:Drivers/STM32F1xx_HAL_Driver/Src/stm32f1xx_hal_tim.c **** /**
1872:Drivers/STM32F1xx_HAL_Driver/Src/stm32f1xx_hal_tim.c ****   * @brief  Stops the TIM Input Capture measurement in DMA mode.
1873:Drivers/STM32F1xx_HAL_Driver/Src/stm32f1xx_hal_tim.c ****   * @param  htim : TIM Input Capture handle
1874:Drivers/STM32F1xx_HAL_Driver/Src/stm32f1xx_hal_tim.c ****   * @param  Channel : TIM Channels to be disabled
1875:Drivers/STM32F1xx_HAL_Driver/Src/stm32f1xx_hal_tim.c ****   *          This parameter can be one of the following values:
1876:Drivers/STM32F1xx_HAL_Driver/Src/stm32f1xx_hal_tim.c ****   *            @arg TIM_CHANNEL_1: TIM Channel 1 selected
1877:Drivers/STM32F1xx_HAL_Driver/Src/stm32f1xx_hal_tim.c ****   *            @arg TIM_CHANNEL_2: TIM Channel 2 selected
1878:Drivers/STM32F1xx_HAL_Driver/Src/stm32f1xx_hal_tim.c ****   *            @arg TIM_CHANNEL_3: TIM Channel 3 selected
1879:Drivers/STM32F1xx_HAL_Driver/Src/stm32f1xx_hal_tim.c ****   *            @arg TIM_CHANNEL_4: TIM Channel 4 selected
1880:Drivers/STM32F1xx_HAL_Driver/Src/stm32f1xx_hal_tim.c ****   * @retval HAL status
1881:Drivers/STM32F1xx_HAL_Driver/Src/stm32f1xx_hal_tim.c **** */
1882:Drivers/STM32F1xx_HAL_Driver/Src/stm32f1xx_hal_tim.c **** HAL_StatusTypeDef HAL_TIM_IC_Stop_DMA(TIM_HandleTypeDef *htim, uint32_t Channel)
1883:Drivers/STM32F1xx_HAL_Driver/Src/stm32f1xx_hal_tim.c **** {
 4061              		.loc 1 1883 0
 4062              		.cfi_startproc
 4063              		@ args = 0, pretend = 0, frame = 8
 4064              		@ frame_needed = 1, uses_anonymous_args = 0
 4065 0000 80B5     		push	{r7, lr}
 4066              	.LCFI208:
 4067              		.cfi_def_cfa_offset 8
ARM GAS  /tmp/cc5HGhWi.s 			page 104


 4068              		.cfi_offset 7, -8
 4069              		.cfi_offset 14, -4
 4070 0002 82B0     		sub	sp, sp, #8
 4071              	.LCFI209:
 4072              		.cfi_def_cfa_offset 16
 4073 0004 00AF     		add	r7, sp, #0
 4074              	.LCFI210:
 4075              		.cfi_def_cfa_register 7
 4076 0006 7860     		str	r0, [r7, #4]
 4077 0008 3960     		str	r1, [r7]
1884:Drivers/STM32F1xx_HAL_Driver/Src/stm32f1xx_hal_tim.c ****   /* Check the parameters */
1885:Drivers/STM32F1xx_HAL_Driver/Src/stm32f1xx_hal_tim.c ****   assert_param(IS_TIM_CCX_INSTANCE(htim->Instance, Channel));
1886:Drivers/STM32F1xx_HAL_Driver/Src/stm32f1xx_hal_tim.c ****   assert_param(IS_TIM_DMA_CC_INSTANCE(htim->Instance));
1887:Drivers/STM32F1xx_HAL_Driver/Src/stm32f1xx_hal_tim.c **** 
1888:Drivers/STM32F1xx_HAL_Driver/Src/stm32f1xx_hal_tim.c ****   switch (Channel)
 4078              		.loc 1 1888 0
 4079 000a 3B68     		ldr	r3, [r7]
 4080 000c 0C2B     		cmp	r3, #12
 4081 000e 41D8     		bhi	.L244
 4082 0010 01A2     		adr	r2, .L237
 4083 0012 52F823F0 		ldr	pc, [r2, r3, lsl #2]
 4084 0016 00BF     		.p2align 2
 4085              	.L237:
 4086 0018 4D000000 		.word	.L236+1
 4087 001c 95000000 		.word	.L244+1
 4088 0020 95000000 		.word	.L244+1
 4089 0024 95000000 		.word	.L244+1
 4090 0028 5F000000 		.word	.L238+1
 4091 002c 95000000 		.word	.L244+1
 4092 0030 95000000 		.word	.L244+1
 4093 0034 95000000 		.word	.L244+1
 4094 0038 71000000 		.word	.L239+1
 4095 003c 95000000 		.word	.L244+1
 4096 0040 95000000 		.word	.L244+1
 4097 0044 95000000 		.word	.L244+1
 4098 0048 83000000 		.word	.L240+1
 4099              		.p2align 1
 4100              	.L236:
1889:Drivers/STM32F1xx_HAL_Driver/Src/stm32f1xx_hal_tim.c ****   {
1890:Drivers/STM32F1xx_HAL_Driver/Src/stm32f1xx_hal_tim.c ****     case TIM_CHANNEL_1:
1891:Drivers/STM32F1xx_HAL_Driver/Src/stm32f1xx_hal_tim.c ****     {
1892:Drivers/STM32F1xx_HAL_Driver/Src/stm32f1xx_hal_tim.c ****       /* Disable the TIM Capture/Compare 1 DMA request */
1893:Drivers/STM32F1xx_HAL_Driver/Src/stm32f1xx_hal_tim.c ****       __HAL_TIM_DISABLE_DMA(htim, TIM_DMA_CC1);
 4101              		.loc 1 1893 0
 4102 004c 7B68     		ldr	r3, [r7, #4]
 4103 004e 1B68     		ldr	r3, [r3]
 4104 0050 DA68     		ldr	r2, [r3, #12]
 4105 0052 7B68     		ldr	r3, [r7, #4]
 4106 0054 1B68     		ldr	r3, [r3]
 4107 0056 22F40072 		bic	r2, r2, #512
 4108 005a DA60     		str	r2, [r3, #12]
1894:Drivers/STM32F1xx_HAL_Driver/Src/stm32f1xx_hal_tim.c ****     }
1895:Drivers/STM32F1xx_HAL_Driver/Src/stm32f1xx_hal_tim.c ****     break;
 4109              		.loc 1 1895 0
 4110 005c 1BE0     		b	.L241
 4111              	.L238:
1896:Drivers/STM32F1xx_HAL_Driver/Src/stm32f1xx_hal_tim.c **** 
ARM GAS  /tmp/cc5HGhWi.s 			page 105


1897:Drivers/STM32F1xx_HAL_Driver/Src/stm32f1xx_hal_tim.c ****     case TIM_CHANNEL_2:
1898:Drivers/STM32F1xx_HAL_Driver/Src/stm32f1xx_hal_tim.c ****     {
1899:Drivers/STM32F1xx_HAL_Driver/Src/stm32f1xx_hal_tim.c ****       /* Disable the TIM Capture/Compare 2 DMA request */
1900:Drivers/STM32F1xx_HAL_Driver/Src/stm32f1xx_hal_tim.c ****       __HAL_TIM_DISABLE_DMA(htim, TIM_DMA_CC2);
 4112              		.loc 1 1900 0
 4113 005e 7B68     		ldr	r3, [r7, #4]
 4114 0060 1B68     		ldr	r3, [r3]
 4115 0062 DA68     		ldr	r2, [r3, #12]
 4116 0064 7B68     		ldr	r3, [r7, #4]
 4117 0066 1B68     		ldr	r3, [r3]
 4118 0068 22F48062 		bic	r2, r2, #1024
 4119 006c DA60     		str	r2, [r3, #12]
1901:Drivers/STM32F1xx_HAL_Driver/Src/stm32f1xx_hal_tim.c ****     }
1902:Drivers/STM32F1xx_HAL_Driver/Src/stm32f1xx_hal_tim.c ****     break;
 4120              		.loc 1 1902 0
 4121 006e 12E0     		b	.L241
 4122              	.L239:
1903:Drivers/STM32F1xx_HAL_Driver/Src/stm32f1xx_hal_tim.c **** 
1904:Drivers/STM32F1xx_HAL_Driver/Src/stm32f1xx_hal_tim.c ****     case TIM_CHANNEL_3:
1905:Drivers/STM32F1xx_HAL_Driver/Src/stm32f1xx_hal_tim.c ****     {
1906:Drivers/STM32F1xx_HAL_Driver/Src/stm32f1xx_hal_tim.c ****       /* Disable the TIM Capture/Compare 3  DMA request */
1907:Drivers/STM32F1xx_HAL_Driver/Src/stm32f1xx_hal_tim.c ****       __HAL_TIM_DISABLE_DMA(htim, TIM_DMA_CC3);
 4123              		.loc 1 1907 0
 4124 0070 7B68     		ldr	r3, [r7, #4]
 4125 0072 1B68     		ldr	r3, [r3]
 4126 0074 DA68     		ldr	r2, [r3, #12]
 4127 0076 7B68     		ldr	r3, [r7, #4]
 4128 0078 1B68     		ldr	r3, [r3]
 4129 007a 22F40062 		bic	r2, r2, #2048
 4130 007e DA60     		str	r2, [r3, #12]
1908:Drivers/STM32F1xx_HAL_Driver/Src/stm32f1xx_hal_tim.c ****     }
1909:Drivers/STM32F1xx_HAL_Driver/Src/stm32f1xx_hal_tim.c ****     break;
 4131              		.loc 1 1909 0
 4132 0080 09E0     		b	.L241
 4133              	.L240:
1910:Drivers/STM32F1xx_HAL_Driver/Src/stm32f1xx_hal_tim.c **** 
1911:Drivers/STM32F1xx_HAL_Driver/Src/stm32f1xx_hal_tim.c ****     case TIM_CHANNEL_4:
1912:Drivers/STM32F1xx_HAL_Driver/Src/stm32f1xx_hal_tim.c ****     {
1913:Drivers/STM32F1xx_HAL_Driver/Src/stm32f1xx_hal_tim.c ****       /* Disable the TIM Capture/Compare 4  DMA request */
1914:Drivers/STM32F1xx_HAL_Driver/Src/stm32f1xx_hal_tim.c ****       __HAL_TIM_DISABLE_DMA(htim, TIM_DMA_CC4);
 4134              		.loc 1 1914 0
 4135 0082 7B68     		ldr	r3, [r7, #4]
 4136 0084 1B68     		ldr	r3, [r3]
 4137 0086 DA68     		ldr	r2, [r3, #12]
 4138 0088 7B68     		ldr	r3, [r7, #4]
 4139 008a 1B68     		ldr	r3, [r3]
 4140 008c 22F48052 		bic	r2, r2, #4096
 4141 0090 DA60     		str	r2, [r3, #12]
1915:Drivers/STM32F1xx_HAL_Driver/Src/stm32f1xx_hal_tim.c ****     }
1916:Drivers/STM32F1xx_HAL_Driver/Src/stm32f1xx_hal_tim.c ****     break;
 4142              		.loc 1 1916 0
 4143 0092 00E0     		b	.L241
 4144              	.L244:
1917:Drivers/STM32F1xx_HAL_Driver/Src/stm32f1xx_hal_tim.c **** 
1918:Drivers/STM32F1xx_HAL_Driver/Src/stm32f1xx_hal_tim.c ****     default:
1919:Drivers/STM32F1xx_HAL_Driver/Src/stm32f1xx_hal_tim.c ****     break;
 4145              		.loc 1 1919 0
ARM GAS  /tmp/cc5HGhWi.s 			page 106


 4146 0094 00BF     		nop
 4147              	.L241:
1920:Drivers/STM32F1xx_HAL_Driver/Src/stm32f1xx_hal_tim.c ****   }
1921:Drivers/STM32F1xx_HAL_Driver/Src/stm32f1xx_hal_tim.c **** 
1922:Drivers/STM32F1xx_HAL_Driver/Src/stm32f1xx_hal_tim.c ****   /* Disable the Input Capture channel */
1923:Drivers/STM32F1xx_HAL_Driver/Src/stm32f1xx_hal_tim.c ****   TIM_CCxChannelCmd(htim->Instance, Channel, TIM_CCx_DISABLE);
 4148              		.loc 1 1923 0
 4149 0096 7B68     		ldr	r3, [r7, #4]
 4150 0098 1B68     		ldr	r3, [r3]
 4151 009a 0022     		movs	r2, #0
 4152 009c 3968     		ldr	r1, [r7]
 4153 009e 1846     		mov	r0, r3
 4154 00a0 FFF7FEFF 		bl	TIM_CCxChannelCmd
1924:Drivers/STM32F1xx_HAL_Driver/Src/stm32f1xx_hal_tim.c **** 
1925:Drivers/STM32F1xx_HAL_Driver/Src/stm32f1xx_hal_tim.c ****   /* Disable the Peripheral */
1926:Drivers/STM32F1xx_HAL_Driver/Src/stm32f1xx_hal_tim.c ****   __HAL_TIM_DISABLE(htim);
 4155              		.loc 1 1926 0
 4156 00a4 7B68     		ldr	r3, [r7, #4]
 4157 00a6 1B68     		ldr	r3, [r3]
 4158 00a8 1A6A     		ldr	r2, [r3, #32]
 4159 00aa 41F21113 		movw	r3, #4369
 4160 00ae 1340     		ands	r3, r3, r2
 4161 00b0 002B     		cmp	r3, #0
 4162 00b2 0FD1     		bne	.L242
 4163              		.loc 1 1926 0 is_stmt 0 discriminator 1
 4164 00b4 7B68     		ldr	r3, [r7, #4]
 4165 00b6 1B68     		ldr	r3, [r3]
 4166 00b8 1A6A     		ldr	r2, [r3, #32]
 4167 00ba 40F24443 		movw	r3, #1092
 4168 00be 1340     		ands	r3, r3, r2
 4169 00c0 002B     		cmp	r3, #0
 4170 00c2 07D1     		bne	.L242
 4171              		.loc 1 1926 0 discriminator 2
 4172 00c4 7B68     		ldr	r3, [r7, #4]
 4173 00c6 1B68     		ldr	r3, [r3]
 4174 00c8 1A68     		ldr	r2, [r3]
 4175 00ca 7B68     		ldr	r3, [r7, #4]
 4176 00cc 1B68     		ldr	r3, [r3]
 4177 00ce 22F00102 		bic	r2, r2, #1
 4178 00d2 1A60     		str	r2, [r3]
 4179              	.L242:
1927:Drivers/STM32F1xx_HAL_Driver/Src/stm32f1xx_hal_tim.c **** 
1928:Drivers/STM32F1xx_HAL_Driver/Src/stm32f1xx_hal_tim.c ****   /* Change the htim state */
1929:Drivers/STM32F1xx_HAL_Driver/Src/stm32f1xx_hal_tim.c ****   htim->State = HAL_TIM_STATE_READY;
 4180              		.loc 1 1929 0 is_stmt 1
 4181 00d4 7B68     		ldr	r3, [r7, #4]
 4182 00d6 0122     		movs	r2, #1
 4183 00d8 83F83D20 		strb	r2, [r3, #61]
1930:Drivers/STM32F1xx_HAL_Driver/Src/stm32f1xx_hal_tim.c **** 
1931:Drivers/STM32F1xx_HAL_Driver/Src/stm32f1xx_hal_tim.c ****   /* Return function status */
1932:Drivers/STM32F1xx_HAL_Driver/Src/stm32f1xx_hal_tim.c ****   return HAL_OK;
 4184              		.loc 1 1932 0
 4185 00dc 0023     		movs	r3, #0
1933:Drivers/STM32F1xx_HAL_Driver/Src/stm32f1xx_hal_tim.c **** }
 4186              		.loc 1 1933 0
 4187 00de 1846     		mov	r0, r3
 4188 00e0 0837     		adds	r7, r7, #8
ARM GAS  /tmp/cc5HGhWi.s 			page 107


 4189              	.LCFI211:
 4190              		.cfi_def_cfa_offset 8
 4191 00e2 BD46     		mov	sp, r7
 4192              	.LCFI212:
 4193              		.cfi_def_cfa_register 13
 4194              		@ sp needed
 4195 00e4 80BD     		pop	{r7, pc}
 4196              		.cfi_endproc
 4197              	.LFE105:
 4199 00e6 00BF     		.section	.text.HAL_TIM_OnePulse_Init,"ax",%progbits
 4200              		.align	1
 4201              		.global	HAL_TIM_OnePulse_Init
 4202              		.syntax unified
 4203              		.thumb
 4204              		.thumb_func
 4205              		.fpu softvfp
 4207              	HAL_TIM_OnePulse_Init:
 4208              	.LFB106:
1934:Drivers/STM32F1xx_HAL_Driver/Src/stm32f1xx_hal_tim.c **** /**
1935:Drivers/STM32F1xx_HAL_Driver/Src/stm32f1xx_hal_tim.c ****   * @}
1936:Drivers/STM32F1xx_HAL_Driver/Src/stm32f1xx_hal_tim.c ****   */
1937:Drivers/STM32F1xx_HAL_Driver/Src/stm32f1xx_hal_tim.c **** 
1938:Drivers/STM32F1xx_HAL_Driver/Src/stm32f1xx_hal_tim.c **** /** @defgroup TIM_Exported_Functions_Group5 Time One Pulse functions 
1939:Drivers/STM32F1xx_HAL_Driver/Src/stm32f1xx_hal_tim.c ****  *  @brief    Time One Pulse functions 
1940:Drivers/STM32F1xx_HAL_Driver/Src/stm32f1xx_hal_tim.c ****  *
1941:Drivers/STM32F1xx_HAL_Driver/Src/stm32f1xx_hal_tim.c **** @verbatim 
1942:Drivers/STM32F1xx_HAL_Driver/Src/stm32f1xx_hal_tim.c ****   ==============================================================================
1943:Drivers/STM32F1xx_HAL_Driver/Src/stm32f1xx_hal_tim.c ****                         ##### Time One Pulse functions #####
1944:Drivers/STM32F1xx_HAL_Driver/Src/stm32f1xx_hal_tim.c ****   ==============================================================================
1945:Drivers/STM32F1xx_HAL_Driver/Src/stm32f1xx_hal_tim.c ****   [..]
1946:Drivers/STM32F1xx_HAL_Driver/Src/stm32f1xx_hal_tim.c ****     This section provides functions allowing to:
1947:Drivers/STM32F1xx_HAL_Driver/Src/stm32f1xx_hal_tim.c ****     (+) Initialize and configure the TIM One Pulse.
1948:Drivers/STM32F1xx_HAL_Driver/Src/stm32f1xx_hal_tim.c ****     (+) De-initialize the TIM One Pulse.
1949:Drivers/STM32F1xx_HAL_Driver/Src/stm32f1xx_hal_tim.c ****     (+) Start the Time One Pulse.
1950:Drivers/STM32F1xx_HAL_Driver/Src/stm32f1xx_hal_tim.c ****     (+) Stop the Time One Pulse.
1951:Drivers/STM32F1xx_HAL_Driver/Src/stm32f1xx_hal_tim.c ****     (+) Start the Time One Pulse and enable interrupt.
1952:Drivers/STM32F1xx_HAL_Driver/Src/stm32f1xx_hal_tim.c ****     (+) Stop the Time One Pulse and disable interrupt.
1953:Drivers/STM32F1xx_HAL_Driver/Src/stm32f1xx_hal_tim.c ****     (+) Start the Time One Pulse and enable DMA transfer.
1954:Drivers/STM32F1xx_HAL_Driver/Src/stm32f1xx_hal_tim.c ****     (+) Stop the Time One Pulse and disable DMA transfer.
1955:Drivers/STM32F1xx_HAL_Driver/Src/stm32f1xx_hal_tim.c **** 
1956:Drivers/STM32F1xx_HAL_Driver/Src/stm32f1xx_hal_tim.c **** @endverbatim
1957:Drivers/STM32F1xx_HAL_Driver/Src/stm32f1xx_hal_tim.c ****   * @{
1958:Drivers/STM32F1xx_HAL_Driver/Src/stm32f1xx_hal_tim.c ****   */
1959:Drivers/STM32F1xx_HAL_Driver/Src/stm32f1xx_hal_tim.c **** /**
1960:Drivers/STM32F1xx_HAL_Driver/Src/stm32f1xx_hal_tim.c ****   * @brief  Initializes the TIM One Pulse Time Base according to the specified
1961:Drivers/STM32F1xx_HAL_Driver/Src/stm32f1xx_hal_tim.c ****   *         parameters in the TIM_HandleTypeDef and create the associated handle.
1962:Drivers/STM32F1xx_HAL_Driver/Src/stm32f1xx_hal_tim.c ****   * @param  htim : TIM OnePulse handle
1963:Drivers/STM32F1xx_HAL_Driver/Src/stm32f1xx_hal_tim.c ****   * @param  OnePulseMode : Select the One pulse mode.
1964:Drivers/STM32F1xx_HAL_Driver/Src/stm32f1xx_hal_tim.c ****   *         This parameter can be one of the following values:
1965:Drivers/STM32F1xx_HAL_Driver/Src/stm32f1xx_hal_tim.c ****   *            @arg TIM_OPMODE_SINGLE: Only one pulse will be generated.
1966:Drivers/STM32F1xx_HAL_Driver/Src/stm32f1xx_hal_tim.c ****   *            @arg TIM_OPMODE_REPETITIVE: Repetitive pulses wil be generated.
1967:Drivers/STM32F1xx_HAL_Driver/Src/stm32f1xx_hal_tim.c ****   * @retval HAL status
1968:Drivers/STM32F1xx_HAL_Driver/Src/stm32f1xx_hal_tim.c ****   */
1969:Drivers/STM32F1xx_HAL_Driver/Src/stm32f1xx_hal_tim.c **** HAL_StatusTypeDef HAL_TIM_OnePulse_Init(TIM_HandleTypeDef *htim, uint32_t OnePulseMode)
1970:Drivers/STM32F1xx_HAL_Driver/Src/stm32f1xx_hal_tim.c **** {
 4209              		.loc 1 1970 0
 4210              		.cfi_startproc
ARM GAS  /tmp/cc5HGhWi.s 			page 108


 4211              		@ args = 0, pretend = 0, frame = 8
 4212              		@ frame_needed = 1, uses_anonymous_args = 0
 4213 0000 80B5     		push	{r7, lr}
 4214              	.LCFI213:
 4215              		.cfi_def_cfa_offset 8
 4216              		.cfi_offset 7, -8
 4217              		.cfi_offset 14, -4
 4218 0002 82B0     		sub	sp, sp, #8
 4219              	.LCFI214:
 4220              		.cfi_def_cfa_offset 16
 4221 0004 00AF     		add	r7, sp, #0
 4222              	.LCFI215:
 4223              		.cfi_def_cfa_register 7
 4224 0006 7860     		str	r0, [r7, #4]
 4225 0008 3960     		str	r1, [r7]
1971:Drivers/STM32F1xx_HAL_Driver/Src/stm32f1xx_hal_tim.c ****   /* Check the TIM handle allocation */
1972:Drivers/STM32F1xx_HAL_Driver/Src/stm32f1xx_hal_tim.c ****   if(htim == NULL)
 4226              		.loc 1 1972 0
 4227 000a 7B68     		ldr	r3, [r7, #4]
 4228 000c 002B     		cmp	r3, #0
 4229 000e 01D1     		bne	.L246
1973:Drivers/STM32F1xx_HAL_Driver/Src/stm32f1xx_hal_tim.c ****   {
1974:Drivers/STM32F1xx_HAL_Driver/Src/stm32f1xx_hal_tim.c ****     return HAL_ERROR;
 4230              		.loc 1 1974 0
 4231 0010 0123     		movs	r3, #1
 4232 0012 2DE0     		b	.L247
 4233              	.L246:
1975:Drivers/STM32F1xx_HAL_Driver/Src/stm32f1xx_hal_tim.c ****   }
1976:Drivers/STM32F1xx_HAL_Driver/Src/stm32f1xx_hal_tim.c **** 
1977:Drivers/STM32F1xx_HAL_Driver/Src/stm32f1xx_hal_tim.c ****   /* Check the parameters */
1978:Drivers/STM32F1xx_HAL_Driver/Src/stm32f1xx_hal_tim.c ****   assert_param(IS_TIM_INSTANCE(htim->Instance));
1979:Drivers/STM32F1xx_HAL_Driver/Src/stm32f1xx_hal_tim.c ****   assert_param(IS_TIM_COUNTER_MODE(htim->Init.CounterMode));
1980:Drivers/STM32F1xx_HAL_Driver/Src/stm32f1xx_hal_tim.c ****   assert_param(IS_TIM_CLOCKDIVISION_DIV(htim->Init.ClockDivision));
1981:Drivers/STM32F1xx_HAL_Driver/Src/stm32f1xx_hal_tim.c ****   assert_param(IS_TIM_AUTORELOAD_PRELOAD(htim->Init.AutoReloadPreload));
1982:Drivers/STM32F1xx_HAL_Driver/Src/stm32f1xx_hal_tim.c ****   assert_param(IS_TIM_OPM_MODE(OnePulseMode));
1983:Drivers/STM32F1xx_HAL_Driver/Src/stm32f1xx_hal_tim.c **** 
1984:Drivers/STM32F1xx_HAL_Driver/Src/stm32f1xx_hal_tim.c ****   if(htim->State == HAL_TIM_STATE_RESET)
 4234              		.loc 1 1984 0
 4235 0014 7B68     		ldr	r3, [r7, #4]
 4236 0016 93F83D30 		ldrb	r3, [r3, #61]
 4237 001a DBB2     		uxtb	r3, r3
 4238 001c 002B     		cmp	r3, #0
 4239 001e 06D1     		bne	.L248
1985:Drivers/STM32F1xx_HAL_Driver/Src/stm32f1xx_hal_tim.c ****   {
1986:Drivers/STM32F1xx_HAL_Driver/Src/stm32f1xx_hal_tim.c ****     /* Allocate lock resource and initialize it */
1987:Drivers/STM32F1xx_HAL_Driver/Src/stm32f1xx_hal_tim.c ****     htim->Lock = HAL_UNLOCKED;
 4240              		.loc 1 1987 0
 4241 0020 7B68     		ldr	r3, [r7, #4]
 4242 0022 0022     		movs	r2, #0
 4243 0024 83F83C20 		strb	r2, [r3, #60]
1988:Drivers/STM32F1xx_HAL_Driver/Src/stm32f1xx_hal_tim.c ****     
1989:Drivers/STM32F1xx_HAL_Driver/Src/stm32f1xx_hal_tim.c ****     /* Init the low level hardware : GPIO, CLOCK, NVIC and DMA */
1990:Drivers/STM32F1xx_HAL_Driver/Src/stm32f1xx_hal_tim.c ****     HAL_TIM_OnePulse_MspInit(htim);
 4244              		.loc 1 1990 0
 4245 0028 7868     		ldr	r0, [r7, #4]
 4246 002a FFF7FEFF 		bl	HAL_TIM_OnePulse_MspInit
 4247              	.L248:
ARM GAS  /tmp/cc5HGhWi.s 			page 109


1991:Drivers/STM32F1xx_HAL_Driver/Src/stm32f1xx_hal_tim.c ****   }
1992:Drivers/STM32F1xx_HAL_Driver/Src/stm32f1xx_hal_tim.c **** 
1993:Drivers/STM32F1xx_HAL_Driver/Src/stm32f1xx_hal_tim.c ****   /* Set the TIM state */
1994:Drivers/STM32F1xx_HAL_Driver/Src/stm32f1xx_hal_tim.c ****   htim->State= HAL_TIM_STATE_BUSY;
 4248              		.loc 1 1994 0
 4249 002e 7B68     		ldr	r3, [r7, #4]
 4250 0030 0222     		movs	r2, #2
 4251 0032 83F83D20 		strb	r2, [r3, #61]
1995:Drivers/STM32F1xx_HAL_Driver/Src/stm32f1xx_hal_tim.c **** 
1996:Drivers/STM32F1xx_HAL_Driver/Src/stm32f1xx_hal_tim.c ****   /* Configure the Time base in the One Pulse Mode */
1997:Drivers/STM32F1xx_HAL_Driver/Src/stm32f1xx_hal_tim.c ****   TIM_Base_SetConfig(htim->Instance, &htim->Init);
 4252              		.loc 1 1997 0
 4253 0036 7B68     		ldr	r3, [r7, #4]
 4254 0038 1A68     		ldr	r2, [r3]
 4255 003a 7B68     		ldr	r3, [r7, #4]
 4256 003c 0433     		adds	r3, r3, #4
 4257 003e 1946     		mov	r1, r3
 4258 0040 1046     		mov	r0, r2
 4259 0042 FFF7FEFF 		bl	TIM_Base_SetConfig
1998:Drivers/STM32F1xx_HAL_Driver/Src/stm32f1xx_hal_tim.c **** 
1999:Drivers/STM32F1xx_HAL_Driver/Src/stm32f1xx_hal_tim.c ****   /* Reset the OPM Bit */
2000:Drivers/STM32F1xx_HAL_Driver/Src/stm32f1xx_hal_tim.c ****   htim->Instance->CR1 &= ~TIM_CR1_OPM;
 4260              		.loc 1 2000 0
 4261 0046 7B68     		ldr	r3, [r7, #4]
 4262 0048 1B68     		ldr	r3, [r3]
 4263 004a 1A68     		ldr	r2, [r3]
 4264 004c 7B68     		ldr	r3, [r7, #4]
 4265 004e 1B68     		ldr	r3, [r3]
 4266 0050 22F00802 		bic	r2, r2, #8
 4267 0054 1A60     		str	r2, [r3]
2001:Drivers/STM32F1xx_HAL_Driver/Src/stm32f1xx_hal_tim.c **** 
2002:Drivers/STM32F1xx_HAL_Driver/Src/stm32f1xx_hal_tim.c ****   /* Configure the OPM Mode */
2003:Drivers/STM32F1xx_HAL_Driver/Src/stm32f1xx_hal_tim.c ****   htim->Instance->CR1 |= OnePulseMode;
 4268              		.loc 1 2003 0
 4269 0056 7B68     		ldr	r3, [r7, #4]
 4270 0058 1B68     		ldr	r3, [r3]
 4271 005a 1968     		ldr	r1, [r3]
 4272 005c 7B68     		ldr	r3, [r7, #4]
 4273 005e 1B68     		ldr	r3, [r3]
 4274 0060 3A68     		ldr	r2, [r7]
 4275 0062 0A43     		orrs	r2, r2, r1
 4276 0064 1A60     		str	r2, [r3]
2004:Drivers/STM32F1xx_HAL_Driver/Src/stm32f1xx_hal_tim.c **** 
2005:Drivers/STM32F1xx_HAL_Driver/Src/stm32f1xx_hal_tim.c ****   /* Initialize the TIM state*/
2006:Drivers/STM32F1xx_HAL_Driver/Src/stm32f1xx_hal_tim.c ****   htim->State= HAL_TIM_STATE_READY;
 4277              		.loc 1 2006 0
 4278 0066 7B68     		ldr	r3, [r7, #4]
 4279 0068 0122     		movs	r2, #1
 4280 006a 83F83D20 		strb	r2, [r3, #61]
2007:Drivers/STM32F1xx_HAL_Driver/Src/stm32f1xx_hal_tim.c **** 
2008:Drivers/STM32F1xx_HAL_Driver/Src/stm32f1xx_hal_tim.c ****   return HAL_OK;
 4281              		.loc 1 2008 0
 4282 006e 0023     		movs	r3, #0
 4283              	.L247:
2009:Drivers/STM32F1xx_HAL_Driver/Src/stm32f1xx_hal_tim.c **** }
 4284              		.loc 1 2009 0
 4285 0070 1846     		mov	r0, r3
ARM GAS  /tmp/cc5HGhWi.s 			page 110


 4286 0072 0837     		adds	r7, r7, #8
 4287              	.LCFI216:
 4288              		.cfi_def_cfa_offset 8
 4289 0074 BD46     		mov	sp, r7
 4290              	.LCFI217:
 4291              		.cfi_def_cfa_register 13
 4292              		@ sp needed
 4293 0076 80BD     		pop	{r7, pc}
 4294              		.cfi_endproc
 4295              	.LFE106:
 4297              		.section	.text.HAL_TIM_OnePulse_DeInit,"ax",%progbits
 4298              		.align	1
 4299              		.global	HAL_TIM_OnePulse_DeInit
 4300              		.syntax unified
 4301              		.thumb
 4302              		.thumb_func
 4303              		.fpu softvfp
 4305              	HAL_TIM_OnePulse_DeInit:
 4306              	.LFB107:
2010:Drivers/STM32F1xx_HAL_Driver/Src/stm32f1xx_hal_tim.c **** 
2011:Drivers/STM32F1xx_HAL_Driver/Src/stm32f1xx_hal_tim.c **** /**
2012:Drivers/STM32F1xx_HAL_Driver/Src/stm32f1xx_hal_tim.c ****   * @brief  DeInitializes the TIM One Pulse 
2013:Drivers/STM32F1xx_HAL_Driver/Src/stm32f1xx_hal_tim.c ****   * @param  htim : TIM One Pulse handle
2014:Drivers/STM32F1xx_HAL_Driver/Src/stm32f1xx_hal_tim.c ****   * @retval HAL status
2015:Drivers/STM32F1xx_HAL_Driver/Src/stm32f1xx_hal_tim.c ****   */
2016:Drivers/STM32F1xx_HAL_Driver/Src/stm32f1xx_hal_tim.c **** HAL_StatusTypeDef HAL_TIM_OnePulse_DeInit(TIM_HandleTypeDef *htim)
2017:Drivers/STM32F1xx_HAL_Driver/Src/stm32f1xx_hal_tim.c **** {
 4307              		.loc 1 2017 0
 4308              		.cfi_startproc
 4309              		@ args = 0, pretend = 0, frame = 8
 4310              		@ frame_needed = 1, uses_anonymous_args = 0
 4311 0000 80B5     		push	{r7, lr}
 4312              	.LCFI218:
 4313              		.cfi_def_cfa_offset 8
 4314              		.cfi_offset 7, -8
 4315              		.cfi_offset 14, -4
 4316 0002 82B0     		sub	sp, sp, #8
 4317              	.LCFI219:
 4318              		.cfi_def_cfa_offset 16
 4319 0004 00AF     		add	r7, sp, #0
 4320              	.LCFI220:
 4321              		.cfi_def_cfa_register 7
 4322 0006 7860     		str	r0, [r7, #4]
2018:Drivers/STM32F1xx_HAL_Driver/Src/stm32f1xx_hal_tim.c ****   /* Check the parameters */
2019:Drivers/STM32F1xx_HAL_Driver/Src/stm32f1xx_hal_tim.c ****   assert_param(IS_TIM_INSTANCE(htim->Instance));
2020:Drivers/STM32F1xx_HAL_Driver/Src/stm32f1xx_hal_tim.c **** 
2021:Drivers/STM32F1xx_HAL_Driver/Src/stm32f1xx_hal_tim.c ****   htim->State = HAL_TIM_STATE_BUSY;
 4323              		.loc 1 2021 0
 4324 0008 7B68     		ldr	r3, [r7, #4]
 4325 000a 0222     		movs	r2, #2
 4326 000c 83F83D20 		strb	r2, [r3, #61]
2022:Drivers/STM32F1xx_HAL_Driver/Src/stm32f1xx_hal_tim.c **** 
2023:Drivers/STM32F1xx_HAL_Driver/Src/stm32f1xx_hal_tim.c ****   /* Disable the TIM Peripheral Clock */
2024:Drivers/STM32F1xx_HAL_Driver/Src/stm32f1xx_hal_tim.c ****   __HAL_TIM_DISABLE(htim);
 4327              		.loc 1 2024 0
 4328 0010 7B68     		ldr	r3, [r7, #4]
 4329 0012 1B68     		ldr	r3, [r3]
ARM GAS  /tmp/cc5HGhWi.s 			page 111


 4330 0014 1A6A     		ldr	r2, [r3, #32]
 4331 0016 41F21113 		movw	r3, #4369
 4332 001a 1340     		ands	r3, r3, r2
 4333 001c 002B     		cmp	r3, #0
 4334 001e 0FD1     		bne	.L250
 4335              		.loc 1 2024 0 is_stmt 0 discriminator 1
 4336 0020 7B68     		ldr	r3, [r7, #4]
 4337 0022 1B68     		ldr	r3, [r3]
 4338 0024 1A6A     		ldr	r2, [r3, #32]
 4339 0026 40F24443 		movw	r3, #1092
 4340 002a 1340     		ands	r3, r3, r2
 4341 002c 002B     		cmp	r3, #0
 4342 002e 07D1     		bne	.L250
 4343              		.loc 1 2024 0 discriminator 2
 4344 0030 7B68     		ldr	r3, [r7, #4]
 4345 0032 1B68     		ldr	r3, [r3]
 4346 0034 1A68     		ldr	r2, [r3]
 4347 0036 7B68     		ldr	r3, [r7, #4]
 4348 0038 1B68     		ldr	r3, [r3]
 4349 003a 22F00102 		bic	r2, r2, #1
 4350 003e 1A60     		str	r2, [r3]
 4351              	.L250:
2025:Drivers/STM32F1xx_HAL_Driver/Src/stm32f1xx_hal_tim.c **** 
2026:Drivers/STM32F1xx_HAL_Driver/Src/stm32f1xx_hal_tim.c ****   /* DeInit the low level hardware: GPIO, CLOCK, NVIC */
2027:Drivers/STM32F1xx_HAL_Driver/Src/stm32f1xx_hal_tim.c ****   HAL_TIM_OnePulse_MspDeInit(htim);
 4352              		.loc 1 2027 0 is_stmt 1
 4353 0040 7868     		ldr	r0, [r7, #4]
 4354 0042 FFF7FEFF 		bl	HAL_TIM_OnePulse_MspDeInit
2028:Drivers/STM32F1xx_HAL_Driver/Src/stm32f1xx_hal_tim.c **** 
2029:Drivers/STM32F1xx_HAL_Driver/Src/stm32f1xx_hal_tim.c ****   /* Change TIM state */
2030:Drivers/STM32F1xx_HAL_Driver/Src/stm32f1xx_hal_tim.c ****   htim->State = HAL_TIM_STATE_RESET;
 4355              		.loc 1 2030 0
 4356 0046 7B68     		ldr	r3, [r7, #4]
 4357 0048 0022     		movs	r2, #0
 4358 004a 83F83D20 		strb	r2, [r3, #61]
2031:Drivers/STM32F1xx_HAL_Driver/Src/stm32f1xx_hal_tim.c **** 
2032:Drivers/STM32F1xx_HAL_Driver/Src/stm32f1xx_hal_tim.c ****   /* Release Lock */
2033:Drivers/STM32F1xx_HAL_Driver/Src/stm32f1xx_hal_tim.c ****   __HAL_UNLOCK(htim);
 4359              		.loc 1 2033 0
 4360 004e 7B68     		ldr	r3, [r7, #4]
 4361 0050 0022     		movs	r2, #0
 4362 0052 83F83C20 		strb	r2, [r3, #60]
2034:Drivers/STM32F1xx_HAL_Driver/Src/stm32f1xx_hal_tim.c **** 
2035:Drivers/STM32F1xx_HAL_Driver/Src/stm32f1xx_hal_tim.c ****   return HAL_OK;
 4363              		.loc 1 2035 0
 4364 0056 0023     		movs	r3, #0
2036:Drivers/STM32F1xx_HAL_Driver/Src/stm32f1xx_hal_tim.c **** }
 4365              		.loc 1 2036 0
 4366 0058 1846     		mov	r0, r3
 4367 005a 0837     		adds	r7, r7, #8
 4368              	.LCFI221:
 4369              		.cfi_def_cfa_offset 8
 4370 005c BD46     		mov	sp, r7
 4371              	.LCFI222:
 4372              		.cfi_def_cfa_register 13
 4373              		@ sp needed
 4374 005e 80BD     		pop	{r7, pc}
ARM GAS  /tmp/cc5HGhWi.s 			page 112


 4375              		.cfi_endproc
 4376              	.LFE107:
 4378              		.section	.text.HAL_TIM_OnePulse_MspInit,"ax",%progbits
 4379              		.align	1
 4380              		.weak	HAL_TIM_OnePulse_MspInit
 4381              		.syntax unified
 4382              		.thumb
 4383              		.thumb_func
 4384              		.fpu softvfp
 4386              	HAL_TIM_OnePulse_MspInit:
 4387              	.LFB108:
2037:Drivers/STM32F1xx_HAL_Driver/Src/stm32f1xx_hal_tim.c **** 
2038:Drivers/STM32F1xx_HAL_Driver/Src/stm32f1xx_hal_tim.c **** /**
2039:Drivers/STM32F1xx_HAL_Driver/Src/stm32f1xx_hal_tim.c ****   * @brief  Initializes the TIM One Pulse MSP.
2040:Drivers/STM32F1xx_HAL_Driver/Src/stm32f1xx_hal_tim.c ****   * @param  htim : TIM handle
2041:Drivers/STM32F1xx_HAL_Driver/Src/stm32f1xx_hal_tim.c ****   * @retval None
2042:Drivers/STM32F1xx_HAL_Driver/Src/stm32f1xx_hal_tim.c ****   */
2043:Drivers/STM32F1xx_HAL_Driver/Src/stm32f1xx_hal_tim.c **** __weak void HAL_TIM_OnePulse_MspInit(TIM_HandleTypeDef *htim)
2044:Drivers/STM32F1xx_HAL_Driver/Src/stm32f1xx_hal_tim.c **** {
 4388              		.loc 1 2044 0
 4389              		.cfi_startproc
 4390              		@ args = 0, pretend = 0, frame = 8
 4391              		@ frame_needed = 1, uses_anonymous_args = 0
 4392              		@ link register save eliminated.
 4393 0000 80B4     		push	{r7}
 4394              	.LCFI223:
 4395              		.cfi_def_cfa_offset 4
 4396              		.cfi_offset 7, -4
 4397 0002 83B0     		sub	sp, sp, #12
 4398              	.LCFI224:
 4399              		.cfi_def_cfa_offset 16
 4400 0004 00AF     		add	r7, sp, #0
 4401              	.LCFI225:
 4402              		.cfi_def_cfa_register 7
 4403 0006 7860     		str	r0, [r7, #4]
2045:Drivers/STM32F1xx_HAL_Driver/Src/stm32f1xx_hal_tim.c ****   /* Prevent unused argument(s) compilation warning */
2046:Drivers/STM32F1xx_HAL_Driver/Src/stm32f1xx_hal_tim.c ****   UNUSED(htim);
2047:Drivers/STM32F1xx_HAL_Driver/Src/stm32f1xx_hal_tim.c ****   /* NOTE : This function Should not be modified, when the callback is needed,
2048:Drivers/STM32F1xx_HAL_Driver/Src/stm32f1xx_hal_tim.c ****             the HAL_TIM_OnePulse_MspInit could be implemented in the user file
2049:Drivers/STM32F1xx_HAL_Driver/Src/stm32f1xx_hal_tim.c ****    */
2050:Drivers/STM32F1xx_HAL_Driver/Src/stm32f1xx_hal_tim.c **** }
 4404              		.loc 1 2050 0
 4405 0008 00BF     		nop
 4406 000a 0C37     		adds	r7, r7, #12
 4407              	.LCFI226:
 4408              		.cfi_def_cfa_offset 4
 4409 000c BD46     		mov	sp, r7
 4410              	.LCFI227:
 4411              		.cfi_def_cfa_register 13
 4412              		@ sp needed
 4413 000e 80BC     		pop	{r7}
 4414              	.LCFI228:
 4415              		.cfi_restore 7
 4416              		.cfi_def_cfa_offset 0
 4417 0010 7047     		bx	lr
 4418              		.cfi_endproc
 4419              	.LFE108:
ARM GAS  /tmp/cc5HGhWi.s 			page 113


 4421              		.section	.text.HAL_TIM_OnePulse_MspDeInit,"ax",%progbits
 4422              		.align	1
 4423              		.weak	HAL_TIM_OnePulse_MspDeInit
 4424              		.syntax unified
 4425              		.thumb
 4426              		.thumb_func
 4427              		.fpu softvfp
 4429              	HAL_TIM_OnePulse_MspDeInit:
 4430              	.LFB109:
2051:Drivers/STM32F1xx_HAL_Driver/Src/stm32f1xx_hal_tim.c **** 
2052:Drivers/STM32F1xx_HAL_Driver/Src/stm32f1xx_hal_tim.c **** /**
2053:Drivers/STM32F1xx_HAL_Driver/Src/stm32f1xx_hal_tim.c ****   * @brief  DeInitializes TIM One Pulse MSP.
2054:Drivers/STM32F1xx_HAL_Driver/Src/stm32f1xx_hal_tim.c ****   * @param  htim : TIM handle
2055:Drivers/STM32F1xx_HAL_Driver/Src/stm32f1xx_hal_tim.c ****   * @retval None
2056:Drivers/STM32F1xx_HAL_Driver/Src/stm32f1xx_hal_tim.c ****   */
2057:Drivers/STM32F1xx_HAL_Driver/Src/stm32f1xx_hal_tim.c **** __weak void HAL_TIM_OnePulse_MspDeInit(TIM_HandleTypeDef *htim)
2058:Drivers/STM32F1xx_HAL_Driver/Src/stm32f1xx_hal_tim.c **** {
 4431              		.loc 1 2058 0
 4432              		.cfi_startproc
 4433              		@ args = 0, pretend = 0, frame = 8
 4434              		@ frame_needed = 1, uses_anonymous_args = 0
 4435              		@ link register save eliminated.
 4436 0000 80B4     		push	{r7}
 4437              	.LCFI229:
 4438              		.cfi_def_cfa_offset 4
 4439              		.cfi_offset 7, -4
 4440 0002 83B0     		sub	sp, sp, #12
 4441              	.LCFI230:
 4442              		.cfi_def_cfa_offset 16
 4443 0004 00AF     		add	r7, sp, #0
 4444              	.LCFI231:
 4445              		.cfi_def_cfa_register 7
 4446 0006 7860     		str	r0, [r7, #4]
2059:Drivers/STM32F1xx_HAL_Driver/Src/stm32f1xx_hal_tim.c ****   /* Prevent unused argument(s) compilation warning */
2060:Drivers/STM32F1xx_HAL_Driver/Src/stm32f1xx_hal_tim.c ****   UNUSED(htim);
2061:Drivers/STM32F1xx_HAL_Driver/Src/stm32f1xx_hal_tim.c ****   /* NOTE : This function Should not be modified, when the callback is needed,
2062:Drivers/STM32F1xx_HAL_Driver/Src/stm32f1xx_hal_tim.c ****             the HAL_TIM_OnePulse_MspDeInit could be implemented in the user file
2063:Drivers/STM32F1xx_HAL_Driver/Src/stm32f1xx_hal_tim.c ****    */
2064:Drivers/STM32F1xx_HAL_Driver/Src/stm32f1xx_hal_tim.c **** }
 4447              		.loc 1 2064 0
 4448 0008 00BF     		nop
 4449 000a 0C37     		adds	r7, r7, #12
 4450              	.LCFI232:
 4451              		.cfi_def_cfa_offset 4
 4452 000c BD46     		mov	sp, r7
 4453              	.LCFI233:
 4454              		.cfi_def_cfa_register 13
 4455              		@ sp needed
 4456 000e 80BC     		pop	{r7}
 4457              	.LCFI234:
 4458              		.cfi_restore 7
 4459              		.cfi_def_cfa_offset 0
 4460 0010 7047     		bx	lr
 4461              		.cfi_endproc
 4462              	.LFE109:
 4464              		.section	.text.HAL_TIM_OnePulse_Start,"ax",%progbits
 4465              		.align	1
ARM GAS  /tmp/cc5HGhWi.s 			page 114


 4466              		.global	HAL_TIM_OnePulse_Start
 4467              		.syntax unified
 4468              		.thumb
 4469              		.thumb_func
 4470              		.fpu softvfp
 4472              	HAL_TIM_OnePulse_Start:
 4473              	.LFB110:
2065:Drivers/STM32F1xx_HAL_Driver/Src/stm32f1xx_hal_tim.c **** 
2066:Drivers/STM32F1xx_HAL_Driver/Src/stm32f1xx_hal_tim.c **** /**
2067:Drivers/STM32F1xx_HAL_Driver/Src/stm32f1xx_hal_tim.c ****   * @brief  Starts the TIM One Pulse signal generation.
2068:Drivers/STM32F1xx_HAL_Driver/Src/stm32f1xx_hal_tim.c ****   * @param  htim : TIM One Pulse handle
2069:Drivers/STM32F1xx_HAL_Driver/Src/stm32f1xx_hal_tim.c ****   * @param  OutputChannel : TIM Channels to be enabled
2070:Drivers/STM32F1xx_HAL_Driver/Src/stm32f1xx_hal_tim.c ****   *          This parameter can be one of the following values:
2071:Drivers/STM32F1xx_HAL_Driver/Src/stm32f1xx_hal_tim.c ****   *            @arg TIM_CHANNEL_1: TIM Channel 1 selected
2072:Drivers/STM32F1xx_HAL_Driver/Src/stm32f1xx_hal_tim.c ****   *            @arg TIM_CHANNEL_2: TIM Channel 2 selected
2073:Drivers/STM32F1xx_HAL_Driver/Src/stm32f1xx_hal_tim.c ****   * @retval HAL status
2074:Drivers/STM32F1xx_HAL_Driver/Src/stm32f1xx_hal_tim.c **** */
2075:Drivers/STM32F1xx_HAL_Driver/Src/stm32f1xx_hal_tim.c **** HAL_StatusTypeDef HAL_TIM_OnePulse_Start(TIM_HandleTypeDef *htim, uint32_t OutputChannel)
2076:Drivers/STM32F1xx_HAL_Driver/Src/stm32f1xx_hal_tim.c **** {
 4474              		.loc 1 2076 0
 4475              		.cfi_startproc
 4476              		@ args = 0, pretend = 0, frame = 8
 4477              		@ frame_needed = 1, uses_anonymous_args = 0
 4478 0000 80B5     		push	{r7, lr}
 4479              	.LCFI235:
 4480              		.cfi_def_cfa_offset 8
 4481              		.cfi_offset 7, -8
 4482              		.cfi_offset 14, -4
 4483 0002 82B0     		sub	sp, sp, #8
 4484              	.LCFI236:
 4485              		.cfi_def_cfa_offset 16
 4486 0004 00AF     		add	r7, sp, #0
 4487              	.LCFI237:
 4488              		.cfi_def_cfa_register 7
 4489 0006 7860     		str	r0, [r7, #4]
 4490 0008 3960     		str	r1, [r7]
2077:Drivers/STM32F1xx_HAL_Driver/Src/stm32f1xx_hal_tim.c ****   /* Prevent unused argument(s) compilation warning */
2078:Drivers/STM32F1xx_HAL_Driver/Src/stm32f1xx_hal_tim.c ****   UNUSED(OutputChannel);
2079:Drivers/STM32F1xx_HAL_Driver/Src/stm32f1xx_hal_tim.c **** 
2080:Drivers/STM32F1xx_HAL_Driver/Src/stm32f1xx_hal_tim.c ****   /* Enable the Capture compare and the Input Capture channels 
2081:Drivers/STM32F1xx_HAL_Driver/Src/stm32f1xx_hal_tim.c ****     (in the OPM Mode the two possible channels that can be used are TIM_CHANNEL_1 and TIM_CHANNEL_2
2082:Drivers/STM32F1xx_HAL_Driver/Src/stm32f1xx_hal_tim.c ****     if TIM_CHANNEL_1 is used as output, the TIM_CHANNEL_2 will be used as input and
2083:Drivers/STM32F1xx_HAL_Driver/Src/stm32f1xx_hal_tim.c ****     if TIM_CHANNEL_1 is used as input, the TIM_CHANNEL_2 will be used as output 
2084:Drivers/STM32F1xx_HAL_Driver/Src/stm32f1xx_hal_tim.c ****     in all combinations, the TIM_CHANNEL_1 and TIM_CHANNEL_2 should be enabled together 
2085:Drivers/STM32F1xx_HAL_Driver/Src/stm32f1xx_hal_tim.c **** 
2086:Drivers/STM32F1xx_HAL_Driver/Src/stm32f1xx_hal_tim.c ****     No need to enable the counter, it's enabled automatically by hardware 
2087:Drivers/STM32F1xx_HAL_Driver/Src/stm32f1xx_hal_tim.c ****     (the counter starts in response to a stimulus and generate a pulse */
2088:Drivers/STM32F1xx_HAL_Driver/Src/stm32f1xx_hal_tim.c **** 
2089:Drivers/STM32F1xx_HAL_Driver/Src/stm32f1xx_hal_tim.c ****   TIM_CCxChannelCmd(htim->Instance, TIM_CHANNEL_1, TIM_CCx_ENABLE);
 4491              		.loc 1 2089 0
 4492 000a 7B68     		ldr	r3, [r7, #4]
 4493 000c 1B68     		ldr	r3, [r3]
 4494 000e 0122     		movs	r2, #1
 4495 0010 0021     		movs	r1, #0
 4496 0012 1846     		mov	r0, r3
 4497 0014 FFF7FEFF 		bl	TIM_CCxChannelCmd
2090:Drivers/STM32F1xx_HAL_Driver/Src/stm32f1xx_hal_tim.c ****   TIM_CCxChannelCmd(htim->Instance, TIM_CHANNEL_2, TIM_CCx_ENABLE);
ARM GAS  /tmp/cc5HGhWi.s 			page 115


 4498              		.loc 1 2090 0
 4499 0018 7B68     		ldr	r3, [r7, #4]
 4500 001a 1B68     		ldr	r3, [r3]
 4501 001c 0122     		movs	r2, #1
 4502 001e 0421     		movs	r1, #4
 4503 0020 1846     		mov	r0, r3
 4504 0022 FFF7FEFF 		bl	TIM_CCxChannelCmd
2091:Drivers/STM32F1xx_HAL_Driver/Src/stm32f1xx_hal_tim.c **** 
2092:Drivers/STM32F1xx_HAL_Driver/Src/stm32f1xx_hal_tim.c ****   if(IS_TIM_BREAK_INSTANCE(htim->Instance) != RESET)
 4505              		.loc 1 2092 0
 4506 0026 7B68     		ldr	r3, [r7, #4]
 4507 0028 1B68     		ldr	r3, [r3]
 4508 002a 084A     		ldr	r2, .L257
 4509 002c 9342     		cmp	r3, r2
 4510 002e 07D1     		bne	.L255
2093:Drivers/STM32F1xx_HAL_Driver/Src/stm32f1xx_hal_tim.c ****   {
2094:Drivers/STM32F1xx_HAL_Driver/Src/stm32f1xx_hal_tim.c ****     /* Enable the main output */
2095:Drivers/STM32F1xx_HAL_Driver/Src/stm32f1xx_hal_tim.c ****     __HAL_TIM_MOE_ENABLE(htim);
 4511              		.loc 1 2095 0
 4512 0030 7B68     		ldr	r3, [r7, #4]
 4513 0032 1B68     		ldr	r3, [r3]
 4514 0034 5A6C     		ldr	r2, [r3, #68]
 4515 0036 7B68     		ldr	r3, [r7, #4]
 4516 0038 1B68     		ldr	r3, [r3]
 4517 003a 42F40042 		orr	r2, r2, #32768
 4518 003e 5A64     		str	r2, [r3, #68]
 4519              	.L255:
2096:Drivers/STM32F1xx_HAL_Driver/Src/stm32f1xx_hal_tim.c ****   }
2097:Drivers/STM32F1xx_HAL_Driver/Src/stm32f1xx_hal_tim.c **** 
2098:Drivers/STM32F1xx_HAL_Driver/Src/stm32f1xx_hal_tim.c ****   /* Return function status */
2099:Drivers/STM32F1xx_HAL_Driver/Src/stm32f1xx_hal_tim.c ****   return HAL_OK;
 4520              		.loc 1 2099 0
 4521 0040 0023     		movs	r3, #0
2100:Drivers/STM32F1xx_HAL_Driver/Src/stm32f1xx_hal_tim.c **** }
 4522              		.loc 1 2100 0
 4523 0042 1846     		mov	r0, r3
 4524 0044 0837     		adds	r7, r7, #8
 4525              	.LCFI238:
 4526              		.cfi_def_cfa_offset 8
 4527 0046 BD46     		mov	sp, r7
 4528              	.LCFI239:
 4529              		.cfi_def_cfa_register 13
 4530              		@ sp needed
 4531 0048 80BD     		pop	{r7, pc}
 4532              	.L258:
 4533 004a 00BF     		.align	2
 4534              	.L257:
 4535 004c 002C0140 		.word	1073818624
 4536              		.cfi_endproc
 4537              	.LFE110:
 4539              		.section	.text.HAL_TIM_OnePulse_Stop,"ax",%progbits
 4540              		.align	1
 4541              		.global	HAL_TIM_OnePulse_Stop
 4542              		.syntax unified
 4543              		.thumb
 4544              		.thumb_func
 4545              		.fpu softvfp
ARM GAS  /tmp/cc5HGhWi.s 			page 116


 4547              	HAL_TIM_OnePulse_Stop:
 4548              	.LFB111:
2101:Drivers/STM32F1xx_HAL_Driver/Src/stm32f1xx_hal_tim.c **** 
2102:Drivers/STM32F1xx_HAL_Driver/Src/stm32f1xx_hal_tim.c **** /**
2103:Drivers/STM32F1xx_HAL_Driver/Src/stm32f1xx_hal_tim.c ****   * @brief  Stops the TIM One Pulse signal generation.
2104:Drivers/STM32F1xx_HAL_Driver/Src/stm32f1xx_hal_tim.c ****   * @param  htim : TIM One Pulse handle
2105:Drivers/STM32F1xx_HAL_Driver/Src/stm32f1xx_hal_tim.c ****   * @param  OutputChannel : TIM Channels to be disable
2106:Drivers/STM32F1xx_HAL_Driver/Src/stm32f1xx_hal_tim.c ****   *          This parameter can be one of the following values:
2107:Drivers/STM32F1xx_HAL_Driver/Src/stm32f1xx_hal_tim.c ****   *            @arg TIM_CHANNEL_1: TIM Channel 1 selected
2108:Drivers/STM32F1xx_HAL_Driver/Src/stm32f1xx_hal_tim.c ****   *            @arg TIM_CHANNEL_2: TIM Channel 2 selected
2109:Drivers/STM32F1xx_HAL_Driver/Src/stm32f1xx_hal_tim.c ****   * @retval HAL status
2110:Drivers/STM32F1xx_HAL_Driver/Src/stm32f1xx_hal_tim.c **** */
2111:Drivers/STM32F1xx_HAL_Driver/Src/stm32f1xx_hal_tim.c **** HAL_StatusTypeDef HAL_TIM_OnePulse_Stop(TIM_HandleTypeDef *htim, uint32_t OutputChannel)
2112:Drivers/STM32F1xx_HAL_Driver/Src/stm32f1xx_hal_tim.c **** {
 4549              		.loc 1 2112 0
 4550              		.cfi_startproc
 4551              		@ args = 0, pretend = 0, frame = 8
 4552              		@ frame_needed = 1, uses_anonymous_args = 0
 4553 0000 80B5     		push	{r7, lr}
 4554              	.LCFI240:
 4555              		.cfi_def_cfa_offset 8
 4556              		.cfi_offset 7, -8
 4557              		.cfi_offset 14, -4
 4558 0002 82B0     		sub	sp, sp, #8
 4559              	.LCFI241:
 4560              		.cfi_def_cfa_offset 16
 4561 0004 00AF     		add	r7, sp, #0
 4562              	.LCFI242:
 4563              		.cfi_def_cfa_register 7
 4564 0006 7860     		str	r0, [r7, #4]
 4565 0008 3960     		str	r1, [r7]
2113:Drivers/STM32F1xx_HAL_Driver/Src/stm32f1xx_hal_tim.c ****   /* Prevent unused argument(s) compilation warning */
2114:Drivers/STM32F1xx_HAL_Driver/Src/stm32f1xx_hal_tim.c ****   UNUSED(OutputChannel);
2115:Drivers/STM32F1xx_HAL_Driver/Src/stm32f1xx_hal_tim.c **** 
2116:Drivers/STM32F1xx_HAL_Driver/Src/stm32f1xx_hal_tim.c ****   /* Disable the Capture compare and the Input Capture channels
2117:Drivers/STM32F1xx_HAL_Driver/Src/stm32f1xx_hal_tim.c ****   (in the OPM Mode the two possible channels that can be used are TIM_CHANNEL_1 and TIM_CHANNEL_2)
2118:Drivers/STM32F1xx_HAL_Driver/Src/stm32f1xx_hal_tim.c ****   if TIM_CHANNEL_1 is used as output, the TIM_CHANNEL_2 will be used as input and
2119:Drivers/STM32F1xx_HAL_Driver/Src/stm32f1xx_hal_tim.c ****   if TIM_CHANNEL_1 is used as input, the TIM_CHANNEL_2 will be used as output 
2120:Drivers/STM32F1xx_HAL_Driver/Src/stm32f1xx_hal_tim.c ****   in all combinations, the TIM_CHANNEL_1 and TIM_CHANNEL_2 should be disabled together */
2121:Drivers/STM32F1xx_HAL_Driver/Src/stm32f1xx_hal_tim.c **** 
2122:Drivers/STM32F1xx_HAL_Driver/Src/stm32f1xx_hal_tim.c ****   TIM_CCxChannelCmd(htim->Instance, TIM_CHANNEL_1, TIM_CCx_DISABLE);
 4566              		.loc 1 2122 0
 4567 000a 7B68     		ldr	r3, [r7, #4]
 4568 000c 1B68     		ldr	r3, [r3]
 4569 000e 0022     		movs	r2, #0
 4570 0010 0021     		movs	r1, #0
 4571 0012 1846     		mov	r0, r3
 4572 0014 FFF7FEFF 		bl	TIM_CCxChannelCmd
2123:Drivers/STM32F1xx_HAL_Driver/Src/stm32f1xx_hal_tim.c ****   TIM_CCxChannelCmd(htim->Instance, TIM_CHANNEL_2, TIM_CCx_DISABLE);
 4573              		.loc 1 2123 0
 4574 0018 7B68     		ldr	r3, [r7, #4]
 4575 001a 1B68     		ldr	r3, [r3]
 4576 001c 0022     		movs	r2, #0
 4577 001e 0421     		movs	r1, #4
 4578 0020 1846     		mov	r0, r3
 4579 0022 FFF7FEFF 		bl	TIM_CCxChannelCmd
2124:Drivers/STM32F1xx_HAL_Driver/Src/stm32f1xx_hal_tim.c **** 
ARM GAS  /tmp/cc5HGhWi.s 			page 117


2125:Drivers/STM32F1xx_HAL_Driver/Src/stm32f1xx_hal_tim.c ****   if(IS_TIM_BREAK_INSTANCE(htim->Instance) != RESET)
 4580              		.loc 1 2125 0
 4581 0026 7B68     		ldr	r3, [r7, #4]
 4582 0028 1B68     		ldr	r3, [r3]
 4583 002a 1C4A     		ldr	r2, .L263
 4584 002c 9342     		cmp	r3, r2
 4585 002e 17D1     		bne	.L260
2126:Drivers/STM32F1xx_HAL_Driver/Src/stm32f1xx_hal_tim.c ****   {
2127:Drivers/STM32F1xx_HAL_Driver/Src/stm32f1xx_hal_tim.c ****     /* Disable the Main Ouput */
2128:Drivers/STM32F1xx_HAL_Driver/Src/stm32f1xx_hal_tim.c ****     __HAL_TIM_MOE_DISABLE(htim);
 4586              		.loc 1 2128 0
 4587 0030 7B68     		ldr	r3, [r7, #4]
 4588 0032 1B68     		ldr	r3, [r3]
 4589 0034 1A6A     		ldr	r2, [r3, #32]
 4590 0036 41F21113 		movw	r3, #4369
 4591 003a 1340     		ands	r3, r3, r2
 4592 003c 002B     		cmp	r3, #0
 4593 003e 0FD1     		bne	.L260
 4594              		.loc 1 2128 0 is_stmt 0 discriminator 1
 4595 0040 7B68     		ldr	r3, [r7, #4]
 4596 0042 1B68     		ldr	r3, [r3]
 4597 0044 1A6A     		ldr	r2, [r3, #32]
 4598 0046 40F24443 		movw	r3, #1092
 4599 004a 1340     		ands	r3, r3, r2
 4600 004c 002B     		cmp	r3, #0
 4601 004e 07D1     		bne	.L260
 4602              		.loc 1 2128 0 discriminator 2
 4603 0050 7B68     		ldr	r3, [r7, #4]
 4604 0052 1B68     		ldr	r3, [r3]
 4605 0054 5A6C     		ldr	r2, [r3, #68]
 4606 0056 7B68     		ldr	r3, [r7, #4]
 4607 0058 1B68     		ldr	r3, [r3]
 4608 005a 22F40042 		bic	r2, r2, #32768
 4609 005e 5A64     		str	r2, [r3, #68]
 4610              	.L260:
2129:Drivers/STM32F1xx_HAL_Driver/Src/stm32f1xx_hal_tim.c ****   }
2130:Drivers/STM32F1xx_HAL_Driver/Src/stm32f1xx_hal_tim.c **** 
2131:Drivers/STM32F1xx_HAL_Driver/Src/stm32f1xx_hal_tim.c ****   /* Disable the Peripheral */
2132:Drivers/STM32F1xx_HAL_Driver/Src/stm32f1xx_hal_tim.c ****   __HAL_TIM_DISABLE(htim);
 4611              		.loc 1 2132 0 is_stmt 1
 4612 0060 7B68     		ldr	r3, [r7, #4]
 4613 0062 1B68     		ldr	r3, [r3]
 4614 0064 1A6A     		ldr	r2, [r3, #32]
 4615 0066 41F21113 		movw	r3, #4369
 4616 006a 1340     		ands	r3, r3, r2
 4617 006c 002B     		cmp	r3, #0
 4618 006e 0FD1     		bne	.L261
 4619              		.loc 1 2132 0 is_stmt 0 discriminator 1
 4620 0070 7B68     		ldr	r3, [r7, #4]
 4621 0072 1B68     		ldr	r3, [r3]
 4622 0074 1A6A     		ldr	r2, [r3, #32]
 4623 0076 40F24443 		movw	r3, #1092
 4624 007a 1340     		ands	r3, r3, r2
 4625 007c 002B     		cmp	r3, #0
 4626 007e 07D1     		bne	.L261
 4627              		.loc 1 2132 0 discriminator 2
 4628 0080 7B68     		ldr	r3, [r7, #4]
ARM GAS  /tmp/cc5HGhWi.s 			page 118


 4629 0082 1B68     		ldr	r3, [r3]
 4630 0084 1A68     		ldr	r2, [r3]
 4631 0086 7B68     		ldr	r3, [r7, #4]
 4632 0088 1B68     		ldr	r3, [r3]
 4633 008a 22F00102 		bic	r2, r2, #1
 4634 008e 1A60     		str	r2, [r3]
 4635              	.L261:
2133:Drivers/STM32F1xx_HAL_Driver/Src/stm32f1xx_hal_tim.c **** 
2134:Drivers/STM32F1xx_HAL_Driver/Src/stm32f1xx_hal_tim.c ****   /* Return function status */
2135:Drivers/STM32F1xx_HAL_Driver/Src/stm32f1xx_hal_tim.c ****   return HAL_OK;
 4636              		.loc 1 2135 0 is_stmt 1
 4637 0090 0023     		movs	r3, #0
2136:Drivers/STM32F1xx_HAL_Driver/Src/stm32f1xx_hal_tim.c **** }
 4638              		.loc 1 2136 0
 4639 0092 1846     		mov	r0, r3
 4640 0094 0837     		adds	r7, r7, #8
 4641              	.LCFI243:
 4642              		.cfi_def_cfa_offset 8
 4643 0096 BD46     		mov	sp, r7
 4644              	.LCFI244:
 4645              		.cfi_def_cfa_register 13
 4646              		@ sp needed
 4647 0098 80BD     		pop	{r7, pc}
 4648              	.L264:
 4649 009a 00BF     		.align	2
 4650              	.L263:
 4651 009c 002C0140 		.word	1073818624
 4652              		.cfi_endproc
 4653              	.LFE111:
 4655              		.section	.text.HAL_TIM_OnePulse_Start_IT,"ax",%progbits
 4656              		.align	1
 4657              		.global	HAL_TIM_OnePulse_Start_IT
 4658              		.syntax unified
 4659              		.thumb
 4660              		.thumb_func
 4661              		.fpu softvfp
 4663              	HAL_TIM_OnePulse_Start_IT:
 4664              	.LFB112:
2137:Drivers/STM32F1xx_HAL_Driver/Src/stm32f1xx_hal_tim.c **** 
2138:Drivers/STM32F1xx_HAL_Driver/Src/stm32f1xx_hal_tim.c **** /**
2139:Drivers/STM32F1xx_HAL_Driver/Src/stm32f1xx_hal_tim.c ****   * @brief  Starts the TIM One Pulse signal generation in interrupt mode.
2140:Drivers/STM32F1xx_HAL_Driver/Src/stm32f1xx_hal_tim.c ****   * @param  htim : TIM One Pulse handle
2141:Drivers/STM32F1xx_HAL_Driver/Src/stm32f1xx_hal_tim.c ****   * @param  OutputChannel : TIM Channels to be enabled
2142:Drivers/STM32F1xx_HAL_Driver/Src/stm32f1xx_hal_tim.c ****   *          This parameter can be one of the following values:
2143:Drivers/STM32F1xx_HAL_Driver/Src/stm32f1xx_hal_tim.c ****   *            @arg TIM_CHANNEL_1: TIM Channel 1 selected
2144:Drivers/STM32F1xx_HAL_Driver/Src/stm32f1xx_hal_tim.c ****   *            @arg TIM_CHANNEL_2: TIM Channel 2 selected
2145:Drivers/STM32F1xx_HAL_Driver/Src/stm32f1xx_hal_tim.c ****   * @retval HAL status
2146:Drivers/STM32F1xx_HAL_Driver/Src/stm32f1xx_hal_tim.c **** */
2147:Drivers/STM32F1xx_HAL_Driver/Src/stm32f1xx_hal_tim.c **** HAL_StatusTypeDef HAL_TIM_OnePulse_Start_IT(TIM_HandleTypeDef *htim, uint32_t OutputChannel)
2148:Drivers/STM32F1xx_HAL_Driver/Src/stm32f1xx_hal_tim.c **** {
 4665              		.loc 1 2148 0
 4666              		.cfi_startproc
 4667              		@ args = 0, pretend = 0, frame = 8
 4668              		@ frame_needed = 1, uses_anonymous_args = 0
 4669 0000 80B5     		push	{r7, lr}
 4670              	.LCFI245:
 4671              		.cfi_def_cfa_offset 8
ARM GAS  /tmp/cc5HGhWi.s 			page 119


 4672              		.cfi_offset 7, -8
 4673              		.cfi_offset 14, -4
 4674 0002 82B0     		sub	sp, sp, #8
 4675              	.LCFI246:
 4676              		.cfi_def_cfa_offset 16
 4677 0004 00AF     		add	r7, sp, #0
 4678              	.LCFI247:
 4679              		.cfi_def_cfa_register 7
 4680 0006 7860     		str	r0, [r7, #4]
 4681 0008 3960     		str	r1, [r7]
2149:Drivers/STM32F1xx_HAL_Driver/Src/stm32f1xx_hal_tim.c ****   /* Prevent unused argument(s) compilation warning */
2150:Drivers/STM32F1xx_HAL_Driver/Src/stm32f1xx_hal_tim.c ****   UNUSED(OutputChannel);
2151:Drivers/STM32F1xx_HAL_Driver/Src/stm32f1xx_hal_tim.c **** 
2152:Drivers/STM32F1xx_HAL_Driver/Src/stm32f1xx_hal_tim.c ****   /* Enable the Capture compare and the Input Capture channels 
2153:Drivers/STM32F1xx_HAL_Driver/Src/stm32f1xx_hal_tim.c ****     (in the OPM Mode the two possible channels that can be used are TIM_CHANNEL_1 and TIM_CHANNEL_2
2154:Drivers/STM32F1xx_HAL_Driver/Src/stm32f1xx_hal_tim.c ****     if TIM_CHANNEL_1 is used as output, the TIM_CHANNEL_2 will be used as input and
2155:Drivers/STM32F1xx_HAL_Driver/Src/stm32f1xx_hal_tim.c ****     if TIM_CHANNEL_1 is used as input, the TIM_CHANNEL_2 will be used as output 
2156:Drivers/STM32F1xx_HAL_Driver/Src/stm32f1xx_hal_tim.c ****     in all combinations, the TIM_CHANNEL_1 and TIM_CHANNEL_2 should be enabled together 
2157:Drivers/STM32F1xx_HAL_Driver/Src/stm32f1xx_hal_tim.c **** 
2158:Drivers/STM32F1xx_HAL_Driver/Src/stm32f1xx_hal_tim.c ****     No need to enable the counter, it's enabled automatically by hardware 
2159:Drivers/STM32F1xx_HAL_Driver/Src/stm32f1xx_hal_tim.c ****     (the counter starts in response to a stimulus and generate a pulse */
2160:Drivers/STM32F1xx_HAL_Driver/Src/stm32f1xx_hal_tim.c **** 
2161:Drivers/STM32F1xx_HAL_Driver/Src/stm32f1xx_hal_tim.c ****   /* Enable the TIM Capture/Compare 1 interrupt */
2162:Drivers/STM32F1xx_HAL_Driver/Src/stm32f1xx_hal_tim.c ****   __HAL_TIM_ENABLE_IT(htim, TIM_IT_CC1);
 4682              		.loc 1 2162 0
 4683 000a 7B68     		ldr	r3, [r7, #4]
 4684 000c 1B68     		ldr	r3, [r3]
 4685 000e DA68     		ldr	r2, [r3, #12]
 4686 0010 7B68     		ldr	r3, [r7, #4]
 4687 0012 1B68     		ldr	r3, [r3]
 4688 0014 42F00202 		orr	r2, r2, #2
 4689 0018 DA60     		str	r2, [r3, #12]
2163:Drivers/STM32F1xx_HAL_Driver/Src/stm32f1xx_hal_tim.c **** 
2164:Drivers/STM32F1xx_HAL_Driver/Src/stm32f1xx_hal_tim.c ****   /* Enable the TIM Capture/Compare 2 interrupt */
2165:Drivers/STM32F1xx_HAL_Driver/Src/stm32f1xx_hal_tim.c ****   __HAL_TIM_ENABLE_IT(htim, TIM_IT_CC2);
 4690              		.loc 1 2165 0
 4691 001a 7B68     		ldr	r3, [r7, #4]
 4692 001c 1B68     		ldr	r3, [r3]
 4693 001e DA68     		ldr	r2, [r3, #12]
 4694 0020 7B68     		ldr	r3, [r7, #4]
 4695 0022 1B68     		ldr	r3, [r3]
 4696 0024 42F00402 		orr	r2, r2, #4
 4697 0028 DA60     		str	r2, [r3, #12]
2166:Drivers/STM32F1xx_HAL_Driver/Src/stm32f1xx_hal_tim.c **** 
2167:Drivers/STM32F1xx_HAL_Driver/Src/stm32f1xx_hal_tim.c ****   TIM_CCxChannelCmd(htim->Instance, TIM_CHANNEL_1, TIM_CCx_ENABLE);
 4698              		.loc 1 2167 0
 4699 002a 7B68     		ldr	r3, [r7, #4]
 4700 002c 1B68     		ldr	r3, [r3]
 4701 002e 0122     		movs	r2, #1
 4702 0030 0021     		movs	r1, #0
 4703 0032 1846     		mov	r0, r3
 4704 0034 FFF7FEFF 		bl	TIM_CCxChannelCmd
2168:Drivers/STM32F1xx_HAL_Driver/Src/stm32f1xx_hal_tim.c ****   TIM_CCxChannelCmd(htim->Instance, TIM_CHANNEL_2, TIM_CCx_ENABLE);
 4705              		.loc 1 2168 0
 4706 0038 7B68     		ldr	r3, [r7, #4]
 4707 003a 1B68     		ldr	r3, [r3]
 4708 003c 0122     		movs	r2, #1
ARM GAS  /tmp/cc5HGhWi.s 			page 120


 4709 003e 0421     		movs	r1, #4
 4710 0040 1846     		mov	r0, r3
 4711 0042 FFF7FEFF 		bl	TIM_CCxChannelCmd
2169:Drivers/STM32F1xx_HAL_Driver/Src/stm32f1xx_hal_tim.c **** 
2170:Drivers/STM32F1xx_HAL_Driver/Src/stm32f1xx_hal_tim.c ****   if(IS_TIM_BREAK_INSTANCE(htim->Instance) != RESET)
 4712              		.loc 1 2170 0
 4713 0046 7B68     		ldr	r3, [r7, #4]
 4714 0048 1B68     		ldr	r3, [r3]
 4715 004a 084A     		ldr	r2, .L268
 4716 004c 9342     		cmp	r3, r2
 4717 004e 07D1     		bne	.L266
2171:Drivers/STM32F1xx_HAL_Driver/Src/stm32f1xx_hal_tim.c ****   {
2172:Drivers/STM32F1xx_HAL_Driver/Src/stm32f1xx_hal_tim.c ****     /* Enable the main output */
2173:Drivers/STM32F1xx_HAL_Driver/Src/stm32f1xx_hal_tim.c ****     __HAL_TIM_MOE_ENABLE(htim);
 4718              		.loc 1 2173 0
 4719 0050 7B68     		ldr	r3, [r7, #4]
 4720 0052 1B68     		ldr	r3, [r3]
 4721 0054 5A6C     		ldr	r2, [r3, #68]
 4722 0056 7B68     		ldr	r3, [r7, #4]
 4723 0058 1B68     		ldr	r3, [r3]
 4724 005a 42F40042 		orr	r2, r2, #32768
 4725 005e 5A64     		str	r2, [r3, #68]
 4726              	.L266:
2174:Drivers/STM32F1xx_HAL_Driver/Src/stm32f1xx_hal_tim.c ****   }
2175:Drivers/STM32F1xx_HAL_Driver/Src/stm32f1xx_hal_tim.c **** 
2176:Drivers/STM32F1xx_HAL_Driver/Src/stm32f1xx_hal_tim.c ****   /* Return function status */
2177:Drivers/STM32F1xx_HAL_Driver/Src/stm32f1xx_hal_tim.c ****   return HAL_OK;
 4727              		.loc 1 2177 0
 4728 0060 0023     		movs	r3, #0
2178:Drivers/STM32F1xx_HAL_Driver/Src/stm32f1xx_hal_tim.c **** }
 4729              		.loc 1 2178 0
 4730 0062 1846     		mov	r0, r3
 4731 0064 0837     		adds	r7, r7, #8
 4732              	.LCFI248:
 4733              		.cfi_def_cfa_offset 8
 4734 0066 BD46     		mov	sp, r7
 4735              	.LCFI249:
 4736              		.cfi_def_cfa_register 13
 4737              		@ sp needed
 4738 0068 80BD     		pop	{r7, pc}
 4739              	.L269:
 4740 006a 00BF     		.align	2
 4741              	.L268:
 4742 006c 002C0140 		.word	1073818624
 4743              		.cfi_endproc
 4744              	.LFE112:
 4746              		.section	.text.HAL_TIM_OnePulse_Stop_IT,"ax",%progbits
 4747              		.align	1
 4748              		.global	HAL_TIM_OnePulse_Stop_IT
 4749              		.syntax unified
 4750              		.thumb
 4751              		.thumb_func
 4752              		.fpu softvfp
 4754              	HAL_TIM_OnePulse_Stop_IT:
 4755              	.LFB113:
2179:Drivers/STM32F1xx_HAL_Driver/Src/stm32f1xx_hal_tim.c **** 
2180:Drivers/STM32F1xx_HAL_Driver/Src/stm32f1xx_hal_tim.c **** /**
ARM GAS  /tmp/cc5HGhWi.s 			page 121


2181:Drivers/STM32F1xx_HAL_Driver/Src/stm32f1xx_hal_tim.c ****   * @brief  Stops the TIM One Pulse signal generation in interrupt mode.
2182:Drivers/STM32F1xx_HAL_Driver/Src/stm32f1xx_hal_tim.c ****   * @param  htim : TIM One Pulse handle
2183:Drivers/STM32F1xx_HAL_Driver/Src/stm32f1xx_hal_tim.c ****   * @param  OutputChannel : TIM Channels to be enabled
2184:Drivers/STM32F1xx_HAL_Driver/Src/stm32f1xx_hal_tim.c ****   *          This parameter can be one of the following values:
2185:Drivers/STM32F1xx_HAL_Driver/Src/stm32f1xx_hal_tim.c ****   *            @arg TIM_CHANNEL_1: TIM Channel 1 selected
2186:Drivers/STM32F1xx_HAL_Driver/Src/stm32f1xx_hal_tim.c ****   *            @arg TIM_CHANNEL_2: TIM Channel 2 selected
2187:Drivers/STM32F1xx_HAL_Driver/Src/stm32f1xx_hal_tim.c ****   * @retval HAL status
2188:Drivers/STM32F1xx_HAL_Driver/Src/stm32f1xx_hal_tim.c **** */
2189:Drivers/STM32F1xx_HAL_Driver/Src/stm32f1xx_hal_tim.c **** HAL_StatusTypeDef HAL_TIM_OnePulse_Stop_IT(TIM_HandleTypeDef *htim, uint32_t OutputChannel)
2190:Drivers/STM32F1xx_HAL_Driver/Src/stm32f1xx_hal_tim.c **** {
 4756              		.loc 1 2190 0
 4757              		.cfi_startproc
 4758              		@ args = 0, pretend = 0, frame = 8
 4759              		@ frame_needed = 1, uses_anonymous_args = 0
 4760 0000 80B5     		push	{r7, lr}
 4761              	.LCFI250:
 4762              		.cfi_def_cfa_offset 8
 4763              		.cfi_offset 7, -8
 4764              		.cfi_offset 14, -4
 4765 0002 82B0     		sub	sp, sp, #8
 4766              	.LCFI251:
 4767              		.cfi_def_cfa_offset 16
 4768 0004 00AF     		add	r7, sp, #0
 4769              	.LCFI252:
 4770              		.cfi_def_cfa_register 7
 4771 0006 7860     		str	r0, [r7, #4]
 4772 0008 3960     		str	r1, [r7]
2191:Drivers/STM32F1xx_HAL_Driver/Src/stm32f1xx_hal_tim.c ****   /* Prevent unused argument(s) compilation warning */
2192:Drivers/STM32F1xx_HAL_Driver/Src/stm32f1xx_hal_tim.c ****   UNUSED(OutputChannel);
2193:Drivers/STM32F1xx_HAL_Driver/Src/stm32f1xx_hal_tim.c **** 
2194:Drivers/STM32F1xx_HAL_Driver/Src/stm32f1xx_hal_tim.c ****   /* Disable the TIM Capture/Compare 1 interrupt */
2195:Drivers/STM32F1xx_HAL_Driver/Src/stm32f1xx_hal_tim.c ****   __HAL_TIM_DISABLE_IT(htim, TIM_IT_CC1);
 4773              		.loc 1 2195 0
 4774 000a 7B68     		ldr	r3, [r7, #4]
 4775 000c 1B68     		ldr	r3, [r3]
 4776 000e DA68     		ldr	r2, [r3, #12]
 4777 0010 7B68     		ldr	r3, [r7, #4]
 4778 0012 1B68     		ldr	r3, [r3]
 4779 0014 22F00202 		bic	r2, r2, #2
 4780 0018 DA60     		str	r2, [r3, #12]
2196:Drivers/STM32F1xx_HAL_Driver/Src/stm32f1xx_hal_tim.c **** 
2197:Drivers/STM32F1xx_HAL_Driver/Src/stm32f1xx_hal_tim.c ****   /* Disable the TIM Capture/Compare 2 interrupt */
2198:Drivers/STM32F1xx_HAL_Driver/Src/stm32f1xx_hal_tim.c ****   __HAL_TIM_DISABLE_IT(htim, TIM_IT_CC2);
 4781              		.loc 1 2198 0
 4782 001a 7B68     		ldr	r3, [r7, #4]
 4783 001c 1B68     		ldr	r3, [r3]
 4784 001e DA68     		ldr	r2, [r3, #12]
 4785 0020 7B68     		ldr	r3, [r7, #4]
 4786 0022 1B68     		ldr	r3, [r3]
 4787 0024 22F00402 		bic	r2, r2, #4
 4788 0028 DA60     		str	r2, [r3, #12]
2199:Drivers/STM32F1xx_HAL_Driver/Src/stm32f1xx_hal_tim.c **** 
2200:Drivers/STM32F1xx_HAL_Driver/Src/stm32f1xx_hal_tim.c ****   /* Disable the Capture compare and the Input Capture channels 
2201:Drivers/STM32F1xx_HAL_Driver/Src/stm32f1xx_hal_tim.c ****   (in the OPM Mode the two possible channels that can be used are TIM_CHANNEL_1 and TIM_CHANNEL_2)
2202:Drivers/STM32F1xx_HAL_Driver/Src/stm32f1xx_hal_tim.c ****   if TIM_CHANNEL_1 is used as output, the TIM_CHANNEL_2 will be used as input and
2203:Drivers/STM32F1xx_HAL_Driver/Src/stm32f1xx_hal_tim.c ****   if TIM_CHANNEL_1 is used as input, the TIM_CHANNEL_2 will be used as output 
2204:Drivers/STM32F1xx_HAL_Driver/Src/stm32f1xx_hal_tim.c ****   in all combinations, the TIM_CHANNEL_1 and TIM_CHANNEL_2 should be disabled together */
ARM GAS  /tmp/cc5HGhWi.s 			page 122


2205:Drivers/STM32F1xx_HAL_Driver/Src/stm32f1xx_hal_tim.c ****   TIM_CCxChannelCmd(htim->Instance, TIM_CHANNEL_1, TIM_CCx_DISABLE);
 4789              		.loc 1 2205 0
 4790 002a 7B68     		ldr	r3, [r7, #4]
 4791 002c 1B68     		ldr	r3, [r3]
 4792 002e 0022     		movs	r2, #0
 4793 0030 0021     		movs	r1, #0
 4794 0032 1846     		mov	r0, r3
 4795 0034 FFF7FEFF 		bl	TIM_CCxChannelCmd
2206:Drivers/STM32F1xx_HAL_Driver/Src/stm32f1xx_hal_tim.c ****   TIM_CCxChannelCmd(htim->Instance, TIM_CHANNEL_2, TIM_CCx_DISABLE);
 4796              		.loc 1 2206 0
 4797 0038 7B68     		ldr	r3, [r7, #4]
 4798 003a 1B68     		ldr	r3, [r3]
 4799 003c 0022     		movs	r2, #0
 4800 003e 0421     		movs	r1, #4
 4801 0040 1846     		mov	r0, r3
 4802 0042 FFF7FEFF 		bl	TIM_CCxChannelCmd
2207:Drivers/STM32F1xx_HAL_Driver/Src/stm32f1xx_hal_tim.c **** 
2208:Drivers/STM32F1xx_HAL_Driver/Src/stm32f1xx_hal_tim.c ****   if(IS_TIM_BREAK_INSTANCE(htim->Instance) != RESET)
 4803              		.loc 1 2208 0
 4804 0046 7B68     		ldr	r3, [r7, #4]
 4805 0048 1B68     		ldr	r3, [r3]
 4806 004a 1C4A     		ldr	r2, .L274
 4807 004c 9342     		cmp	r3, r2
 4808 004e 17D1     		bne	.L271
2209:Drivers/STM32F1xx_HAL_Driver/Src/stm32f1xx_hal_tim.c ****   {
2210:Drivers/STM32F1xx_HAL_Driver/Src/stm32f1xx_hal_tim.c ****     /* Disable the Main Ouput */
2211:Drivers/STM32F1xx_HAL_Driver/Src/stm32f1xx_hal_tim.c ****     __HAL_TIM_MOE_DISABLE(htim);
 4809              		.loc 1 2211 0
 4810 0050 7B68     		ldr	r3, [r7, #4]
 4811 0052 1B68     		ldr	r3, [r3]
 4812 0054 1A6A     		ldr	r2, [r3, #32]
 4813 0056 41F21113 		movw	r3, #4369
 4814 005a 1340     		ands	r3, r3, r2
 4815 005c 002B     		cmp	r3, #0
 4816 005e 0FD1     		bne	.L271
 4817              		.loc 1 2211 0 is_stmt 0 discriminator 1
 4818 0060 7B68     		ldr	r3, [r7, #4]
 4819 0062 1B68     		ldr	r3, [r3]
 4820 0064 1A6A     		ldr	r2, [r3, #32]
 4821 0066 40F24443 		movw	r3, #1092
 4822 006a 1340     		ands	r3, r3, r2
 4823 006c 002B     		cmp	r3, #0
 4824 006e 07D1     		bne	.L271
 4825              		.loc 1 2211 0 discriminator 2
 4826 0070 7B68     		ldr	r3, [r7, #4]
 4827 0072 1B68     		ldr	r3, [r3]
 4828 0074 5A6C     		ldr	r2, [r3, #68]
 4829 0076 7B68     		ldr	r3, [r7, #4]
 4830 0078 1B68     		ldr	r3, [r3]
 4831 007a 22F40042 		bic	r2, r2, #32768
 4832 007e 5A64     		str	r2, [r3, #68]
 4833              	.L271:
2212:Drivers/STM32F1xx_HAL_Driver/Src/stm32f1xx_hal_tim.c ****   }
2213:Drivers/STM32F1xx_HAL_Driver/Src/stm32f1xx_hal_tim.c **** 
2214:Drivers/STM32F1xx_HAL_Driver/Src/stm32f1xx_hal_tim.c ****   /* Disable the Peripheral */
2215:Drivers/STM32F1xx_HAL_Driver/Src/stm32f1xx_hal_tim.c ****    __HAL_TIM_DISABLE(htim);
 4834              		.loc 1 2215 0 is_stmt 1
ARM GAS  /tmp/cc5HGhWi.s 			page 123


 4835 0080 7B68     		ldr	r3, [r7, #4]
 4836 0082 1B68     		ldr	r3, [r3]
 4837 0084 1A6A     		ldr	r2, [r3, #32]
 4838 0086 41F21113 		movw	r3, #4369
 4839 008a 1340     		ands	r3, r3, r2
 4840 008c 002B     		cmp	r3, #0
 4841 008e 0FD1     		bne	.L272
 4842              		.loc 1 2215 0 is_stmt 0 discriminator 1
 4843 0090 7B68     		ldr	r3, [r7, #4]
 4844 0092 1B68     		ldr	r3, [r3]
 4845 0094 1A6A     		ldr	r2, [r3, #32]
 4846 0096 40F24443 		movw	r3, #1092
 4847 009a 1340     		ands	r3, r3, r2
 4848 009c 002B     		cmp	r3, #0
 4849 009e 07D1     		bne	.L272
 4850              		.loc 1 2215 0 discriminator 2
 4851 00a0 7B68     		ldr	r3, [r7, #4]
 4852 00a2 1B68     		ldr	r3, [r3]
 4853 00a4 1A68     		ldr	r2, [r3]
 4854 00a6 7B68     		ldr	r3, [r7, #4]
 4855 00a8 1B68     		ldr	r3, [r3]
 4856 00aa 22F00102 		bic	r2, r2, #1
 4857 00ae 1A60     		str	r2, [r3]
 4858              	.L272:
2216:Drivers/STM32F1xx_HAL_Driver/Src/stm32f1xx_hal_tim.c **** 
2217:Drivers/STM32F1xx_HAL_Driver/Src/stm32f1xx_hal_tim.c ****   /* Return function status */
2218:Drivers/STM32F1xx_HAL_Driver/Src/stm32f1xx_hal_tim.c ****   return HAL_OK;
 4859              		.loc 1 2218 0 is_stmt 1
 4860 00b0 0023     		movs	r3, #0
2219:Drivers/STM32F1xx_HAL_Driver/Src/stm32f1xx_hal_tim.c **** }
 4861              		.loc 1 2219 0
 4862 00b2 1846     		mov	r0, r3
 4863 00b4 0837     		adds	r7, r7, #8
 4864              	.LCFI253:
 4865              		.cfi_def_cfa_offset 8
 4866 00b6 BD46     		mov	sp, r7
 4867              	.LCFI254:
 4868              		.cfi_def_cfa_register 13
 4869              		@ sp needed
 4870 00b8 80BD     		pop	{r7, pc}
 4871              	.L275:
 4872 00ba 00BF     		.align	2
 4873              	.L274:
 4874 00bc 002C0140 		.word	1073818624
 4875              		.cfi_endproc
 4876              	.LFE113:
 4878              		.section	.text.HAL_TIM_Encoder_Init,"ax",%progbits
 4879              		.align	1
 4880              		.global	HAL_TIM_Encoder_Init
 4881              		.syntax unified
 4882              		.thumb
 4883              		.thumb_func
 4884              		.fpu softvfp
 4886              	HAL_TIM_Encoder_Init:
 4887              	.LFB114:
2220:Drivers/STM32F1xx_HAL_Driver/Src/stm32f1xx_hal_tim.c **** 
2221:Drivers/STM32F1xx_HAL_Driver/Src/stm32f1xx_hal_tim.c **** /**
ARM GAS  /tmp/cc5HGhWi.s 			page 124


2222:Drivers/STM32F1xx_HAL_Driver/Src/stm32f1xx_hal_tim.c ****   * @}
2223:Drivers/STM32F1xx_HAL_Driver/Src/stm32f1xx_hal_tim.c ****   */
2224:Drivers/STM32F1xx_HAL_Driver/Src/stm32f1xx_hal_tim.c **** 
2225:Drivers/STM32F1xx_HAL_Driver/Src/stm32f1xx_hal_tim.c **** /** @defgroup TIM_Exported_Functions_Group6 Time Encoder functions 
2226:Drivers/STM32F1xx_HAL_Driver/Src/stm32f1xx_hal_tim.c ****  *  @brief    Time Encoder functions 
2227:Drivers/STM32F1xx_HAL_Driver/Src/stm32f1xx_hal_tim.c ****  *
2228:Drivers/STM32F1xx_HAL_Driver/Src/stm32f1xx_hal_tim.c **** @verbatim 
2229:Drivers/STM32F1xx_HAL_Driver/Src/stm32f1xx_hal_tim.c ****   ==============================================================================
2230:Drivers/STM32F1xx_HAL_Driver/Src/stm32f1xx_hal_tim.c ****                           ##### Time Encoder functions #####
2231:Drivers/STM32F1xx_HAL_Driver/Src/stm32f1xx_hal_tim.c ****   ==============================================================================
2232:Drivers/STM32F1xx_HAL_Driver/Src/stm32f1xx_hal_tim.c ****   [..]
2233:Drivers/STM32F1xx_HAL_Driver/Src/stm32f1xx_hal_tim.c ****     This section provides functions allowing to:
2234:Drivers/STM32F1xx_HAL_Driver/Src/stm32f1xx_hal_tim.c ****     (+) Initialize and configure the TIM Encoder.
2235:Drivers/STM32F1xx_HAL_Driver/Src/stm32f1xx_hal_tim.c ****     (+) De-initialize the TIM Encoder.
2236:Drivers/STM32F1xx_HAL_Driver/Src/stm32f1xx_hal_tim.c ****     (+) Start the Time Encoder.
2237:Drivers/STM32F1xx_HAL_Driver/Src/stm32f1xx_hal_tim.c ****     (+) Stop the Time Encoder.
2238:Drivers/STM32F1xx_HAL_Driver/Src/stm32f1xx_hal_tim.c ****     (+) Start the Time Encoder and enable interrupt.
2239:Drivers/STM32F1xx_HAL_Driver/Src/stm32f1xx_hal_tim.c ****     (+) Stop the Time Encoder and disable interrupt.
2240:Drivers/STM32F1xx_HAL_Driver/Src/stm32f1xx_hal_tim.c ****     (+) Start the Time Encoder and enable DMA transfer.
2241:Drivers/STM32F1xx_HAL_Driver/Src/stm32f1xx_hal_tim.c ****     (+) Stop the Time Encoder and disable DMA transfer.
2242:Drivers/STM32F1xx_HAL_Driver/Src/stm32f1xx_hal_tim.c **** 
2243:Drivers/STM32F1xx_HAL_Driver/Src/stm32f1xx_hal_tim.c **** @endverbatim
2244:Drivers/STM32F1xx_HAL_Driver/Src/stm32f1xx_hal_tim.c ****   * @{
2245:Drivers/STM32F1xx_HAL_Driver/Src/stm32f1xx_hal_tim.c ****   */
2246:Drivers/STM32F1xx_HAL_Driver/Src/stm32f1xx_hal_tim.c **** /**
2247:Drivers/STM32F1xx_HAL_Driver/Src/stm32f1xx_hal_tim.c ****   * @brief  Initializes the TIM Encoder Interface and create the associated handle.
2248:Drivers/STM32F1xx_HAL_Driver/Src/stm32f1xx_hal_tim.c ****   * @param  htim : TIM Encoder Interface handle
2249:Drivers/STM32F1xx_HAL_Driver/Src/stm32f1xx_hal_tim.c ****   * @param  sConfig : TIM Encoder Interface configuration structure
2250:Drivers/STM32F1xx_HAL_Driver/Src/stm32f1xx_hal_tim.c ****   * @retval HAL status
2251:Drivers/STM32F1xx_HAL_Driver/Src/stm32f1xx_hal_tim.c ****   */
2252:Drivers/STM32F1xx_HAL_Driver/Src/stm32f1xx_hal_tim.c **** HAL_StatusTypeDef HAL_TIM_Encoder_Init(TIM_HandleTypeDef *htim,  TIM_Encoder_InitTypeDef* sConfig)
2253:Drivers/STM32F1xx_HAL_Driver/Src/stm32f1xx_hal_tim.c **** {
 4888              		.loc 1 2253 0
 4889              		.cfi_startproc
 4890              		@ args = 0, pretend = 0, frame = 24
 4891              		@ frame_needed = 1, uses_anonymous_args = 0
 4892 0000 80B5     		push	{r7, lr}
 4893              	.LCFI255:
 4894              		.cfi_def_cfa_offset 8
 4895              		.cfi_offset 7, -8
 4896              		.cfi_offset 14, -4
 4897 0002 86B0     		sub	sp, sp, #24
 4898              	.LCFI256:
 4899              		.cfi_def_cfa_offset 32
 4900 0004 00AF     		add	r7, sp, #0
 4901              	.LCFI257:
 4902              		.cfi_def_cfa_register 7
 4903 0006 7860     		str	r0, [r7, #4]
 4904 0008 3960     		str	r1, [r7]
2254:Drivers/STM32F1xx_HAL_Driver/Src/stm32f1xx_hal_tim.c ****   uint32_t tmpsmcr = 0U;
 4905              		.loc 1 2254 0
 4906 000a 0023     		movs	r3, #0
 4907 000c 7B61     		str	r3, [r7, #20]
2255:Drivers/STM32F1xx_HAL_Driver/Src/stm32f1xx_hal_tim.c ****   uint32_t tmpccmr1 = 0U;
 4908              		.loc 1 2255 0
 4909 000e 0023     		movs	r3, #0
 4910 0010 3B61     		str	r3, [r7, #16]
ARM GAS  /tmp/cc5HGhWi.s 			page 125


2256:Drivers/STM32F1xx_HAL_Driver/Src/stm32f1xx_hal_tim.c ****   uint32_t tmpccer = 0U;
 4911              		.loc 1 2256 0
 4912 0012 0023     		movs	r3, #0
 4913 0014 FB60     		str	r3, [r7, #12]
2257:Drivers/STM32F1xx_HAL_Driver/Src/stm32f1xx_hal_tim.c **** 
2258:Drivers/STM32F1xx_HAL_Driver/Src/stm32f1xx_hal_tim.c ****   /* Check the TIM handle allocation */
2259:Drivers/STM32F1xx_HAL_Driver/Src/stm32f1xx_hal_tim.c ****   if(htim == NULL)
 4914              		.loc 1 2259 0
 4915 0016 7B68     		ldr	r3, [r7, #4]
 4916 0018 002B     		cmp	r3, #0
 4917 001a 01D1     		bne	.L277
2260:Drivers/STM32F1xx_HAL_Driver/Src/stm32f1xx_hal_tim.c ****   {
2261:Drivers/STM32F1xx_HAL_Driver/Src/stm32f1xx_hal_tim.c ****     return HAL_ERROR;
 4918              		.loc 1 2261 0
 4919 001c 0123     		movs	r3, #1
 4920 001e 81E0     		b	.L278
 4921              	.L277:
2262:Drivers/STM32F1xx_HAL_Driver/Src/stm32f1xx_hal_tim.c ****   }
2263:Drivers/STM32F1xx_HAL_Driver/Src/stm32f1xx_hal_tim.c **** 
2264:Drivers/STM32F1xx_HAL_Driver/Src/stm32f1xx_hal_tim.c ****   /* Check the parameters */
2265:Drivers/STM32F1xx_HAL_Driver/Src/stm32f1xx_hal_tim.c ****   assert_param(IS_TIM_CC2_INSTANCE(htim->Instance));
2266:Drivers/STM32F1xx_HAL_Driver/Src/stm32f1xx_hal_tim.c ****   assert_param(IS_TIM_COUNTER_MODE(htim->Init.CounterMode));
2267:Drivers/STM32F1xx_HAL_Driver/Src/stm32f1xx_hal_tim.c ****   assert_param(IS_TIM_CLOCKDIVISION_DIV(htim->Init.ClockDivision));
2268:Drivers/STM32F1xx_HAL_Driver/Src/stm32f1xx_hal_tim.c ****   assert_param(IS_TIM_AUTORELOAD_PRELOAD(htim->Init.AutoReloadPreload));
2269:Drivers/STM32F1xx_HAL_Driver/Src/stm32f1xx_hal_tim.c ****   assert_param(IS_TIM_ENCODER_MODE(sConfig->EncoderMode));
2270:Drivers/STM32F1xx_HAL_Driver/Src/stm32f1xx_hal_tim.c ****   assert_param(IS_TIM_IC_SELECTION(sConfig->IC1Selection));
2271:Drivers/STM32F1xx_HAL_Driver/Src/stm32f1xx_hal_tim.c ****   assert_param(IS_TIM_IC_SELECTION(sConfig->IC2Selection));
2272:Drivers/STM32F1xx_HAL_Driver/Src/stm32f1xx_hal_tim.c ****   assert_param(IS_TIM_IC_POLARITY(sConfig->IC1Polarity));
2273:Drivers/STM32F1xx_HAL_Driver/Src/stm32f1xx_hal_tim.c ****   assert_param(IS_TIM_IC_POLARITY(sConfig->IC2Polarity));
2274:Drivers/STM32F1xx_HAL_Driver/Src/stm32f1xx_hal_tim.c ****   assert_param(IS_TIM_IC_PRESCALER(sConfig->IC1Prescaler));
2275:Drivers/STM32F1xx_HAL_Driver/Src/stm32f1xx_hal_tim.c ****   assert_param(IS_TIM_IC_PRESCALER(sConfig->IC2Prescaler));
2276:Drivers/STM32F1xx_HAL_Driver/Src/stm32f1xx_hal_tim.c ****   assert_param(IS_TIM_IC_FILTER(sConfig->IC1Filter));
2277:Drivers/STM32F1xx_HAL_Driver/Src/stm32f1xx_hal_tim.c ****   assert_param(IS_TIM_IC_FILTER(sConfig->IC2Filter));
2278:Drivers/STM32F1xx_HAL_Driver/Src/stm32f1xx_hal_tim.c **** 
2279:Drivers/STM32F1xx_HAL_Driver/Src/stm32f1xx_hal_tim.c ****   if(htim->State == HAL_TIM_STATE_RESET)
 4922              		.loc 1 2279 0
 4923 0020 7B68     		ldr	r3, [r7, #4]
 4924 0022 93F83D30 		ldrb	r3, [r3, #61]
 4925 0026 DBB2     		uxtb	r3, r3
 4926 0028 002B     		cmp	r3, #0
 4927 002a 06D1     		bne	.L279
2280:Drivers/STM32F1xx_HAL_Driver/Src/stm32f1xx_hal_tim.c ****   {
2281:Drivers/STM32F1xx_HAL_Driver/Src/stm32f1xx_hal_tim.c ****     /* Allocate lock resource and initialize it */
2282:Drivers/STM32F1xx_HAL_Driver/Src/stm32f1xx_hal_tim.c ****     htim->Lock = HAL_UNLOCKED;
 4928              		.loc 1 2282 0
 4929 002c 7B68     		ldr	r3, [r7, #4]
 4930 002e 0022     		movs	r2, #0
 4931 0030 83F83C20 		strb	r2, [r3, #60]
2283:Drivers/STM32F1xx_HAL_Driver/Src/stm32f1xx_hal_tim.c ****     
2284:Drivers/STM32F1xx_HAL_Driver/Src/stm32f1xx_hal_tim.c ****     /* Init the low level hardware : GPIO, CLOCK, NVIC and DMA */
2285:Drivers/STM32F1xx_HAL_Driver/Src/stm32f1xx_hal_tim.c ****     HAL_TIM_Encoder_MspInit(htim);
 4932              		.loc 1 2285 0
 4933 0034 7868     		ldr	r0, [r7, #4]
 4934 0036 FFF7FEFF 		bl	HAL_TIM_Encoder_MspInit
 4935              	.L279:
2286:Drivers/STM32F1xx_HAL_Driver/Src/stm32f1xx_hal_tim.c ****   }
2287:Drivers/STM32F1xx_HAL_Driver/Src/stm32f1xx_hal_tim.c **** 
ARM GAS  /tmp/cc5HGhWi.s 			page 126


2288:Drivers/STM32F1xx_HAL_Driver/Src/stm32f1xx_hal_tim.c ****   /* Set the TIM state */
2289:Drivers/STM32F1xx_HAL_Driver/Src/stm32f1xx_hal_tim.c ****   htim->State= HAL_TIM_STATE_BUSY;
 4936              		.loc 1 2289 0
 4937 003a 7B68     		ldr	r3, [r7, #4]
 4938 003c 0222     		movs	r2, #2
 4939 003e 83F83D20 		strb	r2, [r3, #61]
2290:Drivers/STM32F1xx_HAL_Driver/Src/stm32f1xx_hal_tim.c **** 
2291:Drivers/STM32F1xx_HAL_Driver/Src/stm32f1xx_hal_tim.c ****   /* Reset the SMS bits */
2292:Drivers/STM32F1xx_HAL_Driver/Src/stm32f1xx_hal_tim.c ****   htim->Instance->SMCR &= ~TIM_SMCR_SMS;
 4940              		.loc 1 2292 0
 4941 0042 7B68     		ldr	r3, [r7, #4]
 4942 0044 1B68     		ldr	r3, [r3]
 4943 0046 9A68     		ldr	r2, [r3, #8]
 4944 0048 7B68     		ldr	r3, [r7, #4]
 4945 004a 1B68     		ldr	r3, [r3]
 4946 004c 22F00702 		bic	r2, r2, #7
 4947 0050 9A60     		str	r2, [r3, #8]
2293:Drivers/STM32F1xx_HAL_Driver/Src/stm32f1xx_hal_tim.c **** 
2294:Drivers/STM32F1xx_HAL_Driver/Src/stm32f1xx_hal_tim.c ****   /* Configure the Time base in the Encoder Mode */
2295:Drivers/STM32F1xx_HAL_Driver/Src/stm32f1xx_hal_tim.c ****   TIM_Base_SetConfig(htim->Instance, &htim->Init);
 4948              		.loc 1 2295 0
 4949 0052 7B68     		ldr	r3, [r7, #4]
 4950 0054 1A68     		ldr	r2, [r3]
 4951 0056 7B68     		ldr	r3, [r7, #4]
 4952 0058 0433     		adds	r3, r3, #4
 4953 005a 1946     		mov	r1, r3
 4954 005c 1046     		mov	r0, r2
 4955 005e FFF7FEFF 		bl	TIM_Base_SetConfig
2296:Drivers/STM32F1xx_HAL_Driver/Src/stm32f1xx_hal_tim.c **** 
2297:Drivers/STM32F1xx_HAL_Driver/Src/stm32f1xx_hal_tim.c ****   /* Get the TIMx SMCR register value */
2298:Drivers/STM32F1xx_HAL_Driver/Src/stm32f1xx_hal_tim.c ****   tmpsmcr = htim->Instance->SMCR;
 4956              		.loc 1 2298 0
 4957 0062 7B68     		ldr	r3, [r7, #4]
 4958 0064 1B68     		ldr	r3, [r3]
 4959 0066 9B68     		ldr	r3, [r3, #8]
 4960 0068 7B61     		str	r3, [r7, #20]
2299:Drivers/STM32F1xx_HAL_Driver/Src/stm32f1xx_hal_tim.c **** 
2300:Drivers/STM32F1xx_HAL_Driver/Src/stm32f1xx_hal_tim.c ****   /* Get the TIMx CCMR1 register value */
2301:Drivers/STM32F1xx_HAL_Driver/Src/stm32f1xx_hal_tim.c ****   tmpccmr1 = htim->Instance->CCMR1;
 4961              		.loc 1 2301 0
 4962 006a 7B68     		ldr	r3, [r7, #4]
 4963 006c 1B68     		ldr	r3, [r3]
 4964 006e 9B69     		ldr	r3, [r3, #24]
 4965 0070 3B61     		str	r3, [r7, #16]
2302:Drivers/STM32F1xx_HAL_Driver/Src/stm32f1xx_hal_tim.c **** 
2303:Drivers/STM32F1xx_HAL_Driver/Src/stm32f1xx_hal_tim.c ****   /* Get the TIMx CCER register value */
2304:Drivers/STM32F1xx_HAL_Driver/Src/stm32f1xx_hal_tim.c ****   tmpccer = htim->Instance->CCER;
 4966              		.loc 1 2304 0
 4967 0072 7B68     		ldr	r3, [r7, #4]
 4968 0074 1B68     		ldr	r3, [r3]
 4969 0076 1B6A     		ldr	r3, [r3, #32]
 4970 0078 FB60     		str	r3, [r7, #12]
2305:Drivers/STM32F1xx_HAL_Driver/Src/stm32f1xx_hal_tim.c **** 
2306:Drivers/STM32F1xx_HAL_Driver/Src/stm32f1xx_hal_tim.c ****   /* Set the encoder Mode */
2307:Drivers/STM32F1xx_HAL_Driver/Src/stm32f1xx_hal_tim.c ****   tmpsmcr |= sConfig->EncoderMode;
 4971              		.loc 1 2307 0
 4972 007a 3B68     		ldr	r3, [r7]
ARM GAS  /tmp/cc5HGhWi.s 			page 127


 4973 007c 1B68     		ldr	r3, [r3]
 4974 007e 7A69     		ldr	r2, [r7, #20]
 4975 0080 1343     		orrs	r3, r3, r2
 4976 0082 7B61     		str	r3, [r7, #20]
2308:Drivers/STM32F1xx_HAL_Driver/Src/stm32f1xx_hal_tim.c **** 
2309:Drivers/STM32F1xx_HAL_Driver/Src/stm32f1xx_hal_tim.c ****   /* Select the Capture Compare 1 and the Capture Compare 2 as input */
2310:Drivers/STM32F1xx_HAL_Driver/Src/stm32f1xx_hal_tim.c ****   tmpccmr1 &= ~(TIM_CCMR1_CC1S | TIM_CCMR1_CC2S);
 4977              		.loc 1 2310 0
 4978 0084 3B69     		ldr	r3, [r7, #16]
 4979 0086 23F44073 		bic	r3, r3, #768
 4980 008a 23F00303 		bic	r3, r3, #3
 4981 008e 3B61     		str	r3, [r7, #16]
2311:Drivers/STM32F1xx_HAL_Driver/Src/stm32f1xx_hal_tim.c ****   tmpccmr1 |= (sConfig->IC1Selection | (sConfig->IC2Selection << 8U));
 4982              		.loc 1 2311 0
 4983 0090 3B68     		ldr	r3, [r7]
 4984 0092 9A68     		ldr	r2, [r3, #8]
 4985 0094 3B68     		ldr	r3, [r7]
 4986 0096 9B69     		ldr	r3, [r3, #24]
 4987 0098 1B02     		lsls	r3, r3, #8
 4988 009a 1343     		orrs	r3, r3, r2
 4989 009c 3A69     		ldr	r2, [r7, #16]
 4990 009e 1343     		orrs	r3, r3, r2
 4991 00a0 3B61     		str	r3, [r7, #16]
2312:Drivers/STM32F1xx_HAL_Driver/Src/stm32f1xx_hal_tim.c **** 
2313:Drivers/STM32F1xx_HAL_Driver/Src/stm32f1xx_hal_tim.c ****   /* Set the the Capture Compare 1 and the Capture Compare 2 prescalers and filters */
2314:Drivers/STM32F1xx_HAL_Driver/Src/stm32f1xx_hal_tim.c ****   tmpccmr1 &= ~(TIM_CCMR1_IC1PSC | TIM_CCMR1_IC2PSC);
 4992              		.loc 1 2314 0
 4993 00a2 3B69     		ldr	r3, [r7, #16]
 4994 00a4 23F44063 		bic	r3, r3, #3072
 4995 00a8 23F00C03 		bic	r3, r3, #12
 4996 00ac 3B61     		str	r3, [r7, #16]
2315:Drivers/STM32F1xx_HAL_Driver/Src/stm32f1xx_hal_tim.c ****   tmpccmr1 &= ~(TIM_CCMR1_IC1F | TIM_CCMR1_IC2F);
 4997              		.loc 1 2315 0
 4998 00ae 3B69     		ldr	r3, [r7, #16]
 4999 00b0 23F47043 		bic	r3, r3, #61440
 5000 00b4 23F0F003 		bic	r3, r3, #240
 5001 00b8 3B61     		str	r3, [r7, #16]
2316:Drivers/STM32F1xx_HAL_Driver/Src/stm32f1xx_hal_tim.c ****   tmpccmr1 |= sConfig->IC1Prescaler | (sConfig->IC2Prescaler << 8U);
 5002              		.loc 1 2316 0
 5003 00ba 3B68     		ldr	r3, [r7]
 5004 00bc DA68     		ldr	r2, [r3, #12]
 5005 00be 3B68     		ldr	r3, [r7]
 5006 00c0 DB69     		ldr	r3, [r3, #28]
 5007 00c2 1B02     		lsls	r3, r3, #8
 5008 00c4 1343     		orrs	r3, r3, r2
 5009 00c6 3A69     		ldr	r2, [r7, #16]
 5010 00c8 1343     		orrs	r3, r3, r2
 5011 00ca 3B61     		str	r3, [r7, #16]
2317:Drivers/STM32F1xx_HAL_Driver/Src/stm32f1xx_hal_tim.c ****   tmpccmr1 |= (sConfig->IC1Filter << 4U) | (sConfig->IC2Filter << 12U);
 5012              		.loc 1 2317 0
 5013 00cc 3B68     		ldr	r3, [r7]
 5014 00ce 1B69     		ldr	r3, [r3, #16]
 5015 00d0 1A01     		lsls	r2, r3, #4
 5016 00d2 3B68     		ldr	r3, [r7]
 5017 00d4 1B6A     		ldr	r3, [r3, #32]
 5018 00d6 1B03     		lsls	r3, r3, #12
 5019 00d8 1343     		orrs	r3, r3, r2
ARM GAS  /tmp/cc5HGhWi.s 			page 128


 5020 00da 3A69     		ldr	r2, [r7, #16]
 5021 00dc 1343     		orrs	r3, r3, r2
 5022 00de 3B61     		str	r3, [r7, #16]
2318:Drivers/STM32F1xx_HAL_Driver/Src/stm32f1xx_hal_tim.c **** 
2319:Drivers/STM32F1xx_HAL_Driver/Src/stm32f1xx_hal_tim.c ****   /* Set the TI1 and the TI2 Polarities */
2320:Drivers/STM32F1xx_HAL_Driver/Src/stm32f1xx_hal_tim.c ****   tmpccer &= ~(TIM_CCER_CC1P | TIM_CCER_CC2P);
 5023              		.loc 1 2320 0
 5024 00e0 FB68     		ldr	r3, [r7, #12]
 5025 00e2 23F02203 		bic	r3, r3, #34
 5026 00e6 FB60     		str	r3, [r7, #12]
2321:Drivers/STM32F1xx_HAL_Driver/Src/stm32f1xx_hal_tim.c ****   tmpccer &= ~(TIM_CCER_CC1NP | TIM_CCER_CC2NP);
 5027              		.loc 1 2321 0
 5028 00e8 FB68     		ldr	r3, [r7, #12]
 5029 00ea 23F08803 		bic	r3, r3, #136
 5030 00ee FB60     		str	r3, [r7, #12]
2322:Drivers/STM32F1xx_HAL_Driver/Src/stm32f1xx_hal_tim.c ****   tmpccer |= sConfig->IC1Polarity | (sConfig->IC2Polarity << 4U);
 5031              		.loc 1 2322 0
 5032 00f0 3B68     		ldr	r3, [r7]
 5033 00f2 5A68     		ldr	r2, [r3, #4]
 5034 00f4 3B68     		ldr	r3, [r7]
 5035 00f6 5B69     		ldr	r3, [r3, #20]
 5036 00f8 1B01     		lsls	r3, r3, #4
 5037 00fa 1343     		orrs	r3, r3, r2
 5038 00fc FA68     		ldr	r2, [r7, #12]
 5039 00fe 1343     		orrs	r3, r3, r2
 5040 0100 FB60     		str	r3, [r7, #12]
2323:Drivers/STM32F1xx_HAL_Driver/Src/stm32f1xx_hal_tim.c **** 
2324:Drivers/STM32F1xx_HAL_Driver/Src/stm32f1xx_hal_tim.c ****   /* Write to TIMx SMCR */
2325:Drivers/STM32F1xx_HAL_Driver/Src/stm32f1xx_hal_tim.c ****   htim->Instance->SMCR = tmpsmcr;
 5041              		.loc 1 2325 0
 5042 0102 7B68     		ldr	r3, [r7, #4]
 5043 0104 1B68     		ldr	r3, [r3]
 5044 0106 7A69     		ldr	r2, [r7, #20]
 5045 0108 9A60     		str	r2, [r3, #8]
2326:Drivers/STM32F1xx_HAL_Driver/Src/stm32f1xx_hal_tim.c **** 
2327:Drivers/STM32F1xx_HAL_Driver/Src/stm32f1xx_hal_tim.c ****   /* Write to TIMx CCMR1 */
2328:Drivers/STM32F1xx_HAL_Driver/Src/stm32f1xx_hal_tim.c ****   htim->Instance->CCMR1 = tmpccmr1;
 5046              		.loc 1 2328 0
 5047 010a 7B68     		ldr	r3, [r7, #4]
 5048 010c 1B68     		ldr	r3, [r3]
 5049 010e 3A69     		ldr	r2, [r7, #16]
 5050 0110 9A61     		str	r2, [r3, #24]
2329:Drivers/STM32F1xx_HAL_Driver/Src/stm32f1xx_hal_tim.c **** 
2330:Drivers/STM32F1xx_HAL_Driver/Src/stm32f1xx_hal_tim.c ****   /* Write to TIMx CCER */
2331:Drivers/STM32F1xx_HAL_Driver/Src/stm32f1xx_hal_tim.c ****   htim->Instance->CCER = tmpccer;
 5051              		.loc 1 2331 0
 5052 0112 7B68     		ldr	r3, [r7, #4]
 5053 0114 1B68     		ldr	r3, [r3]
 5054 0116 FA68     		ldr	r2, [r7, #12]
 5055 0118 1A62     		str	r2, [r3, #32]
2332:Drivers/STM32F1xx_HAL_Driver/Src/stm32f1xx_hal_tim.c **** 
2333:Drivers/STM32F1xx_HAL_Driver/Src/stm32f1xx_hal_tim.c ****   /* Initialize the TIM state*/
2334:Drivers/STM32F1xx_HAL_Driver/Src/stm32f1xx_hal_tim.c ****   htim->State= HAL_TIM_STATE_READY;
 5056              		.loc 1 2334 0
 5057 011a 7B68     		ldr	r3, [r7, #4]
 5058 011c 0122     		movs	r2, #1
 5059 011e 83F83D20 		strb	r2, [r3, #61]
ARM GAS  /tmp/cc5HGhWi.s 			page 129


2335:Drivers/STM32F1xx_HAL_Driver/Src/stm32f1xx_hal_tim.c **** 
2336:Drivers/STM32F1xx_HAL_Driver/Src/stm32f1xx_hal_tim.c ****   return HAL_OK;
 5060              		.loc 1 2336 0
 5061 0122 0023     		movs	r3, #0
 5062              	.L278:
2337:Drivers/STM32F1xx_HAL_Driver/Src/stm32f1xx_hal_tim.c **** }
 5063              		.loc 1 2337 0
 5064 0124 1846     		mov	r0, r3
 5065 0126 1837     		adds	r7, r7, #24
 5066              	.LCFI258:
 5067              		.cfi_def_cfa_offset 8
 5068 0128 BD46     		mov	sp, r7
 5069              	.LCFI259:
 5070              		.cfi_def_cfa_register 13
 5071              		@ sp needed
 5072 012a 80BD     		pop	{r7, pc}
 5073              		.cfi_endproc
 5074              	.LFE114:
 5076              		.section	.text.HAL_TIM_Encoder_DeInit,"ax",%progbits
 5077              		.align	1
 5078              		.global	HAL_TIM_Encoder_DeInit
 5079              		.syntax unified
 5080              		.thumb
 5081              		.thumb_func
 5082              		.fpu softvfp
 5084              	HAL_TIM_Encoder_DeInit:
 5085              	.LFB115:
2338:Drivers/STM32F1xx_HAL_Driver/Src/stm32f1xx_hal_tim.c **** 
2339:Drivers/STM32F1xx_HAL_Driver/Src/stm32f1xx_hal_tim.c **** 
2340:Drivers/STM32F1xx_HAL_Driver/Src/stm32f1xx_hal_tim.c **** /**
2341:Drivers/STM32F1xx_HAL_Driver/Src/stm32f1xx_hal_tim.c ****   * @brief  DeInitializes the TIM Encoder interface 
2342:Drivers/STM32F1xx_HAL_Driver/Src/stm32f1xx_hal_tim.c ****   * @param  htim : TIM Encoder handle
2343:Drivers/STM32F1xx_HAL_Driver/Src/stm32f1xx_hal_tim.c ****   * @retval HAL status
2344:Drivers/STM32F1xx_HAL_Driver/Src/stm32f1xx_hal_tim.c ****   */
2345:Drivers/STM32F1xx_HAL_Driver/Src/stm32f1xx_hal_tim.c **** HAL_StatusTypeDef HAL_TIM_Encoder_DeInit(TIM_HandleTypeDef *htim)
2346:Drivers/STM32F1xx_HAL_Driver/Src/stm32f1xx_hal_tim.c **** {
 5086              		.loc 1 2346 0
 5087              		.cfi_startproc
 5088              		@ args = 0, pretend = 0, frame = 8
 5089              		@ frame_needed = 1, uses_anonymous_args = 0
 5090 0000 80B5     		push	{r7, lr}
 5091              	.LCFI260:
 5092              		.cfi_def_cfa_offset 8
 5093              		.cfi_offset 7, -8
 5094              		.cfi_offset 14, -4
 5095 0002 82B0     		sub	sp, sp, #8
 5096              	.LCFI261:
 5097              		.cfi_def_cfa_offset 16
 5098 0004 00AF     		add	r7, sp, #0
 5099              	.LCFI262:
 5100              		.cfi_def_cfa_register 7
 5101 0006 7860     		str	r0, [r7, #4]
2347:Drivers/STM32F1xx_HAL_Driver/Src/stm32f1xx_hal_tim.c ****   /* Check the parameters */
2348:Drivers/STM32F1xx_HAL_Driver/Src/stm32f1xx_hal_tim.c ****   assert_param(IS_TIM_INSTANCE(htim->Instance));
2349:Drivers/STM32F1xx_HAL_Driver/Src/stm32f1xx_hal_tim.c **** 
2350:Drivers/STM32F1xx_HAL_Driver/Src/stm32f1xx_hal_tim.c ****   htim->State = HAL_TIM_STATE_BUSY;
 5102              		.loc 1 2350 0
ARM GAS  /tmp/cc5HGhWi.s 			page 130


 5103 0008 7B68     		ldr	r3, [r7, #4]
 5104 000a 0222     		movs	r2, #2
 5105 000c 83F83D20 		strb	r2, [r3, #61]
2351:Drivers/STM32F1xx_HAL_Driver/Src/stm32f1xx_hal_tim.c **** 
2352:Drivers/STM32F1xx_HAL_Driver/Src/stm32f1xx_hal_tim.c ****   /* Disable the TIM Peripheral Clock */
2353:Drivers/STM32F1xx_HAL_Driver/Src/stm32f1xx_hal_tim.c ****   __HAL_TIM_DISABLE(htim);
 5106              		.loc 1 2353 0
 5107 0010 7B68     		ldr	r3, [r7, #4]
 5108 0012 1B68     		ldr	r3, [r3]
 5109 0014 1A6A     		ldr	r2, [r3, #32]
 5110 0016 41F21113 		movw	r3, #4369
 5111 001a 1340     		ands	r3, r3, r2
 5112 001c 002B     		cmp	r3, #0
 5113 001e 0FD1     		bne	.L281
 5114              		.loc 1 2353 0 is_stmt 0 discriminator 1
 5115 0020 7B68     		ldr	r3, [r7, #4]
 5116 0022 1B68     		ldr	r3, [r3]
 5117 0024 1A6A     		ldr	r2, [r3, #32]
 5118 0026 40F24443 		movw	r3, #1092
 5119 002a 1340     		ands	r3, r3, r2
 5120 002c 002B     		cmp	r3, #0
 5121 002e 07D1     		bne	.L281
 5122              		.loc 1 2353 0 discriminator 2
 5123 0030 7B68     		ldr	r3, [r7, #4]
 5124 0032 1B68     		ldr	r3, [r3]
 5125 0034 1A68     		ldr	r2, [r3]
 5126 0036 7B68     		ldr	r3, [r7, #4]
 5127 0038 1B68     		ldr	r3, [r3]
 5128 003a 22F00102 		bic	r2, r2, #1
 5129 003e 1A60     		str	r2, [r3]
 5130              	.L281:
2354:Drivers/STM32F1xx_HAL_Driver/Src/stm32f1xx_hal_tim.c **** 
2355:Drivers/STM32F1xx_HAL_Driver/Src/stm32f1xx_hal_tim.c ****   /* DeInit the low level hardware: GPIO, CLOCK, NVIC */
2356:Drivers/STM32F1xx_HAL_Driver/Src/stm32f1xx_hal_tim.c ****   HAL_TIM_Encoder_MspDeInit(htim);
 5131              		.loc 1 2356 0 is_stmt 1
 5132 0040 7868     		ldr	r0, [r7, #4]
 5133 0042 FFF7FEFF 		bl	HAL_TIM_Encoder_MspDeInit
2357:Drivers/STM32F1xx_HAL_Driver/Src/stm32f1xx_hal_tim.c **** 
2358:Drivers/STM32F1xx_HAL_Driver/Src/stm32f1xx_hal_tim.c ****   /* Change TIM state */
2359:Drivers/STM32F1xx_HAL_Driver/Src/stm32f1xx_hal_tim.c ****   htim->State = HAL_TIM_STATE_RESET;
 5134              		.loc 1 2359 0
 5135 0046 7B68     		ldr	r3, [r7, #4]
 5136 0048 0022     		movs	r2, #0
 5137 004a 83F83D20 		strb	r2, [r3, #61]
2360:Drivers/STM32F1xx_HAL_Driver/Src/stm32f1xx_hal_tim.c **** 
2361:Drivers/STM32F1xx_HAL_Driver/Src/stm32f1xx_hal_tim.c ****   /* Release Lock */
2362:Drivers/STM32F1xx_HAL_Driver/Src/stm32f1xx_hal_tim.c ****   __HAL_UNLOCK(htim);
 5138              		.loc 1 2362 0
 5139 004e 7B68     		ldr	r3, [r7, #4]
 5140 0050 0022     		movs	r2, #0
 5141 0052 83F83C20 		strb	r2, [r3, #60]
2363:Drivers/STM32F1xx_HAL_Driver/Src/stm32f1xx_hal_tim.c **** 
2364:Drivers/STM32F1xx_HAL_Driver/Src/stm32f1xx_hal_tim.c ****   return HAL_OK;
 5142              		.loc 1 2364 0
 5143 0056 0023     		movs	r3, #0
2365:Drivers/STM32F1xx_HAL_Driver/Src/stm32f1xx_hal_tim.c **** }
 5144              		.loc 1 2365 0
ARM GAS  /tmp/cc5HGhWi.s 			page 131


 5145 0058 1846     		mov	r0, r3
 5146 005a 0837     		adds	r7, r7, #8
 5147              	.LCFI263:
 5148              		.cfi_def_cfa_offset 8
 5149 005c BD46     		mov	sp, r7
 5150              	.LCFI264:
 5151              		.cfi_def_cfa_register 13
 5152              		@ sp needed
 5153 005e 80BD     		pop	{r7, pc}
 5154              		.cfi_endproc
 5155              	.LFE115:
 5157              		.section	.text.HAL_TIM_Encoder_MspInit,"ax",%progbits
 5158              		.align	1
 5159              		.weak	HAL_TIM_Encoder_MspInit
 5160              		.syntax unified
 5161              		.thumb
 5162              		.thumb_func
 5163              		.fpu softvfp
 5165              	HAL_TIM_Encoder_MspInit:
 5166              	.LFB116:
2366:Drivers/STM32F1xx_HAL_Driver/Src/stm32f1xx_hal_tim.c **** 
2367:Drivers/STM32F1xx_HAL_Driver/Src/stm32f1xx_hal_tim.c **** /**
2368:Drivers/STM32F1xx_HAL_Driver/Src/stm32f1xx_hal_tim.c ****   * @brief  Initializes the TIM Encoder Interface MSP.
2369:Drivers/STM32F1xx_HAL_Driver/Src/stm32f1xx_hal_tim.c ****   * @param  htim : TIM handle
2370:Drivers/STM32F1xx_HAL_Driver/Src/stm32f1xx_hal_tim.c ****   * @retval None
2371:Drivers/STM32F1xx_HAL_Driver/Src/stm32f1xx_hal_tim.c ****   */
2372:Drivers/STM32F1xx_HAL_Driver/Src/stm32f1xx_hal_tim.c **** __weak void HAL_TIM_Encoder_MspInit(TIM_HandleTypeDef *htim)
2373:Drivers/STM32F1xx_HAL_Driver/Src/stm32f1xx_hal_tim.c **** {
 5167              		.loc 1 2373 0
 5168              		.cfi_startproc
 5169              		@ args = 0, pretend = 0, frame = 8
 5170              		@ frame_needed = 1, uses_anonymous_args = 0
 5171              		@ link register save eliminated.
 5172 0000 80B4     		push	{r7}
 5173              	.LCFI265:
 5174              		.cfi_def_cfa_offset 4
 5175              		.cfi_offset 7, -4
 5176 0002 83B0     		sub	sp, sp, #12
 5177              	.LCFI266:
 5178              		.cfi_def_cfa_offset 16
 5179 0004 00AF     		add	r7, sp, #0
 5180              	.LCFI267:
 5181              		.cfi_def_cfa_register 7
 5182 0006 7860     		str	r0, [r7, #4]
2374:Drivers/STM32F1xx_HAL_Driver/Src/stm32f1xx_hal_tim.c ****   /* Prevent unused argument(s) compilation warning */
2375:Drivers/STM32F1xx_HAL_Driver/Src/stm32f1xx_hal_tim.c ****   UNUSED(htim);
2376:Drivers/STM32F1xx_HAL_Driver/Src/stm32f1xx_hal_tim.c ****   /* NOTE : This function Should not be modified, when the callback is needed,
2377:Drivers/STM32F1xx_HAL_Driver/Src/stm32f1xx_hal_tim.c ****             the HAL_TIM_Encoder_MspInit could be implemented in the user file
2378:Drivers/STM32F1xx_HAL_Driver/Src/stm32f1xx_hal_tim.c ****    */
2379:Drivers/STM32F1xx_HAL_Driver/Src/stm32f1xx_hal_tim.c **** }
 5183              		.loc 1 2379 0
 5184 0008 00BF     		nop
 5185 000a 0C37     		adds	r7, r7, #12
 5186              	.LCFI268:
 5187              		.cfi_def_cfa_offset 4
 5188 000c BD46     		mov	sp, r7
 5189              	.LCFI269:
ARM GAS  /tmp/cc5HGhWi.s 			page 132


 5190              		.cfi_def_cfa_register 13
 5191              		@ sp needed
 5192 000e 80BC     		pop	{r7}
 5193              	.LCFI270:
 5194              		.cfi_restore 7
 5195              		.cfi_def_cfa_offset 0
 5196 0010 7047     		bx	lr
 5197              		.cfi_endproc
 5198              	.LFE116:
 5200              		.section	.text.HAL_TIM_Encoder_MspDeInit,"ax",%progbits
 5201              		.align	1
 5202              		.weak	HAL_TIM_Encoder_MspDeInit
 5203              		.syntax unified
 5204              		.thumb
 5205              		.thumb_func
 5206              		.fpu softvfp
 5208              	HAL_TIM_Encoder_MspDeInit:
 5209              	.LFB117:
2380:Drivers/STM32F1xx_HAL_Driver/Src/stm32f1xx_hal_tim.c **** 
2381:Drivers/STM32F1xx_HAL_Driver/Src/stm32f1xx_hal_tim.c **** /**
2382:Drivers/STM32F1xx_HAL_Driver/Src/stm32f1xx_hal_tim.c ****   * @brief  DeInitializes TIM Encoder Interface MSP.
2383:Drivers/STM32F1xx_HAL_Driver/Src/stm32f1xx_hal_tim.c ****   * @param  htim : TIM handle
2384:Drivers/STM32F1xx_HAL_Driver/Src/stm32f1xx_hal_tim.c ****   * @retval None
2385:Drivers/STM32F1xx_HAL_Driver/Src/stm32f1xx_hal_tim.c ****   */
2386:Drivers/STM32F1xx_HAL_Driver/Src/stm32f1xx_hal_tim.c **** __weak void HAL_TIM_Encoder_MspDeInit(TIM_HandleTypeDef *htim)
2387:Drivers/STM32F1xx_HAL_Driver/Src/stm32f1xx_hal_tim.c **** {
 5210              		.loc 1 2387 0
 5211              		.cfi_startproc
 5212              		@ args = 0, pretend = 0, frame = 8
 5213              		@ frame_needed = 1, uses_anonymous_args = 0
 5214              		@ link register save eliminated.
 5215 0000 80B4     		push	{r7}
 5216              	.LCFI271:
 5217              		.cfi_def_cfa_offset 4
 5218              		.cfi_offset 7, -4
 5219 0002 83B0     		sub	sp, sp, #12
 5220              	.LCFI272:
 5221              		.cfi_def_cfa_offset 16
 5222 0004 00AF     		add	r7, sp, #0
 5223              	.LCFI273:
 5224              		.cfi_def_cfa_register 7
 5225 0006 7860     		str	r0, [r7, #4]
2388:Drivers/STM32F1xx_HAL_Driver/Src/stm32f1xx_hal_tim.c ****   /* Prevent unused argument(s) compilation warning */
2389:Drivers/STM32F1xx_HAL_Driver/Src/stm32f1xx_hal_tim.c ****   UNUSED(htim);
2390:Drivers/STM32F1xx_HAL_Driver/Src/stm32f1xx_hal_tim.c ****   /* NOTE : This function Should not be modified, when the callback is needed,
2391:Drivers/STM32F1xx_HAL_Driver/Src/stm32f1xx_hal_tim.c ****             the HAL_TIM_Encoder_MspDeInit could be implemented in the user file
2392:Drivers/STM32F1xx_HAL_Driver/Src/stm32f1xx_hal_tim.c ****    */
2393:Drivers/STM32F1xx_HAL_Driver/Src/stm32f1xx_hal_tim.c **** }
 5226              		.loc 1 2393 0
 5227 0008 00BF     		nop
 5228 000a 0C37     		adds	r7, r7, #12
 5229              	.LCFI274:
 5230              		.cfi_def_cfa_offset 4
 5231 000c BD46     		mov	sp, r7
 5232              	.LCFI275:
 5233              		.cfi_def_cfa_register 13
 5234              		@ sp needed
ARM GAS  /tmp/cc5HGhWi.s 			page 133


 5235 000e 80BC     		pop	{r7}
 5236              	.LCFI276:
 5237              		.cfi_restore 7
 5238              		.cfi_def_cfa_offset 0
 5239 0010 7047     		bx	lr
 5240              		.cfi_endproc
 5241              	.LFE117:
 5243              		.section	.text.HAL_TIM_Encoder_Start,"ax",%progbits
 5244              		.align	1
 5245              		.global	HAL_TIM_Encoder_Start
 5246              		.syntax unified
 5247              		.thumb
 5248              		.thumb_func
 5249              		.fpu softvfp
 5251              	HAL_TIM_Encoder_Start:
 5252              	.LFB118:
2394:Drivers/STM32F1xx_HAL_Driver/Src/stm32f1xx_hal_tim.c **** 
2395:Drivers/STM32F1xx_HAL_Driver/Src/stm32f1xx_hal_tim.c **** /**
2396:Drivers/STM32F1xx_HAL_Driver/Src/stm32f1xx_hal_tim.c ****   * @brief  Starts the TIM Encoder Interface.
2397:Drivers/STM32F1xx_HAL_Driver/Src/stm32f1xx_hal_tim.c ****   * @param  htim : TIM Encoder Interface handle
2398:Drivers/STM32F1xx_HAL_Driver/Src/stm32f1xx_hal_tim.c ****   * @param  Channel : TIM Channels to be enabled
2399:Drivers/STM32F1xx_HAL_Driver/Src/stm32f1xx_hal_tim.c ****   *          This parameter can be one of the following values:
2400:Drivers/STM32F1xx_HAL_Driver/Src/stm32f1xx_hal_tim.c ****   *            @arg TIM_CHANNEL_1: TIM Channel 1 selected
2401:Drivers/STM32F1xx_HAL_Driver/Src/stm32f1xx_hal_tim.c ****   *            @arg TIM_CHANNEL_2: TIM Channel 2 selected
2402:Drivers/STM32F1xx_HAL_Driver/Src/stm32f1xx_hal_tim.c ****   *            @arg TIM_CHANNEL_ALL: TIM Channel 1 and TIM Channel 2 are selected
2403:Drivers/STM32F1xx_HAL_Driver/Src/stm32f1xx_hal_tim.c ****   * @retval HAL status
2404:Drivers/STM32F1xx_HAL_Driver/Src/stm32f1xx_hal_tim.c **** */
2405:Drivers/STM32F1xx_HAL_Driver/Src/stm32f1xx_hal_tim.c **** HAL_StatusTypeDef HAL_TIM_Encoder_Start(TIM_HandleTypeDef *htim, uint32_t Channel)
2406:Drivers/STM32F1xx_HAL_Driver/Src/stm32f1xx_hal_tim.c **** {
 5253              		.loc 1 2406 0
 5254              		.cfi_startproc
 5255              		@ args = 0, pretend = 0, frame = 8
 5256              		@ frame_needed = 1, uses_anonymous_args = 0
 5257 0000 80B5     		push	{r7, lr}
 5258              	.LCFI277:
 5259              		.cfi_def_cfa_offset 8
 5260              		.cfi_offset 7, -8
 5261              		.cfi_offset 14, -4
 5262 0002 82B0     		sub	sp, sp, #8
 5263              	.LCFI278:
 5264              		.cfi_def_cfa_offset 16
 5265 0004 00AF     		add	r7, sp, #0
 5266              	.LCFI279:
 5267              		.cfi_def_cfa_register 7
 5268 0006 7860     		str	r0, [r7, #4]
 5269 0008 3960     		str	r1, [r7]
2407:Drivers/STM32F1xx_HAL_Driver/Src/stm32f1xx_hal_tim.c ****   /* Check the parameters */
2408:Drivers/STM32F1xx_HAL_Driver/Src/stm32f1xx_hal_tim.c ****   assert_param(IS_TIM_CC2_INSTANCE(htim->Instance));
2409:Drivers/STM32F1xx_HAL_Driver/Src/stm32f1xx_hal_tim.c **** 
2410:Drivers/STM32F1xx_HAL_Driver/Src/stm32f1xx_hal_tim.c ****   /* Enable the encoder interface channels */
2411:Drivers/STM32F1xx_HAL_Driver/Src/stm32f1xx_hal_tim.c ****   switch (Channel)
 5270              		.loc 1 2411 0
 5271 000a 3B68     		ldr	r3, [r7]
 5272 000c 002B     		cmp	r3, #0
 5273 000e 02D0     		beq	.L287
 5274 0010 042B     		cmp	r3, #4
 5275 0012 08D0     		beq	.L288
ARM GAS  /tmp/cc5HGhWi.s 			page 134


 5276 0014 0FE0     		b	.L291
 5277              	.L287:
2412:Drivers/STM32F1xx_HAL_Driver/Src/stm32f1xx_hal_tim.c ****   {
2413:Drivers/STM32F1xx_HAL_Driver/Src/stm32f1xx_hal_tim.c ****     case TIM_CHANNEL_1:
2414:Drivers/STM32F1xx_HAL_Driver/Src/stm32f1xx_hal_tim.c ****   {
2415:Drivers/STM32F1xx_HAL_Driver/Src/stm32f1xx_hal_tim.c ****     TIM_CCxChannelCmd(htim->Instance, TIM_CHANNEL_1, TIM_CCx_ENABLE);
 5278              		.loc 1 2415 0
 5279 0016 7B68     		ldr	r3, [r7, #4]
 5280 0018 1B68     		ldr	r3, [r3]
 5281 001a 0122     		movs	r2, #1
 5282 001c 0021     		movs	r1, #0
 5283 001e 1846     		mov	r0, r3
 5284 0020 FFF7FEFF 		bl	TIM_CCxChannelCmd
2416:Drivers/STM32F1xx_HAL_Driver/Src/stm32f1xx_hal_tim.c ****       break;
 5285              		.loc 1 2416 0
 5286 0024 16E0     		b	.L289
 5287              	.L288:
2417:Drivers/STM32F1xx_HAL_Driver/Src/stm32f1xx_hal_tim.c ****   }
2418:Drivers/STM32F1xx_HAL_Driver/Src/stm32f1xx_hal_tim.c ****     case TIM_CHANNEL_2:
2419:Drivers/STM32F1xx_HAL_Driver/Src/stm32f1xx_hal_tim.c ****   {
2420:Drivers/STM32F1xx_HAL_Driver/Src/stm32f1xx_hal_tim.c ****     TIM_CCxChannelCmd(htim->Instance, TIM_CHANNEL_2, TIM_CCx_ENABLE);
 5288              		.loc 1 2420 0
 5289 0026 7B68     		ldr	r3, [r7, #4]
 5290 0028 1B68     		ldr	r3, [r3]
 5291 002a 0122     		movs	r2, #1
 5292 002c 0421     		movs	r1, #4
 5293 002e 1846     		mov	r0, r3
 5294 0030 FFF7FEFF 		bl	TIM_CCxChannelCmd
2421:Drivers/STM32F1xx_HAL_Driver/Src/stm32f1xx_hal_tim.c ****       break;
 5295              		.loc 1 2421 0
 5296 0034 0EE0     		b	.L289
 5297              	.L291:
2422:Drivers/STM32F1xx_HAL_Driver/Src/stm32f1xx_hal_tim.c ****   }
2423:Drivers/STM32F1xx_HAL_Driver/Src/stm32f1xx_hal_tim.c ****     default :
2424:Drivers/STM32F1xx_HAL_Driver/Src/stm32f1xx_hal_tim.c ****   {
2425:Drivers/STM32F1xx_HAL_Driver/Src/stm32f1xx_hal_tim.c ****      TIM_CCxChannelCmd(htim->Instance, TIM_CHANNEL_1, TIM_CCx_ENABLE);
 5298              		.loc 1 2425 0
 5299 0036 7B68     		ldr	r3, [r7, #4]
 5300 0038 1B68     		ldr	r3, [r3]
 5301 003a 0122     		movs	r2, #1
 5302 003c 0021     		movs	r1, #0
 5303 003e 1846     		mov	r0, r3
 5304 0040 FFF7FEFF 		bl	TIM_CCxChannelCmd
2426:Drivers/STM32F1xx_HAL_Driver/Src/stm32f1xx_hal_tim.c ****      TIM_CCxChannelCmd(htim->Instance, TIM_CHANNEL_2, TIM_CCx_ENABLE);
 5305              		.loc 1 2426 0
 5306 0044 7B68     		ldr	r3, [r7, #4]
 5307 0046 1B68     		ldr	r3, [r3]
 5308 0048 0122     		movs	r2, #1
 5309 004a 0421     		movs	r1, #4
 5310 004c 1846     		mov	r0, r3
 5311 004e FFF7FEFF 		bl	TIM_CCxChannelCmd
2427:Drivers/STM32F1xx_HAL_Driver/Src/stm32f1xx_hal_tim.c ****      break;
 5312              		.loc 1 2427 0
 5313 0052 00BF     		nop
 5314              	.L289:
2428:Drivers/STM32F1xx_HAL_Driver/Src/stm32f1xx_hal_tim.c ****     }
2429:Drivers/STM32F1xx_HAL_Driver/Src/stm32f1xx_hal_tim.c ****   }
ARM GAS  /tmp/cc5HGhWi.s 			page 135


2430:Drivers/STM32F1xx_HAL_Driver/Src/stm32f1xx_hal_tim.c ****   /* Enable the Peripheral */
2431:Drivers/STM32F1xx_HAL_Driver/Src/stm32f1xx_hal_tim.c ****   __HAL_TIM_ENABLE(htim);
 5315              		.loc 1 2431 0
 5316 0054 7B68     		ldr	r3, [r7, #4]
 5317 0056 1B68     		ldr	r3, [r3]
 5318 0058 1A68     		ldr	r2, [r3]
 5319 005a 7B68     		ldr	r3, [r7, #4]
 5320 005c 1B68     		ldr	r3, [r3]
 5321 005e 42F00102 		orr	r2, r2, #1
 5322 0062 1A60     		str	r2, [r3]
2432:Drivers/STM32F1xx_HAL_Driver/Src/stm32f1xx_hal_tim.c **** 
2433:Drivers/STM32F1xx_HAL_Driver/Src/stm32f1xx_hal_tim.c ****   /* Return function status */
2434:Drivers/STM32F1xx_HAL_Driver/Src/stm32f1xx_hal_tim.c ****   return HAL_OK;
 5323              		.loc 1 2434 0
 5324 0064 0023     		movs	r3, #0
2435:Drivers/STM32F1xx_HAL_Driver/Src/stm32f1xx_hal_tim.c **** }
 5325              		.loc 1 2435 0
 5326 0066 1846     		mov	r0, r3
 5327 0068 0837     		adds	r7, r7, #8
 5328              	.LCFI280:
 5329              		.cfi_def_cfa_offset 8
 5330 006a BD46     		mov	sp, r7
 5331              	.LCFI281:
 5332              		.cfi_def_cfa_register 13
 5333              		@ sp needed
 5334 006c 80BD     		pop	{r7, pc}
 5335              		.cfi_endproc
 5336              	.LFE118:
 5338              		.section	.text.HAL_TIM_Encoder_Stop,"ax",%progbits
 5339              		.align	1
 5340              		.global	HAL_TIM_Encoder_Stop
 5341              		.syntax unified
 5342              		.thumb
 5343              		.thumb_func
 5344              		.fpu softvfp
 5346              	HAL_TIM_Encoder_Stop:
 5347              	.LFB119:
2436:Drivers/STM32F1xx_HAL_Driver/Src/stm32f1xx_hal_tim.c **** 
2437:Drivers/STM32F1xx_HAL_Driver/Src/stm32f1xx_hal_tim.c **** /**
2438:Drivers/STM32F1xx_HAL_Driver/Src/stm32f1xx_hal_tim.c ****   * @brief  Stops the TIM Encoder Interface.
2439:Drivers/STM32F1xx_HAL_Driver/Src/stm32f1xx_hal_tim.c ****   * @param  htim : TIM Encoder Interface handle
2440:Drivers/STM32F1xx_HAL_Driver/Src/stm32f1xx_hal_tim.c ****   * @param  Channel : TIM Channels to be disabled
2441:Drivers/STM32F1xx_HAL_Driver/Src/stm32f1xx_hal_tim.c ****   *          This parameter can be one of the following values:
2442:Drivers/STM32F1xx_HAL_Driver/Src/stm32f1xx_hal_tim.c ****   *            @arg TIM_CHANNEL_1: TIM Channel 1 selected
2443:Drivers/STM32F1xx_HAL_Driver/Src/stm32f1xx_hal_tim.c ****   *            @arg TIM_CHANNEL_2: TIM Channel 2 selected
2444:Drivers/STM32F1xx_HAL_Driver/Src/stm32f1xx_hal_tim.c ****   *            @arg TIM_CHANNEL_ALL: TIM Channel 1 and TIM Channel 2 are selected
2445:Drivers/STM32F1xx_HAL_Driver/Src/stm32f1xx_hal_tim.c ****   * @retval HAL status
2446:Drivers/STM32F1xx_HAL_Driver/Src/stm32f1xx_hal_tim.c **** */
2447:Drivers/STM32F1xx_HAL_Driver/Src/stm32f1xx_hal_tim.c **** HAL_StatusTypeDef HAL_TIM_Encoder_Stop(TIM_HandleTypeDef *htim, uint32_t Channel)
2448:Drivers/STM32F1xx_HAL_Driver/Src/stm32f1xx_hal_tim.c **** {
 5348              		.loc 1 2448 0
 5349              		.cfi_startproc
 5350              		@ args = 0, pretend = 0, frame = 8
 5351              		@ frame_needed = 1, uses_anonymous_args = 0
 5352 0000 80B5     		push	{r7, lr}
 5353              	.LCFI282:
 5354              		.cfi_def_cfa_offset 8
ARM GAS  /tmp/cc5HGhWi.s 			page 136


 5355              		.cfi_offset 7, -8
 5356              		.cfi_offset 14, -4
 5357 0002 82B0     		sub	sp, sp, #8
 5358              	.LCFI283:
 5359              		.cfi_def_cfa_offset 16
 5360 0004 00AF     		add	r7, sp, #0
 5361              	.LCFI284:
 5362              		.cfi_def_cfa_register 7
 5363 0006 7860     		str	r0, [r7, #4]
 5364 0008 3960     		str	r1, [r7]
2449:Drivers/STM32F1xx_HAL_Driver/Src/stm32f1xx_hal_tim.c ****   /* Check the parameters */
2450:Drivers/STM32F1xx_HAL_Driver/Src/stm32f1xx_hal_tim.c ****     assert_param(IS_TIM_CC2_INSTANCE(htim->Instance));
2451:Drivers/STM32F1xx_HAL_Driver/Src/stm32f1xx_hal_tim.c **** 
2452:Drivers/STM32F1xx_HAL_Driver/Src/stm32f1xx_hal_tim.c ****    /* Disable the Input Capture channels 1 and 2
2453:Drivers/STM32F1xx_HAL_Driver/Src/stm32f1xx_hal_tim.c ****     (in the EncoderInterface the two possible channels that can be used are TIM_CHANNEL_1 and TIM_C
2454:Drivers/STM32F1xx_HAL_Driver/Src/stm32f1xx_hal_tim.c ****   switch (Channel)
 5365              		.loc 1 2454 0
 5366 000a 3B68     		ldr	r3, [r7]
 5367 000c 002B     		cmp	r3, #0
 5368 000e 02D0     		beq	.L294
 5369 0010 042B     		cmp	r3, #4
 5370 0012 08D0     		beq	.L295
 5371 0014 0FE0     		b	.L299
 5372              	.L294:
2455:Drivers/STM32F1xx_HAL_Driver/Src/stm32f1xx_hal_tim.c ****   {
2456:Drivers/STM32F1xx_HAL_Driver/Src/stm32f1xx_hal_tim.c ****     case TIM_CHANNEL_1:
2457:Drivers/STM32F1xx_HAL_Driver/Src/stm32f1xx_hal_tim.c ****   {
2458:Drivers/STM32F1xx_HAL_Driver/Src/stm32f1xx_hal_tim.c ****      TIM_CCxChannelCmd(htim->Instance, TIM_CHANNEL_1, TIM_CCx_DISABLE);
 5373              		.loc 1 2458 0
 5374 0016 7B68     		ldr	r3, [r7, #4]
 5375 0018 1B68     		ldr	r3, [r3]
 5376 001a 0022     		movs	r2, #0
 5377 001c 0021     		movs	r1, #0
 5378 001e 1846     		mov	r0, r3
 5379 0020 FFF7FEFF 		bl	TIM_CCxChannelCmd
2459:Drivers/STM32F1xx_HAL_Driver/Src/stm32f1xx_hal_tim.c ****       break;
 5380              		.loc 1 2459 0
 5381 0024 16E0     		b	.L296
 5382              	.L295:
2460:Drivers/STM32F1xx_HAL_Driver/Src/stm32f1xx_hal_tim.c ****   }
2461:Drivers/STM32F1xx_HAL_Driver/Src/stm32f1xx_hal_tim.c ****     case TIM_CHANNEL_2:
2462:Drivers/STM32F1xx_HAL_Driver/Src/stm32f1xx_hal_tim.c ****   {
2463:Drivers/STM32F1xx_HAL_Driver/Src/stm32f1xx_hal_tim.c ****     TIM_CCxChannelCmd(htim->Instance, TIM_CHANNEL_2, TIM_CCx_DISABLE);
 5383              		.loc 1 2463 0
 5384 0026 7B68     		ldr	r3, [r7, #4]
 5385 0028 1B68     		ldr	r3, [r3]
 5386 002a 0022     		movs	r2, #0
 5387 002c 0421     		movs	r1, #4
 5388 002e 1846     		mov	r0, r3
 5389 0030 FFF7FEFF 		bl	TIM_CCxChannelCmd
2464:Drivers/STM32F1xx_HAL_Driver/Src/stm32f1xx_hal_tim.c ****       break;
 5390              		.loc 1 2464 0
 5391 0034 0EE0     		b	.L296
 5392              	.L299:
2465:Drivers/STM32F1xx_HAL_Driver/Src/stm32f1xx_hal_tim.c ****   }
2466:Drivers/STM32F1xx_HAL_Driver/Src/stm32f1xx_hal_tim.c ****     default :
2467:Drivers/STM32F1xx_HAL_Driver/Src/stm32f1xx_hal_tim.c ****   {
ARM GAS  /tmp/cc5HGhWi.s 			page 137


2468:Drivers/STM32F1xx_HAL_Driver/Src/stm32f1xx_hal_tim.c ****     TIM_CCxChannelCmd(htim->Instance, TIM_CHANNEL_1, TIM_CCx_DISABLE);
 5393              		.loc 1 2468 0
 5394 0036 7B68     		ldr	r3, [r7, #4]
 5395 0038 1B68     		ldr	r3, [r3]
 5396 003a 0022     		movs	r2, #0
 5397 003c 0021     		movs	r1, #0
 5398 003e 1846     		mov	r0, r3
 5399 0040 FFF7FEFF 		bl	TIM_CCxChannelCmd
2469:Drivers/STM32F1xx_HAL_Driver/Src/stm32f1xx_hal_tim.c ****     TIM_CCxChannelCmd(htim->Instance, TIM_CHANNEL_2, TIM_CCx_DISABLE);
 5400              		.loc 1 2469 0
 5401 0044 7B68     		ldr	r3, [r7, #4]
 5402 0046 1B68     		ldr	r3, [r3]
 5403 0048 0022     		movs	r2, #0
 5404 004a 0421     		movs	r1, #4
 5405 004c 1846     		mov	r0, r3
 5406 004e FFF7FEFF 		bl	TIM_CCxChannelCmd
2470:Drivers/STM32F1xx_HAL_Driver/Src/stm32f1xx_hal_tim.c ****      break;
 5407              		.loc 1 2470 0
 5408 0052 00BF     		nop
 5409              	.L296:
2471:Drivers/STM32F1xx_HAL_Driver/Src/stm32f1xx_hal_tim.c ****     }
2472:Drivers/STM32F1xx_HAL_Driver/Src/stm32f1xx_hal_tim.c ****   }
2473:Drivers/STM32F1xx_HAL_Driver/Src/stm32f1xx_hal_tim.c **** 
2474:Drivers/STM32F1xx_HAL_Driver/Src/stm32f1xx_hal_tim.c ****   /* Disable the Peripheral */
2475:Drivers/STM32F1xx_HAL_Driver/Src/stm32f1xx_hal_tim.c ****   __HAL_TIM_DISABLE(htim);
 5410              		.loc 1 2475 0
 5411 0054 7B68     		ldr	r3, [r7, #4]
 5412 0056 1B68     		ldr	r3, [r3]
 5413 0058 1A6A     		ldr	r2, [r3, #32]
 5414 005a 41F21113 		movw	r3, #4369
 5415 005e 1340     		ands	r3, r3, r2
 5416 0060 002B     		cmp	r3, #0
 5417 0062 0FD1     		bne	.L297
 5418              		.loc 1 2475 0 is_stmt 0 discriminator 1
 5419 0064 7B68     		ldr	r3, [r7, #4]
 5420 0066 1B68     		ldr	r3, [r3]
 5421 0068 1A6A     		ldr	r2, [r3, #32]
 5422 006a 40F24443 		movw	r3, #1092
 5423 006e 1340     		ands	r3, r3, r2
 5424 0070 002B     		cmp	r3, #0
 5425 0072 07D1     		bne	.L297
 5426              		.loc 1 2475 0 discriminator 2
 5427 0074 7B68     		ldr	r3, [r7, #4]
 5428 0076 1B68     		ldr	r3, [r3]
 5429 0078 1A68     		ldr	r2, [r3]
 5430 007a 7B68     		ldr	r3, [r7, #4]
 5431 007c 1B68     		ldr	r3, [r3]
 5432 007e 22F00102 		bic	r2, r2, #1
 5433 0082 1A60     		str	r2, [r3]
 5434              	.L297:
2476:Drivers/STM32F1xx_HAL_Driver/Src/stm32f1xx_hal_tim.c **** 
2477:Drivers/STM32F1xx_HAL_Driver/Src/stm32f1xx_hal_tim.c ****   /* Return function status */
2478:Drivers/STM32F1xx_HAL_Driver/Src/stm32f1xx_hal_tim.c ****   return HAL_OK;
 5435              		.loc 1 2478 0 is_stmt 1
 5436 0084 0023     		movs	r3, #0
2479:Drivers/STM32F1xx_HAL_Driver/Src/stm32f1xx_hal_tim.c **** }
 5437              		.loc 1 2479 0
ARM GAS  /tmp/cc5HGhWi.s 			page 138


 5438 0086 1846     		mov	r0, r3
 5439 0088 0837     		adds	r7, r7, #8
 5440              	.LCFI285:
 5441              		.cfi_def_cfa_offset 8
 5442 008a BD46     		mov	sp, r7
 5443              	.LCFI286:
 5444              		.cfi_def_cfa_register 13
 5445              		@ sp needed
 5446 008c 80BD     		pop	{r7, pc}
 5447              		.cfi_endproc
 5448              	.LFE119:
 5450              		.section	.text.HAL_TIM_Encoder_Start_IT,"ax",%progbits
 5451              		.align	1
 5452              		.global	HAL_TIM_Encoder_Start_IT
 5453              		.syntax unified
 5454              		.thumb
 5455              		.thumb_func
 5456              		.fpu softvfp
 5458              	HAL_TIM_Encoder_Start_IT:
 5459              	.LFB120:
2480:Drivers/STM32F1xx_HAL_Driver/Src/stm32f1xx_hal_tim.c **** 
2481:Drivers/STM32F1xx_HAL_Driver/Src/stm32f1xx_hal_tim.c **** /**
2482:Drivers/STM32F1xx_HAL_Driver/Src/stm32f1xx_hal_tim.c ****   * @brief  Starts the TIM Encoder Interface in interrupt mode.
2483:Drivers/STM32F1xx_HAL_Driver/Src/stm32f1xx_hal_tim.c ****   * @param  htim : TIM Encoder Interface handle
2484:Drivers/STM32F1xx_HAL_Driver/Src/stm32f1xx_hal_tim.c ****   * @param  Channel : TIM Channels to be enabled
2485:Drivers/STM32F1xx_HAL_Driver/Src/stm32f1xx_hal_tim.c ****   *          This parameter can be one of the following values:
2486:Drivers/STM32F1xx_HAL_Driver/Src/stm32f1xx_hal_tim.c ****   *            @arg TIM_CHANNEL_1: TIM Channel 1 selected
2487:Drivers/STM32F1xx_HAL_Driver/Src/stm32f1xx_hal_tim.c ****   *            @arg TIM_CHANNEL_2: TIM Channel 2 selected
2488:Drivers/STM32F1xx_HAL_Driver/Src/stm32f1xx_hal_tim.c ****   *            @arg TIM_CHANNEL_ALL: TIM Channel 1 and TIM Channel 2 are selected
2489:Drivers/STM32F1xx_HAL_Driver/Src/stm32f1xx_hal_tim.c ****   * @retval HAL status
2490:Drivers/STM32F1xx_HAL_Driver/Src/stm32f1xx_hal_tim.c **** */
2491:Drivers/STM32F1xx_HAL_Driver/Src/stm32f1xx_hal_tim.c **** HAL_StatusTypeDef HAL_TIM_Encoder_Start_IT(TIM_HandleTypeDef *htim, uint32_t Channel)
2492:Drivers/STM32F1xx_HAL_Driver/Src/stm32f1xx_hal_tim.c **** {
 5460              		.loc 1 2492 0
 5461              		.cfi_startproc
 5462              		@ args = 0, pretend = 0, frame = 8
 5463              		@ frame_needed = 1, uses_anonymous_args = 0
 5464 0000 80B5     		push	{r7, lr}
 5465              	.LCFI287:
 5466              		.cfi_def_cfa_offset 8
 5467              		.cfi_offset 7, -8
 5468              		.cfi_offset 14, -4
 5469 0002 82B0     		sub	sp, sp, #8
 5470              	.LCFI288:
 5471              		.cfi_def_cfa_offset 16
 5472 0004 00AF     		add	r7, sp, #0
 5473              	.LCFI289:
 5474              		.cfi_def_cfa_register 7
 5475 0006 7860     		str	r0, [r7, #4]
 5476 0008 3960     		str	r1, [r7]
2493:Drivers/STM32F1xx_HAL_Driver/Src/stm32f1xx_hal_tim.c ****   /* Check the parameters */
2494:Drivers/STM32F1xx_HAL_Driver/Src/stm32f1xx_hal_tim.c ****   assert_param(IS_TIM_CC2_INSTANCE(htim->Instance));
2495:Drivers/STM32F1xx_HAL_Driver/Src/stm32f1xx_hal_tim.c **** 
2496:Drivers/STM32F1xx_HAL_Driver/Src/stm32f1xx_hal_tim.c ****   /* Enable the encoder interface channels */
2497:Drivers/STM32F1xx_HAL_Driver/Src/stm32f1xx_hal_tim.c ****   /* Enable the capture compare Interrupts 1 and/or 2 */
2498:Drivers/STM32F1xx_HAL_Driver/Src/stm32f1xx_hal_tim.c ****   switch (Channel)
 5477              		.loc 1 2498 0
ARM GAS  /tmp/cc5HGhWi.s 			page 139


 5478 000a 3B68     		ldr	r3, [r7]
 5479 000c 002B     		cmp	r3, #0
 5480 000e 02D0     		beq	.L302
 5481 0010 042B     		cmp	r3, #4
 5482 0012 10D0     		beq	.L303
 5483 0014 1FE0     		b	.L306
 5484              	.L302:
2499:Drivers/STM32F1xx_HAL_Driver/Src/stm32f1xx_hal_tim.c ****   {
2500:Drivers/STM32F1xx_HAL_Driver/Src/stm32f1xx_hal_tim.c ****     case TIM_CHANNEL_1:
2501:Drivers/STM32F1xx_HAL_Driver/Src/stm32f1xx_hal_tim.c ****   {
2502:Drivers/STM32F1xx_HAL_Driver/Src/stm32f1xx_hal_tim.c ****     TIM_CCxChannelCmd(htim->Instance, TIM_CHANNEL_1, TIM_CCx_ENABLE);
 5485              		.loc 1 2502 0
 5486 0016 7B68     		ldr	r3, [r7, #4]
 5487 0018 1B68     		ldr	r3, [r3]
 5488 001a 0122     		movs	r2, #1
 5489 001c 0021     		movs	r1, #0
 5490 001e 1846     		mov	r0, r3
 5491 0020 FFF7FEFF 		bl	TIM_CCxChannelCmd
2503:Drivers/STM32F1xx_HAL_Driver/Src/stm32f1xx_hal_tim.c ****     __HAL_TIM_ENABLE_IT(htim, TIM_IT_CC1);
 5492              		.loc 1 2503 0
 5493 0024 7B68     		ldr	r3, [r7, #4]
 5494 0026 1B68     		ldr	r3, [r3]
 5495 0028 DA68     		ldr	r2, [r3, #12]
 5496 002a 7B68     		ldr	r3, [r7, #4]
 5497 002c 1B68     		ldr	r3, [r3]
 5498 002e 42F00202 		orr	r2, r2, #2
 5499 0032 DA60     		str	r2, [r3, #12]
2504:Drivers/STM32F1xx_HAL_Driver/Src/stm32f1xx_hal_tim.c ****       break;
 5500              		.loc 1 2504 0
 5501 0034 2EE0     		b	.L304
 5502              	.L303:
2505:Drivers/STM32F1xx_HAL_Driver/Src/stm32f1xx_hal_tim.c ****   }
2506:Drivers/STM32F1xx_HAL_Driver/Src/stm32f1xx_hal_tim.c ****     case TIM_CHANNEL_2:
2507:Drivers/STM32F1xx_HAL_Driver/Src/stm32f1xx_hal_tim.c ****   {
2508:Drivers/STM32F1xx_HAL_Driver/Src/stm32f1xx_hal_tim.c ****     TIM_CCxChannelCmd(htim->Instance, TIM_CHANNEL_2, TIM_CCx_ENABLE);
 5503              		.loc 1 2508 0
 5504 0036 7B68     		ldr	r3, [r7, #4]
 5505 0038 1B68     		ldr	r3, [r3]
 5506 003a 0122     		movs	r2, #1
 5507 003c 0421     		movs	r1, #4
 5508 003e 1846     		mov	r0, r3
 5509 0040 FFF7FEFF 		bl	TIM_CCxChannelCmd
2509:Drivers/STM32F1xx_HAL_Driver/Src/stm32f1xx_hal_tim.c ****     __HAL_TIM_ENABLE_IT(htim, TIM_IT_CC2);
 5510              		.loc 1 2509 0
 5511 0044 7B68     		ldr	r3, [r7, #4]
 5512 0046 1B68     		ldr	r3, [r3]
 5513 0048 DA68     		ldr	r2, [r3, #12]
 5514 004a 7B68     		ldr	r3, [r7, #4]
 5515 004c 1B68     		ldr	r3, [r3]
 5516 004e 42F00402 		orr	r2, r2, #4
 5517 0052 DA60     		str	r2, [r3, #12]
2510:Drivers/STM32F1xx_HAL_Driver/Src/stm32f1xx_hal_tim.c ****       break;
 5518              		.loc 1 2510 0
 5519 0054 1EE0     		b	.L304
 5520              	.L306:
2511:Drivers/STM32F1xx_HAL_Driver/Src/stm32f1xx_hal_tim.c ****   }
2512:Drivers/STM32F1xx_HAL_Driver/Src/stm32f1xx_hal_tim.c ****     default :
ARM GAS  /tmp/cc5HGhWi.s 			page 140


2513:Drivers/STM32F1xx_HAL_Driver/Src/stm32f1xx_hal_tim.c ****   {
2514:Drivers/STM32F1xx_HAL_Driver/Src/stm32f1xx_hal_tim.c ****      TIM_CCxChannelCmd(htim->Instance, TIM_CHANNEL_1, TIM_CCx_ENABLE);
 5521              		.loc 1 2514 0
 5522 0056 7B68     		ldr	r3, [r7, #4]
 5523 0058 1B68     		ldr	r3, [r3]
 5524 005a 0122     		movs	r2, #1
 5525 005c 0021     		movs	r1, #0
 5526 005e 1846     		mov	r0, r3
 5527 0060 FFF7FEFF 		bl	TIM_CCxChannelCmd
2515:Drivers/STM32F1xx_HAL_Driver/Src/stm32f1xx_hal_tim.c ****      TIM_CCxChannelCmd(htim->Instance, TIM_CHANNEL_2, TIM_CCx_ENABLE);
 5528              		.loc 1 2515 0
 5529 0064 7B68     		ldr	r3, [r7, #4]
 5530 0066 1B68     		ldr	r3, [r3]
 5531 0068 0122     		movs	r2, #1
 5532 006a 0421     		movs	r1, #4
 5533 006c 1846     		mov	r0, r3
 5534 006e FFF7FEFF 		bl	TIM_CCxChannelCmd
2516:Drivers/STM32F1xx_HAL_Driver/Src/stm32f1xx_hal_tim.c ****      __HAL_TIM_ENABLE_IT(htim, TIM_IT_CC1);
 5535              		.loc 1 2516 0
 5536 0072 7B68     		ldr	r3, [r7, #4]
 5537 0074 1B68     		ldr	r3, [r3]
 5538 0076 DA68     		ldr	r2, [r3, #12]
 5539 0078 7B68     		ldr	r3, [r7, #4]
 5540 007a 1B68     		ldr	r3, [r3]
 5541 007c 42F00202 		orr	r2, r2, #2
 5542 0080 DA60     		str	r2, [r3, #12]
2517:Drivers/STM32F1xx_HAL_Driver/Src/stm32f1xx_hal_tim.c ****      __HAL_TIM_ENABLE_IT(htim, TIM_IT_CC2);
 5543              		.loc 1 2517 0
 5544 0082 7B68     		ldr	r3, [r7, #4]
 5545 0084 1B68     		ldr	r3, [r3]
 5546 0086 DA68     		ldr	r2, [r3, #12]
 5547 0088 7B68     		ldr	r3, [r7, #4]
 5548 008a 1B68     		ldr	r3, [r3]
 5549 008c 42F00402 		orr	r2, r2, #4
 5550 0090 DA60     		str	r2, [r3, #12]
2518:Drivers/STM32F1xx_HAL_Driver/Src/stm32f1xx_hal_tim.c ****      break;
 5551              		.loc 1 2518 0
 5552 0092 00BF     		nop
 5553              	.L304:
2519:Drivers/STM32F1xx_HAL_Driver/Src/stm32f1xx_hal_tim.c ****     }
2520:Drivers/STM32F1xx_HAL_Driver/Src/stm32f1xx_hal_tim.c ****   }
2521:Drivers/STM32F1xx_HAL_Driver/Src/stm32f1xx_hal_tim.c **** 
2522:Drivers/STM32F1xx_HAL_Driver/Src/stm32f1xx_hal_tim.c ****   /* Enable the Peripheral */
2523:Drivers/STM32F1xx_HAL_Driver/Src/stm32f1xx_hal_tim.c ****   __HAL_TIM_ENABLE(htim);
 5554              		.loc 1 2523 0
 5555 0094 7B68     		ldr	r3, [r7, #4]
 5556 0096 1B68     		ldr	r3, [r3]
 5557 0098 1A68     		ldr	r2, [r3]
 5558 009a 7B68     		ldr	r3, [r7, #4]
 5559 009c 1B68     		ldr	r3, [r3]
 5560 009e 42F00102 		orr	r2, r2, #1
 5561 00a2 1A60     		str	r2, [r3]
2524:Drivers/STM32F1xx_HAL_Driver/Src/stm32f1xx_hal_tim.c **** 
2525:Drivers/STM32F1xx_HAL_Driver/Src/stm32f1xx_hal_tim.c ****   /* Return function status */
2526:Drivers/STM32F1xx_HAL_Driver/Src/stm32f1xx_hal_tim.c ****   return HAL_OK;
 5562              		.loc 1 2526 0
 5563 00a4 0023     		movs	r3, #0
ARM GAS  /tmp/cc5HGhWi.s 			page 141


2527:Drivers/STM32F1xx_HAL_Driver/Src/stm32f1xx_hal_tim.c **** }
 5564              		.loc 1 2527 0
 5565 00a6 1846     		mov	r0, r3
 5566 00a8 0837     		adds	r7, r7, #8
 5567              	.LCFI290:
 5568              		.cfi_def_cfa_offset 8
 5569 00aa BD46     		mov	sp, r7
 5570              	.LCFI291:
 5571              		.cfi_def_cfa_register 13
 5572              		@ sp needed
 5573 00ac 80BD     		pop	{r7, pc}
 5574              		.cfi_endproc
 5575              	.LFE120:
 5577              		.section	.text.HAL_TIM_Encoder_Stop_IT,"ax",%progbits
 5578              		.align	1
 5579              		.global	HAL_TIM_Encoder_Stop_IT
 5580              		.syntax unified
 5581              		.thumb
 5582              		.thumb_func
 5583              		.fpu softvfp
 5585              	HAL_TIM_Encoder_Stop_IT:
 5586              	.LFB121:
2528:Drivers/STM32F1xx_HAL_Driver/Src/stm32f1xx_hal_tim.c **** 
2529:Drivers/STM32F1xx_HAL_Driver/Src/stm32f1xx_hal_tim.c **** /**
2530:Drivers/STM32F1xx_HAL_Driver/Src/stm32f1xx_hal_tim.c ****   * @brief  Stops the TIM Encoder Interface in interrupt mode.
2531:Drivers/STM32F1xx_HAL_Driver/Src/stm32f1xx_hal_tim.c ****   * @param  htim : TIM Encoder Interface handle
2532:Drivers/STM32F1xx_HAL_Driver/Src/stm32f1xx_hal_tim.c ****   * @param  Channel : TIM Channels to be disabled
2533:Drivers/STM32F1xx_HAL_Driver/Src/stm32f1xx_hal_tim.c ****   *          This parameter can be one of the following values:
2534:Drivers/STM32F1xx_HAL_Driver/Src/stm32f1xx_hal_tim.c ****   *            @arg TIM_CHANNEL_1: TIM Channel 1 selected
2535:Drivers/STM32F1xx_HAL_Driver/Src/stm32f1xx_hal_tim.c ****   *            @arg TIM_CHANNEL_2: TIM Channel 2 selected
2536:Drivers/STM32F1xx_HAL_Driver/Src/stm32f1xx_hal_tim.c ****   *            @arg TIM_CHANNEL_ALL: TIM Channel 1 and TIM Channel 2 are selected
2537:Drivers/STM32F1xx_HAL_Driver/Src/stm32f1xx_hal_tim.c ****   * @retval HAL status
2538:Drivers/STM32F1xx_HAL_Driver/Src/stm32f1xx_hal_tim.c **** */
2539:Drivers/STM32F1xx_HAL_Driver/Src/stm32f1xx_hal_tim.c **** HAL_StatusTypeDef HAL_TIM_Encoder_Stop_IT(TIM_HandleTypeDef *htim, uint32_t Channel)
2540:Drivers/STM32F1xx_HAL_Driver/Src/stm32f1xx_hal_tim.c **** {
 5587              		.loc 1 2540 0
 5588              		.cfi_startproc
 5589              		@ args = 0, pretend = 0, frame = 8
 5590              		@ frame_needed = 1, uses_anonymous_args = 0
 5591 0000 80B5     		push	{r7, lr}
 5592              	.LCFI292:
 5593              		.cfi_def_cfa_offset 8
 5594              		.cfi_offset 7, -8
 5595              		.cfi_offset 14, -4
 5596 0002 82B0     		sub	sp, sp, #8
 5597              	.LCFI293:
 5598              		.cfi_def_cfa_offset 16
 5599 0004 00AF     		add	r7, sp, #0
 5600              	.LCFI294:
 5601              		.cfi_def_cfa_register 7
 5602 0006 7860     		str	r0, [r7, #4]
 5603 0008 3960     		str	r1, [r7]
2541:Drivers/STM32F1xx_HAL_Driver/Src/stm32f1xx_hal_tim.c ****   /* Check the parameters */
2542:Drivers/STM32F1xx_HAL_Driver/Src/stm32f1xx_hal_tim.c ****   assert_param(IS_TIM_CC2_INSTANCE(htim->Instance));
2543:Drivers/STM32F1xx_HAL_Driver/Src/stm32f1xx_hal_tim.c **** 
2544:Drivers/STM32F1xx_HAL_Driver/Src/stm32f1xx_hal_tim.c ****   /* Disable the Input Capture channels 1 and 2
2545:Drivers/STM32F1xx_HAL_Driver/Src/stm32f1xx_hal_tim.c ****     (in the EncoderInterface the two possible channels that can be used are TIM_CHANNEL_1 and TIM_C
ARM GAS  /tmp/cc5HGhWi.s 			page 142


2546:Drivers/STM32F1xx_HAL_Driver/Src/stm32f1xx_hal_tim.c ****   if(Channel == TIM_CHANNEL_1)
 5604              		.loc 1 2546 0
 5605 000a 3B68     		ldr	r3, [r7]
 5606 000c 002B     		cmp	r3, #0
 5607 000e 0FD1     		bne	.L308
2547:Drivers/STM32F1xx_HAL_Driver/Src/stm32f1xx_hal_tim.c ****   {
2548:Drivers/STM32F1xx_HAL_Driver/Src/stm32f1xx_hal_tim.c ****     TIM_CCxChannelCmd(htim->Instance, TIM_CHANNEL_1, TIM_CCx_DISABLE);
 5608              		.loc 1 2548 0
 5609 0010 7B68     		ldr	r3, [r7, #4]
 5610 0012 1B68     		ldr	r3, [r3]
 5611 0014 0022     		movs	r2, #0
 5612 0016 0021     		movs	r1, #0
 5613 0018 1846     		mov	r0, r3
 5614 001a FFF7FEFF 		bl	TIM_CCxChannelCmd
2549:Drivers/STM32F1xx_HAL_Driver/Src/stm32f1xx_hal_tim.c **** 
2550:Drivers/STM32F1xx_HAL_Driver/Src/stm32f1xx_hal_tim.c ****     /* Disable the capture compare Interrupts 1 */
2551:Drivers/STM32F1xx_HAL_Driver/Src/stm32f1xx_hal_tim.c ****   __HAL_TIM_DISABLE_IT(htim, TIM_IT_CC1);
 5615              		.loc 1 2551 0
 5616 001e 7B68     		ldr	r3, [r7, #4]
 5617 0020 1B68     		ldr	r3, [r3]
 5618 0022 DA68     		ldr	r2, [r3, #12]
 5619 0024 7B68     		ldr	r3, [r7, #4]
 5620 0026 1B68     		ldr	r3, [r3]
 5621 0028 22F00202 		bic	r2, r2, #2
 5622 002c DA60     		str	r2, [r3, #12]
 5623 002e 30E0     		b	.L309
 5624              	.L308:
2552:Drivers/STM32F1xx_HAL_Driver/Src/stm32f1xx_hal_tim.c ****   }
2553:Drivers/STM32F1xx_HAL_Driver/Src/stm32f1xx_hal_tim.c ****   else if(Channel == TIM_CHANNEL_2)
 5625              		.loc 1 2553 0
 5626 0030 3B68     		ldr	r3, [r7]
 5627 0032 042B     		cmp	r3, #4
 5628 0034 0FD1     		bne	.L310
2554:Drivers/STM32F1xx_HAL_Driver/Src/stm32f1xx_hal_tim.c ****   {
2555:Drivers/STM32F1xx_HAL_Driver/Src/stm32f1xx_hal_tim.c ****     TIM_CCxChannelCmd(htim->Instance, TIM_CHANNEL_2, TIM_CCx_DISABLE);
 5629              		.loc 1 2555 0
 5630 0036 7B68     		ldr	r3, [r7, #4]
 5631 0038 1B68     		ldr	r3, [r3]
 5632 003a 0022     		movs	r2, #0
 5633 003c 0421     		movs	r1, #4
 5634 003e 1846     		mov	r0, r3
 5635 0040 FFF7FEFF 		bl	TIM_CCxChannelCmd
2556:Drivers/STM32F1xx_HAL_Driver/Src/stm32f1xx_hal_tim.c **** 
2557:Drivers/STM32F1xx_HAL_Driver/Src/stm32f1xx_hal_tim.c ****     /* Disable the capture compare Interrupts 2 */
2558:Drivers/STM32F1xx_HAL_Driver/Src/stm32f1xx_hal_tim.c ****   __HAL_TIM_DISABLE_IT(htim, TIM_IT_CC2);
 5636              		.loc 1 2558 0
 5637 0044 7B68     		ldr	r3, [r7, #4]
 5638 0046 1B68     		ldr	r3, [r3]
 5639 0048 DA68     		ldr	r2, [r3, #12]
 5640 004a 7B68     		ldr	r3, [r7, #4]
 5641 004c 1B68     		ldr	r3, [r3]
 5642 004e 22F00402 		bic	r2, r2, #4
 5643 0052 DA60     		str	r2, [r3, #12]
 5644 0054 1DE0     		b	.L309
 5645              	.L310:
2559:Drivers/STM32F1xx_HAL_Driver/Src/stm32f1xx_hal_tim.c ****   }
2560:Drivers/STM32F1xx_HAL_Driver/Src/stm32f1xx_hal_tim.c ****   else
ARM GAS  /tmp/cc5HGhWi.s 			page 143


2561:Drivers/STM32F1xx_HAL_Driver/Src/stm32f1xx_hal_tim.c ****   {
2562:Drivers/STM32F1xx_HAL_Driver/Src/stm32f1xx_hal_tim.c ****     TIM_CCxChannelCmd(htim->Instance, TIM_CHANNEL_1, TIM_CCx_DISABLE);
 5646              		.loc 1 2562 0
 5647 0056 7B68     		ldr	r3, [r7, #4]
 5648 0058 1B68     		ldr	r3, [r3]
 5649 005a 0022     		movs	r2, #0
 5650 005c 0021     		movs	r1, #0
 5651 005e 1846     		mov	r0, r3
 5652 0060 FFF7FEFF 		bl	TIM_CCxChannelCmd
2563:Drivers/STM32F1xx_HAL_Driver/Src/stm32f1xx_hal_tim.c ****     TIM_CCxChannelCmd(htim->Instance, TIM_CHANNEL_2, TIM_CCx_DISABLE);
 5653              		.loc 1 2563 0
 5654 0064 7B68     		ldr	r3, [r7, #4]
 5655 0066 1B68     		ldr	r3, [r3]
 5656 0068 0022     		movs	r2, #0
 5657 006a 0421     		movs	r1, #4
 5658 006c 1846     		mov	r0, r3
 5659 006e FFF7FEFF 		bl	TIM_CCxChannelCmd
2564:Drivers/STM32F1xx_HAL_Driver/Src/stm32f1xx_hal_tim.c **** 
2565:Drivers/STM32F1xx_HAL_Driver/Src/stm32f1xx_hal_tim.c ****     /* Disable the capture compare Interrupts 1 and 2 */
2566:Drivers/STM32F1xx_HAL_Driver/Src/stm32f1xx_hal_tim.c ****     __HAL_TIM_DISABLE_IT(htim, TIM_IT_CC1);
 5660              		.loc 1 2566 0
 5661 0072 7B68     		ldr	r3, [r7, #4]
 5662 0074 1B68     		ldr	r3, [r3]
 5663 0076 DA68     		ldr	r2, [r3, #12]
 5664 0078 7B68     		ldr	r3, [r7, #4]
 5665 007a 1B68     		ldr	r3, [r3]
 5666 007c 22F00202 		bic	r2, r2, #2
 5667 0080 DA60     		str	r2, [r3, #12]
2567:Drivers/STM32F1xx_HAL_Driver/Src/stm32f1xx_hal_tim.c ****     __HAL_TIM_DISABLE_IT(htim, TIM_IT_CC2);
 5668              		.loc 1 2567 0
 5669 0082 7B68     		ldr	r3, [r7, #4]
 5670 0084 1B68     		ldr	r3, [r3]
 5671 0086 DA68     		ldr	r2, [r3, #12]
 5672 0088 7B68     		ldr	r3, [r7, #4]
 5673 008a 1B68     		ldr	r3, [r3]
 5674 008c 22F00402 		bic	r2, r2, #4
 5675 0090 DA60     		str	r2, [r3, #12]
 5676              	.L309:
2568:Drivers/STM32F1xx_HAL_Driver/Src/stm32f1xx_hal_tim.c ****   }
2569:Drivers/STM32F1xx_HAL_Driver/Src/stm32f1xx_hal_tim.c **** 
2570:Drivers/STM32F1xx_HAL_Driver/Src/stm32f1xx_hal_tim.c ****   /* Disable the Peripheral */
2571:Drivers/STM32F1xx_HAL_Driver/Src/stm32f1xx_hal_tim.c ****   __HAL_TIM_DISABLE(htim);
 5677              		.loc 1 2571 0
 5678 0092 7B68     		ldr	r3, [r7, #4]
 5679 0094 1B68     		ldr	r3, [r3]
 5680 0096 1A6A     		ldr	r2, [r3, #32]
 5681 0098 41F21113 		movw	r3, #4369
 5682 009c 1340     		ands	r3, r3, r2
 5683 009e 002B     		cmp	r3, #0
 5684 00a0 0FD1     		bne	.L311
 5685              		.loc 1 2571 0 is_stmt 0 discriminator 1
 5686 00a2 7B68     		ldr	r3, [r7, #4]
 5687 00a4 1B68     		ldr	r3, [r3]
 5688 00a6 1A6A     		ldr	r2, [r3, #32]
 5689 00a8 40F24443 		movw	r3, #1092
 5690 00ac 1340     		ands	r3, r3, r2
 5691 00ae 002B     		cmp	r3, #0
ARM GAS  /tmp/cc5HGhWi.s 			page 144


 5692 00b0 07D1     		bne	.L311
 5693              		.loc 1 2571 0 discriminator 2
 5694 00b2 7B68     		ldr	r3, [r7, #4]
 5695 00b4 1B68     		ldr	r3, [r3]
 5696 00b6 1A68     		ldr	r2, [r3]
 5697 00b8 7B68     		ldr	r3, [r7, #4]
 5698 00ba 1B68     		ldr	r3, [r3]
 5699 00bc 22F00102 		bic	r2, r2, #1
 5700 00c0 1A60     		str	r2, [r3]
 5701              	.L311:
2572:Drivers/STM32F1xx_HAL_Driver/Src/stm32f1xx_hal_tim.c **** 
2573:Drivers/STM32F1xx_HAL_Driver/Src/stm32f1xx_hal_tim.c ****   /* Change the htim state */
2574:Drivers/STM32F1xx_HAL_Driver/Src/stm32f1xx_hal_tim.c ****   htim->State = HAL_TIM_STATE_READY;
 5702              		.loc 1 2574 0 is_stmt 1
 5703 00c2 7B68     		ldr	r3, [r7, #4]
 5704 00c4 0122     		movs	r2, #1
 5705 00c6 83F83D20 		strb	r2, [r3, #61]
2575:Drivers/STM32F1xx_HAL_Driver/Src/stm32f1xx_hal_tim.c **** 
2576:Drivers/STM32F1xx_HAL_Driver/Src/stm32f1xx_hal_tim.c ****   /* Return function status */
2577:Drivers/STM32F1xx_HAL_Driver/Src/stm32f1xx_hal_tim.c ****   return HAL_OK;
 5706              		.loc 1 2577 0
 5707 00ca 0023     		movs	r3, #0
2578:Drivers/STM32F1xx_HAL_Driver/Src/stm32f1xx_hal_tim.c **** }
 5708              		.loc 1 2578 0
 5709 00cc 1846     		mov	r0, r3
 5710 00ce 0837     		adds	r7, r7, #8
 5711              	.LCFI295:
 5712              		.cfi_def_cfa_offset 8
 5713 00d0 BD46     		mov	sp, r7
 5714              	.LCFI296:
 5715              		.cfi_def_cfa_register 13
 5716              		@ sp needed
 5717 00d2 80BD     		pop	{r7, pc}
 5718              		.cfi_endproc
 5719              	.LFE121:
 5721              		.section	.text.HAL_TIM_Encoder_Start_DMA,"ax",%progbits
 5722              		.align	1
 5723              		.global	HAL_TIM_Encoder_Start_DMA
 5724              		.syntax unified
 5725              		.thumb
 5726              		.thumb_func
 5727              		.fpu softvfp
 5729              	HAL_TIM_Encoder_Start_DMA:
 5730              	.LFB122:
2579:Drivers/STM32F1xx_HAL_Driver/Src/stm32f1xx_hal_tim.c **** 
2580:Drivers/STM32F1xx_HAL_Driver/Src/stm32f1xx_hal_tim.c **** /**
2581:Drivers/STM32F1xx_HAL_Driver/Src/stm32f1xx_hal_tim.c ****   * @brief  Starts the TIM Encoder Interface in DMA mode.
2582:Drivers/STM32F1xx_HAL_Driver/Src/stm32f1xx_hal_tim.c ****   * @param  htim : TIM Encoder Interface handle
2583:Drivers/STM32F1xx_HAL_Driver/Src/stm32f1xx_hal_tim.c ****   * @param  Channel : TIM Channels to be enabled
2584:Drivers/STM32F1xx_HAL_Driver/Src/stm32f1xx_hal_tim.c ****   *          This parameter can be one of the following values:
2585:Drivers/STM32F1xx_HAL_Driver/Src/stm32f1xx_hal_tim.c ****   *            @arg TIM_CHANNEL_1: TIM Channel 1 selected
2586:Drivers/STM32F1xx_HAL_Driver/Src/stm32f1xx_hal_tim.c ****   *            @arg TIM_CHANNEL_2: TIM Channel 2 selected
2587:Drivers/STM32F1xx_HAL_Driver/Src/stm32f1xx_hal_tim.c ****   *            @arg TIM_CHANNEL_ALL: TIM Channel 1 and TIM Channel 2 are selected
2588:Drivers/STM32F1xx_HAL_Driver/Src/stm32f1xx_hal_tim.c ****   * @param  pData1 : The destination Buffer address for IC1.
2589:Drivers/STM32F1xx_HAL_Driver/Src/stm32f1xx_hal_tim.c ****   * @param  pData2 : The destination Buffer address for IC2.
2590:Drivers/STM32F1xx_HAL_Driver/Src/stm32f1xx_hal_tim.c ****   * @param  Length : The length of data to be transferred from TIM peripheral to memory.
2591:Drivers/STM32F1xx_HAL_Driver/Src/stm32f1xx_hal_tim.c ****   * @retval HAL status
ARM GAS  /tmp/cc5HGhWi.s 			page 145


2592:Drivers/STM32F1xx_HAL_Driver/Src/stm32f1xx_hal_tim.c **** */
2593:Drivers/STM32F1xx_HAL_Driver/Src/stm32f1xx_hal_tim.c **** HAL_StatusTypeDef HAL_TIM_Encoder_Start_DMA(TIM_HandleTypeDef *htim, uint32_t Channel, uint32_t *pD
2594:Drivers/STM32F1xx_HAL_Driver/Src/stm32f1xx_hal_tim.c **** {
 5731              		.loc 1 2594 0
 5732              		.cfi_startproc
 5733              		@ args = 4, pretend = 0, frame = 16
 5734              		@ frame_needed = 1, uses_anonymous_args = 0
 5735 0000 80B5     		push	{r7, lr}
 5736              	.LCFI297:
 5737              		.cfi_def_cfa_offset 8
 5738              		.cfi_offset 7, -8
 5739              		.cfi_offset 14, -4
 5740 0002 84B0     		sub	sp, sp, #16
 5741              	.LCFI298:
 5742              		.cfi_def_cfa_offset 24
 5743 0004 00AF     		add	r7, sp, #0
 5744              	.LCFI299:
 5745              		.cfi_def_cfa_register 7
 5746 0006 F860     		str	r0, [r7, #12]
 5747 0008 B960     		str	r1, [r7, #8]
 5748 000a 7A60     		str	r2, [r7, #4]
 5749 000c 3B60     		str	r3, [r7]
2595:Drivers/STM32F1xx_HAL_Driver/Src/stm32f1xx_hal_tim.c ****   /* Check the parameters */
2596:Drivers/STM32F1xx_HAL_Driver/Src/stm32f1xx_hal_tim.c ****   assert_param(IS_TIM_DMA_CC_INSTANCE(htim->Instance));
2597:Drivers/STM32F1xx_HAL_Driver/Src/stm32f1xx_hal_tim.c **** 
2598:Drivers/STM32F1xx_HAL_Driver/Src/stm32f1xx_hal_tim.c ****   if((htim->State == HAL_TIM_STATE_BUSY))
 5750              		.loc 1 2598 0
 5751 000e FB68     		ldr	r3, [r7, #12]
 5752 0010 93F83D30 		ldrb	r3, [r3, #61]
 5753 0014 DBB2     		uxtb	r3, r3
 5754 0016 022B     		cmp	r3, #2
 5755 0018 01D1     		bne	.L314
2599:Drivers/STM32F1xx_HAL_Driver/Src/stm32f1xx_hal_tim.c ****   {
2600:Drivers/STM32F1xx_HAL_Driver/Src/stm32f1xx_hal_tim.c ****      return HAL_BUSY;
 5756              		.loc 1 2600 0
 5757 001a 0223     		movs	r3, #2
 5758 001c BCE0     		b	.L315
 5759              	.L314:
2601:Drivers/STM32F1xx_HAL_Driver/Src/stm32f1xx_hal_tim.c ****   }
2602:Drivers/STM32F1xx_HAL_Driver/Src/stm32f1xx_hal_tim.c ****   else if((htim->State == HAL_TIM_STATE_READY))
 5760              		.loc 1 2602 0
 5761 001e FB68     		ldr	r3, [r7, #12]
 5762 0020 93F83D30 		ldrb	r3, [r3, #61]
 5763 0024 DBB2     		uxtb	r3, r3
 5764 0026 012B     		cmp	r3, #1
 5765 0028 0ED1     		bne	.L316
2603:Drivers/STM32F1xx_HAL_Driver/Src/stm32f1xx_hal_tim.c ****   {
2604:Drivers/STM32F1xx_HAL_Driver/Src/stm32f1xx_hal_tim.c ****     if((((pData1 == 0U) || (pData2 == 0U) )) && (Length > 0U))
 5766              		.loc 1 2604 0
 5767 002a 7B68     		ldr	r3, [r7, #4]
 5768 002c 002B     		cmp	r3, #0
 5769 002e 02D0     		beq	.L317
 5770              		.loc 1 2604 0 is_stmt 0 discriminator 2
 5771 0030 3B68     		ldr	r3, [r7]
 5772 0032 002B     		cmp	r3, #0
 5773 0034 04D1     		bne	.L318
 5774              	.L317:
ARM GAS  /tmp/cc5HGhWi.s 			page 146


 5775              		.loc 1 2604 0 discriminator 3
 5776 0036 3B8B     		ldrh	r3, [r7, #24]
 5777 0038 002B     		cmp	r3, #0
 5778 003a 01D0     		beq	.L318
2605:Drivers/STM32F1xx_HAL_Driver/Src/stm32f1xx_hal_tim.c ****     {
2606:Drivers/STM32F1xx_HAL_Driver/Src/stm32f1xx_hal_tim.c ****       return HAL_ERROR;
 5779              		.loc 1 2606 0 is_stmt 1
 5780 003c 0123     		movs	r3, #1
 5781 003e ABE0     		b	.L315
 5782              	.L318:
2607:Drivers/STM32F1xx_HAL_Driver/Src/stm32f1xx_hal_tim.c ****     }
2608:Drivers/STM32F1xx_HAL_Driver/Src/stm32f1xx_hal_tim.c ****     else
2609:Drivers/STM32F1xx_HAL_Driver/Src/stm32f1xx_hal_tim.c ****     {
2610:Drivers/STM32F1xx_HAL_Driver/Src/stm32f1xx_hal_tim.c ****       htim->State = HAL_TIM_STATE_BUSY;
 5783              		.loc 1 2610 0
 5784 0040 FB68     		ldr	r3, [r7, #12]
 5785 0042 0222     		movs	r2, #2
 5786 0044 83F83D20 		strb	r2, [r3, #61]
 5787              	.L316:
2611:Drivers/STM32F1xx_HAL_Driver/Src/stm32f1xx_hal_tim.c ****     }
2612:Drivers/STM32F1xx_HAL_Driver/Src/stm32f1xx_hal_tim.c ****   }
2613:Drivers/STM32F1xx_HAL_Driver/Src/stm32f1xx_hal_tim.c **** 
2614:Drivers/STM32F1xx_HAL_Driver/Src/stm32f1xx_hal_tim.c ****   switch (Channel)
 5788              		.loc 1 2614 0
 5789 0048 BB68     		ldr	r3, [r7, #8]
 5790 004a 042B     		cmp	r3, #4
 5791 004c 2ED0     		beq	.L320
 5792 004e 182B     		cmp	r3, #24
 5793 0050 56D0     		beq	.L321
 5794 0052 002B     		cmp	r3, #0
 5795 0054 00D0     		beq	.L322
2615:Drivers/STM32F1xx_HAL_Driver/Src/stm32f1xx_hal_tim.c ****   {
2616:Drivers/STM32F1xx_HAL_Driver/Src/stm32f1xx_hal_tim.c ****     case TIM_CHANNEL_1:
2617:Drivers/STM32F1xx_HAL_Driver/Src/stm32f1xx_hal_tim.c ****     {
2618:Drivers/STM32F1xx_HAL_Driver/Src/stm32f1xx_hal_tim.c ****       /* Set the DMA Period elapsed callback */
2619:Drivers/STM32F1xx_HAL_Driver/Src/stm32f1xx_hal_tim.c ****       htim->hdma[TIM_DMA_ID_CC1]->XferCpltCallback = TIM_DMACaptureCplt;
2620:Drivers/STM32F1xx_HAL_Driver/Src/stm32f1xx_hal_tim.c **** 
2621:Drivers/STM32F1xx_HAL_Driver/Src/stm32f1xx_hal_tim.c ****       /* Set the DMA error callback */
2622:Drivers/STM32F1xx_HAL_Driver/Src/stm32f1xx_hal_tim.c ****       htim->hdma[TIM_DMA_ID_CC1]->XferErrorCallback = TIM_DMAError ;
2623:Drivers/STM32F1xx_HAL_Driver/Src/stm32f1xx_hal_tim.c **** 
2624:Drivers/STM32F1xx_HAL_Driver/Src/stm32f1xx_hal_tim.c ****       /* Enable the DMA channel */
2625:Drivers/STM32F1xx_HAL_Driver/Src/stm32f1xx_hal_tim.c ****       HAL_DMA_Start_IT(htim->hdma[TIM_DMA_ID_CC1], (uint32_t)&htim->Instance->CCR1, (uint32_t )pDat
2626:Drivers/STM32F1xx_HAL_Driver/Src/stm32f1xx_hal_tim.c **** 
2627:Drivers/STM32F1xx_HAL_Driver/Src/stm32f1xx_hal_tim.c ****       /* Enable the TIM Input Capture DMA request */
2628:Drivers/STM32F1xx_HAL_Driver/Src/stm32f1xx_hal_tim.c ****       __HAL_TIM_ENABLE_DMA(htim, TIM_DMA_CC1);
2629:Drivers/STM32F1xx_HAL_Driver/Src/stm32f1xx_hal_tim.c **** 
2630:Drivers/STM32F1xx_HAL_Driver/Src/stm32f1xx_hal_tim.c ****       /* Enable the Peripheral */
2631:Drivers/STM32F1xx_HAL_Driver/Src/stm32f1xx_hal_tim.c ****       __HAL_TIM_ENABLE(htim);
2632:Drivers/STM32F1xx_HAL_Driver/Src/stm32f1xx_hal_tim.c **** 
2633:Drivers/STM32F1xx_HAL_Driver/Src/stm32f1xx_hal_tim.c ****       /* Enable the Capture compare channel */
2634:Drivers/STM32F1xx_HAL_Driver/Src/stm32f1xx_hal_tim.c ****       TIM_CCxChannelCmd(htim->Instance, TIM_CHANNEL_1, TIM_CCx_ENABLE);
2635:Drivers/STM32F1xx_HAL_Driver/Src/stm32f1xx_hal_tim.c ****     }
2636:Drivers/STM32F1xx_HAL_Driver/Src/stm32f1xx_hal_tim.c ****     break;
2637:Drivers/STM32F1xx_HAL_Driver/Src/stm32f1xx_hal_tim.c **** 
2638:Drivers/STM32F1xx_HAL_Driver/Src/stm32f1xx_hal_tim.c ****     case TIM_CHANNEL_2:
2639:Drivers/STM32F1xx_HAL_Driver/Src/stm32f1xx_hal_tim.c ****     {
2640:Drivers/STM32F1xx_HAL_Driver/Src/stm32f1xx_hal_tim.c ****       /* Set the DMA Period elapsed callback */
ARM GAS  /tmp/cc5HGhWi.s 			page 147


2641:Drivers/STM32F1xx_HAL_Driver/Src/stm32f1xx_hal_tim.c ****       htim->hdma[TIM_DMA_ID_CC2]->XferCpltCallback = TIM_DMACaptureCplt;
2642:Drivers/STM32F1xx_HAL_Driver/Src/stm32f1xx_hal_tim.c **** 
2643:Drivers/STM32F1xx_HAL_Driver/Src/stm32f1xx_hal_tim.c ****       /* Set the DMA error callback */
2644:Drivers/STM32F1xx_HAL_Driver/Src/stm32f1xx_hal_tim.c ****       htim->hdma[TIM_DMA_ID_CC2]->XferErrorCallback = TIM_DMAError;
2645:Drivers/STM32F1xx_HAL_Driver/Src/stm32f1xx_hal_tim.c ****       /* Enable the DMA channel */
2646:Drivers/STM32F1xx_HAL_Driver/Src/stm32f1xx_hal_tim.c ****       HAL_DMA_Start_IT(htim->hdma[TIM_DMA_ID_CC2], (uint32_t)&htim->Instance->CCR2, (uint32_t)pData
2647:Drivers/STM32F1xx_HAL_Driver/Src/stm32f1xx_hal_tim.c **** 
2648:Drivers/STM32F1xx_HAL_Driver/Src/stm32f1xx_hal_tim.c ****       /* Enable the TIM Input Capture  DMA request */
2649:Drivers/STM32F1xx_HAL_Driver/Src/stm32f1xx_hal_tim.c ****       __HAL_TIM_ENABLE_DMA(htim, TIM_DMA_CC2);
2650:Drivers/STM32F1xx_HAL_Driver/Src/stm32f1xx_hal_tim.c **** 
2651:Drivers/STM32F1xx_HAL_Driver/Src/stm32f1xx_hal_tim.c ****       /* Enable the Peripheral */
2652:Drivers/STM32F1xx_HAL_Driver/Src/stm32f1xx_hal_tim.c ****       __HAL_TIM_ENABLE(htim);
2653:Drivers/STM32F1xx_HAL_Driver/Src/stm32f1xx_hal_tim.c **** 
2654:Drivers/STM32F1xx_HAL_Driver/Src/stm32f1xx_hal_tim.c ****       /* Enable the Capture compare channel */
2655:Drivers/STM32F1xx_HAL_Driver/Src/stm32f1xx_hal_tim.c ****       TIM_CCxChannelCmd(htim->Instance, TIM_CHANNEL_2, TIM_CCx_ENABLE);
2656:Drivers/STM32F1xx_HAL_Driver/Src/stm32f1xx_hal_tim.c ****     }
2657:Drivers/STM32F1xx_HAL_Driver/Src/stm32f1xx_hal_tim.c ****     break;
2658:Drivers/STM32F1xx_HAL_Driver/Src/stm32f1xx_hal_tim.c **** 
2659:Drivers/STM32F1xx_HAL_Driver/Src/stm32f1xx_hal_tim.c ****     case TIM_CHANNEL_ALL:
2660:Drivers/STM32F1xx_HAL_Driver/Src/stm32f1xx_hal_tim.c ****     {
2661:Drivers/STM32F1xx_HAL_Driver/Src/stm32f1xx_hal_tim.c ****       /* Set the DMA Period elapsed callback */
2662:Drivers/STM32F1xx_HAL_Driver/Src/stm32f1xx_hal_tim.c ****       htim->hdma[TIM_DMA_ID_CC1]->XferCpltCallback = TIM_DMACaptureCplt;
2663:Drivers/STM32F1xx_HAL_Driver/Src/stm32f1xx_hal_tim.c **** 
2664:Drivers/STM32F1xx_HAL_Driver/Src/stm32f1xx_hal_tim.c ****       /* Set the DMA error callback */
2665:Drivers/STM32F1xx_HAL_Driver/Src/stm32f1xx_hal_tim.c ****       htim->hdma[TIM_DMA_ID_CC1]->XferErrorCallback = TIM_DMAError ;
2666:Drivers/STM32F1xx_HAL_Driver/Src/stm32f1xx_hal_tim.c **** 
2667:Drivers/STM32F1xx_HAL_Driver/Src/stm32f1xx_hal_tim.c ****       /* Enable the DMA channel */
2668:Drivers/STM32F1xx_HAL_Driver/Src/stm32f1xx_hal_tim.c ****       HAL_DMA_Start_IT(htim->hdma[TIM_DMA_ID_CC1], (uint32_t)&htim->Instance->CCR1, (uint32_t)pData
2669:Drivers/STM32F1xx_HAL_Driver/Src/stm32f1xx_hal_tim.c **** 
2670:Drivers/STM32F1xx_HAL_Driver/Src/stm32f1xx_hal_tim.c ****       /* Set the DMA Period elapsed callback */
2671:Drivers/STM32F1xx_HAL_Driver/Src/stm32f1xx_hal_tim.c ****       htim->hdma[TIM_DMA_ID_CC2]->XferCpltCallback = TIM_DMACaptureCplt;
2672:Drivers/STM32F1xx_HAL_Driver/Src/stm32f1xx_hal_tim.c **** 
2673:Drivers/STM32F1xx_HAL_Driver/Src/stm32f1xx_hal_tim.c ****       /* Set the DMA error callback */
2674:Drivers/STM32F1xx_HAL_Driver/Src/stm32f1xx_hal_tim.c ****       htim->hdma[TIM_DMA_ID_CC2]->XferErrorCallback = TIM_DMAError ;
2675:Drivers/STM32F1xx_HAL_Driver/Src/stm32f1xx_hal_tim.c **** 
2676:Drivers/STM32F1xx_HAL_Driver/Src/stm32f1xx_hal_tim.c ****       /* Enable the DMA channel */
2677:Drivers/STM32F1xx_HAL_Driver/Src/stm32f1xx_hal_tim.c ****       HAL_DMA_Start_IT(htim->hdma[TIM_DMA_ID_CC2], (uint32_t)&htim->Instance->CCR2, (uint32_t)pData
2678:Drivers/STM32F1xx_HAL_Driver/Src/stm32f1xx_hal_tim.c **** 
2679:Drivers/STM32F1xx_HAL_Driver/Src/stm32f1xx_hal_tim.c ****      /* Enable the Peripheral */
2680:Drivers/STM32F1xx_HAL_Driver/Src/stm32f1xx_hal_tim.c ****       __HAL_TIM_ENABLE(htim);
2681:Drivers/STM32F1xx_HAL_Driver/Src/stm32f1xx_hal_tim.c **** 
2682:Drivers/STM32F1xx_HAL_Driver/Src/stm32f1xx_hal_tim.c ****       /* Enable the Capture compare channel */
2683:Drivers/STM32F1xx_HAL_Driver/Src/stm32f1xx_hal_tim.c ****       TIM_CCxChannelCmd(htim->Instance, TIM_CHANNEL_1, TIM_CCx_ENABLE);
2684:Drivers/STM32F1xx_HAL_Driver/Src/stm32f1xx_hal_tim.c ****       TIM_CCxChannelCmd(htim->Instance, TIM_CHANNEL_2, TIM_CCx_ENABLE);
2685:Drivers/STM32F1xx_HAL_Driver/Src/stm32f1xx_hal_tim.c **** 
2686:Drivers/STM32F1xx_HAL_Driver/Src/stm32f1xx_hal_tim.c ****       /* Enable the TIM Input Capture  DMA request */
2687:Drivers/STM32F1xx_HAL_Driver/Src/stm32f1xx_hal_tim.c ****       __HAL_TIM_ENABLE_DMA(htim, TIM_DMA_CC1);
2688:Drivers/STM32F1xx_HAL_Driver/Src/stm32f1xx_hal_tim.c ****       /* Enable the TIM Input Capture  DMA request */
2689:Drivers/STM32F1xx_HAL_Driver/Src/stm32f1xx_hal_tim.c ****       __HAL_TIM_ENABLE_DMA(htim, TIM_DMA_CC2);
2690:Drivers/STM32F1xx_HAL_Driver/Src/stm32f1xx_hal_tim.c ****     }
2691:Drivers/STM32F1xx_HAL_Driver/Src/stm32f1xx_hal_tim.c ****     break;
2692:Drivers/STM32F1xx_HAL_Driver/Src/stm32f1xx_hal_tim.c **** 
2693:Drivers/STM32F1xx_HAL_Driver/Src/stm32f1xx_hal_tim.c ****     default:
2694:Drivers/STM32F1xx_HAL_Driver/Src/stm32f1xx_hal_tim.c ****     break;
 5796              		.loc 1 2694 0
 5797 0056 9EE0     		b	.L323
 5798              	.L322:
ARM GAS  /tmp/cc5HGhWi.s 			page 148


2619:Drivers/STM32F1xx_HAL_Driver/Src/stm32f1xx_hal_tim.c **** 
 5799              		.loc 1 2619 0
 5800 0058 FB68     		ldr	r3, [r7, #12]
 5801 005a 5B6A     		ldr	r3, [r3, #36]
 5802 005c 504A     		ldr	r2, .L324
 5803 005e 9A62     		str	r2, [r3, #40]
2622:Drivers/STM32F1xx_HAL_Driver/Src/stm32f1xx_hal_tim.c **** 
 5804              		.loc 1 2622 0
 5805 0060 FB68     		ldr	r3, [r7, #12]
 5806 0062 5B6A     		ldr	r3, [r3, #36]
 5807 0064 4F4A     		ldr	r2, .L324+4
 5808 0066 1A63     		str	r2, [r3, #48]
2625:Drivers/STM32F1xx_HAL_Driver/Src/stm32f1xx_hal_tim.c **** 
 5809              		.loc 1 2625 0
 5810 0068 FB68     		ldr	r3, [r7, #12]
 5811 006a 586A     		ldr	r0, [r3, #36]
 5812 006c FB68     		ldr	r3, [r7, #12]
 5813 006e 1B68     		ldr	r3, [r3]
 5814 0070 3433     		adds	r3, r3, #52
 5815 0072 1946     		mov	r1, r3
 5816 0074 7A68     		ldr	r2, [r7, #4]
 5817 0076 3B8B     		ldrh	r3, [r7, #24]
 5818 0078 FFF7FEFF 		bl	HAL_DMA_Start_IT
2628:Drivers/STM32F1xx_HAL_Driver/Src/stm32f1xx_hal_tim.c **** 
 5819              		.loc 1 2628 0
 5820 007c FB68     		ldr	r3, [r7, #12]
 5821 007e 1B68     		ldr	r3, [r3]
 5822 0080 DA68     		ldr	r2, [r3, #12]
 5823 0082 FB68     		ldr	r3, [r7, #12]
 5824 0084 1B68     		ldr	r3, [r3]
 5825 0086 42F40072 		orr	r2, r2, #512
 5826 008a DA60     		str	r2, [r3, #12]
2631:Drivers/STM32F1xx_HAL_Driver/Src/stm32f1xx_hal_tim.c **** 
 5827              		.loc 1 2631 0
 5828 008c FB68     		ldr	r3, [r7, #12]
 5829 008e 1B68     		ldr	r3, [r3]
 5830 0090 1A68     		ldr	r2, [r3]
 5831 0092 FB68     		ldr	r3, [r7, #12]
 5832 0094 1B68     		ldr	r3, [r3]
 5833 0096 42F00102 		orr	r2, r2, #1
 5834 009a 1A60     		str	r2, [r3]
2634:Drivers/STM32F1xx_HAL_Driver/Src/stm32f1xx_hal_tim.c ****     }
 5835              		.loc 1 2634 0
 5836 009c FB68     		ldr	r3, [r7, #12]
 5837 009e 1B68     		ldr	r3, [r3]
 5838 00a0 0122     		movs	r2, #1
 5839 00a2 0021     		movs	r1, #0
 5840 00a4 1846     		mov	r0, r3
 5841 00a6 FFF7FEFF 		bl	TIM_CCxChannelCmd
2636:Drivers/STM32F1xx_HAL_Driver/Src/stm32f1xx_hal_tim.c **** 
 5842              		.loc 1 2636 0
 5843 00aa 74E0     		b	.L323
 5844              	.L320:
2641:Drivers/STM32F1xx_HAL_Driver/Src/stm32f1xx_hal_tim.c **** 
 5845              		.loc 1 2641 0
 5846 00ac FB68     		ldr	r3, [r7, #12]
 5847 00ae 9B6A     		ldr	r3, [r3, #40]
ARM GAS  /tmp/cc5HGhWi.s 			page 149


 5848 00b0 3B4A     		ldr	r2, .L324
 5849 00b2 9A62     		str	r2, [r3, #40]
2644:Drivers/STM32F1xx_HAL_Driver/Src/stm32f1xx_hal_tim.c ****       /* Enable the DMA channel */
 5850              		.loc 1 2644 0
 5851 00b4 FB68     		ldr	r3, [r7, #12]
 5852 00b6 9B6A     		ldr	r3, [r3, #40]
 5853 00b8 3A4A     		ldr	r2, .L324+4
 5854 00ba 1A63     		str	r2, [r3, #48]
2646:Drivers/STM32F1xx_HAL_Driver/Src/stm32f1xx_hal_tim.c **** 
 5855              		.loc 1 2646 0
 5856 00bc FB68     		ldr	r3, [r7, #12]
 5857 00be 986A     		ldr	r0, [r3, #40]
 5858 00c0 FB68     		ldr	r3, [r7, #12]
 5859 00c2 1B68     		ldr	r3, [r3]
 5860 00c4 3833     		adds	r3, r3, #56
 5861 00c6 1946     		mov	r1, r3
 5862 00c8 3A68     		ldr	r2, [r7]
 5863 00ca 3B8B     		ldrh	r3, [r7, #24]
 5864 00cc FFF7FEFF 		bl	HAL_DMA_Start_IT
2649:Drivers/STM32F1xx_HAL_Driver/Src/stm32f1xx_hal_tim.c **** 
 5865              		.loc 1 2649 0
 5866 00d0 FB68     		ldr	r3, [r7, #12]
 5867 00d2 1B68     		ldr	r3, [r3]
 5868 00d4 DA68     		ldr	r2, [r3, #12]
 5869 00d6 FB68     		ldr	r3, [r7, #12]
 5870 00d8 1B68     		ldr	r3, [r3]
 5871 00da 42F48062 		orr	r2, r2, #1024
 5872 00de DA60     		str	r2, [r3, #12]
2652:Drivers/STM32F1xx_HAL_Driver/Src/stm32f1xx_hal_tim.c **** 
 5873              		.loc 1 2652 0
 5874 00e0 FB68     		ldr	r3, [r7, #12]
 5875 00e2 1B68     		ldr	r3, [r3]
 5876 00e4 1A68     		ldr	r2, [r3]
 5877 00e6 FB68     		ldr	r3, [r7, #12]
 5878 00e8 1B68     		ldr	r3, [r3]
 5879 00ea 42F00102 		orr	r2, r2, #1
 5880 00ee 1A60     		str	r2, [r3]
2655:Drivers/STM32F1xx_HAL_Driver/Src/stm32f1xx_hal_tim.c ****     }
 5881              		.loc 1 2655 0
 5882 00f0 FB68     		ldr	r3, [r7, #12]
 5883 00f2 1B68     		ldr	r3, [r3]
 5884 00f4 0122     		movs	r2, #1
 5885 00f6 0421     		movs	r1, #4
 5886 00f8 1846     		mov	r0, r3
 5887 00fa FFF7FEFF 		bl	TIM_CCxChannelCmd
2657:Drivers/STM32F1xx_HAL_Driver/Src/stm32f1xx_hal_tim.c **** 
 5888              		.loc 1 2657 0
 5889 00fe 4AE0     		b	.L323
 5890              	.L321:
2662:Drivers/STM32F1xx_HAL_Driver/Src/stm32f1xx_hal_tim.c **** 
 5891              		.loc 1 2662 0
 5892 0100 FB68     		ldr	r3, [r7, #12]
 5893 0102 5B6A     		ldr	r3, [r3, #36]
 5894 0104 264A     		ldr	r2, .L324
 5895 0106 9A62     		str	r2, [r3, #40]
2665:Drivers/STM32F1xx_HAL_Driver/Src/stm32f1xx_hal_tim.c **** 
 5896              		.loc 1 2665 0
ARM GAS  /tmp/cc5HGhWi.s 			page 150


 5897 0108 FB68     		ldr	r3, [r7, #12]
 5898 010a 5B6A     		ldr	r3, [r3, #36]
 5899 010c 254A     		ldr	r2, .L324+4
 5900 010e 1A63     		str	r2, [r3, #48]
2668:Drivers/STM32F1xx_HAL_Driver/Src/stm32f1xx_hal_tim.c **** 
 5901              		.loc 1 2668 0
 5902 0110 FB68     		ldr	r3, [r7, #12]
 5903 0112 586A     		ldr	r0, [r3, #36]
 5904 0114 FB68     		ldr	r3, [r7, #12]
 5905 0116 1B68     		ldr	r3, [r3]
 5906 0118 3433     		adds	r3, r3, #52
 5907 011a 1946     		mov	r1, r3
 5908 011c 7A68     		ldr	r2, [r7, #4]
 5909 011e 3B8B     		ldrh	r3, [r7, #24]
 5910 0120 FFF7FEFF 		bl	HAL_DMA_Start_IT
2671:Drivers/STM32F1xx_HAL_Driver/Src/stm32f1xx_hal_tim.c **** 
 5911              		.loc 1 2671 0
 5912 0124 FB68     		ldr	r3, [r7, #12]
 5913 0126 9B6A     		ldr	r3, [r3, #40]
 5914 0128 1D4A     		ldr	r2, .L324
 5915 012a 9A62     		str	r2, [r3, #40]
2674:Drivers/STM32F1xx_HAL_Driver/Src/stm32f1xx_hal_tim.c **** 
 5916              		.loc 1 2674 0
 5917 012c FB68     		ldr	r3, [r7, #12]
 5918 012e 9B6A     		ldr	r3, [r3, #40]
 5919 0130 1C4A     		ldr	r2, .L324+4
 5920 0132 1A63     		str	r2, [r3, #48]
2677:Drivers/STM32F1xx_HAL_Driver/Src/stm32f1xx_hal_tim.c **** 
 5921              		.loc 1 2677 0
 5922 0134 FB68     		ldr	r3, [r7, #12]
 5923 0136 986A     		ldr	r0, [r3, #40]
 5924 0138 FB68     		ldr	r3, [r7, #12]
 5925 013a 1B68     		ldr	r3, [r3]
 5926 013c 3833     		adds	r3, r3, #56
 5927 013e 1946     		mov	r1, r3
 5928 0140 3A68     		ldr	r2, [r7]
 5929 0142 3B8B     		ldrh	r3, [r7, #24]
 5930 0144 FFF7FEFF 		bl	HAL_DMA_Start_IT
2680:Drivers/STM32F1xx_HAL_Driver/Src/stm32f1xx_hal_tim.c **** 
 5931              		.loc 1 2680 0
 5932 0148 FB68     		ldr	r3, [r7, #12]
 5933 014a 1B68     		ldr	r3, [r3]
 5934 014c 1A68     		ldr	r2, [r3]
 5935 014e FB68     		ldr	r3, [r7, #12]
 5936 0150 1B68     		ldr	r3, [r3]
 5937 0152 42F00102 		orr	r2, r2, #1
 5938 0156 1A60     		str	r2, [r3]
2683:Drivers/STM32F1xx_HAL_Driver/Src/stm32f1xx_hal_tim.c ****       TIM_CCxChannelCmd(htim->Instance, TIM_CHANNEL_2, TIM_CCx_ENABLE);
 5939              		.loc 1 2683 0
 5940 0158 FB68     		ldr	r3, [r7, #12]
 5941 015a 1B68     		ldr	r3, [r3]
 5942 015c 0122     		movs	r2, #1
 5943 015e 0021     		movs	r1, #0
 5944 0160 1846     		mov	r0, r3
 5945 0162 FFF7FEFF 		bl	TIM_CCxChannelCmd
2684:Drivers/STM32F1xx_HAL_Driver/Src/stm32f1xx_hal_tim.c **** 
 5946              		.loc 1 2684 0
ARM GAS  /tmp/cc5HGhWi.s 			page 151


 5947 0166 FB68     		ldr	r3, [r7, #12]
 5948 0168 1B68     		ldr	r3, [r3]
 5949 016a 0122     		movs	r2, #1
 5950 016c 0421     		movs	r1, #4
 5951 016e 1846     		mov	r0, r3
 5952 0170 FFF7FEFF 		bl	TIM_CCxChannelCmd
2687:Drivers/STM32F1xx_HAL_Driver/Src/stm32f1xx_hal_tim.c ****       /* Enable the TIM Input Capture  DMA request */
 5953              		.loc 1 2687 0
 5954 0174 FB68     		ldr	r3, [r7, #12]
 5955 0176 1B68     		ldr	r3, [r3]
 5956 0178 DA68     		ldr	r2, [r3, #12]
 5957 017a FB68     		ldr	r3, [r7, #12]
 5958 017c 1B68     		ldr	r3, [r3]
 5959 017e 42F40072 		orr	r2, r2, #512
 5960 0182 DA60     		str	r2, [r3, #12]
2689:Drivers/STM32F1xx_HAL_Driver/Src/stm32f1xx_hal_tim.c ****     }
 5961              		.loc 1 2689 0
 5962 0184 FB68     		ldr	r3, [r7, #12]
 5963 0186 1B68     		ldr	r3, [r3]
 5964 0188 DA68     		ldr	r2, [r3, #12]
 5965 018a FB68     		ldr	r3, [r7, #12]
 5966 018c 1B68     		ldr	r3, [r3]
 5967 018e 42F48062 		orr	r2, r2, #1024
 5968 0192 DA60     		str	r2, [r3, #12]
2691:Drivers/STM32F1xx_HAL_Driver/Src/stm32f1xx_hal_tim.c **** 
 5969              		.loc 1 2691 0
 5970 0194 00BF     		nop
 5971              	.L323:
2695:Drivers/STM32F1xx_HAL_Driver/Src/stm32f1xx_hal_tim.c ****   }
2696:Drivers/STM32F1xx_HAL_Driver/Src/stm32f1xx_hal_tim.c ****   /* Return function status */
2697:Drivers/STM32F1xx_HAL_Driver/Src/stm32f1xx_hal_tim.c ****   return HAL_OK;
 5972              		.loc 1 2697 0
 5973 0196 0023     		movs	r3, #0
 5974              	.L315:
2698:Drivers/STM32F1xx_HAL_Driver/Src/stm32f1xx_hal_tim.c **** }
 5975              		.loc 1 2698 0
 5976 0198 1846     		mov	r0, r3
 5977 019a 1037     		adds	r7, r7, #16
 5978              	.LCFI300:
 5979              		.cfi_def_cfa_offset 8
 5980 019c BD46     		mov	sp, r7
 5981              	.LCFI301:
 5982              		.cfi_def_cfa_register 13
 5983              		@ sp needed
 5984 019e 80BD     		pop	{r7, pc}
 5985              	.L325:
 5986              		.align	2
 5987              	.L324:
 5988 01a0 00000000 		.word	TIM_DMACaptureCplt
 5989 01a4 00000000 		.word	TIM_DMAError
 5990              		.cfi_endproc
 5991              	.LFE122:
 5993              		.section	.text.HAL_TIM_Encoder_Stop_DMA,"ax",%progbits
 5994              		.align	1
 5995              		.global	HAL_TIM_Encoder_Stop_DMA
 5996              		.syntax unified
 5997              		.thumb
ARM GAS  /tmp/cc5HGhWi.s 			page 152


 5998              		.thumb_func
 5999              		.fpu softvfp
 6001              	HAL_TIM_Encoder_Stop_DMA:
 6002              	.LFB123:
2699:Drivers/STM32F1xx_HAL_Driver/Src/stm32f1xx_hal_tim.c **** 
2700:Drivers/STM32F1xx_HAL_Driver/Src/stm32f1xx_hal_tim.c **** /**
2701:Drivers/STM32F1xx_HAL_Driver/Src/stm32f1xx_hal_tim.c ****   * @brief  Stops the TIM Encoder Interface in DMA mode.
2702:Drivers/STM32F1xx_HAL_Driver/Src/stm32f1xx_hal_tim.c ****   * @param  htim : TIM Encoder Interface handle
2703:Drivers/STM32F1xx_HAL_Driver/Src/stm32f1xx_hal_tim.c ****   * @param  Channel : TIM Channels to be enabled
2704:Drivers/STM32F1xx_HAL_Driver/Src/stm32f1xx_hal_tim.c ****   *          This parameter can be one of the following values:
2705:Drivers/STM32F1xx_HAL_Driver/Src/stm32f1xx_hal_tim.c ****   *            @arg TIM_CHANNEL_1: TIM Channel 1 selected
2706:Drivers/STM32F1xx_HAL_Driver/Src/stm32f1xx_hal_tim.c ****   *            @arg TIM_CHANNEL_2: TIM Channel 2 selected
2707:Drivers/STM32F1xx_HAL_Driver/Src/stm32f1xx_hal_tim.c ****   *            @arg TIM_CHANNEL_ALL: TIM Channel 1 and TIM Channel 2 are selected
2708:Drivers/STM32F1xx_HAL_Driver/Src/stm32f1xx_hal_tim.c ****   * @retval HAL status
2709:Drivers/STM32F1xx_HAL_Driver/Src/stm32f1xx_hal_tim.c **** */
2710:Drivers/STM32F1xx_HAL_Driver/Src/stm32f1xx_hal_tim.c **** HAL_StatusTypeDef HAL_TIM_Encoder_Stop_DMA(TIM_HandleTypeDef *htim, uint32_t Channel)
2711:Drivers/STM32F1xx_HAL_Driver/Src/stm32f1xx_hal_tim.c **** {
 6003              		.loc 1 2711 0
 6004              		.cfi_startproc
 6005              		@ args = 0, pretend = 0, frame = 8
 6006              		@ frame_needed = 1, uses_anonymous_args = 0
 6007 0000 80B5     		push	{r7, lr}
 6008              	.LCFI302:
 6009              		.cfi_def_cfa_offset 8
 6010              		.cfi_offset 7, -8
 6011              		.cfi_offset 14, -4
 6012 0002 82B0     		sub	sp, sp, #8
 6013              	.LCFI303:
 6014              		.cfi_def_cfa_offset 16
 6015 0004 00AF     		add	r7, sp, #0
 6016              	.LCFI304:
 6017              		.cfi_def_cfa_register 7
 6018 0006 7860     		str	r0, [r7, #4]
 6019 0008 3960     		str	r1, [r7]
2712:Drivers/STM32F1xx_HAL_Driver/Src/stm32f1xx_hal_tim.c ****   /* Check the parameters */
2713:Drivers/STM32F1xx_HAL_Driver/Src/stm32f1xx_hal_tim.c ****   assert_param(IS_TIM_DMA_CC_INSTANCE(htim->Instance));
2714:Drivers/STM32F1xx_HAL_Driver/Src/stm32f1xx_hal_tim.c **** 
2715:Drivers/STM32F1xx_HAL_Driver/Src/stm32f1xx_hal_tim.c ****   /* Disable the Input Capture channels 1 and 2
2716:Drivers/STM32F1xx_HAL_Driver/Src/stm32f1xx_hal_tim.c ****     (in the EncoderInterface the two possible channels that can be used are TIM_CHANNEL_1 and TIM_C
2717:Drivers/STM32F1xx_HAL_Driver/Src/stm32f1xx_hal_tim.c ****   if(Channel == TIM_CHANNEL_1)
 6020              		.loc 1 2717 0
 6021 000a 3B68     		ldr	r3, [r7]
 6022 000c 002B     		cmp	r3, #0
 6023 000e 0FD1     		bne	.L327
2718:Drivers/STM32F1xx_HAL_Driver/Src/stm32f1xx_hal_tim.c ****   {
2719:Drivers/STM32F1xx_HAL_Driver/Src/stm32f1xx_hal_tim.c ****     TIM_CCxChannelCmd(htim->Instance, TIM_CHANNEL_1, TIM_CCx_DISABLE);
 6024              		.loc 1 2719 0
 6025 0010 7B68     		ldr	r3, [r7, #4]
 6026 0012 1B68     		ldr	r3, [r3]
 6027 0014 0022     		movs	r2, #0
 6028 0016 0021     		movs	r1, #0
 6029 0018 1846     		mov	r0, r3
 6030 001a FFF7FEFF 		bl	TIM_CCxChannelCmd
2720:Drivers/STM32F1xx_HAL_Driver/Src/stm32f1xx_hal_tim.c **** 
2721:Drivers/STM32F1xx_HAL_Driver/Src/stm32f1xx_hal_tim.c ****     /* Disable the capture compare DMA Request 1 */
2722:Drivers/STM32F1xx_HAL_Driver/Src/stm32f1xx_hal_tim.c ****     __HAL_TIM_DISABLE_DMA(htim, TIM_DMA_CC1);
 6031              		.loc 1 2722 0
ARM GAS  /tmp/cc5HGhWi.s 			page 153


 6032 001e 7B68     		ldr	r3, [r7, #4]
 6033 0020 1B68     		ldr	r3, [r3]
 6034 0022 DA68     		ldr	r2, [r3, #12]
 6035 0024 7B68     		ldr	r3, [r7, #4]
 6036 0026 1B68     		ldr	r3, [r3]
 6037 0028 22F40072 		bic	r2, r2, #512
 6038 002c DA60     		str	r2, [r3, #12]
 6039 002e 30E0     		b	.L328
 6040              	.L327:
2723:Drivers/STM32F1xx_HAL_Driver/Src/stm32f1xx_hal_tim.c ****   }
2724:Drivers/STM32F1xx_HAL_Driver/Src/stm32f1xx_hal_tim.c ****   else if(Channel == TIM_CHANNEL_2)
 6041              		.loc 1 2724 0
 6042 0030 3B68     		ldr	r3, [r7]
 6043 0032 042B     		cmp	r3, #4
 6044 0034 0FD1     		bne	.L329
2725:Drivers/STM32F1xx_HAL_Driver/Src/stm32f1xx_hal_tim.c ****   {
2726:Drivers/STM32F1xx_HAL_Driver/Src/stm32f1xx_hal_tim.c ****     TIM_CCxChannelCmd(htim->Instance, TIM_CHANNEL_2, TIM_CCx_DISABLE);
 6045              		.loc 1 2726 0
 6046 0036 7B68     		ldr	r3, [r7, #4]
 6047 0038 1B68     		ldr	r3, [r3]
 6048 003a 0022     		movs	r2, #0
 6049 003c 0421     		movs	r1, #4
 6050 003e 1846     		mov	r0, r3
 6051 0040 FFF7FEFF 		bl	TIM_CCxChannelCmd
2727:Drivers/STM32F1xx_HAL_Driver/Src/stm32f1xx_hal_tim.c **** 
2728:Drivers/STM32F1xx_HAL_Driver/Src/stm32f1xx_hal_tim.c ****     /* Disable the capture compare DMA Request 2 */
2729:Drivers/STM32F1xx_HAL_Driver/Src/stm32f1xx_hal_tim.c ****     __HAL_TIM_DISABLE_DMA(htim, TIM_DMA_CC2);
 6052              		.loc 1 2729 0
 6053 0044 7B68     		ldr	r3, [r7, #4]
 6054 0046 1B68     		ldr	r3, [r3]
 6055 0048 DA68     		ldr	r2, [r3, #12]
 6056 004a 7B68     		ldr	r3, [r7, #4]
 6057 004c 1B68     		ldr	r3, [r3]
 6058 004e 22F48062 		bic	r2, r2, #1024
 6059 0052 DA60     		str	r2, [r3, #12]
 6060 0054 1DE0     		b	.L328
 6061              	.L329:
2730:Drivers/STM32F1xx_HAL_Driver/Src/stm32f1xx_hal_tim.c ****   }
2731:Drivers/STM32F1xx_HAL_Driver/Src/stm32f1xx_hal_tim.c ****   else
2732:Drivers/STM32F1xx_HAL_Driver/Src/stm32f1xx_hal_tim.c ****   {
2733:Drivers/STM32F1xx_HAL_Driver/Src/stm32f1xx_hal_tim.c ****     TIM_CCxChannelCmd(htim->Instance, TIM_CHANNEL_1, TIM_CCx_DISABLE);
 6062              		.loc 1 2733 0
 6063 0056 7B68     		ldr	r3, [r7, #4]
 6064 0058 1B68     		ldr	r3, [r3]
 6065 005a 0022     		movs	r2, #0
 6066 005c 0021     		movs	r1, #0
 6067 005e 1846     		mov	r0, r3
 6068 0060 FFF7FEFF 		bl	TIM_CCxChannelCmd
2734:Drivers/STM32F1xx_HAL_Driver/Src/stm32f1xx_hal_tim.c ****     TIM_CCxChannelCmd(htim->Instance, TIM_CHANNEL_2, TIM_CCx_DISABLE);
 6069              		.loc 1 2734 0
 6070 0064 7B68     		ldr	r3, [r7, #4]
 6071 0066 1B68     		ldr	r3, [r3]
 6072 0068 0022     		movs	r2, #0
 6073 006a 0421     		movs	r1, #4
 6074 006c 1846     		mov	r0, r3
 6075 006e FFF7FEFF 		bl	TIM_CCxChannelCmd
2735:Drivers/STM32F1xx_HAL_Driver/Src/stm32f1xx_hal_tim.c **** 
ARM GAS  /tmp/cc5HGhWi.s 			page 154


2736:Drivers/STM32F1xx_HAL_Driver/Src/stm32f1xx_hal_tim.c ****     /* Disable the capture compare DMA Request 1 and 2 */
2737:Drivers/STM32F1xx_HAL_Driver/Src/stm32f1xx_hal_tim.c ****     __HAL_TIM_DISABLE_DMA(htim, TIM_DMA_CC1);
 6076              		.loc 1 2737 0
 6077 0072 7B68     		ldr	r3, [r7, #4]
 6078 0074 1B68     		ldr	r3, [r3]
 6079 0076 DA68     		ldr	r2, [r3, #12]
 6080 0078 7B68     		ldr	r3, [r7, #4]
 6081 007a 1B68     		ldr	r3, [r3]
 6082 007c 22F40072 		bic	r2, r2, #512
 6083 0080 DA60     		str	r2, [r3, #12]
2738:Drivers/STM32F1xx_HAL_Driver/Src/stm32f1xx_hal_tim.c ****     __HAL_TIM_DISABLE_DMA(htim, TIM_DMA_CC2);
 6084              		.loc 1 2738 0
 6085 0082 7B68     		ldr	r3, [r7, #4]
 6086 0084 1B68     		ldr	r3, [r3]
 6087 0086 DA68     		ldr	r2, [r3, #12]
 6088 0088 7B68     		ldr	r3, [r7, #4]
 6089 008a 1B68     		ldr	r3, [r3]
 6090 008c 22F48062 		bic	r2, r2, #1024
 6091 0090 DA60     		str	r2, [r3, #12]
 6092              	.L328:
2739:Drivers/STM32F1xx_HAL_Driver/Src/stm32f1xx_hal_tim.c ****   }
2740:Drivers/STM32F1xx_HAL_Driver/Src/stm32f1xx_hal_tim.c **** 
2741:Drivers/STM32F1xx_HAL_Driver/Src/stm32f1xx_hal_tim.c ****   /* Disable the Peripheral */
2742:Drivers/STM32F1xx_HAL_Driver/Src/stm32f1xx_hal_tim.c ****   __HAL_TIM_DISABLE(htim);
 6093              		.loc 1 2742 0
 6094 0092 7B68     		ldr	r3, [r7, #4]
 6095 0094 1B68     		ldr	r3, [r3]
 6096 0096 1A6A     		ldr	r2, [r3, #32]
 6097 0098 41F21113 		movw	r3, #4369
 6098 009c 1340     		ands	r3, r3, r2
 6099 009e 002B     		cmp	r3, #0
 6100 00a0 0FD1     		bne	.L330
 6101              		.loc 1 2742 0 is_stmt 0 discriminator 1
 6102 00a2 7B68     		ldr	r3, [r7, #4]
 6103 00a4 1B68     		ldr	r3, [r3]
 6104 00a6 1A6A     		ldr	r2, [r3, #32]
 6105 00a8 40F24443 		movw	r3, #1092
 6106 00ac 1340     		ands	r3, r3, r2
 6107 00ae 002B     		cmp	r3, #0
 6108 00b0 07D1     		bne	.L330
 6109              		.loc 1 2742 0 discriminator 2
 6110 00b2 7B68     		ldr	r3, [r7, #4]
 6111 00b4 1B68     		ldr	r3, [r3]
 6112 00b6 1A68     		ldr	r2, [r3]
 6113 00b8 7B68     		ldr	r3, [r7, #4]
 6114 00ba 1B68     		ldr	r3, [r3]
 6115 00bc 22F00102 		bic	r2, r2, #1
 6116 00c0 1A60     		str	r2, [r3]
 6117              	.L330:
2743:Drivers/STM32F1xx_HAL_Driver/Src/stm32f1xx_hal_tim.c **** 
2744:Drivers/STM32F1xx_HAL_Driver/Src/stm32f1xx_hal_tim.c ****   /* Change the htim state */
2745:Drivers/STM32F1xx_HAL_Driver/Src/stm32f1xx_hal_tim.c ****   htim->State = HAL_TIM_STATE_READY;
 6118              		.loc 1 2745 0 is_stmt 1
 6119 00c2 7B68     		ldr	r3, [r7, #4]
 6120 00c4 0122     		movs	r2, #1
 6121 00c6 83F83D20 		strb	r2, [r3, #61]
2746:Drivers/STM32F1xx_HAL_Driver/Src/stm32f1xx_hal_tim.c **** 
ARM GAS  /tmp/cc5HGhWi.s 			page 155


2747:Drivers/STM32F1xx_HAL_Driver/Src/stm32f1xx_hal_tim.c ****   /* Return function status */
2748:Drivers/STM32F1xx_HAL_Driver/Src/stm32f1xx_hal_tim.c ****   return HAL_OK;
 6122              		.loc 1 2748 0
 6123 00ca 0023     		movs	r3, #0
2749:Drivers/STM32F1xx_HAL_Driver/Src/stm32f1xx_hal_tim.c **** }
 6124              		.loc 1 2749 0
 6125 00cc 1846     		mov	r0, r3
 6126 00ce 0837     		adds	r7, r7, #8
 6127              	.LCFI305:
 6128              		.cfi_def_cfa_offset 8
 6129 00d0 BD46     		mov	sp, r7
 6130              	.LCFI306:
 6131              		.cfi_def_cfa_register 13
 6132              		@ sp needed
 6133 00d2 80BD     		pop	{r7, pc}
 6134              		.cfi_endproc
 6135              	.LFE123:
 6137              		.section	.text.HAL_TIM_IRQHandler,"ax",%progbits
 6138              		.align	1
 6139              		.global	HAL_TIM_IRQHandler
 6140              		.syntax unified
 6141              		.thumb
 6142              		.thumb_func
 6143              		.fpu softvfp
 6145              	HAL_TIM_IRQHandler:
 6146              	.LFB124:
2750:Drivers/STM32F1xx_HAL_Driver/Src/stm32f1xx_hal_tim.c **** 
2751:Drivers/STM32F1xx_HAL_Driver/Src/stm32f1xx_hal_tim.c **** /**
2752:Drivers/STM32F1xx_HAL_Driver/Src/stm32f1xx_hal_tim.c ****   * @}
2753:Drivers/STM32F1xx_HAL_Driver/Src/stm32f1xx_hal_tim.c ****   */
2754:Drivers/STM32F1xx_HAL_Driver/Src/stm32f1xx_hal_tim.c **** /** @defgroup TIM_Exported_Functions_Group7 TIM IRQ handler management 
2755:Drivers/STM32F1xx_HAL_Driver/Src/stm32f1xx_hal_tim.c ****  *  @brief    IRQ handler management 
2756:Drivers/STM32F1xx_HAL_Driver/Src/stm32f1xx_hal_tim.c ****  *
2757:Drivers/STM32F1xx_HAL_Driver/Src/stm32f1xx_hal_tim.c **** @verbatim 
2758:Drivers/STM32F1xx_HAL_Driver/Src/stm32f1xx_hal_tim.c ****   ==============================================================================
2759:Drivers/STM32F1xx_HAL_Driver/Src/stm32f1xx_hal_tim.c ****                         ##### IRQ handler management #####
2760:Drivers/STM32F1xx_HAL_Driver/Src/stm32f1xx_hal_tim.c ****   ==============================================================================
2761:Drivers/STM32F1xx_HAL_Driver/Src/stm32f1xx_hal_tim.c ****   [..]
2762:Drivers/STM32F1xx_HAL_Driver/Src/stm32f1xx_hal_tim.c ****     This section provides Timer IRQ handler function.
2763:Drivers/STM32F1xx_HAL_Driver/Src/stm32f1xx_hal_tim.c **** 
2764:Drivers/STM32F1xx_HAL_Driver/Src/stm32f1xx_hal_tim.c **** @endverbatim
2765:Drivers/STM32F1xx_HAL_Driver/Src/stm32f1xx_hal_tim.c ****   * @{
2766:Drivers/STM32F1xx_HAL_Driver/Src/stm32f1xx_hal_tim.c ****   */
2767:Drivers/STM32F1xx_HAL_Driver/Src/stm32f1xx_hal_tim.c **** /**
2768:Drivers/STM32F1xx_HAL_Driver/Src/stm32f1xx_hal_tim.c ****   * @brief  This function handles TIM interrupts requests.
2769:Drivers/STM32F1xx_HAL_Driver/Src/stm32f1xx_hal_tim.c ****   * @param  htim : TIM  handle
2770:Drivers/STM32F1xx_HAL_Driver/Src/stm32f1xx_hal_tim.c ****   * @retval None
2771:Drivers/STM32F1xx_HAL_Driver/Src/stm32f1xx_hal_tim.c ****   */
2772:Drivers/STM32F1xx_HAL_Driver/Src/stm32f1xx_hal_tim.c **** void HAL_TIM_IRQHandler(TIM_HandleTypeDef *htim)
2773:Drivers/STM32F1xx_HAL_Driver/Src/stm32f1xx_hal_tim.c **** {
 6147              		.loc 1 2773 0
 6148              		.cfi_startproc
 6149              		@ args = 0, pretend = 0, frame = 8
 6150              		@ frame_needed = 1, uses_anonymous_args = 0
 6151 0000 80B5     		push	{r7, lr}
 6152              	.LCFI307:
 6153              		.cfi_def_cfa_offset 8
ARM GAS  /tmp/cc5HGhWi.s 			page 156


 6154              		.cfi_offset 7, -8
 6155              		.cfi_offset 14, -4
 6156 0002 82B0     		sub	sp, sp, #8
 6157              	.LCFI308:
 6158              		.cfi_def_cfa_offset 16
 6159 0004 00AF     		add	r7, sp, #0
 6160              	.LCFI309:
 6161              		.cfi_def_cfa_register 7
 6162 0006 7860     		str	r0, [r7, #4]
2774:Drivers/STM32F1xx_HAL_Driver/Src/stm32f1xx_hal_tim.c ****   /* Capture compare 1 event */
2775:Drivers/STM32F1xx_HAL_Driver/Src/stm32f1xx_hal_tim.c ****   if(__HAL_TIM_GET_FLAG(htim, TIM_FLAG_CC1) != RESET)
 6163              		.loc 1 2775 0
 6164 0008 7B68     		ldr	r3, [r7, #4]
 6165 000a 1B68     		ldr	r3, [r3]
 6166 000c 1B69     		ldr	r3, [r3, #16]
 6167 000e 03F00203 		and	r3, r3, #2
 6168 0012 022B     		cmp	r3, #2
 6169 0014 22D1     		bne	.L333
2776:Drivers/STM32F1xx_HAL_Driver/Src/stm32f1xx_hal_tim.c ****   {
2777:Drivers/STM32F1xx_HAL_Driver/Src/stm32f1xx_hal_tim.c ****     if(__HAL_TIM_GET_IT_SOURCE(htim, TIM_IT_CC1) !=RESET)
 6170              		.loc 1 2777 0
 6171 0016 7B68     		ldr	r3, [r7, #4]
 6172 0018 1B68     		ldr	r3, [r3]
 6173 001a DB68     		ldr	r3, [r3, #12]
 6174 001c 03F00203 		and	r3, r3, #2
 6175 0020 022B     		cmp	r3, #2
 6176 0022 1BD1     		bne	.L333
2778:Drivers/STM32F1xx_HAL_Driver/Src/stm32f1xx_hal_tim.c ****     {
2779:Drivers/STM32F1xx_HAL_Driver/Src/stm32f1xx_hal_tim.c ****       {
2780:Drivers/STM32F1xx_HAL_Driver/Src/stm32f1xx_hal_tim.c ****         __HAL_TIM_CLEAR_IT(htim, TIM_IT_CC1);
 6177              		.loc 1 2780 0
 6178 0024 7B68     		ldr	r3, [r7, #4]
 6179 0026 1B68     		ldr	r3, [r3]
 6180 0028 6FF00202 		mvn	r2, #2
 6181 002c 1A61     		str	r2, [r3, #16]
2781:Drivers/STM32F1xx_HAL_Driver/Src/stm32f1xx_hal_tim.c ****         htim->Channel = HAL_TIM_ACTIVE_CHANNEL_1;
 6182              		.loc 1 2781 0
 6183 002e 7B68     		ldr	r3, [r7, #4]
 6184 0030 0122     		movs	r2, #1
 6185 0032 1A77     		strb	r2, [r3, #28]
2782:Drivers/STM32F1xx_HAL_Driver/Src/stm32f1xx_hal_tim.c **** 
2783:Drivers/STM32F1xx_HAL_Driver/Src/stm32f1xx_hal_tim.c ****         /* Input capture event */
2784:Drivers/STM32F1xx_HAL_Driver/Src/stm32f1xx_hal_tim.c ****         if((htim->Instance->CCMR1 & TIM_CCMR1_CC1S) != 0x00U)
 6186              		.loc 1 2784 0
 6187 0034 7B68     		ldr	r3, [r7, #4]
 6188 0036 1B68     		ldr	r3, [r3]
 6189 0038 9B69     		ldr	r3, [r3, #24]
 6190 003a 03F00303 		and	r3, r3, #3
 6191 003e 002B     		cmp	r3, #0
 6192 0040 03D0     		beq	.L334
2785:Drivers/STM32F1xx_HAL_Driver/Src/stm32f1xx_hal_tim.c ****         {
2786:Drivers/STM32F1xx_HAL_Driver/Src/stm32f1xx_hal_tim.c ****           HAL_TIM_IC_CaptureCallback(htim);
 6193              		.loc 1 2786 0
 6194 0042 7868     		ldr	r0, [r7, #4]
 6195 0044 FFF7FEFF 		bl	HAL_TIM_IC_CaptureCallback
 6196 0048 05E0     		b	.L335
 6197              	.L334:
ARM GAS  /tmp/cc5HGhWi.s 			page 157


2787:Drivers/STM32F1xx_HAL_Driver/Src/stm32f1xx_hal_tim.c ****         }
2788:Drivers/STM32F1xx_HAL_Driver/Src/stm32f1xx_hal_tim.c ****         /* Output compare event */
2789:Drivers/STM32F1xx_HAL_Driver/Src/stm32f1xx_hal_tim.c ****         else
2790:Drivers/STM32F1xx_HAL_Driver/Src/stm32f1xx_hal_tim.c ****         {
2791:Drivers/STM32F1xx_HAL_Driver/Src/stm32f1xx_hal_tim.c ****           HAL_TIM_OC_DelayElapsedCallback(htim);
 6198              		.loc 1 2791 0
 6199 004a 7868     		ldr	r0, [r7, #4]
 6200 004c FFF7FEFF 		bl	HAL_TIM_OC_DelayElapsedCallback
2792:Drivers/STM32F1xx_HAL_Driver/Src/stm32f1xx_hal_tim.c ****           HAL_TIM_PWM_PulseFinishedCallback(htim);
 6201              		.loc 1 2792 0
 6202 0050 7868     		ldr	r0, [r7, #4]
 6203 0052 FFF7FEFF 		bl	HAL_TIM_PWM_PulseFinishedCallback
 6204              	.L335:
2793:Drivers/STM32F1xx_HAL_Driver/Src/stm32f1xx_hal_tim.c ****         }
2794:Drivers/STM32F1xx_HAL_Driver/Src/stm32f1xx_hal_tim.c ****         htim->Channel = HAL_TIM_ACTIVE_CHANNEL_CLEARED;
 6205              		.loc 1 2794 0
 6206 0056 7B68     		ldr	r3, [r7, #4]
 6207 0058 0022     		movs	r2, #0
 6208 005a 1A77     		strb	r2, [r3, #28]
 6209              	.L333:
2795:Drivers/STM32F1xx_HAL_Driver/Src/stm32f1xx_hal_tim.c ****       }
2796:Drivers/STM32F1xx_HAL_Driver/Src/stm32f1xx_hal_tim.c ****     }
2797:Drivers/STM32F1xx_HAL_Driver/Src/stm32f1xx_hal_tim.c ****   }
2798:Drivers/STM32F1xx_HAL_Driver/Src/stm32f1xx_hal_tim.c ****   /* Capture compare 2 event */
2799:Drivers/STM32F1xx_HAL_Driver/Src/stm32f1xx_hal_tim.c ****   if(__HAL_TIM_GET_FLAG(htim, TIM_FLAG_CC2) != RESET)
 6210              		.loc 1 2799 0
 6211 005c 7B68     		ldr	r3, [r7, #4]
 6212 005e 1B68     		ldr	r3, [r3]
 6213 0060 1B69     		ldr	r3, [r3, #16]
 6214 0062 03F00403 		and	r3, r3, #4
 6215 0066 042B     		cmp	r3, #4
 6216 0068 22D1     		bne	.L336
2800:Drivers/STM32F1xx_HAL_Driver/Src/stm32f1xx_hal_tim.c ****   {
2801:Drivers/STM32F1xx_HAL_Driver/Src/stm32f1xx_hal_tim.c ****     if(__HAL_TIM_GET_IT_SOURCE(htim, TIM_IT_CC2) !=RESET)
 6217              		.loc 1 2801 0
 6218 006a 7B68     		ldr	r3, [r7, #4]
 6219 006c 1B68     		ldr	r3, [r3]
 6220 006e DB68     		ldr	r3, [r3, #12]
 6221 0070 03F00403 		and	r3, r3, #4
 6222 0074 042B     		cmp	r3, #4
 6223 0076 1BD1     		bne	.L336
2802:Drivers/STM32F1xx_HAL_Driver/Src/stm32f1xx_hal_tim.c ****     {
2803:Drivers/STM32F1xx_HAL_Driver/Src/stm32f1xx_hal_tim.c ****       __HAL_TIM_CLEAR_IT(htim, TIM_IT_CC2);
 6224              		.loc 1 2803 0
 6225 0078 7B68     		ldr	r3, [r7, #4]
 6226 007a 1B68     		ldr	r3, [r3]
 6227 007c 6FF00402 		mvn	r2, #4
 6228 0080 1A61     		str	r2, [r3, #16]
2804:Drivers/STM32F1xx_HAL_Driver/Src/stm32f1xx_hal_tim.c ****       htim->Channel = HAL_TIM_ACTIVE_CHANNEL_2;
 6229              		.loc 1 2804 0
 6230 0082 7B68     		ldr	r3, [r7, #4]
 6231 0084 0222     		movs	r2, #2
 6232 0086 1A77     		strb	r2, [r3, #28]
2805:Drivers/STM32F1xx_HAL_Driver/Src/stm32f1xx_hal_tim.c ****       /* Input capture event */
2806:Drivers/STM32F1xx_HAL_Driver/Src/stm32f1xx_hal_tim.c ****       if((htim->Instance->CCMR1 & TIM_CCMR1_CC2S) != 0x00U)
 6233              		.loc 1 2806 0
 6234 0088 7B68     		ldr	r3, [r7, #4]
ARM GAS  /tmp/cc5HGhWi.s 			page 158


 6235 008a 1B68     		ldr	r3, [r3]
 6236 008c 9B69     		ldr	r3, [r3, #24]
 6237 008e 03F44073 		and	r3, r3, #768
 6238 0092 002B     		cmp	r3, #0
 6239 0094 03D0     		beq	.L337
2807:Drivers/STM32F1xx_HAL_Driver/Src/stm32f1xx_hal_tim.c ****       {
2808:Drivers/STM32F1xx_HAL_Driver/Src/stm32f1xx_hal_tim.c ****         HAL_TIM_IC_CaptureCallback(htim);
 6240              		.loc 1 2808 0
 6241 0096 7868     		ldr	r0, [r7, #4]
 6242 0098 FFF7FEFF 		bl	HAL_TIM_IC_CaptureCallback
 6243 009c 05E0     		b	.L338
 6244              	.L337:
2809:Drivers/STM32F1xx_HAL_Driver/Src/stm32f1xx_hal_tim.c ****       }
2810:Drivers/STM32F1xx_HAL_Driver/Src/stm32f1xx_hal_tim.c ****       /* Output compare event */
2811:Drivers/STM32F1xx_HAL_Driver/Src/stm32f1xx_hal_tim.c ****       else
2812:Drivers/STM32F1xx_HAL_Driver/Src/stm32f1xx_hal_tim.c ****       {
2813:Drivers/STM32F1xx_HAL_Driver/Src/stm32f1xx_hal_tim.c ****         HAL_TIM_OC_DelayElapsedCallback(htim);
 6245              		.loc 1 2813 0
 6246 009e 7868     		ldr	r0, [r7, #4]
 6247 00a0 FFF7FEFF 		bl	HAL_TIM_OC_DelayElapsedCallback
2814:Drivers/STM32F1xx_HAL_Driver/Src/stm32f1xx_hal_tim.c ****         HAL_TIM_PWM_PulseFinishedCallback(htim);
 6248              		.loc 1 2814 0
 6249 00a4 7868     		ldr	r0, [r7, #4]
 6250 00a6 FFF7FEFF 		bl	HAL_TIM_PWM_PulseFinishedCallback
 6251              	.L338:
2815:Drivers/STM32F1xx_HAL_Driver/Src/stm32f1xx_hal_tim.c ****       }
2816:Drivers/STM32F1xx_HAL_Driver/Src/stm32f1xx_hal_tim.c ****       htim->Channel = HAL_TIM_ACTIVE_CHANNEL_CLEARED;
 6252              		.loc 1 2816 0
 6253 00aa 7B68     		ldr	r3, [r7, #4]
 6254 00ac 0022     		movs	r2, #0
 6255 00ae 1A77     		strb	r2, [r3, #28]
 6256              	.L336:
2817:Drivers/STM32F1xx_HAL_Driver/Src/stm32f1xx_hal_tim.c ****     }
2818:Drivers/STM32F1xx_HAL_Driver/Src/stm32f1xx_hal_tim.c ****   }
2819:Drivers/STM32F1xx_HAL_Driver/Src/stm32f1xx_hal_tim.c ****   /* Capture compare 3 event */
2820:Drivers/STM32F1xx_HAL_Driver/Src/stm32f1xx_hal_tim.c ****   if(__HAL_TIM_GET_FLAG(htim, TIM_FLAG_CC3) != RESET)
 6257              		.loc 1 2820 0
 6258 00b0 7B68     		ldr	r3, [r7, #4]
 6259 00b2 1B68     		ldr	r3, [r3]
 6260 00b4 1B69     		ldr	r3, [r3, #16]
 6261 00b6 03F00803 		and	r3, r3, #8
 6262 00ba 082B     		cmp	r3, #8
 6263 00bc 22D1     		bne	.L339
2821:Drivers/STM32F1xx_HAL_Driver/Src/stm32f1xx_hal_tim.c ****   {
2822:Drivers/STM32F1xx_HAL_Driver/Src/stm32f1xx_hal_tim.c ****     if(__HAL_TIM_GET_IT_SOURCE(htim, TIM_IT_CC3) !=RESET)
 6264              		.loc 1 2822 0
 6265 00be 7B68     		ldr	r3, [r7, #4]
 6266 00c0 1B68     		ldr	r3, [r3]
 6267 00c2 DB68     		ldr	r3, [r3, #12]
 6268 00c4 03F00803 		and	r3, r3, #8
 6269 00c8 082B     		cmp	r3, #8
 6270 00ca 1BD1     		bne	.L339
2823:Drivers/STM32F1xx_HAL_Driver/Src/stm32f1xx_hal_tim.c ****     {
2824:Drivers/STM32F1xx_HAL_Driver/Src/stm32f1xx_hal_tim.c ****       __HAL_TIM_CLEAR_IT(htim, TIM_IT_CC3);
 6271              		.loc 1 2824 0
 6272 00cc 7B68     		ldr	r3, [r7, #4]
 6273 00ce 1B68     		ldr	r3, [r3]
ARM GAS  /tmp/cc5HGhWi.s 			page 159


 6274 00d0 6FF00802 		mvn	r2, #8
 6275 00d4 1A61     		str	r2, [r3, #16]
2825:Drivers/STM32F1xx_HAL_Driver/Src/stm32f1xx_hal_tim.c ****       htim->Channel = HAL_TIM_ACTIVE_CHANNEL_3;
 6276              		.loc 1 2825 0
 6277 00d6 7B68     		ldr	r3, [r7, #4]
 6278 00d8 0422     		movs	r2, #4
 6279 00da 1A77     		strb	r2, [r3, #28]
2826:Drivers/STM32F1xx_HAL_Driver/Src/stm32f1xx_hal_tim.c ****       /* Input capture event */
2827:Drivers/STM32F1xx_HAL_Driver/Src/stm32f1xx_hal_tim.c ****       if((htim->Instance->CCMR2 & TIM_CCMR2_CC3S) != 0x00U)
 6280              		.loc 1 2827 0
 6281 00dc 7B68     		ldr	r3, [r7, #4]
 6282 00de 1B68     		ldr	r3, [r3]
 6283 00e0 DB69     		ldr	r3, [r3, #28]
 6284 00e2 03F00303 		and	r3, r3, #3
 6285 00e6 002B     		cmp	r3, #0
 6286 00e8 03D0     		beq	.L340
2828:Drivers/STM32F1xx_HAL_Driver/Src/stm32f1xx_hal_tim.c ****       {
2829:Drivers/STM32F1xx_HAL_Driver/Src/stm32f1xx_hal_tim.c ****         HAL_TIM_IC_CaptureCallback(htim);
 6287              		.loc 1 2829 0
 6288 00ea 7868     		ldr	r0, [r7, #4]
 6289 00ec FFF7FEFF 		bl	HAL_TIM_IC_CaptureCallback
 6290 00f0 05E0     		b	.L341
 6291              	.L340:
2830:Drivers/STM32F1xx_HAL_Driver/Src/stm32f1xx_hal_tim.c ****       }
2831:Drivers/STM32F1xx_HAL_Driver/Src/stm32f1xx_hal_tim.c ****       /* Output compare event */
2832:Drivers/STM32F1xx_HAL_Driver/Src/stm32f1xx_hal_tim.c ****       else
2833:Drivers/STM32F1xx_HAL_Driver/Src/stm32f1xx_hal_tim.c ****       {
2834:Drivers/STM32F1xx_HAL_Driver/Src/stm32f1xx_hal_tim.c ****         HAL_TIM_OC_DelayElapsedCallback(htim);
 6292              		.loc 1 2834 0
 6293 00f2 7868     		ldr	r0, [r7, #4]
 6294 00f4 FFF7FEFF 		bl	HAL_TIM_OC_DelayElapsedCallback
2835:Drivers/STM32F1xx_HAL_Driver/Src/stm32f1xx_hal_tim.c ****         HAL_TIM_PWM_PulseFinishedCallback(htim);
 6295              		.loc 1 2835 0
 6296 00f8 7868     		ldr	r0, [r7, #4]
 6297 00fa FFF7FEFF 		bl	HAL_TIM_PWM_PulseFinishedCallback
 6298              	.L341:
2836:Drivers/STM32F1xx_HAL_Driver/Src/stm32f1xx_hal_tim.c ****       }
2837:Drivers/STM32F1xx_HAL_Driver/Src/stm32f1xx_hal_tim.c ****       htim->Channel = HAL_TIM_ACTIVE_CHANNEL_CLEARED;
 6299              		.loc 1 2837 0
 6300 00fe 7B68     		ldr	r3, [r7, #4]
 6301 0100 0022     		movs	r2, #0
 6302 0102 1A77     		strb	r2, [r3, #28]
 6303              	.L339:
2838:Drivers/STM32F1xx_HAL_Driver/Src/stm32f1xx_hal_tim.c ****     }
2839:Drivers/STM32F1xx_HAL_Driver/Src/stm32f1xx_hal_tim.c ****   }
2840:Drivers/STM32F1xx_HAL_Driver/Src/stm32f1xx_hal_tim.c ****   /* Capture compare 4 event */
2841:Drivers/STM32F1xx_HAL_Driver/Src/stm32f1xx_hal_tim.c ****   if(__HAL_TIM_GET_FLAG(htim, TIM_FLAG_CC4) != RESET)
 6304              		.loc 1 2841 0
 6305 0104 7B68     		ldr	r3, [r7, #4]
 6306 0106 1B68     		ldr	r3, [r3]
 6307 0108 1B69     		ldr	r3, [r3, #16]
 6308 010a 03F01003 		and	r3, r3, #16
 6309 010e 102B     		cmp	r3, #16
 6310 0110 22D1     		bne	.L342
2842:Drivers/STM32F1xx_HAL_Driver/Src/stm32f1xx_hal_tim.c ****   {
2843:Drivers/STM32F1xx_HAL_Driver/Src/stm32f1xx_hal_tim.c ****     if(__HAL_TIM_GET_IT_SOURCE(htim, TIM_IT_CC4) !=RESET)
 6311              		.loc 1 2843 0
ARM GAS  /tmp/cc5HGhWi.s 			page 160


 6312 0112 7B68     		ldr	r3, [r7, #4]
 6313 0114 1B68     		ldr	r3, [r3]
 6314 0116 DB68     		ldr	r3, [r3, #12]
 6315 0118 03F01003 		and	r3, r3, #16
 6316 011c 102B     		cmp	r3, #16
 6317 011e 1BD1     		bne	.L342
2844:Drivers/STM32F1xx_HAL_Driver/Src/stm32f1xx_hal_tim.c ****     {
2845:Drivers/STM32F1xx_HAL_Driver/Src/stm32f1xx_hal_tim.c ****       __HAL_TIM_CLEAR_IT(htim, TIM_IT_CC4);
 6318              		.loc 1 2845 0
 6319 0120 7B68     		ldr	r3, [r7, #4]
 6320 0122 1B68     		ldr	r3, [r3]
 6321 0124 6FF01002 		mvn	r2, #16
 6322 0128 1A61     		str	r2, [r3, #16]
2846:Drivers/STM32F1xx_HAL_Driver/Src/stm32f1xx_hal_tim.c ****       htim->Channel = HAL_TIM_ACTIVE_CHANNEL_4;
 6323              		.loc 1 2846 0
 6324 012a 7B68     		ldr	r3, [r7, #4]
 6325 012c 0822     		movs	r2, #8
 6326 012e 1A77     		strb	r2, [r3, #28]
2847:Drivers/STM32F1xx_HAL_Driver/Src/stm32f1xx_hal_tim.c ****       /* Input capture event */
2848:Drivers/STM32F1xx_HAL_Driver/Src/stm32f1xx_hal_tim.c ****       if((htim->Instance->CCMR2 & TIM_CCMR2_CC4S) != 0x00U)
 6327              		.loc 1 2848 0
 6328 0130 7B68     		ldr	r3, [r7, #4]
 6329 0132 1B68     		ldr	r3, [r3]
 6330 0134 DB69     		ldr	r3, [r3, #28]
 6331 0136 03F44073 		and	r3, r3, #768
 6332 013a 002B     		cmp	r3, #0
 6333 013c 03D0     		beq	.L343
2849:Drivers/STM32F1xx_HAL_Driver/Src/stm32f1xx_hal_tim.c ****       {
2850:Drivers/STM32F1xx_HAL_Driver/Src/stm32f1xx_hal_tim.c ****         HAL_TIM_IC_CaptureCallback(htim);
 6334              		.loc 1 2850 0
 6335 013e 7868     		ldr	r0, [r7, #4]
 6336 0140 FFF7FEFF 		bl	HAL_TIM_IC_CaptureCallback
 6337 0144 05E0     		b	.L344
 6338              	.L343:
2851:Drivers/STM32F1xx_HAL_Driver/Src/stm32f1xx_hal_tim.c ****       }
2852:Drivers/STM32F1xx_HAL_Driver/Src/stm32f1xx_hal_tim.c ****       /* Output compare event */
2853:Drivers/STM32F1xx_HAL_Driver/Src/stm32f1xx_hal_tim.c ****       else
2854:Drivers/STM32F1xx_HAL_Driver/Src/stm32f1xx_hal_tim.c ****       {
2855:Drivers/STM32F1xx_HAL_Driver/Src/stm32f1xx_hal_tim.c ****         HAL_TIM_OC_DelayElapsedCallback(htim);
 6339              		.loc 1 2855 0
 6340 0146 7868     		ldr	r0, [r7, #4]
 6341 0148 FFF7FEFF 		bl	HAL_TIM_OC_DelayElapsedCallback
2856:Drivers/STM32F1xx_HAL_Driver/Src/stm32f1xx_hal_tim.c ****         HAL_TIM_PWM_PulseFinishedCallback(htim);
 6342              		.loc 1 2856 0
 6343 014c 7868     		ldr	r0, [r7, #4]
 6344 014e FFF7FEFF 		bl	HAL_TIM_PWM_PulseFinishedCallback
 6345              	.L344:
2857:Drivers/STM32F1xx_HAL_Driver/Src/stm32f1xx_hal_tim.c ****       }
2858:Drivers/STM32F1xx_HAL_Driver/Src/stm32f1xx_hal_tim.c ****       htim->Channel = HAL_TIM_ACTIVE_CHANNEL_CLEARED;
 6346              		.loc 1 2858 0
 6347 0152 7B68     		ldr	r3, [r7, #4]
 6348 0154 0022     		movs	r2, #0
 6349 0156 1A77     		strb	r2, [r3, #28]
 6350              	.L342:
2859:Drivers/STM32F1xx_HAL_Driver/Src/stm32f1xx_hal_tim.c ****     }
2860:Drivers/STM32F1xx_HAL_Driver/Src/stm32f1xx_hal_tim.c ****   }
2861:Drivers/STM32F1xx_HAL_Driver/Src/stm32f1xx_hal_tim.c ****   /* TIM Update event */
ARM GAS  /tmp/cc5HGhWi.s 			page 161


2862:Drivers/STM32F1xx_HAL_Driver/Src/stm32f1xx_hal_tim.c ****   if(__HAL_TIM_GET_FLAG(htim, TIM_FLAG_UPDATE) != RESET)
 6351              		.loc 1 2862 0
 6352 0158 7B68     		ldr	r3, [r7, #4]
 6353 015a 1B68     		ldr	r3, [r3]
 6354 015c 1B69     		ldr	r3, [r3, #16]
 6355 015e 03F00103 		and	r3, r3, #1
 6356 0162 012B     		cmp	r3, #1
 6357 0164 0ED1     		bne	.L345
2863:Drivers/STM32F1xx_HAL_Driver/Src/stm32f1xx_hal_tim.c ****   {
2864:Drivers/STM32F1xx_HAL_Driver/Src/stm32f1xx_hal_tim.c ****     if(__HAL_TIM_GET_IT_SOURCE(htim, TIM_IT_UPDATE) !=RESET)
 6358              		.loc 1 2864 0
 6359 0166 7B68     		ldr	r3, [r7, #4]
 6360 0168 1B68     		ldr	r3, [r3]
 6361 016a DB68     		ldr	r3, [r3, #12]
 6362 016c 03F00103 		and	r3, r3, #1
 6363 0170 012B     		cmp	r3, #1
 6364 0172 07D1     		bne	.L345
2865:Drivers/STM32F1xx_HAL_Driver/Src/stm32f1xx_hal_tim.c ****     {
2866:Drivers/STM32F1xx_HAL_Driver/Src/stm32f1xx_hal_tim.c ****       __HAL_TIM_CLEAR_IT(htim, TIM_IT_UPDATE);
 6365              		.loc 1 2866 0
 6366 0174 7B68     		ldr	r3, [r7, #4]
 6367 0176 1B68     		ldr	r3, [r3]
 6368 0178 6FF00102 		mvn	r2, #1
 6369 017c 1A61     		str	r2, [r3, #16]
2867:Drivers/STM32F1xx_HAL_Driver/Src/stm32f1xx_hal_tim.c ****       HAL_TIM_PeriodElapsedCallback(htim);
 6370              		.loc 1 2867 0
 6371 017e 7868     		ldr	r0, [r7, #4]
 6372 0180 FFF7FEFF 		bl	HAL_TIM_PeriodElapsedCallback
 6373              	.L345:
2868:Drivers/STM32F1xx_HAL_Driver/Src/stm32f1xx_hal_tim.c ****     }
2869:Drivers/STM32F1xx_HAL_Driver/Src/stm32f1xx_hal_tim.c ****   }
2870:Drivers/STM32F1xx_HAL_Driver/Src/stm32f1xx_hal_tim.c ****   /* TIM Break input event */
2871:Drivers/STM32F1xx_HAL_Driver/Src/stm32f1xx_hal_tim.c ****   if(__HAL_TIM_GET_FLAG(htim, TIM_FLAG_BREAK) != RESET)
 6374              		.loc 1 2871 0
 6375 0184 7B68     		ldr	r3, [r7, #4]
 6376 0186 1B68     		ldr	r3, [r3]
 6377 0188 1B69     		ldr	r3, [r3, #16]
 6378 018a 03F08003 		and	r3, r3, #128
 6379 018e 802B     		cmp	r3, #128
 6380 0190 0ED1     		bne	.L346
2872:Drivers/STM32F1xx_HAL_Driver/Src/stm32f1xx_hal_tim.c ****   {
2873:Drivers/STM32F1xx_HAL_Driver/Src/stm32f1xx_hal_tim.c ****     if(__HAL_TIM_GET_IT_SOURCE(htim, TIM_IT_BREAK) !=RESET)
 6381              		.loc 1 2873 0
 6382 0192 7B68     		ldr	r3, [r7, #4]
 6383 0194 1B68     		ldr	r3, [r3]
 6384 0196 DB68     		ldr	r3, [r3, #12]
 6385 0198 03F08003 		and	r3, r3, #128
 6386 019c 802B     		cmp	r3, #128
 6387 019e 07D1     		bne	.L346
2874:Drivers/STM32F1xx_HAL_Driver/Src/stm32f1xx_hal_tim.c ****     {
2875:Drivers/STM32F1xx_HAL_Driver/Src/stm32f1xx_hal_tim.c ****       __HAL_TIM_CLEAR_IT(htim, TIM_IT_BREAK);
 6388              		.loc 1 2875 0
 6389 01a0 7B68     		ldr	r3, [r7, #4]
 6390 01a2 1B68     		ldr	r3, [r3]
 6391 01a4 6FF08002 		mvn	r2, #128
 6392 01a8 1A61     		str	r2, [r3, #16]
2876:Drivers/STM32F1xx_HAL_Driver/Src/stm32f1xx_hal_tim.c ****       HAL_TIMEx_BreakCallback(htim);
ARM GAS  /tmp/cc5HGhWi.s 			page 162


 6393              		.loc 1 2876 0
 6394 01aa 7868     		ldr	r0, [r7, #4]
 6395 01ac FFF7FEFF 		bl	HAL_TIMEx_BreakCallback
 6396              	.L346:
2877:Drivers/STM32F1xx_HAL_Driver/Src/stm32f1xx_hal_tim.c ****     }
2878:Drivers/STM32F1xx_HAL_Driver/Src/stm32f1xx_hal_tim.c ****   }
2879:Drivers/STM32F1xx_HAL_Driver/Src/stm32f1xx_hal_tim.c ****   /* TIM Trigger detection event */
2880:Drivers/STM32F1xx_HAL_Driver/Src/stm32f1xx_hal_tim.c ****   if(__HAL_TIM_GET_FLAG(htim, TIM_FLAG_TRIGGER) != RESET)
 6397              		.loc 1 2880 0
 6398 01b0 7B68     		ldr	r3, [r7, #4]
 6399 01b2 1B68     		ldr	r3, [r3]
 6400 01b4 1B69     		ldr	r3, [r3, #16]
 6401 01b6 03F04003 		and	r3, r3, #64
 6402 01ba 402B     		cmp	r3, #64
 6403 01bc 0ED1     		bne	.L347
2881:Drivers/STM32F1xx_HAL_Driver/Src/stm32f1xx_hal_tim.c ****   {
2882:Drivers/STM32F1xx_HAL_Driver/Src/stm32f1xx_hal_tim.c ****     if(__HAL_TIM_GET_IT_SOURCE(htim, TIM_IT_TRIGGER) !=RESET)
 6404              		.loc 1 2882 0
 6405 01be 7B68     		ldr	r3, [r7, #4]
 6406 01c0 1B68     		ldr	r3, [r3]
 6407 01c2 DB68     		ldr	r3, [r3, #12]
 6408 01c4 03F04003 		and	r3, r3, #64
 6409 01c8 402B     		cmp	r3, #64
 6410 01ca 07D1     		bne	.L347
2883:Drivers/STM32F1xx_HAL_Driver/Src/stm32f1xx_hal_tim.c ****     {
2884:Drivers/STM32F1xx_HAL_Driver/Src/stm32f1xx_hal_tim.c ****       __HAL_TIM_CLEAR_IT(htim, TIM_IT_TRIGGER);
 6411              		.loc 1 2884 0
 6412 01cc 7B68     		ldr	r3, [r7, #4]
 6413 01ce 1B68     		ldr	r3, [r3]
 6414 01d0 6FF04002 		mvn	r2, #64
 6415 01d4 1A61     		str	r2, [r3, #16]
2885:Drivers/STM32F1xx_HAL_Driver/Src/stm32f1xx_hal_tim.c ****       HAL_TIM_TriggerCallback(htim);
 6416              		.loc 1 2885 0
 6417 01d6 7868     		ldr	r0, [r7, #4]
 6418 01d8 FFF7FEFF 		bl	HAL_TIM_TriggerCallback
 6419              	.L347:
2886:Drivers/STM32F1xx_HAL_Driver/Src/stm32f1xx_hal_tim.c ****     }
2887:Drivers/STM32F1xx_HAL_Driver/Src/stm32f1xx_hal_tim.c ****   }
2888:Drivers/STM32F1xx_HAL_Driver/Src/stm32f1xx_hal_tim.c ****   /* TIM commutation event */
2889:Drivers/STM32F1xx_HAL_Driver/Src/stm32f1xx_hal_tim.c ****   if(__HAL_TIM_GET_FLAG(htim, TIM_FLAG_COM) != RESET)
 6420              		.loc 1 2889 0
 6421 01dc 7B68     		ldr	r3, [r7, #4]
 6422 01de 1B68     		ldr	r3, [r3]
 6423 01e0 1B69     		ldr	r3, [r3, #16]
 6424 01e2 03F02003 		and	r3, r3, #32
 6425 01e6 202B     		cmp	r3, #32
 6426 01e8 0ED1     		bne	.L349
2890:Drivers/STM32F1xx_HAL_Driver/Src/stm32f1xx_hal_tim.c ****   {
2891:Drivers/STM32F1xx_HAL_Driver/Src/stm32f1xx_hal_tim.c ****     if(__HAL_TIM_GET_IT_SOURCE(htim, TIM_IT_COM) !=RESET)
 6427              		.loc 1 2891 0
 6428 01ea 7B68     		ldr	r3, [r7, #4]
 6429 01ec 1B68     		ldr	r3, [r3]
 6430 01ee DB68     		ldr	r3, [r3, #12]
 6431 01f0 03F02003 		and	r3, r3, #32
 6432 01f4 202B     		cmp	r3, #32
 6433 01f6 07D1     		bne	.L349
2892:Drivers/STM32F1xx_HAL_Driver/Src/stm32f1xx_hal_tim.c ****     {
ARM GAS  /tmp/cc5HGhWi.s 			page 163


2893:Drivers/STM32F1xx_HAL_Driver/Src/stm32f1xx_hal_tim.c ****       __HAL_TIM_CLEAR_IT(htim, TIM_FLAG_COM);
 6434              		.loc 1 2893 0
 6435 01f8 7B68     		ldr	r3, [r7, #4]
 6436 01fa 1B68     		ldr	r3, [r3]
 6437 01fc 6FF02002 		mvn	r2, #32
 6438 0200 1A61     		str	r2, [r3, #16]
2894:Drivers/STM32F1xx_HAL_Driver/Src/stm32f1xx_hal_tim.c ****       HAL_TIMEx_CommutationCallback(htim);
 6439              		.loc 1 2894 0
 6440 0202 7868     		ldr	r0, [r7, #4]
 6441 0204 FFF7FEFF 		bl	HAL_TIMEx_CommutationCallback
 6442              	.L349:
2895:Drivers/STM32F1xx_HAL_Driver/Src/stm32f1xx_hal_tim.c ****     }
2896:Drivers/STM32F1xx_HAL_Driver/Src/stm32f1xx_hal_tim.c ****   }
2897:Drivers/STM32F1xx_HAL_Driver/Src/stm32f1xx_hal_tim.c **** }
 6443              		.loc 1 2897 0
 6444 0208 00BF     		nop
 6445 020a 0837     		adds	r7, r7, #8
 6446              	.LCFI310:
 6447              		.cfi_def_cfa_offset 8
 6448 020c BD46     		mov	sp, r7
 6449              	.LCFI311:
 6450              		.cfi_def_cfa_register 13
 6451              		@ sp needed
 6452 020e 80BD     		pop	{r7, pc}
 6453              		.cfi_endproc
 6454              	.LFE124:
 6456              		.section	.text.HAL_TIM_OC_ConfigChannel,"ax",%progbits
 6457              		.align	1
 6458              		.global	HAL_TIM_OC_ConfigChannel
 6459              		.syntax unified
 6460              		.thumb
 6461              		.thumb_func
 6462              		.fpu softvfp
 6464              	HAL_TIM_OC_ConfigChannel:
 6465              	.LFB125:
2898:Drivers/STM32F1xx_HAL_Driver/Src/stm32f1xx_hal_tim.c **** 
2899:Drivers/STM32F1xx_HAL_Driver/Src/stm32f1xx_hal_tim.c **** /**
2900:Drivers/STM32F1xx_HAL_Driver/Src/stm32f1xx_hal_tim.c ****   * @}
2901:Drivers/STM32F1xx_HAL_Driver/Src/stm32f1xx_hal_tim.c ****   */
2902:Drivers/STM32F1xx_HAL_Driver/Src/stm32f1xx_hal_tim.c **** 
2903:Drivers/STM32F1xx_HAL_Driver/Src/stm32f1xx_hal_tim.c **** /** @defgroup TIM_Exported_Functions_Group8 Peripheral Control functions
2904:Drivers/STM32F1xx_HAL_Driver/Src/stm32f1xx_hal_tim.c ****  *  @brief   	Peripheral Control functions 
2905:Drivers/STM32F1xx_HAL_Driver/Src/stm32f1xx_hal_tim.c ****  *
2906:Drivers/STM32F1xx_HAL_Driver/Src/stm32f1xx_hal_tim.c **** @verbatim 
2907:Drivers/STM32F1xx_HAL_Driver/Src/stm32f1xx_hal_tim.c ****   ==============================================================================
2908:Drivers/STM32F1xx_HAL_Driver/Src/stm32f1xx_hal_tim.c ****                    ##### Peripheral Control functions #####
2909:Drivers/STM32F1xx_HAL_Driver/Src/stm32f1xx_hal_tim.c ****   ==============================================================================
2910:Drivers/STM32F1xx_HAL_Driver/Src/stm32f1xx_hal_tim.c ****  [..]
2911:Drivers/STM32F1xx_HAL_Driver/Src/stm32f1xx_hal_tim.c ****    This section provides functions allowing to:
2912:Drivers/STM32F1xx_HAL_Driver/Src/stm32f1xx_hal_tim.c ****       (+) Configure The Input Output channels for OC, PWM, IC or One Pulse mode.
2913:Drivers/STM32F1xx_HAL_Driver/Src/stm32f1xx_hal_tim.c ****       (+) Configure External Clock source.
2914:Drivers/STM32F1xx_HAL_Driver/Src/stm32f1xx_hal_tim.c ****       (+) Configure Complementary channels, break features and dead time.
2915:Drivers/STM32F1xx_HAL_Driver/Src/stm32f1xx_hal_tim.c ****       (+) Configure Master and the Slave synchronization.
2916:Drivers/STM32F1xx_HAL_Driver/Src/stm32f1xx_hal_tim.c ****       (+) Configure the DMA Burst Mode.
2917:Drivers/STM32F1xx_HAL_Driver/Src/stm32f1xx_hal_tim.c **** 
2918:Drivers/STM32F1xx_HAL_Driver/Src/stm32f1xx_hal_tim.c **** @endverbatim
2919:Drivers/STM32F1xx_HAL_Driver/Src/stm32f1xx_hal_tim.c ****   * @{
ARM GAS  /tmp/cc5HGhWi.s 			page 164


2920:Drivers/STM32F1xx_HAL_Driver/Src/stm32f1xx_hal_tim.c ****   */
2921:Drivers/STM32F1xx_HAL_Driver/Src/stm32f1xx_hal_tim.c **** 
2922:Drivers/STM32F1xx_HAL_Driver/Src/stm32f1xx_hal_tim.c **** /**
2923:Drivers/STM32F1xx_HAL_Driver/Src/stm32f1xx_hal_tim.c ****   * @brief  Initializes the TIM Output Compare Channels according to the specified
2924:Drivers/STM32F1xx_HAL_Driver/Src/stm32f1xx_hal_tim.c ****   *         parameters in the TIM_OC_InitTypeDef.
2925:Drivers/STM32F1xx_HAL_Driver/Src/stm32f1xx_hal_tim.c ****   * @param  htim : TIM Output Compare handle
2926:Drivers/STM32F1xx_HAL_Driver/Src/stm32f1xx_hal_tim.c ****   * @param  sConfig : TIM Output Compare configuration structure
2927:Drivers/STM32F1xx_HAL_Driver/Src/stm32f1xx_hal_tim.c ****   * @param  Channel : TIM Channels to be enabled
2928:Drivers/STM32F1xx_HAL_Driver/Src/stm32f1xx_hal_tim.c ****   *          This parameter can be one of the following values:
2929:Drivers/STM32F1xx_HAL_Driver/Src/stm32f1xx_hal_tim.c ****   *            @arg TIM_CHANNEL_1: TIM Channel 1 selected
2930:Drivers/STM32F1xx_HAL_Driver/Src/stm32f1xx_hal_tim.c ****   *            @arg TIM_CHANNEL_2: TIM Channel 2 selected
2931:Drivers/STM32F1xx_HAL_Driver/Src/stm32f1xx_hal_tim.c ****   *            @arg TIM_CHANNEL_3: TIM Channel 3 selected
2932:Drivers/STM32F1xx_HAL_Driver/Src/stm32f1xx_hal_tim.c ****   *            @arg TIM_CHANNEL_4: TIM Channel 4 selected 
2933:Drivers/STM32F1xx_HAL_Driver/Src/stm32f1xx_hal_tim.c ****   * @retval HAL status
2934:Drivers/STM32F1xx_HAL_Driver/Src/stm32f1xx_hal_tim.c ****   */
2935:Drivers/STM32F1xx_HAL_Driver/Src/stm32f1xx_hal_tim.c **** HAL_StatusTypeDef HAL_TIM_OC_ConfigChannel(TIM_HandleTypeDef *htim, TIM_OC_InitTypeDef* sConfig, ui
2936:Drivers/STM32F1xx_HAL_Driver/Src/stm32f1xx_hal_tim.c **** {
 6466              		.loc 1 2936 0
 6467              		.cfi_startproc
 6468              		@ args = 0, pretend = 0, frame = 16
 6469              		@ frame_needed = 1, uses_anonymous_args = 0
 6470 0000 80B5     		push	{r7, lr}
 6471              	.LCFI312:
 6472              		.cfi_def_cfa_offset 8
 6473              		.cfi_offset 7, -8
 6474              		.cfi_offset 14, -4
 6475 0002 84B0     		sub	sp, sp, #16
 6476              	.LCFI313:
 6477              		.cfi_def_cfa_offset 24
 6478 0004 00AF     		add	r7, sp, #0
 6479              	.LCFI314:
 6480              		.cfi_def_cfa_register 7
 6481 0006 F860     		str	r0, [r7, #12]
 6482 0008 B960     		str	r1, [r7, #8]
 6483 000a 7A60     		str	r2, [r7, #4]
2937:Drivers/STM32F1xx_HAL_Driver/Src/stm32f1xx_hal_tim.c ****   /* Check the parameters */
2938:Drivers/STM32F1xx_HAL_Driver/Src/stm32f1xx_hal_tim.c ****   assert_param(IS_TIM_CHANNELS(Channel));
2939:Drivers/STM32F1xx_HAL_Driver/Src/stm32f1xx_hal_tim.c ****   assert_param(IS_TIM_OC_MODE(sConfig->OCMode));
2940:Drivers/STM32F1xx_HAL_Driver/Src/stm32f1xx_hal_tim.c ****   assert_param(IS_TIM_OC_POLARITY(sConfig->OCPolarity));
2941:Drivers/STM32F1xx_HAL_Driver/Src/stm32f1xx_hal_tim.c **** 
2942:Drivers/STM32F1xx_HAL_Driver/Src/stm32f1xx_hal_tim.c ****   /* Check input state */
2943:Drivers/STM32F1xx_HAL_Driver/Src/stm32f1xx_hal_tim.c ****   __HAL_LOCK(htim);
 6484              		.loc 1 2943 0
 6485 000c FB68     		ldr	r3, [r7, #12]
 6486 000e 93F83C30 		ldrb	r3, [r3, #60]	@ zero_extendqisi2
 6487 0012 012B     		cmp	r3, #1
 6488 0014 01D1     		bne	.L351
 6489              		.loc 1 2943 0 is_stmt 0 discriminator 1
 6490 0016 0223     		movs	r3, #2
 6491 0018 4EE0     		b	.L352
 6492              	.L351:
 6493              		.loc 1 2943 0 discriminator 2
 6494 001a FB68     		ldr	r3, [r7, #12]
 6495 001c 0122     		movs	r2, #1
 6496 001e 83F83C20 		strb	r2, [r3, #60]
2944:Drivers/STM32F1xx_HAL_Driver/Src/stm32f1xx_hal_tim.c **** 
2945:Drivers/STM32F1xx_HAL_Driver/Src/stm32f1xx_hal_tim.c ****   htim->State = HAL_TIM_STATE_BUSY;
ARM GAS  /tmp/cc5HGhWi.s 			page 165


 6497              		.loc 1 2945 0 is_stmt 1 discriminator 2
 6498 0022 FB68     		ldr	r3, [r7, #12]
 6499 0024 0222     		movs	r2, #2
 6500 0026 83F83D20 		strb	r2, [r3, #61]
2946:Drivers/STM32F1xx_HAL_Driver/Src/stm32f1xx_hal_tim.c **** 
2947:Drivers/STM32F1xx_HAL_Driver/Src/stm32f1xx_hal_tim.c ****   switch (Channel)
 6501              		.loc 1 2947 0 discriminator 2
 6502 002a 7B68     		ldr	r3, [r7, #4]
 6503 002c 0C2B     		cmp	r3, #12
 6504 002e 39D8     		bhi	.L360
 6505 0030 01A2     		adr	r2, .L355
 6506 0032 52F823F0 		ldr	pc, [r2, r3, lsl #2]
 6507 0036 00BF     		.p2align 2
 6508              	.L355:
 6509 0038 6D000000 		.word	.L354+1
 6510 003c A5000000 		.word	.L360+1
 6511 0040 A5000000 		.word	.L360+1
 6512 0044 A5000000 		.word	.L360+1
 6513 0048 7B000000 		.word	.L356+1
 6514 004c A5000000 		.word	.L360+1
 6515 0050 A5000000 		.word	.L360+1
 6516 0054 A5000000 		.word	.L360+1
 6517 0058 89000000 		.word	.L357+1
 6518 005c A5000000 		.word	.L360+1
 6519 0060 A5000000 		.word	.L360+1
 6520 0064 A5000000 		.word	.L360+1
 6521 0068 97000000 		.word	.L358+1
 6522              		.p2align 1
 6523              	.L354:
2948:Drivers/STM32F1xx_HAL_Driver/Src/stm32f1xx_hal_tim.c ****   {
2949:Drivers/STM32F1xx_HAL_Driver/Src/stm32f1xx_hal_tim.c ****     case TIM_CHANNEL_1:
2950:Drivers/STM32F1xx_HAL_Driver/Src/stm32f1xx_hal_tim.c ****     {
2951:Drivers/STM32F1xx_HAL_Driver/Src/stm32f1xx_hal_tim.c ****       assert_param(IS_TIM_CC1_INSTANCE(htim->Instance));
2952:Drivers/STM32F1xx_HAL_Driver/Src/stm32f1xx_hal_tim.c ****       /* Configure the TIM Channel 1 in Output Compare */
2953:Drivers/STM32F1xx_HAL_Driver/Src/stm32f1xx_hal_tim.c ****       TIM_OC1_SetConfig(htim->Instance, sConfig);
 6524              		.loc 1 2953 0
 6525 006c FB68     		ldr	r3, [r7, #12]
 6526 006e 1B68     		ldr	r3, [r3]
 6527 0070 B968     		ldr	r1, [r7, #8]
 6528 0072 1846     		mov	r0, r3
 6529 0074 FFF7FEFF 		bl	TIM_OC1_SetConfig
2954:Drivers/STM32F1xx_HAL_Driver/Src/stm32f1xx_hal_tim.c ****     }
2955:Drivers/STM32F1xx_HAL_Driver/Src/stm32f1xx_hal_tim.c ****     break;
 6530              		.loc 1 2955 0
 6531 0078 15E0     		b	.L359
 6532              	.L356:
2956:Drivers/STM32F1xx_HAL_Driver/Src/stm32f1xx_hal_tim.c **** 
2957:Drivers/STM32F1xx_HAL_Driver/Src/stm32f1xx_hal_tim.c ****     case TIM_CHANNEL_2:
2958:Drivers/STM32F1xx_HAL_Driver/Src/stm32f1xx_hal_tim.c ****     {
2959:Drivers/STM32F1xx_HAL_Driver/Src/stm32f1xx_hal_tim.c ****       assert_param(IS_TIM_CC2_INSTANCE(htim->Instance));
2960:Drivers/STM32F1xx_HAL_Driver/Src/stm32f1xx_hal_tim.c ****       /* Configure the TIM Channel 2 in Output Compare */
2961:Drivers/STM32F1xx_HAL_Driver/Src/stm32f1xx_hal_tim.c ****       TIM_OC2_SetConfig(htim->Instance, sConfig);
 6533              		.loc 1 2961 0
 6534 007a FB68     		ldr	r3, [r7, #12]
 6535 007c 1B68     		ldr	r3, [r3]
 6536 007e B968     		ldr	r1, [r7, #8]
 6537 0080 1846     		mov	r0, r3
ARM GAS  /tmp/cc5HGhWi.s 			page 166


 6538 0082 FFF7FEFF 		bl	TIM_OC2_SetConfig
2962:Drivers/STM32F1xx_HAL_Driver/Src/stm32f1xx_hal_tim.c ****     }
2963:Drivers/STM32F1xx_HAL_Driver/Src/stm32f1xx_hal_tim.c ****     break;
 6539              		.loc 1 2963 0
 6540 0086 0EE0     		b	.L359
 6541              	.L357:
2964:Drivers/STM32F1xx_HAL_Driver/Src/stm32f1xx_hal_tim.c **** 
2965:Drivers/STM32F1xx_HAL_Driver/Src/stm32f1xx_hal_tim.c ****     case TIM_CHANNEL_3:
2966:Drivers/STM32F1xx_HAL_Driver/Src/stm32f1xx_hal_tim.c ****     {
2967:Drivers/STM32F1xx_HAL_Driver/Src/stm32f1xx_hal_tim.c ****        assert_param(IS_TIM_CC3_INSTANCE(htim->Instance));
2968:Drivers/STM32F1xx_HAL_Driver/Src/stm32f1xx_hal_tim.c ****       /* Configure the TIM Channel 3 in Output Compare */
2969:Drivers/STM32F1xx_HAL_Driver/Src/stm32f1xx_hal_tim.c ****       TIM_OC3_SetConfig(htim->Instance, sConfig);
 6542              		.loc 1 2969 0
 6543 0088 FB68     		ldr	r3, [r7, #12]
 6544 008a 1B68     		ldr	r3, [r3]
 6545 008c B968     		ldr	r1, [r7, #8]
 6546 008e 1846     		mov	r0, r3
 6547 0090 FFF7FEFF 		bl	TIM_OC3_SetConfig
2970:Drivers/STM32F1xx_HAL_Driver/Src/stm32f1xx_hal_tim.c ****     }
2971:Drivers/STM32F1xx_HAL_Driver/Src/stm32f1xx_hal_tim.c ****     break;
 6548              		.loc 1 2971 0
 6549 0094 07E0     		b	.L359
 6550              	.L358:
2972:Drivers/STM32F1xx_HAL_Driver/Src/stm32f1xx_hal_tim.c **** 
2973:Drivers/STM32F1xx_HAL_Driver/Src/stm32f1xx_hal_tim.c ****     case TIM_CHANNEL_4:
2974:Drivers/STM32F1xx_HAL_Driver/Src/stm32f1xx_hal_tim.c ****     {
2975:Drivers/STM32F1xx_HAL_Driver/Src/stm32f1xx_hal_tim.c ****       assert_param(IS_TIM_CC4_INSTANCE(htim->Instance));
2976:Drivers/STM32F1xx_HAL_Driver/Src/stm32f1xx_hal_tim.c ****        /* Configure the TIM Channel 4 in Output Compare */
2977:Drivers/STM32F1xx_HAL_Driver/Src/stm32f1xx_hal_tim.c ****        TIM_OC4_SetConfig(htim->Instance, sConfig);
 6551              		.loc 1 2977 0
 6552 0096 FB68     		ldr	r3, [r7, #12]
 6553 0098 1B68     		ldr	r3, [r3]
 6554 009a B968     		ldr	r1, [r7, #8]
 6555 009c 1846     		mov	r0, r3
 6556 009e FFF7FEFF 		bl	TIM_OC4_SetConfig
2978:Drivers/STM32F1xx_HAL_Driver/Src/stm32f1xx_hal_tim.c ****     }
2979:Drivers/STM32F1xx_HAL_Driver/Src/stm32f1xx_hal_tim.c ****     break;
 6557              		.loc 1 2979 0
 6558 00a2 00E0     		b	.L359
 6559              	.L360:
2980:Drivers/STM32F1xx_HAL_Driver/Src/stm32f1xx_hal_tim.c **** 
2981:Drivers/STM32F1xx_HAL_Driver/Src/stm32f1xx_hal_tim.c ****     default:
2982:Drivers/STM32F1xx_HAL_Driver/Src/stm32f1xx_hal_tim.c ****     break;
 6560              		.loc 1 2982 0
 6561 00a4 00BF     		nop
 6562              	.L359:
2983:Drivers/STM32F1xx_HAL_Driver/Src/stm32f1xx_hal_tim.c ****   }
2984:Drivers/STM32F1xx_HAL_Driver/Src/stm32f1xx_hal_tim.c ****   htim->State = HAL_TIM_STATE_READY;
 6563              		.loc 1 2984 0
 6564 00a6 FB68     		ldr	r3, [r7, #12]
 6565 00a8 0122     		movs	r2, #1
 6566 00aa 83F83D20 		strb	r2, [r3, #61]
2985:Drivers/STM32F1xx_HAL_Driver/Src/stm32f1xx_hal_tim.c **** 
2986:Drivers/STM32F1xx_HAL_Driver/Src/stm32f1xx_hal_tim.c ****   __HAL_UNLOCK(htim);
 6567              		.loc 1 2986 0
 6568 00ae FB68     		ldr	r3, [r7, #12]
 6569 00b0 0022     		movs	r2, #0
ARM GAS  /tmp/cc5HGhWi.s 			page 167


 6570 00b2 83F83C20 		strb	r2, [r3, #60]
2987:Drivers/STM32F1xx_HAL_Driver/Src/stm32f1xx_hal_tim.c **** 
2988:Drivers/STM32F1xx_HAL_Driver/Src/stm32f1xx_hal_tim.c ****   return HAL_OK;
 6571              		.loc 1 2988 0
 6572 00b6 0023     		movs	r3, #0
 6573              	.L352:
2989:Drivers/STM32F1xx_HAL_Driver/Src/stm32f1xx_hal_tim.c **** }
 6574              		.loc 1 2989 0
 6575 00b8 1846     		mov	r0, r3
 6576 00ba 1037     		adds	r7, r7, #16
 6577              	.LCFI315:
 6578              		.cfi_def_cfa_offset 8
 6579 00bc BD46     		mov	sp, r7
 6580              	.LCFI316:
 6581              		.cfi_def_cfa_register 13
 6582              		@ sp needed
 6583 00be 80BD     		pop	{r7, pc}
 6584              		.cfi_endproc
 6585              	.LFE125:
 6587              		.section	.text.HAL_TIM_IC_ConfigChannel,"ax",%progbits
 6588              		.align	1
 6589              		.global	HAL_TIM_IC_ConfigChannel
 6590              		.syntax unified
 6591              		.thumb
 6592              		.thumb_func
 6593              		.fpu softvfp
 6595              	HAL_TIM_IC_ConfigChannel:
 6596              	.LFB126:
2990:Drivers/STM32F1xx_HAL_Driver/Src/stm32f1xx_hal_tim.c **** 
2991:Drivers/STM32F1xx_HAL_Driver/Src/stm32f1xx_hal_tim.c **** /**
2992:Drivers/STM32F1xx_HAL_Driver/Src/stm32f1xx_hal_tim.c ****   * @brief  Initializes the TIM Input Capture Channels according to the specified
2993:Drivers/STM32F1xx_HAL_Driver/Src/stm32f1xx_hal_tim.c ****   *         parameters in the TIM_IC_InitTypeDef.
2994:Drivers/STM32F1xx_HAL_Driver/Src/stm32f1xx_hal_tim.c ****   * @param  htim : TIM IC handle
2995:Drivers/STM32F1xx_HAL_Driver/Src/stm32f1xx_hal_tim.c ****   * @param  sConfig : TIM Input Capture configuration structure
2996:Drivers/STM32F1xx_HAL_Driver/Src/stm32f1xx_hal_tim.c ****   * @param  Channel : TIM Channels to be enabled
2997:Drivers/STM32F1xx_HAL_Driver/Src/stm32f1xx_hal_tim.c ****   *          This parameter can be one of the following values:
2998:Drivers/STM32F1xx_HAL_Driver/Src/stm32f1xx_hal_tim.c ****   *            @arg TIM_CHANNEL_1: TIM Channel 1 selected
2999:Drivers/STM32F1xx_HAL_Driver/Src/stm32f1xx_hal_tim.c ****   *            @arg TIM_CHANNEL_2: TIM Channel 2 selected
3000:Drivers/STM32F1xx_HAL_Driver/Src/stm32f1xx_hal_tim.c ****   *            @arg TIM_CHANNEL_3: TIM Channel 3 selected
3001:Drivers/STM32F1xx_HAL_Driver/Src/stm32f1xx_hal_tim.c ****   *            @arg TIM_CHANNEL_4: TIM Channel 4 selected 
3002:Drivers/STM32F1xx_HAL_Driver/Src/stm32f1xx_hal_tim.c ****   * @retval HAL status
3003:Drivers/STM32F1xx_HAL_Driver/Src/stm32f1xx_hal_tim.c ****   */
3004:Drivers/STM32F1xx_HAL_Driver/Src/stm32f1xx_hal_tim.c **** HAL_StatusTypeDef HAL_TIM_IC_ConfigChannel(TIM_HandleTypeDef *htim, TIM_IC_InitTypeDef* sConfig, ui
3005:Drivers/STM32F1xx_HAL_Driver/Src/stm32f1xx_hal_tim.c **** {
 6597              		.loc 1 3005 0
 6598              		.cfi_startproc
 6599              		@ args = 0, pretend = 0, frame = 16
 6600              		@ frame_needed = 1, uses_anonymous_args = 0
 6601 0000 80B5     		push	{r7, lr}
 6602              	.LCFI317:
 6603              		.cfi_def_cfa_offset 8
 6604              		.cfi_offset 7, -8
 6605              		.cfi_offset 14, -4
 6606 0002 84B0     		sub	sp, sp, #16
 6607              	.LCFI318:
 6608              		.cfi_def_cfa_offset 24
 6609 0004 00AF     		add	r7, sp, #0
ARM GAS  /tmp/cc5HGhWi.s 			page 168


 6610              	.LCFI319:
 6611              		.cfi_def_cfa_register 7
 6612 0006 F860     		str	r0, [r7, #12]
 6613 0008 B960     		str	r1, [r7, #8]
 6614 000a 7A60     		str	r2, [r7, #4]
3006:Drivers/STM32F1xx_HAL_Driver/Src/stm32f1xx_hal_tim.c ****   /* Check the parameters */
3007:Drivers/STM32F1xx_HAL_Driver/Src/stm32f1xx_hal_tim.c ****   assert_param(IS_TIM_CC1_INSTANCE(htim->Instance));
3008:Drivers/STM32F1xx_HAL_Driver/Src/stm32f1xx_hal_tim.c ****   assert_param(IS_TIM_IC_POLARITY(sConfig->ICPolarity));
3009:Drivers/STM32F1xx_HAL_Driver/Src/stm32f1xx_hal_tim.c ****   assert_param(IS_TIM_IC_SELECTION(sConfig->ICSelection));
3010:Drivers/STM32F1xx_HAL_Driver/Src/stm32f1xx_hal_tim.c ****   assert_param(IS_TIM_IC_PRESCALER(sConfig->ICPrescaler));
3011:Drivers/STM32F1xx_HAL_Driver/Src/stm32f1xx_hal_tim.c ****   assert_param(IS_TIM_IC_FILTER(sConfig->ICFilter));
3012:Drivers/STM32F1xx_HAL_Driver/Src/stm32f1xx_hal_tim.c **** 
3013:Drivers/STM32F1xx_HAL_Driver/Src/stm32f1xx_hal_tim.c ****   __HAL_LOCK(htim);
 6615              		.loc 1 3013 0
 6616 000c FB68     		ldr	r3, [r7, #12]
 6617 000e 93F83C30 		ldrb	r3, [r3, #60]	@ zero_extendqisi2
 6618 0012 012B     		cmp	r3, #1
 6619 0014 01D1     		bne	.L362
 6620              		.loc 1 3013 0 is_stmt 0 discriminator 1
 6621 0016 0223     		movs	r3, #2
 6622 0018 8AE0     		b	.L363
 6623              	.L362:
 6624              		.loc 1 3013 0 discriminator 2
 6625 001a FB68     		ldr	r3, [r7, #12]
 6626 001c 0122     		movs	r2, #1
 6627 001e 83F83C20 		strb	r2, [r3, #60]
3014:Drivers/STM32F1xx_HAL_Driver/Src/stm32f1xx_hal_tim.c **** 
3015:Drivers/STM32F1xx_HAL_Driver/Src/stm32f1xx_hal_tim.c ****   htim->State = HAL_TIM_STATE_BUSY;
 6628              		.loc 1 3015 0 is_stmt 1 discriminator 2
 6629 0022 FB68     		ldr	r3, [r7, #12]
 6630 0024 0222     		movs	r2, #2
 6631 0026 83F83D20 		strb	r2, [r3, #61]
3016:Drivers/STM32F1xx_HAL_Driver/Src/stm32f1xx_hal_tim.c **** 
3017:Drivers/STM32F1xx_HAL_Driver/Src/stm32f1xx_hal_tim.c ****   if (Channel == TIM_CHANNEL_1)
 6632              		.loc 1 3017 0 discriminator 2
 6633 002a 7B68     		ldr	r3, [r7, #4]
 6634 002c 002B     		cmp	r3, #0
 6635 002e 1BD1     		bne	.L364
3018:Drivers/STM32F1xx_HAL_Driver/Src/stm32f1xx_hal_tim.c ****   {
3019:Drivers/STM32F1xx_HAL_Driver/Src/stm32f1xx_hal_tim.c ****     /* TI1 Configuration */
3020:Drivers/STM32F1xx_HAL_Driver/Src/stm32f1xx_hal_tim.c ****     TIM_TI1_SetConfig(htim->Instance,
 6636              		.loc 1 3020 0
 6637 0030 FB68     		ldr	r3, [r7, #12]
 6638 0032 1868     		ldr	r0, [r3]
 6639 0034 BB68     		ldr	r3, [r7, #8]
 6640 0036 1968     		ldr	r1, [r3]
 6641 0038 BB68     		ldr	r3, [r7, #8]
 6642 003a 5A68     		ldr	r2, [r3, #4]
 6643 003c BB68     		ldr	r3, [r7, #8]
 6644 003e DB68     		ldr	r3, [r3, #12]
 6645 0040 FFF7FEFF 		bl	TIM_TI1_SetConfig
3021:Drivers/STM32F1xx_HAL_Driver/Src/stm32f1xx_hal_tim.c ****                sConfig->ICPolarity,
3022:Drivers/STM32F1xx_HAL_Driver/Src/stm32f1xx_hal_tim.c ****                sConfig->ICSelection,
3023:Drivers/STM32F1xx_HAL_Driver/Src/stm32f1xx_hal_tim.c ****                sConfig->ICFilter);
3024:Drivers/STM32F1xx_HAL_Driver/Src/stm32f1xx_hal_tim.c **** 
3025:Drivers/STM32F1xx_HAL_Driver/Src/stm32f1xx_hal_tim.c ****     /* Reset the IC1PSC Bits */
3026:Drivers/STM32F1xx_HAL_Driver/Src/stm32f1xx_hal_tim.c ****     htim->Instance->CCMR1 &= ~TIM_CCMR1_IC1PSC;
ARM GAS  /tmp/cc5HGhWi.s 			page 169


 6646              		.loc 1 3026 0
 6647 0044 FB68     		ldr	r3, [r7, #12]
 6648 0046 1B68     		ldr	r3, [r3]
 6649 0048 9A69     		ldr	r2, [r3, #24]
 6650 004a FB68     		ldr	r3, [r7, #12]
 6651 004c 1B68     		ldr	r3, [r3]
 6652 004e 22F00C02 		bic	r2, r2, #12
 6653 0052 9A61     		str	r2, [r3, #24]
3027:Drivers/STM32F1xx_HAL_Driver/Src/stm32f1xx_hal_tim.c **** 
3028:Drivers/STM32F1xx_HAL_Driver/Src/stm32f1xx_hal_tim.c ****     /* Set the IC1PSC value */
3029:Drivers/STM32F1xx_HAL_Driver/Src/stm32f1xx_hal_tim.c ****     htim->Instance->CCMR1 |= sConfig->ICPrescaler;
 6654              		.loc 1 3029 0
 6655 0054 FB68     		ldr	r3, [r7, #12]
 6656 0056 1B68     		ldr	r3, [r3]
 6657 0058 9969     		ldr	r1, [r3, #24]
 6658 005a BB68     		ldr	r3, [r7, #8]
 6659 005c 9A68     		ldr	r2, [r3, #8]
 6660 005e FB68     		ldr	r3, [r7, #12]
 6661 0060 1B68     		ldr	r3, [r3]
 6662 0062 0A43     		orrs	r2, r2, r1
 6663 0064 9A61     		str	r2, [r3, #24]
 6664 0066 5AE0     		b	.L365
 6665              	.L364:
3030:Drivers/STM32F1xx_HAL_Driver/Src/stm32f1xx_hal_tim.c ****   }
3031:Drivers/STM32F1xx_HAL_Driver/Src/stm32f1xx_hal_tim.c ****   else if (Channel == TIM_CHANNEL_2)
 6666              		.loc 1 3031 0
 6667 0068 7B68     		ldr	r3, [r7, #4]
 6668 006a 042B     		cmp	r3, #4
 6669 006c 1CD1     		bne	.L366
3032:Drivers/STM32F1xx_HAL_Driver/Src/stm32f1xx_hal_tim.c ****   {
3033:Drivers/STM32F1xx_HAL_Driver/Src/stm32f1xx_hal_tim.c ****     /* TI2 Configuration */
3034:Drivers/STM32F1xx_HAL_Driver/Src/stm32f1xx_hal_tim.c ****     assert_param(IS_TIM_CC2_INSTANCE(htim->Instance));
3035:Drivers/STM32F1xx_HAL_Driver/Src/stm32f1xx_hal_tim.c **** 
3036:Drivers/STM32F1xx_HAL_Driver/Src/stm32f1xx_hal_tim.c ****     TIM_TI2_SetConfig(htim->Instance,
 6670              		.loc 1 3036 0
 6671 006e FB68     		ldr	r3, [r7, #12]
 6672 0070 1868     		ldr	r0, [r3]
 6673 0072 BB68     		ldr	r3, [r7, #8]
 6674 0074 1968     		ldr	r1, [r3]
 6675 0076 BB68     		ldr	r3, [r7, #8]
 6676 0078 5A68     		ldr	r2, [r3, #4]
 6677 007a BB68     		ldr	r3, [r7, #8]
 6678 007c DB68     		ldr	r3, [r3, #12]
 6679 007e FFF7FEFF 		bl	TIM_TI2_SetConfig
3037:Drivers/STM32F1xx_HAL_Driver/Src/stm32f1xx_hal_tim.c ****                       sConfig->ICPolarity,
3038:Drivers/STM32F1xx_HAL_Driver/Src/stm32f1xx_hal_tim.c ****                       sConfig->ICSelection,
3039:Drivers/STM32F1xx_HAL_Driver/Src/stm32f1xx_hal_tim.c ****                       sConfig->ICFilter);
3040:Drivers/STM32F1xx_HAL_Driver/Src/stm32f1xx_hal_tim.c **** 
3041:Drivers/STM32F1xx_HAL_Driver/Src/stm32f1xx_hal_tim.c ****     /* Reset the IC2PSC Bits */
3042:Drivers/STM32F1xx_HAL_Driver/Src/stm32f1xx_hal_tim.c ****     htim->Instance->CCMR1 &= ~TIM_CCMR1_IC2PSC;
 6680              		.loc 1 3042 0
 6681 0082 FB68     		ldr	r3, [r7, #12]
 6682 0084 1B68     		ldr	r3, [r3]
 6683 0086 9A69     		ldr	r2, [r3, #24]
 6684 0088 FB68     		ldr	r3, [r7, #12]
 6685 008a 1B68     		ldr	r3, [r3]
 6686 008c 22F44062 		bic	r2, r2, #3072
ARM GAS  /tmp/cc5HGhWi.s 			page 170


 6687 0090 9A61     		str	r2, [r3, #24]
3043:Drivers/STM32F1xx_HAL_Driver/Src/stm32f1xx_hal_tim.c **** 
3044:Drivers/STM32F1xx_HAL_Driver/Src/stm32f1xx_hal_tim.c ****     /* Set the IC2PSC value */
3045:Drivers/STM32F1xx_HAL_Driver/Src/stm32f1xx_hal_tim.c ****     htim->Instance->CCMR1 |= (sConfig->ICPrescaler << 8U);
 6688              		.loc 1 3045 0
 6689 0092 FB68     		ldr	r3, [r7, #12]
 6690 0094 1B68     		ldr	r3, [r3]
 6691 0096 9969     		ldr	r1, [r3, #24]
 6692 0098 BB68     		ldr	r3, [r7, #8]
 6693 009a 9B68     		ldr	r3, [r3, #8]
 6694 009c 1A02     		lsls	r2, r3, #8
 6695 009e FB68     		ldr	r3, [r7, #12]
 6696 00a0 1B68     		ldr	r3, [r3]
 6697 00a2 0A43     		orrs	r2, r2, r1
 6698 00a4 9A61     		str	r2, [r3, #24]
 6699 00a6 3AE0     		b	.L365
 6700              	.L366:
3046:Drivers/STM32F1xx_HAL_Driver/Src/stm32f1xx_hal_tim.c ****   }
3047:Drivers/STM32F1xx_HAL_Driver/Src/stm32f1xx_hal_tim.c ****   else if (Channel == TIM_CHANNEL_3)
 6701              		.loc 1 3047 0
 6702 00a8 7B68     		ldr	r3, [r7, #4]
 6703 00aa 082B     		cmp	r3, #8
 6704 00ac 1BD1     		bne	.L367
3048:Drivers/STM32F1xx_HAL_Driver/Src/stm32f1xx_hal_tim.c ****   {
3049:Drivers/STM32F1xx_HAL_Driver/Src/stm32f1xx_hal_tim.c ****     /* TI3 Configuration */
3050:Drivers/STM32F1xx_HAL_Driver/Src/stm32f1xx_hal_tim.c ****     assert_param(IS_TIM_CC3_INSTANCE(htim->Instance));
3051:Drivers/STM32F1xx_HAL_Driver/Src/stm32f1xx_hal_tim.c **** 
3052:Drivers/STM32F1xx_HAL_Driver/Src/stm32f1xx_hal_tim.c ****     TIM_TI3_SetConfig(htim->Instance,
 6705              		.loc 1 3052 0
 6706 00ae FB68     		ldr	r3, [r7, #12]
 6707 00b0 1868     		ldr	r0, [r3]
 6708 00b2 BB68     		ldr	r3, [r7, #8]
 6709 00b4 1968     		ldr	r1, [r3]
 6710 00b6 BB68     		ldr	r3, [r7, #8]
 6711 00b8 5A68     		ldr	r2, [r3, #4]
 6712 00ba BB68     		ldr	r3, [r7, #8]
 6713 00bc DB68     		ldr	r3, [r3, #12]
 6714 00be FFF7FEFF 		bl	TIM_TI3_SetConfig
3053:Drivers/STM32F1xx_HAL_Driver/Src/stm32f1xx_hal_tim.c ****                sConfig->ICPolarity,
3054:Drivers/STM32F1xx_HAL_Driver/Src/stm32f1xx_hal_tim.c ****                sConfig->ICSelection,
3055:Drivers/STM32F1xx_HAL_Driver/Src/stm32f1xx_hal_tim.c ****                sConfig->ICFilter);
3056:Drivers/STM32F1xx_HAL_Driver/Src/stm32f1xx_hal_tim.c **** 
3057:Drivers/STM32F1xx_HAL_Driver/Src/stm32f1xx_hal_tim.c ****     /* Reset the IC3PSC Bits */
3058:Drivers/STM32F1xx_HAL_Driver/Src/stm32f1xx_hal_tim.c ****     htim->Instance->CCMR2 &= ~TIM_CCMR2_IC3PSC;
 6715              		.loc 1 3058 0
 6716 00c2 FB68     		ldr	r3, [r7, #12]
 6717 00c4 1B68     		ldr	r3, [r3]
 6718 00c6 DA69     		ldr	r2, [r3, #28]
 6719 00c8 FB68     		ldr	r3, [r7, #12]
 6720 00ca 1B68     		ldr	r3, [r3]
 6721 00cc 22F00C02 		bic	r2, r2, #12
 6722 00d0 DA61     		str	r2, [r3, #28]
3059:Drivers/STM32F1xx_HAL_Driver/Src/stm32f1xx_hal_tim.c **** 
3060:Drivers/STM32F1xx_HAL_Driver/Src/stm32f1xx_hal_tim.c ****     /* Set the IC3PSC value */
3061:Drivers/STM32F1xx_HAL_Driver/Src/stm32f1xx_hal_tim.c ****     htim->Instance->CCMR2 |= sConfig->ICPrescaler;
 6723              		.loc 1 3061 0
 6724 00d2 FB68     		ldr	r3, [r7, #12]
ARM GAS  /tmp/cc5HGhWi.s 			page 171


 6725 00d4 1B68     		ldr	r3, [r3]
 6726 00d6 D969     		ldr	r1, [r3, #28]
 6727 00d8 BB68     		ldr	r3, [r7, #8]
 6728 00da 9A68     		ldr	r2, [r3, #8]
 6729 00dc FB68     		ldr	r3, [r7, #12]
 6730 00de 1B68     		ldr	r3, [r3]
 6731 00e0 0A43     		orrs	r2, r2, r1
 6732 00e2 DA61     		str	r2, [r3, #28]
 6733 00e4 1BE0     		b	.L365
 6734              	.L367:
3062:Drivers/STM32F1xx_HAL_Driver/Src/stm32f1xx_hal_tim.c ****   }
3063:Drivers/STM32F1xx_HAL_Driver/Src/stm32f1xx_hal_tim.c ****   else
3064:Drivers/STM32F1xx_HAL_Driver/Src/stm32f1xx_hal_tim.c ****   {
3065:Drivers/STM32F1xx_HAL_Driver/Src/stm32f1xx_hal_tim.c ****     /* TI4 Configuration */
3066:Drivers/STM32F1xx_HAL_Driver/Src/stm32f1xx_hal_tim.c ****     assert_param(IS_TIM_CC4_INSTANCE(htim->Instance));
3067:Drivers/STM32F1xx_HAL_Driver/Src/stm32f1xx_hal_tim.c **** 
3068:Drivers/STM32F1xx_HAL_Driver/Src/stm32f1xx_hal_tim.c ****     TIM_TI4_SetConfig(htim->Instance,
 6735              		.loc 1 3068 0
 6736 00e6 FB68     		ldr	r3, [r7, #12]
 6737 00e8 1868     		ldr	r0, [r3]
 6738 00ea BB68     		ldr	r3, [r7, #8]
 6739 00ec 1968     		ldr	r1, [r3]
 6740 00ee BB68     		ldr	r3, [r7, #8]
 6741 00f0 5A68     		ldr	r2, [r3, #4]
 6742 00f2 BB68     		ldr	r3, [r7, #8]
 6743 00f4 DB68     		ldr	r3, [r3, #12]
 6744 00f6 FFF7FEFF 		bl	TIM_TI4_SetConfig
3069:Drivers/STM32F1xx_HAL_Driver/Src/stm32f1xx_hal_tim.c ****                sConfig->ICPolarity,
3070:Drivers/STM32F1xx_HAL_Driver/Src/stm32f1xx_hal_tim.c ****                sConfig->ICSelection,
3071:Drivers/STM32F1xx_HAL_Driver/Src/stm32f1xx_hal_tim.c ****                sConfig->ICFilter);
3072:Drivers/STM32F1xx_HAL_Driver/Src/stm32f1xx_hal_tim.c **** 
3073:Drivers/STM32F1xx_HAL_Driver/Src/stm32f1xx_hal_tim.c ****     /* Reset the IC4PSC Bits */
3074:Drivers/STM32F1xx_HAL_Driver/Src/stm32f1xx_hal_tim.c ****     htim->Instance->CCMR2 &= ~TIM_CCMR2_IC4PSC;
 6745              		.loc 1 3074 0
 6746 00fa FB68     		ldr	r3, [r7, #12]
 6747 00fc 1B68     		ldr	r3, [r3]
 6748 00fe DA69     		ldr	r2, [r3, #28]
 6749 0100 FB68     		ldr	r3, [r7, #12]
 6750 0102 1B68     		ldr	r3, [r3]
 6751 0104 22F44062 		bic	r2, r2, #3072
 6752 0108 DA61     		str	r2, [r3, #28]
3075:Drivers/STM32F1xx_HAL_Driver/Src/stm32f1xx_hal_tim.c **** 
3076:Drivers/STM32F1xx_HAL_Driver/Src/stm32f1xx_hal_tim.c ****     /* Set the IC4PSC value */
3077:Drivers/STM32F1xx_HAL_Driver/Src/stm32f1xx_hal_tim.c ****     htim->Instance->CCMR2 |= (sConfig->ICPrescaler << 8U);
 6753              		.loc 1 3077 0
 6754 010a FB68     		ldr	r3, [r7, #12]
 6755 010c 1B68     		ldr	r3, [r3]
 6756 010e D969     		ldr	r1, [r3, #28]
 6757 0110 BB68     		ldr	r3, [r7, #8]
 6758 0112 9B68     		ldr	r3, [r3, #8]
 6759 0114 1A02     		lsls	r2, r3, #8
 6760 0116 FB68     		ldr	r3, [r7, #12]
 6761 0118 1B68     		ldr	r3, [r3]
 6762 011a 0A43     		orrs	r2, r2, r1
 6763 011c DA61     		str	r2, [r3, #28]
 6764              	.L365:
3078:Drivers/STM32F1xx_HAL_Driver/Src/stm32f1xx_hal_tim.c ****   }
ARM GAS  /tmp/cc5HGhWi.s 			page 172


3079:Drivers/STM32F1xx_HAL_Driver/Src/stm32f1xx_hal_tim.c **** 
3080:Drivers/STM32F1xx_HAL_Driver/Src/stm32f1xx_hal_tim.c ****   htim->State = HAL_TIM_STATE_READY;
 6765              		.loc 1 3080 0
 6766 011e FB68     		ldr	r3, [r7, #12]
 6767 0120 0122     		movs	r2, #1
 6768 0122 83F83D20 		strb	r2, [r3, #61]
3081:Drivers/STM32F1xx_HAL_Driver/Src/stm32f1xx_hal_tim.c **** 
3082:Drivers/STM32F1xx_HAL_Driver/Src/stm32f1xx_hal_tim.c ****   __HAL_UNLOCK(htim);
 6769              		.loc 1 3082 0
 6770 0126 FB68     		ldr	r3, [r7, #12]
 6771 0128 0022     		movs	r2, #0
 6772 012a 83F83C20 		strb	r2, [r3, #60]
3083:Drivers/STM32F1xx_HAL_Driver/Src/stm32f1xx_hal_tim.c **** 
3084:Drivers/STM32F1xx_HAL_Driver/Src/stm32f1xx_hal_tim.c ****   return HAL_OK;
 6773              		.loc 1 3084 0
 6774 012e 0023     		movs	r3, #0
 6775              	.L363:
3085:Drivers/STM32F1xx_HAL_Driver/Src/stm32f1xx_hal_tim.c **** }
 6776              		.loc 1 3085 0
 6777 0130 1846     		mov	r0, r3
 6778 0132 1037     		adds	r7, r7, #16
 6779              	.LCFI320:
 6780              		.cfi_def_cfa_offset 8
 6781 0134 BD46     		mov	sp, r7
 6782              	.LCFI321:
 6783              		.cfi_def_cfa_register 13
 6784              		@ sp needed
 6785 0136 80BD     		pop	{r7, pc}
 6786              		.cfi_endproc
 6787              	.LFE126:
 6789              		.section	.text.HAL_TIM_PWM_ConfigChannel,"ax",%progbits
 6790              		.align	1
 6791              		.global	HAL_TIM_PWM_ConfigChannel
 6792              		.syntax unified
 6793              		.thumb
 6794              		.thumb_func
 6795              		.fpu softvfp
 6797              	HAL_TIM_PWM_ConfigChannel:
 6798              	.LFB127:
3086:Drivers/STM32F1xx_HAL_Driver/Src/stm32f1xx_hal_tim.c **** 
3087:Drivers/STM32F1xx_HAL_Driver/Src/stm32f1xx_hal_tim.c **** /**
3088:Drivers/STM32F1xx_HAL_Driver/Src/stm32f1xx_hal_tim.c ****   * @brief  Initializes the TIM PWM  channels according to the specified
3089:Drivers/STM32F1xx_HAL_Driver/Src/stm32f1xx_hal_tim.c ****   *         parameters in the TIM_OC_InitTypeDef.
3090:Drivers/STM32F1xx_HAL_Driver/Src/stm32f1xx_hal_tim.c ****   * @param  htim : TIM handle
3091:Drivers/STM32F1xx_HAL_Driver/Src/stm32f1xx_hal_tim.c ****   * @param  sConfig : TIM PWM configuration structure
3092:Drivers/STM32F1xx_HAL_Driver/Src/stm32f1xx_hal_tim.c ****   * @param  Channel : TIM Channels to be enabled
3093:Drivers/STM32F1xx_HAL_Driver/Src/stm32f1xx_hal_tim.c ****   *          This parameter can be one of the following values:
3094:Drivers/STM32F1xx_HAL_Driver/Src/stm32f1xx_hal_tim.c ****   *            @arg TIM_CHANNEL_1: TIM Channel 1 selected
3095:Drivers/STM32F1xx_HAL_Driver/Src/stm32f1xx_hal_tim.c ****   *            @arg TIM_CHANNEL_2: TIM Channel 2 selected
3096:Drivers/STM32F1xx_HAL_Driver/Src/stm32f1xx_hal_tim.c ****   *            @arg TIM_CHANNEL_3: TIM Channel 3 selected
3097:Drivers/STM32F1xx_HAL_Driver/Src/stm32f1xx_hal_tim.c ****   *            @arg TIM_CHANNEL_4: TIM Channel 4 selected
3098:Drivers/STM32F1xx_HAL_Driver/Src/stm32f1xx_hal_tim.c ****   * @retval HAL status
3099:Drivers/STM32F1xx_HAL_Driver/Src/stm32f1xx_hal_tim.c ****   */
3100:Drivers/STM32F1xx_HAL_Driver/Src/stm32f1xx_hal_tim.c **** HAL_StatusTypeDef HAL_TIM_PWM_ConfigChannel(TIM_HandleTypeDef *htim, TIM_OC_InitTypeDef* sConfig, u
3101:Drivers/STM32F1xx_HAL_Driver/Src/stm32f1xx_hal_tim.c **** {
 6799              		.loc 1 3101 0
 6800              		.cfi_startproc
ARM GAS  /tmp/cc5HGhWi.s 			page 173


 6801              		@ args = 0, pretend = 0, frame = 16
 6802              		@ frame_needed = 1, uses_anonymous_args = 0
 6803 0000 80B5     		push	{r7, lr}
 6804              	.LCFI322:
 6805              		.cfi_def_cfa_offset 8
 6806              		.cfi_offset 7, -8
 6807              		.cfi_offset 14, -4
 6808 0002 84B0     		sub	sp, sp, #16
 6809              	.LCFI323:
 6810              		.cfi_def_cfa_offset 24
 6811 0004 00AF     		add	r7, sp, #0
 6812              	.LCFI324:
 6813              		.cfi_def_cfa_register 7
 6814 0006 F860     		str	r0, [r7, #12]
 6815 0008 B960     		str	r1, [r7, #8]
 6816 000a 7A60     		str	r2, [r7, #4]
3102:Drivers/STM32F1xx_HAL_Driver/Src/stm32f1xx_hal_tim.c ****   __HAL_LOCK(htim);
 6817              		.loc 1 3102 0
 6818 000c FB68     		ldr	r3, [r7, #12]
 6819 000e 93F83C30 		ldrb	r3, [r3, #60]	@ zero_extendqisi2
 6820 0012 012B     		cmp	r3, #1
 6821 0014 01D1     		bne	.L369
 6822              		.loc 1 3102 0 is_stmt 0 discriminator 1
 6823 0016 0223     		movs	r3, #2
 6824 0018 B4E0     		b	.L370
 6825              	.L369:
 6826              		.loc 1 3102 0 discriminator 2
 6827 001a FB68     		ldr	r3, [r7, #12]
 6828 001c 0122     		movs	r2, #1
 6829 001e 83F83C20 		strb	r2, [r3, #60]
3103:Drivers/STM32F1xx_HAL_Driver/Src/stm32f1xx_hal_tim.c **** 
3104:Drivers/STM32F1xx_HAL_Driver/Src/stm32f1xx_hal_tim.c ****   /* Check the parameters */
3105:Drivers/STM32F1xx_HAL_Driver/Src/stm32f1xx_hal_tim.c ****   assert_param(IS_TIM_CHANNELS(Channel));
3106:Drivers/STM32F1xx_HAL_Driver/Src/stm32f1xx_hal_tim.c ****   assert_param(IS_TIM_PWM_MODE(sConfig->OCMode));
3107:Drivers/STM32F1xx_HAL_Driver/Src/stm32f1xx_hal_tim.c ****   assert_param(IS_TIM_OC_POLARITY(sConfig->OCPolarity));
3108:Drivers/STM32F1xx_HAL_Driver/Src/stm32f1xx_hal_tim.c ****   assert_param(IS_TIM_FAST_STATE(sConfig->OCFastMode));
3109:Drivers/STM32F1xx_HAL_Driver/Src/stm32f1xx_hal_tim.c **** 
3110:Drivers/STM32F1xx_HAL_Driver/Src/stm32f1xx_hal_tim.c ****   htim->State = HAL_TIM_STATE_BUSY;
 6830              		.loc 1 3110 0 is_stmt 1 discriminator 2
 6831 0022 FB68     		ldr	r3, [r7, #12]
 6832 0024 0222     		movs	r2, #2
 6833 0026 83F83D20 		strb	r2, [r3, #61]
3111:Drivers/STM32F1xx_HAL_Driver/Src/stm32f1xx_hal_tim.c **** 
3112:Drivers/STM32F1xx_HAL_Driver/Src/stm32f1xx_hal_tim.c ****   switch (Channel)
 6834              		.loc 1 3112 0 discriminator 2
 6835 002a 7B68     		ldr	r3, [r7, #4]
 6836 002c 0C2B     		cmp	r3, #12
 6837 002e 00F29F80 		bhi	.L378
 6838 0032 01A2     		adr	r2, .L373
 6839 0034 52F823F0 		ldr	pc, [r2, r3, lsl #2]
 6840              		.p2align 2
 6841              	.L373:
 6842 0038 6D000000 		.word	.L372+1
 6843 003c 71010000 		.word	.L378+1
 6844 0040 71010000 		.word	.L378+1
 6845 0044 71010000 		.word	.L378+1
 6846 0048 AD000000 		.word	.L374+1
ARM GAS  /tmp/cc5HGhWi.s 			page 174


 6847 004c 71010000 		.word	.L378+1
 6848 0050 71010000 		.word	.L378+1
 6849 0054 71010000 		.word	.L378+1
 6850 0058 EF000000 		.word	.L375+1
 6851 005c 71010000 		.word	.L378+1
 6852 0060 71010000 		.word	.L378+1
 6853 0064 71010000 		.word	.L378+1
 6854 0068 2F010000 		.word	.L376+1
 6855              		.p2align 1
 6856              	.L372:
3113:Drivers/STM32F1xx_HAL_Driver/Src/stm32f1xx_hal_tim.c ****   {
3114:Drivers/STM32F1xx_HAL_Driver/Src/stm32f1xx_hal_tim.c ****     case TIM_CHANNEL_1:
3115:Drivers/STM32F1xx_HAL_Driver/Src/stm32f1xx_hal_tim.c ****     {
3116:Drivers/STM32F1xx_HAL_Driver/Src/stm32f1xx_hal_tim.c ****       assert_param(IS_TIM_CC1_INSTANCE(htim->Instance));
3117:Drivers/STM32F1xx_HAL_Driver/Src/stm32f1xx_hal_tim.c ****       /* Configure the Channel 1 in PWM mode */
3118:Drivers/STM32F1xx_HAL_Driver/Src/stm32f1xx_hal_tim.c ****       TIM_OC1_SetConfig(htim->Instance, sConfig);
 6857              		.loc 1 3118 0
 6858 006c FB68     		ldr	r3, [r7, #12]
 6859 006e 1B68     		ldr	r3, [r3]
 6860 0070 B968     		ldr	r1, [r7, #8]
 6861 0072 1846     		mov	r0, r3
 6862 0074 FFF7FEFF 		bl	TIM_OC1_SetConfig
3119:Drivers/STM32F1xx_HAL_Driver/Src/stm32f1xx_hal_tim.c **** 
3120:Drivers/STM32F1xx_HAL_Driver/Src/stm32f1xx_hal_tim.c ****       /* Set the Preload enable bit for channel1 */
3121:Drivers/STM32F1xx_HAL_Driver/Src/stm32f1xx_hal_tim.c ****       htim->Instance->CCMR1 |= TIM_CCMR1_OC1PE;
 6863              		.loc 1 3121 0
 6864 0078 FB68     		ldr	r3, [r7, #12]
 6865 007a 1B68     		ldr	r3, [r3]
 6866 007c 9A69     		ldr	r2, [r3, #24]
 6867 007e FB68     		ldr	r3, [r7, #12]
 6868 0080 1B68     		ldr	r3, [r3]
 6869 0082 42F00802 		orr	r2, r2, #8
 6870 0086 9A61     		str	r2, [r3, #24]
3122:Drivers/STM32F1xx_HAL_Driver/Src/stm32f1xx_hal_tim.c **** 
3123:Drivers/STM32F1xx_HAL_Driver/Src/stm32f1xx_hal_tim.c ****       /* Configure the Output Fast mode */
3124:Drivers/STM32F1xx_HAL_Driver/Src/stm32f1xx_hal_tim.c ****       htim->Instance->CCMR1 &= ~TIM_CCMR1_OC1FE;
 6871              		.loc 1 3124 0
 6872 0088 FB68     		ldr	r3, [r7, #12]
 6873 008a 1B68     		ldr	r3, [r3]
 6874 008c 9A69     		ldr	r2, [r3, #24]
 6875 008e FB68     		ldr	r3, [r7, #12]
 6876 0090 1B68     		ldr	r3, [r3]
 6877 0092 22F00402 		bic	r2, r2, #4
 6878 0096 9A61     		str	r2, [r3, #24]
3125:Drivers/STM32F1xx_HAL_Driver/Src/stm32f1xx_hal_tim.c ****       htim->Instance->CCMR1 |= sConfig->OCFastMode;
 6879              		.loc 1 3125 0
 6880 0098 FB68     		ldr	r3, [r7, #12]
 6881 009a 1B68     		ldr	r3, [r3]
 6882 009c 9969     		ldr	r1, [r3, #24]
 6883 009e BB68     		ldr	r3, [r7, #8]
 6884 00a0 1A69     		ldr	r2, [r3, #16]
 6885 00a2 FB68     		ldr	r3, [r7, #12]
 6886 00a4 1B68     		ldr	r3, [r3]
 6887 00a6 0A43     		orrs	r2, r2, r1
 6888 00a8 9A61     		str	r2, [r3, #24]
3126:Drivers/STM32F1xx_HAL_Driver/Src/stm32f1xx_hal_tim.c ****     }
3127:Drivers/STM32F1xx_HAL_Driver/Src/stm32f1xx_hal_tim.c ****     break;
ARM GAS  /tmp/cc5HGhWi.s 			page 175


 6889              		.loc 1 3127 0
 6890 00aa 62E0     		b	.L377
 6891              	.L374:
3128:Drivers/STM32F1xx_HAL_Driver/Src/stm32f1xx_hal_tim.c **** 
3129:Drivers/STM32F1xx_HAL_Driver/Src/stm32f1xx_hal_tim.c ****     case TIM_CHANNEL_2:
3130:Drivers/STM32F1xx_HAL_Driver/Src/stm32f1xx_hal_tim.c ****     {
3131:Drivers/STM32F1xx_HAL_Driver/Src/stm32f1xx_hal_tim.c ****       assert_param(IS_TIM_CC2_INSTANCE(htim->Instance));
3132:Drivers/STM32F1xx_HAL_Driver/Src/stm32f1xx_hal_tim.c ****       /* Configure the Channel 2 in PWM mode */
3133:Drivers/STM32F1xx_HAL_Driver/Src/stm32f1xx_hal_tim.c ****       TIM_OC2_SetConfig(htim->Instance, sConfig);
 6892              		.loc 1 3133 0
 6893 00ac FB68     		ldr	r3, [r7, #12]
 6894 00ae 1B68     		ldr	r3, [r3]
 6895 00b0 B968     		ldr	r1, [r7, #8]
 6896 00b2 1846     		mov	r0, r3
 6897 00b4 FFF7FEFF 		bl	TIM_OC2_SetConfig
3134:Drivers/STM32F1xx_HAL_Driver/Src/stm32f1xx_hal_tim.c **** 
3135:Drivers/STM32F1xx_HAL_Driver/Src/stm32f1xx_hal_tim.c ****       /* Set the Preload enable bit for channel2 */
3136:Drivers/STM32F1xx_HAL_Driver/Src/stm32f1xx_hal_tim.c ****       htim->Instance->CCMR1 |= TIM_CCMR1_OC2PE;
 6898              		.loc 1 3136 0
 6899 00b8 FB68     		ldr	r3, [r7, #12]
 6900 00ba 1B68     		ldr	r3, [r3]
 6901 00bc 9A69     		ldr	r2, [r3, #24]
 6902 00be FB68     		ldr	r3, [r7, #12]
 6903 00c0 1B68     		ldr	r3, [r3]
 6904 00c2 42F40062 		orr	r2, r2, #2048
 6905 00c6 9A61     		str	r2, [r3, #24]
3137:Drivers/STM32F1xx_HAL_Driver/Src/stm32f1xx_hal_tim.c **** 
3138:Drivers/STM32F1xx_HAL_Driver/Src/stm32f1xx_hal_tim.c ****       /* Configure the Output Fast mode */
3139:Drivers/STM32F1xx_HAL_Driver/Src/stm32f1xx_hal_tim.c ****       htim->Instance->CCMR1 &= ~TIM_CCMR1_OC2FE;
 6906              		.loc 1 3139 0
 6907 00c8 FB68     		ldr	r3, [r7, #12]
 6908 00ca 1B68     		ldr	r3, [r3]
 6909 00cc 9A69     		ldr	r2, [r3, #24]
 6910 00ce FB68     		ldr	r3, [r7, #12]
 6911 00d0 1B68     		ldr	r3, [r3]
 6912 00d2 22F48062 		bic	r2, r2, #1024
 6913 00d6 9A61     		str	r2, [r3, #24]
3140:Drivers/STM32F1xx_HAL_Driver/Src/stm32f1xx_hal_tim.c ****       htim->Instance->CCMR1 |= sConfig->OCFastMode << 8;
 6914              		.loc 1 3140 0
 6915 00d8 FB68     		ldr	r3, [r7, #12]
 6916 00da 1B68     		ldr	r3, [r3]
 6917 00dc 9969     		ldr	r1, [r3, #24]
 6918 00de BB68     		ldr	r3, [r7, #8]
 6919 00e0 1B69     		ldr	r3, [r3, #16]
 6920 00e2 1A02     		lsls	r2, r3, #8
 6921 00e4 FB68     		ldr	r3, [r7, #12]
 6922 00e6 1B68     		ldr	r3, [r3]
 6923 00e8 0A43     		orrs	r2, r2, r1
 6924 00ea 9A61     		str	r2, [r3, #24]
3141:Drivers/STM32F1xx_HAL_Driver/Src/stm32f1xx_hal_tim.c ****     }
3142:Drivers/STM32F1xx_HAL_Driver/Src/stm32f1xx_hal_tim.c ****     break;
 6925              		.loc 1 3142 0
 6926 00ec 41E0     		b	.L377
 6927              	.L375:
3143:Drivers/STM32F1xx_HAL_Driver/Src/stm32f1xx_hal_tim.c **** 
3144:Drivers/STM32F1xx_HAL_Driver/Src/stm32f1xx_hal_tim.c ****     case TIM_CHANNEL_3:
3145:Drivers/STM32F1xx_HAL_Driver/Src/stm32f1xx_hal_tim.c ****     {
ARM GAS  /tmp/cc5HGhWi.s 			page 176


3146:Drivers/STM32F1xx_HAL_Driver/Src/stm32f1xx_hal_tim.c ****       assert_param(IS_TIM_CC3_INSTANCE(htim->Instance));
3147:Drivers/STM32F1xx_HAL_Driver/Src/stm32f1xx_hal_tim.c ****       /* Configure the Channel 3 in PWM mode */
3148:Drivers/STM32F1xx_HAL_Driver/Src/stm32f1xx_hal_tim.c ****       TIM_OC3_SetConfig(htim->Instance, sConfig);
 6928              		.loc 1 3148 0
 6929 00ee FB68     		ldr	r3, [r7, #12]
 6930 00f0 1B68     		ldr	r3, [r3]
 6931 00f2 B968     		ldr	r1, [r7, #8]
 6932 00f4 1846     		mov	r0, r3
 6933 00f6 FFF7FEFF 		bl	TIM_OC3_SetConfig
3149:Drivers/STM32F1xx_HAL_Driver/Src/stm32f1xx_hal_tim.c **** 
3150:Drivers/STM32F1xx_HAL_Driver/Src/stm32f1xx_hal_tim.c ****       /* Set the Preload enable bit for channel3 */
3151:Drivers/STM32F1xx_HAL_Driver/Src/stm32f1xx_hal_tim.c ****       htim->Instance->CCMR2 |= TIM_CCMR2_OC3PE;
 6934              		.loc 1 3151 0
 6935 00fa FB68     		ldr	r3, [r7, #12]
 6936 00fc 1B68     		ldr	r3, [r3]
 6937 00fe DA69     		ldr	r2, [r3, #28]
 6938 0100 FB68     		ldr	r3, [r7, #12]
 6939 0102 1B68     		ldr	r3, [r3]
 6940 0104 42F00802 		orr	r2, r2, #8
 6941 0108 DA61     		str	r2, [r3, #28]
3152:Drivers/STM32F1xx_HAL_Driver/Src/stm32f1xx_hal_tim.c **** 
3153:Drivers/STM32F1xx_HAL_Driver/Src/stm32f1xx_hal_tim.c ****      /* Configure the Output Fast mode */
3154:Drivers/STM32F1xx_HAL_Driver/Src/stm32f1xx_hal_tim.c ****       htim->Instance->CCMR2 &= ~TIM_CCMR2_OC3FE;
 6942              		.loc 1 3154 0
 6943 010a FB68     		ldr	r3, [r7, #12]
 6944 010c 1B68     		ldr	r3, [r3]
 6945 010e DA69     		ldr	r2, [r3, #28]
 6946 0110 FB68     		ldr	r3, [r7, #12]
 6947 0112 1B68     		ldr	r3, [r3]
 6948 0114 22F00402 		bic	r2, r2, #4
 6949 0118 DA61     		str	r2, [r3, #28]
3155:Drivers/STM32F1xx_HAL_Driver/Src/stm32f1xx_hal_tim.c ****       htim->Instance->CCMR2 |= sConfig->OCFastMode;
 6950              		.loc 1 3155 0
 6951 011a FB68     		ldr	r3, [r7, #12]
 6952 011c 1B68     		ldr	r3, [r3]
 6953 011e D969     		ldr	r1, [r3, #28]
 6954 0120 BB68     		ldr	r3, [r7, #8]
 6955 0122 1A69     		ldr	r2, [r3, #16]
 6956 0124 FB68     		ldr	r3, [r7, #12]
 6957 0126 1B68     		ldr	r3, [r3]
 6958 0128 0A43     		orrs	r2, r2, r1
 6959 012a DA61     		str	r2, [r3, #28]
3156:Drivers/STM32F1xx_HAL_Driver/Src/stm32f1xx_hal_tim.c ****     }
3157:Drivers/STM32F1xx_HAL_Driver/Src/stm32f1xx_hal_tim.c ****     break;
 6960              		.loc 1 3157 0
 6961 012c 21E0     		b	.L377
 6962              	.L376:
3158:Drivers/STM32F1xx_HAL_Driver/Src/stm32f1xx_hal_tim.c **** 
3159:Drivers/STM32F1xx_HAL_Driver/Src/stm32f1xx_hal_tim.c ****     case TIM_CHANNEL_4:
3160:Drivers/STM32F1xx_HAL_Driver/Src/stm32f1xx_hal_tim.c ****     {
3161:Drivers/STM32F1xx_HAL_Driver/Src/stm32f1xx_hal_tim.c ****       assert_param(IS_TIM_CC4_INSTANCE(htim->Instance));
3162:Drivers/STM32F1xx_HAL_Driver/Src/stm32f1xx_hal_tim.c ****       /* Configure the Channel 4 in PWM mode */
3163:Drivers/STM32F1xx_HAL_Driver/Src/stm32f1xx_hal_tim.c ****       TIM_OC4_SetConfig(htim->Instance, sConfig);
 6963              		.loc 1 3163 0
 6964 012e FB68     		ldr	r3, [r7, #12]
 6965 0130 1B68     		ldr	r3, [r3]
 6966 0132 B968     		ldr	r1, [r7, #8]
ARM GAS  /tmp/cc5HGhWi.s 			page 177


 6967 0134 1846     		mov	r0, r3
 6968 0136 FFF7FEFF 		bl	TIM_OC4_SetConfig
3164:Drivers/STM32F1xx_HAL_Driver/Src/stm32f1xx_hal_tim.c **** 
3165:Drivers/STM32F1xx_HAL_Driver/Src/stm32f1xx_hal_tim.c ****       /* Set the Preload enable bit for channel4 */
3166:Drivers/STM32F1xx_HAL_Driver/Src/stm32f1xx_hal_tim.c ****       htim->Instance->CCMR2 |= TIM_CCMR2_OC4PE;
 6969              		.loc 1 3166 0
 6970 013a FB68     		ldr	r3, [r7, #12]
 6971 013c 1B68     		ldr	r3, [r3]
 6972 013e DA69     		ldr	r2, [r3, #28]
 6973 0140 FB68     		ldr	r3, [r7, #12]
 6974 0142 1B68     		ldr	r3, [r3]
 6975 0144 42F40062 		orr	r2, r2, #2048
 6976 0148 DA61     		str	r2, [r3, #28]
3167:Drivers/STM32F1xx_HAL_Driver/Src/stm32f1xx_hal_tim.c **** 
3168:Drivers/STM32F1xx_HAL_Driver/Src/stm32f1xx_hal_tim.c ****      /* Configure the Output Fast mode */
3169:Drivers/STM32F1xx_HAL_Driver/Src/stm32f1xx_hal_tim.c ****       htim->Instance->CCMR2 &= ~TIM_CCMR2_OC4FE;
 6977              		.loc 1 3169 0
 6978 014a FB68     		ldr	r3, [r7, #12]
 6979 014c 1B68     		ldr	r3, [r3]
 6980 014e DA69     		ldr	r2, [r3, #28]
 6981 0150 FB68     		ldr	r3, [r7, #12]
 6982 0152 1B68     		ldr	r3, [r3]
 6983 0154 22F48062 		bic	r2, r2, #1024
 6984 0158 DA61     		str	r2, [r3, #28]
3170:Drivers/STM32F1xx_HAL_Driver/Src/stm32f1xx_hal_tim.c ****       htim->Instance->CCMR2 |= sConfig->OCFastMode << 8;
 6985              		.loc 1 3170 0
 6986 015a FB68     		ldr	r3, [r7, #12]
 6987 015c 1B68     		ldr	r3, [r3]
 6988 015e D969     		ldr	r1, [r3, #28]
 6989 0160 BB68     		ldr	r3, [r7, #8]
 6990 0162 1B69     		ldr	r3, [r3, #16]
 6991 0164 1A02     		lsls	r2, r3, #8
 6992 0166 FB68     		ldr	r3, [r7, #12]
 6993 0168 1B68     		ldr	r3, [r3]
 6994 016a 0A43     		orrs	r2, r2, r1
 6995 016c DA61     		str	r2, [r3, #28]
3171:Drivers/STM32F1xx_HAL_Driver/Src/stm32f1xx_hal_tim.c ****     }
3172:Drivers/STM32F1xx_HAL_Driver/Src/stm32f1xx_hal_tim.c ****     break;
 6996              		.loc 1 3172 0
 6997 016e 00E0     		b	.L377
 6998              	.L378:
3173:Drivers/STM32F1xx_HAL_Driver/Src/stm32f1xx_hal_tim.c **** 
3174:Drivers/STM32F1xx_HAL_Driver/Src/stm32f1xx_hal_tim.c ****     default:
3175:Drivers/STM32F1xx_HAL_Driver/Src/stm32f1xx_hal_tim.c ****     break;
 6999              		.loc 1 3175 0
 7000 0170 00BF     		nop
 7001              	.L377:
3176:Drivers/STM32F1xx_HAL_Driver/Src/stm32f1xx_hal_tim.c ****   }
3177:Drivers/STM32F1xx_HAL_Driver/Src/stm32f1xx_hal_tim.c **** 
3178:Drivers/STM32F1xx_HAL_Driver/Src/stm32f1xx_hal_tim.c ****   htim->State = HAL_TIM_STATE_READY;
 7002              		.loc 1 3178 0
 7003 0172 FB68     		ldr	r3, [r7, #12]
 7004 0174 0122     		movs	r2, #1
 7005 0176 83F83D20 		strb	r2, [r3, #61]
3179:Drivers/STM32F1xx_HAL_Driver/Src/stm32f1xx_hal_tim.c **** 
3180:Drivers/STM32F1xx_HAL_Driver/Src/stm32f1xx_hal_tim.c ****   __HAL_UNLOCK(htim);
 7006              		.loc 1 3180 0
ARM GAS  /tmp/cc5HGhWi.s 			page 178


 7007 017a FB68     		ldr	r3, [r7, #12]
 7008 017c 0022     		movs	r2, #0
 7009 017e 83F83C20 		strb	r2, [r3, #60]
3181:Drivers/STM32F1xx_HAL_Driver/Src/stm32f1xx_hal_tim.c **** 
3182:Drivers/STM32F1xx_HAL_Driver/Src/stm32f1xx_hal_tim.c ****   return HAL_OK;
 7010              		.loc 1 3182 0
 7011 0182 0023     		movs	r3, #0
 7012              	.L370:
3183:Drivers/STM32F1xx_HAL_Driver/Src/stm32f1xx_hal_tim.c **** }
 7013              		.loc 1 3183 0
 7014 0184 1846     		mov	r0, r3
 7015 0186 1037     		adds	r7, r7, #16
 7016              	.LCFI325:
 7017              		.cfi_def_cfa_offset 8
 7018 0188 BD46     		mov	sp, r7
 7019              	.LCFI326:
 7020              		.cfi_def_cfa_register 13
 7021              		@ sp needed
 7022 018a 80BD     		pop	{r7, pc}
 7023              		.cfi_endproc
 7024              	.LFE127:
 7026              		.section	.text.HAL_TIM_OnePulse_ConfigChannel,"ax",%progbits
 7027              		.align	1
 7028              		.global	HAL_TIM_OnePulse_ConfigChannel
 7029              		.syntax unified
 7030              		.thumb
 7031              		.thumb_func
 7032              		.fpu softvfp
 7034              	HAL_TIM_OnePulse_ConfigChannel:
 7035              	.LFB128:
3184:Drivers/STM32F1xx_HAL_Driver/Src/stm32f1xx_hal_tim.c **** 
3185:Drivers/STM32F1xx_HAL_Driver/Src/stm32f1xx_hal_tim.c **** /**
3186:Drivers/STM32F1xx_HAL_Driver/Src/stm32f1xx_hal_tim.c ****   * @brief  Initializes the TIM One Pulse Channels according to the specified
3187:Drivers/STM32F1xx_HAL_Driver/Src/stm32f1xx_hal_tim.c ****   *         parameters in the TIM_OnePulse_InitTypeDef.
3188:Drivers/STM32F1xx_HAL_Driver/Src/stm32f1xx_hal_tim.c ****   * @param  htim : TIM One Pulse handle
3189:Drivers/STM32F1xx_HAL_Driver/Src/stm32f1xx_hal_tim.c ****   * @param  sConfig : TIM One Pulse configuration structure
3190:Drivers/STM32F1xx_HAL_Driver/Src/stm32f1xx_hal_tim.c ****   * @param  OutputChannel : TIM Channels to be enabled
3191:Drivers/STM32F1xx_HAL_Driver/Src/stm32f1xx_hal_tim.c ****   *          This parameter can be one of the following values:
3192:Drivers/STM32F1xx_HAL_Driver/Src/stm32f1xx_hal_tim.c ****   *            @arg TIM_CHANNEL_1: TIM Channel 1 selected
3193:Drivers/STM32F1xx_HAL_Driver/Src/stm32f1xx_hal_tim.c ****   *            @arg TIM_CHANNEL_2: TIM Channel 2 selected
3194:Drivers/STM32F1xx_HAL_Driver/Src/stm32f1xx_hal_tim.c ****   * @param  InputChannel : TIM Channels to be enabled
3195:Drivers/STM32F1xx_HAL_Driver/Src/stm32f1xx_hal_tim.c ****   *          This parameter can be one of the following values:
3196:Drivers/STM32F1xx_HAL_Driver/Src/stm32f1xx_hal_tim.c ****   *            @arg TIM_CHANNEL_1: TIM Channel 1 selected
3197:Drivers/STM32F1xx_HAL_Driver/Src/stm32f1xx_hal_tim.c ****   *            @arg TIM_CHANNEL_2: TIM Channel 2 selected
3198:Drivers/STM32F1xx_HAL_Driver/Src/stm32f1xx_hal_tim.c ****   * @retval HAL status
3199:Drivers/STM32F1xx_HAL_Driver/Src/stm32f1xx_hal_tim.c ****   */
3200:Drivers/STM32F1xx_HAL_Driver/Src/stm32f1xx_hal_tim.c **** HAL_StatusTypeDef HAL_TIM_OnePulse_ConfigChannel(TIM_HandleTypeDef *htim,  TIM_OnePulse_InitTypeDef
3201:Drivers/STM32F1xx_HAL_Driver/Src/stm32f1xx_hal_tim.c **** {
 7036              		.loc 1 3201 0
 7037              		.cfi_startproc
 7038              		@ args = 0, pretend = 0, frame = 48
 7039              		@ frame_needed = 1, uses_anonymous_args = 0
 7040 0000 80B5     		push	{r7, lr}
 7041              	.LCFI327:
 7042              		.cfi_def_cfa_offset 8
 7043              		.cfi_offset 7, -8
 7044              		.cfi_offset 14, -4
ARM GAS  /tmp/cc5HGhWi.s 			page 179


 7045 0002 8CB0     		sub	sp, sp, #48
 7046              	.LCFI328:
 7047              		.cfi_def_cfa_offset 56
 7048 0004 00AF     		add	r7, sp, #0
 7049              	.LCFI329:
 7050              		.cfi_def_cfa_register 7
 7051 0006 F860     		str	r0, [r7, #12]
 7052 0008 B960     		str	r1, [r7, #8]
 7053 000a 7A60     		str	r2, [r7, #4]
 7054 000c 3B60     		str	r3, [r7]
3202:Drivers/STM32F1xx_HAL_Driver/Src/stm32f1xx_hal_tim.c ****   TIM_OC_InitTypeDef temp1;
3203:Drivers/STM32F1xx_HAL_Driver/Src/stm32f1xx_hal_tim.c **** 
3204:Drivers/STM32F1xx_HAL_Driver/Src/stm32f1xx_hal_tim.c ****   /* Check the parameters */
3205:Drivers/STM32F1xx_HAL_Driver/Src/stm32f1xx_hal_tim.c ****   assert_param(IS_TIM_OPM_CHANNELS(OutputChannel));
3206:Drivers/STM32F1xx_HAL_Driver/Src/stm32f1xx_hal_tim.c ****   assert_param(IS_TIM_OPM_CHANNELS(InputChannel));
3207:Drivers/STM32F1xx_HAL_Driver/Src/stm32f1xx_hal_tim.c **** 
3208:Drivers/STM32F1xx_HAL_Driver/Src/stm32f1xx_hal_tim.c ****   if(OutputChannel != InputChannel)
 7055              		.loc 1 3208 0
 7056 000e 7A68     		ldr	r2, [r7, #4]
 7057 0010 3B68     		ldr	r3, [r7]
 7058 0012 9A42     		cmp	r2, r3
 7059 0014 00F0AF80 		beq	.L380
3209:Drivers/STM32F1xx_HAL_Driver/Src/stm32f1xx_hal_tim.c ****   {
3210:Drivers/STM32F1xx_HAL_Driver/Src/stm32f1xx_hal_tim.c ****   __HAL_LOCK(htim);
 7060              		.loc 1 3210 0
 7061 0018 FB68     		ldr	r3, [r7, #12]
 7062 001a 93F83C30 		ldrb	r3, [r3, #60]	@ zero_extendqisi2
 7063 001e 012B     		cmp	r3, #1
 7064 0020 01D1     		bne	.L381
 7065              		.loc 1 3210 0 is_stmt 0 discriminator 1
 7066 0022 0223     		movs	r3, #2
 7067 0024 A8E0     		b	.L391
 7068              	.L381:
 7069              		.loc 1 3210 0 discriminator 2
 7070 0026 FB68     		ldr	r3, [r7, #12]
 7071 0028 0122     		movs	r2, #1
 7072 002a 83F83C20 		strb	r2, [r3, #60]
3211:Drivers/STM32F1xx_HAL_Driver/Src/stm32f1xx_hal_tim.c **** 
3212:Drivers/STM32F1xx_HAL_Driver/Src/stm32f1xx_hal_tim.c ****   htim->State = HAL_TIM_STATE_BUSY;
 7073              		.loc 1 3212 0 is_stmt 1 discriminator 2
 7074 002e FB68     		ldr	r3, [r7, #12]
 7075 0030 0222     		movs	r2, #2
 7076 0032 83F83D20 		strb	r2, [r3, #61]
3213:Drivers/STM32F1xx_HAL_Driver/Src/stm32f1xx_hal_tim.c **** 
3214:Drivers/STM32F1xx_HAL_Driver/Src/stm32f1xx_hal_tim.c ****   /* Extract the Ouput compare configuration from sConfig structure */
3215:Drivers/STM32F1xx_HAL_Driver/Src/stm32f1xx_hal_tim.c ****   temp1.OCMode = sConfig->OCMode;
 7077              		.loc 1 3215 0 discriminator 2
 7078 0036 BB68     		ldr	r3, [r7, #8]
 7079 0038 1B68     		ldr	r3, [r3]
 7080 003a 7B61     		str	r3, [r7, #20]
3216:Drivers/STM32F1xx_HAL_Driver/Src/stm32f1xx_hal_tim.c ****   temp1.Pulse = sConfig->Pulse;
 7081              		.loc 1 3216 0 discriminator 2
 7082 003c BB68     		ldr	r3, [r7, #8]
 7083 003e 5B68     		ldr	r3, [r3, #4]
 7084 0040 BB61     		str	r3, [r7, #24]
3217:Drivers/STM32F1xx_HAL_Driver/Src/stm32f1xx_hal_tim.c ****   temp1.OCPolarity = sConfig->OCPolarity;
 7085              		.loc 1 3217 0 discriminator 2
ARM GAS  /tmp/cc5HGhWi.s 			page 180


 7086 0042 BB68     		ldr	r3, [r7, #8]
 7087 0044 9B68     		ldr	r3, [r3, #8]
 7088 0046 FB61     		str	r3, [r7, #28]
3218:Drivers/STM32F1xx_HAL_Driver/Src/stm32f1xx_hal_tim.c ****   temp1.OCNPolarity = sConfig->OCNPolarity;
 7089              		.loc 1 3218 0 discriminator 2
 7090 0048 BB68     		ldr	r3, [r7, #8]
 7091 004a DB68     		ldr	r3, [r3, #12]
 7092 004c 3B62     		str	r3, [r7, #32]
3219:Drivers/STM32F1xx_HAL_Driver/Src/stm32f1xx_hal_tim.c ****   temp1.OCIdleState = sConfig->OCIdleState;
 7093              		.loc 1 3219 0 discriminator 2
 7094 004e BB68     		ldr	r3, [r7, #8]
 7095 0050 1B69     		ldr	r3, [r3, #16]
 7096 0052 BB62     		str	r3, [r7, #40]
3220:Drivers/STM32F1xx_HAL_Driver/Src/stm32f1xx_hal_tim.c ****   temp1.OCNIdleState = sConfig->OCNIdleState;
 7097              		.loc 1 3220 0 discriminator 2
 7098 0054 BB68     		ldr	r3, [r7, #8]
 7099 0056 5B69     		ldr	r3, [r3, #20]
 7100 0058 FB62     		str	r3, [r7, #44]
3221:Drivers/STM32F1xx_HAL_Driver/Src/stm32f1xx_hal_tim.c **** 
3222:Drivers/STM32F1xx_HAL_Driver/Src/stm32f1xx_hal_tim.c ****     switch (OutputChannel)
 7101              		.loc 1 3222 0 discriminator 2
 7102 005a 7B68     		ldr	r3, [r7, #4]
 7103 005c 002B     		cmp	r3, #0
 7104 005e 02D0     		beq	.L384
 7105 0060 042B     		cmp	r3, #4
 7106 0062 09D0     		beq	.L385
3223:Drivers/STM32F1xx_HAL_Driver/Src/stm32f1xx_hal_tim.c ****   {
3224:Drivers/STM32F1xx_HAL_Driver/Src/stm32f1xx_hal_tim.c ****     case TIM_CHANNEL_1:
3225:Drivers/STM32F1xx_HAL_Driver/Src/stm32f1xx_hal_tim.c ****     {
3226:Drivers/STM32F1xx_HAL_Driver/Src/stm32f1xx_hal_tim.c ****         assert_param(IS_TIM_CC1_INSTANCE(htim->Instance));
3227:Drivers/STM32F1xx_HAL_Driver/Src/stm32f1xx_hal_tim.c **** 
3228:Drivers/STM32F1xx_HAL_Driver/Src/stm32f1xx_hal_tim.c ****       TIM_OC1_SetConfig(htim->Instance, &temp1);
3229:Drivers/STM32F1xx_HAL_Driver/Src/stm32f1xx_hal_tim.c ****     }
3230:Drivers/STM32F1xx_HAL_Driver/Src/stm32f1xx_hal_tim.c ****     break;
3231:Drivers/STM32F1xx_HAL_Driver/Src/stm32f1xx_hal_tim.c ****     case TIM_CHANNEL_2:
3232:Drivers/STM32F1xx_HAL_Driver/Src/stm32f1xx_hal_tim.c ****     {
3233:Drivers/STM32F1xx_HAL_Driver/Src/stm32f1xx_hal_tim.c ****         assert_param(IS_TIM_CC2_INSTANCE(htim->Instance));
3234:Drivers/STM32F1xx_HAL_Driver/Src/stm32f1xx_hal_tim.c **** 
3235:Drivers/STM32F1xx_HAL_Driver/Src/stm32f1xx_hal_tim.c ****       TIM_OC2_SetConfig(htim->Instance, &temp1);
3236:Drivers/STM32F1xx_HAL_Driver/Src/stm32f1xx_hal_tim.c ****     }
3237:Drivers/STM32F1xx_HAL_Driver/Src/stm32f1xx_hal_tim.c ****     break;
3238:Drivers/STM32F1xx_HAL_Driver/Src/stm32f1xx_hal_tim.c ****     default:
3239:Drivers/STM32F1xx_HAL_Driver/Src/stm32f1xx_hal_tim.c ****     break;
 7107              		.loc 1 3239 0 discriminator 2
 7108 0064 11E0     		b	.L386
 7109              	.L384:
3228:Drivers/STM32F1xx_HAL_Driver/Src/stm32f1xx_hal_tim.c ****     }
 7110              		.loc 1 3228 0
 7111 0066 FB68     		ldr	r3, [r7, #12]
 7112 0068 1B68     		ldr	r3, [r3]
 7113 006a 07F11402 		add	r2, r7, #20
 7114 006e 1146     		mov	r1, r2
 7115 0070 1846     		mov	r0, r3
 7116 0072 FFF7FEFF 		bl	TIM_OC1_SetConfig
3230:Drivers/STM32F1xx_HAL_Driver/Src/stm32f1xx_hal_tim.c ****     case TIM_CHANNEL_2:
 7117              		.loc 1 3230 0
 7118 0076 08E0     		b	.L386
ARM GAS  /tmp/cc5HGhWi.s 			page 181


 7119              	.L385:
3235:Drivers/STM32F1xx_HAL_Driver/Src/stm32f1xx_hal_tim.c ****     }
 7120              		.loc 1 3235 0
 7121 0078 FB68     		ldr	r3, [r7, #12]
 7122 007a 1B68     		ldr	r3, [r3]
 7123 007c 07F11402 		add	r2, r7, #20
 7124 0080 1146     		mov	r1, r2
 7125 0082 1846     		mov	r0, r3
 7126 0084 FFF7FEFF 		bl	TIM_OC2_SetConfig
3237:Drivers/STM32F1xx_HAL_Driver/Src/stm32f1xx_hal_tim.c ****     default:
 7127              		.loc 1 3237 0
 7128 0088 00BF     		nop
 7129              	.L386:
3240:Drivers/STM32F1xx_HAL_Driver/Src/stm32f1xx_hal_tim.c ****   }
3241:Drivers/STM32F1xx_HAL_Driver/Src/stm32f1xx_hal_tim.c ****   switch (InputChannel)
 7130              		.loc 1 3241 0
 7131 008a 3B68     		ldr	r3, [r7]
 7132 008c 002B     		cmp	r3, #0
 7133 008e 02D0     		beq	.L388
 7134 0090 042B     		cmp	r3, #4
 7135 0092 33D0     		beq	.L389
3242:Drivers/STM32F1xx_HAL_Driver/Src/stm32f1xx_hal_tim.c ****   {
3243:Drivers/STM32F1xx_HAL_Driver/Src/stm32f1xx_hal_tim.c ****     case TIM_CHANNEL_1:
3244:Drivers/STM32F1xx_HAL_Driver/Src/stm32f1xx_hal_tim.c ****     {
3245:Drivers/STM32F1xx_HAL_Driver/Src/stm32f1xx_hal_tim.c ****       assert_param(IS_TIM_CC1_INSTANCE(htim->Instance));
3246:Drivers/STM32F1xx_HAL_Driver/Src/stm32f1xx_hal_tim.c **** 
3247:Drivers/STM32F1xx_HAL_Driver/Src/stm32f1xx_hal_tim.c ****       TIM_TI1_SetConfig(htim->Instance, sConfig->ICPolarity,
3248:Drivers/STM32F1xx_HAL_Driver/Src/stm32f1xx_hal_tim.c ****                         sConfig->ICSelection, sConfig->ICFilter);
3249:Drivers/STM32F1xx_HAL_Driver/Src/stm32f1xx_hal_tim.c **** 
3250:Drivers/STM32F1xx_HAL_Driver/Src/stm32f1xx_hal_tim.c ****       /* Reset the IC1PSC Bits */
3251:Drivers/STM32F1xx_HAL_Driver/Src/stm32f1xx_hal_tim.c ****     htim->Instance->CCMR1 &= ~TIM_CCMR1_IC1PSC;
3252:Drivers/STM32F1xx_HAL_Driver/Src/stm32f1xx_hal_tim.c **** 
3253:Drivers/STM32F1xx_HAL_Driver/Src/stm32f1xx_hal_tim.c ****       /* Select the Trigger source */
3254:Drivers/STM32F1xx_HAL_Driver/Src/stm32f1xx_hal_tim.c ****         htim->Instance->SMCR &= ~TIM_SMCR_TS;
3255:Drivers/STM32F1xx_HAL_Driver/Src/stm32f1xx_hal_tim.c ****       htim->Instance->SMCR |= TIM_TS_TI1FP1;
3256:Drivers/STM32F1xx_HAL_Driver/Src/stm32f1xx_hal_tim.c **** 
3257:Drivers/STM32F1xx_HAL_Driver/Src/stm32f1xx_hal_tim.c ****       /* Select the Slave Mode */
3258:Drivers/STM32F1xx_HAL_Driver/Src/stm32f1xx_hal_tim.c ****         htim->Instance->SMCR &= ~TIM_SMCR_SMS;
3259:Drivers/STM32F1xx_HAL_Driver/Src/stm32f1xx_hal_tim.c ****       htim->Instance->SMCR |= TIM_SLAVEMODE_TRIGGER;
3260:Drivers/STM32F1xx_HAL_Driver/Src/stm32f1xx_hal_tim.c ****     }
3261:Drivers/STM32F1xx_HAL_Driver/Src/stm32f1xx_hal_tim.c ****     break;
3262:Drivers/STM32F1xx_HAL_Driver/Src/stm32f1xx_hal_tim.c ****     case TIM_CHANNEL_2:
3263:Drivers/STM32F1xx_HAL_Driver/Src/stm32f1xx_hal_tim.c ****     {
3264:Drivers/STM32F1xx_HAL_Driver/Src/stm32f1xx_hal_tim.c ****       assert_param(IS_TIM_CC2_INSTANCE(htim->Instance));
3265:Drivers/STM32F1xx_HAL_Driver/Src/stm32f1xx_hal_tim.c **** 
3266:Drivers/STM32F1xx_HAL_Driver/Src/stm32f1xx_hal_tim.c ****       TIM_TI2_SetConfig(htim->Instance, sConfig->ICPolarity,
3267:Drivers/STM32F1xx_HAL_Driver/Src/stm32f1xx_hal_tim.c ****                  sConfig->ICSelection, sConfig->ICFilter);
3268:Drivers/STM32F1xx_HAL_Driver/Src/stm32f1xx_hal_tim.c **** 
3269:Drivers/STM32F1xx_HAL_Driver/Src/stm32f1xx_hal_tim.c ****       /* Reset the IC2PSC Bits */
3270:Drivers/STM32F1xx_HAL_Driver/Src/stm32f1xx_hal_tim.c ****         htim->Instance->CCMR1 &= ~TIM_CCMR1_IC2PSC;
3271:Drivers/STM32F1xx_HAL_Driver/Src/stm32f1xx_hal_tim.c **** 
3272:Drivers/STM32F1xx_HAL_Driver/Src/stm32f1xx_hal_tim.c ****       /* Select the Trigger source */
3273:Drivers/STM32F1xx_HAL_Driver/Src/stm32f1xx_hal_tim.c ****         htim->Instance->SMCR &= ~TIM_SMCR_TS;
3274:Drivers/STM32F1xx_HAL_Driver/Src/stm32f1xx_hal_tim.c ****       htim->Instance->SMCR |= TIM_TS_TI2FP2;
3275:Drivers/STM32F1xx_HAL_Driver/Src/stm32f1xx_hal_tim.c **** 
3276:Drivers/STM32F1xx_HAL_Driver/Src/stm32f1xx_hal_tim.c ****       /* Select the Slave Mode */
3277:Drivers/STM32F1xx_HAL_Driver/Src/stm32f1xx_hal_tim.c ****         htim->Instance->SMCR &= ~TIM_SMCR_SMS;
ARM GAS  /tmp/cc5HGhWi.s 			page 182


3278:Drivers/STM32F1xx_HAL_Driver/Src/stm32f1xx_hal_tim.c ****       htim->Instance->SMCR |= TIM_SLAVEMODE_TRIGGER;
3279:Drivers/STM32F1xx_HAL_Driver/Src/stm32f1xx_hal_tim.c ****     }
3280:Drivers/STM32F1xx_HAL_Driver/Src/stm32f1xx_hal_tim.c ****     break;
3281:Drivers/STM32F1xx_HAL_Driver/Src/stm32f1xx_hal_tim.c **** 
3282:Drivers/STM32F1xx_HAL_Driver/Src/stm32f1xx_hal_tim.c ****     default:
3283:Drivers/STM32F1xx_HAL_Driver/Src/stm32f1xx_hal_tim.c ****     break;
 7136              		.loc 1 3283 0
 7137 0094 65E0     		b	.L390
 7138              	.L388:
3247:Drivers/STM32F1xx_HAL_Driver/Src/stm32f1xx_hal_tim.c ****                         sConfig->ICSelection, sConfig->ICFilter);
 7139              		.loc 1 3247 0
 7140 0096 FB68     		ldr	r3, [r7, #12]
 7141 0098 1868     		ldr	r0, [r3]
 7142 009a BB68     		ldr	r3, [r7, #8]
 7143 009c 9969     		ldr	r1, [r3, #24]
 7144 009e BB68     		ldr	r3, [r7, #8]
 7145 00a0 DA69     		ldr	r2, [r3, #28]
 7146 00a2 BB68     		ldr	r3, [r7, #8]
 7147 00a4 1B6A     		ldr	r3, [r3, #32]
 7148 00a6 FFF7FEFF 		bl	TIM_TI1_SetConfig
3251:Drivers/STM32F1xx_HAL_Driver/Src/stm32f1xx_hal_tim.c **** 
 7149              		.loc 1 3251 0
 7150 00aa FB68     		ldr	r3, [r7, #12]
 7151 00ac 1B68     		ldr	r3, [r3]
 7152 00ae 9A69     		ldr	r2, [r3, #24]
 7153 00b0 FB68     		ldr	r3, [r7, #12]
 7154 00b2 1B68     		ldr	r3, [r3]
 7155 00b4 22F00C02 		bic	r2, r2, #12
 7156 00b8 9A61     		str	r2, [r3, #24]
3254:Drivers/STM32F1xx_HAL_Driver/Src/stm32f1xx_hal_tim.c ****       htim->Instance->SMCR |= TIM_TS_TI1FP1;
 7157              		.loc 1 3254 0
 7158 00ba FB68     		ldr	r3, [r7, #12]
 7159 00bc 1B68     		ldr	r3, [r3]
 7160 00be 9A68     		ldr	r2, [r3, #8]
 7161 00c0 FB68     		ldr	r3, [r7, #12]
 7162 00c2 1B68     		ldr	r3, [r3]
 7163 00c4 22F07002 		bic	r2, r2, #112
 7164 00c8 9A60     		str	r2, [r3, #8]
3255:Drivers/STM32F1xx_HAL_Driver/Src/stm32f1xx_hal_tim.c **** 
 7165              		.loc 1 3255 0
 7166 00ca FB68     		ldr	r3, [r7, #12]
 7167 00cc 1B68     		ldr	r3, [r3]
 7168 00ce 9A68     		ldr	r2, [r3, #8]
 7169 00d0 FB68     		ldr	r3, [r7, #12]
 7170 00d2 1B68     		ldr	r3, [r3]
 7171 00d4 42F05002 		orr	r2, r2, #80
 7172 00d8 9A60     		str	r2, [r3, #8]
3258:Drivers/STM32F1xx_HAL_Driver/Src/stm32f1xx_hal_tim.c ****       htim->Instance->SMCR |= TIM_SLAVEMODE_TRIGGER;
 7173              		.loc 1 3258 0
 7174 00da FB68     		ldr	r3, [r7, #12]
 7175 00dc 1B68     		ldr	r3, [r3]
 7176 00de 9A68     		ldr	r2, [r3, #8]
 7177 00e0 FB68     		ldr	r3, [r7, #12]
 7178 00e2 1B68     		ldr	r3, [r3]
 7179 00e4 22F00702 		bic	r2, r2, #7
 7180 00e8 9A60     		str	r2, [r3, #8]
3259:Drivers/STM32F1xx_HAL_Driver/Src/stm32f1xx_hal_tim.c ****     }
ARM GAS  /tmp/cc5HGhWi.s 			page 183


 7181              		.loc 1 3259 0
 7182 00ea FB68     		ldr	r3, [r7, #12]
 7183 00ec 1B68     		ldr	r3, [r3]
 7184 00ee 9A68     		ldr	r2, [r3, #8]
 7185 00f0 FB68     		ldr	r3, [r7, #12]
 7186 00f2 1B68     		ldr	r3, [r3]
 7187 00f4 42F00602 		orr	r2, r2, #6
 7188 00f8 9A60     		str	r2, [r3, #8]
3261:Drivers/STM32F1xx_HAL_Driver/Src/stm32f1xx_hal_tim.c ****     case TIM_CHANNEL_2:
 7189              		.loc 1 3261 0
 7190 00fa 32E0     		b	.L390
 7191              	.L389:
3266:Drivers/STM32F1xx_HAL_Driver/Src/stm32f1xx_hal_tim.c ****                  sConfig->ICSelection, sConfig->ICFilter);
 7192              		.loc 1 3266 0
 7193 00fc FB68     		ldr	r3, [r7, #12]
 7194 00fe 1868     		ldr	r0, [r3]
 7195 0100 BB68     		ldr	r3, [r7, #8]
 7196 0102 9969     		ldr	r1, [r3, #24]
 7197 0104 BB68     		ldr	r3, [r7, #8]
 7198 0106 DA69     		ldr	r2, [r3, #28]
 7199 0108 BB68     		ldr	r3, [r7, #8]
 7200 010a 1B6A     		ldr	r3, [r3, #32]
 7201 010c FFF7FEFF 		bl	TIM_TI2_SetConfig
3270:Drivers/STM32F1xx_HAL_Driver/Src/stm32f1xx_hal_tim.c **** 
 7202              		.loc 1 3270 0
 7203 0110 FB68     		ldr	r3, [r7, #12]
 7204 0112 1B68     		ldr	r3, [r3]
 7205 0114 9A69     		ldr	r2, [r3, #24]
 7206 0116 FB68     		ldr	r3, [r7, #12]
 7207 0118 1B68     		ldr	r3, [r3]
 7208 011a 22F44062 		bic	r2, r2, #3072
 7209 011e 9A61     		str	r2, [r3, #24]
3273:Drivers/STM32F1xx_HAL_Driver/Src/stm32f1xx_hal_tim.c ****       htim->Instance->SMCR |= TIM_TS_TI2FP2;
 7210              		.loc 1 3273 0
 7211 0120 FB68     		ldr	r3, [r7, #12]
 7212 0122 1B68     		ldr	r3, [r3]
 7213 0124 9A68     		ldr	r2, [r3, #8]
 7214 0126 FB68     		ldr	r3, [r7, #12]
 7215 0128 1B68     		ldr	r3, [r3]
 7216 012a 22F07002 		bic	r2, r2, #112
 7217 012e 9A60     		str	r2, [r3, #8]
3274:Drivers/STM32F1xx_HAL_Driver/Src/stm32f1xx_hal_tim.c **** 
 7218              		.loc 1 3274 0
 7219 0130 FB68     		ldr	r3, [r7, #12]
 7220 0132 1B68     		ldr	r3, [r3]
 7221 0134 9A68     		ldr	r2, [r3, #8]
 7222 0136 FB68     		ldr	r3, [r7, #12]
 7223 0138 1B68     		ldr	r3, [r3]
 7224 013a 42F06002 		orr	r2, r2, #96
 7225 013e 9A60     		str	r2, [r3, #8]
3277:Drivers/STM32F1xx_HAL_Driver/Src/stm32f1xx_hal_tim.c ****       htim->Instance->SMCR |= TIM_SLAVEMODE_TRIGGER;
 7226              		.loc 1 3277 0
 7227 0140 FB68     		ldr	r3, [r7, #12]
 7228 0142 1B68     		ldr	r3, [r3]
 7229 0144 9A68     		ldr	r2, [r3, #8]
 7230 0146 FB68     		ldr	r3, [r7, #12]
 7231 0148 1B68     		ldr	r3, [r3]
ARM GAS  /tmp/cc5HGhWi.s 			page 184


 7232 014a 22F00702 		bic	r2, r2, #7
 7233 014e 9A60     		str	r2, [r3, #8]
3278:Drivers/STM32F1xx_HAL_Driver/Src/stm32f1xx_hal_tim.c ****     }
 7234              		.loc 1 3278 0
 7235 0150 FB68     		ldr	r3, [r7, #12]
 7236 0152 1B68     		ldr	r3, [r3]
 7237 0154 9A68     		ldr	r2, [r3, #8]
 7238 0156 FB68     		ldr	r3, [r7, #12]
 7239 0158 1B68     		ldr	r3, [r3]
 7240 015a 42F00602 		orr	r2, r2, #6
 7241 015e 9A60     		str	r2, [r3, #8]
3280:Drivers/STM32F1xx_HAL_Driver/Src/stm32f1xx_hal_tim.c **** 
 7242              		.loc 1 3280 0
 7243 0160 00BF     		nop
 7244              	.L390:
3284:Drivers/STM32F1xx_HAL_Driver/Src/stm32f1xx_hal_tim.c ****   }
3285:Drivers/STM32F1xx_HAL_Driver/Src/stm32f1xx_hal_tim.c **** 
3286:Drivers/STM32F1xx_HAL_Driver/Src/stm32f1xx_hal_tim.c ****   htim->State = HAL_TIM_STATE_READY;
 7245              		.loc 1 3286 0
 7246 0162 FB68     		ldr	r3, [r7, #12]
 7247 0164 0122     		movs	r2, #1
 7248 0166 83F83D20 		strb	r2, [r3, #61]
3287:Drivers/STM32F1xx_HAL_Driver/Src/stm32f1xx_hal_tim.c **** 
3288:Drivers/STM32F1xx_HAL_Driver/Src/stm32f1xx_hal_tim.c ****   __HAL_UNLOCK(htim);
 7249              		.loc 1 3288 0
 7250 016a FB68     		ldr	r3, [r7, #12]
 7251 016c 0022     		movs	r2, #0
 7252 016e 83F83C20 		strb	r2, [r3, #60]
3289:Drivers/STM32F1xx_HAL_Driver/Src/stm32f1xx_hal_tim.c **** 
3290:Drivers/STM32F1xx_HAL_Driver/Src/stm32f1xx_hal_tim.c ****   return HAL_OK;
 7253              		.loc 1 3290 0
 7254 0172 0023     		movs	r3, #0
 7255 0174 00E0     		b	.L391
 7256              	.L380:
3291:Drivers/STM32F1xx_HAL_Driver/Src/stm32f1xx_hal_tim.c **** }
3292:Drivers/STM32F1xx_HAL_Driver/Src/stm32f1xx_hal_tim.c ****   else
3293:Drivers/STM32F1xx_HAL_Driver/Src/stm32f1xx_hal_tim.c ****   {
3294:Drivers/STM32F1xx_HAL_Driver/Src/stm32f1xx_hal_tim.c ****     return HAL_ERROR;
 7257              		.loc 1 3294 0
 7258 0176 0123     		movs	r3, #1
 7259              	.L391:
3295:Drivers/STM32F1xx_HAL_Driver/Src/stm32f1xx_hal_tim.c ****   }
3296:Drivers/STM32F1xx_HAL_Driver/Src/stm32f1xx_hal_tim.c **** }
 7260              		.loc 1 3296 0 discriminator 1
 7261 0178 1846     		mov	r0, r3
 7262 017a 3037     		adds	r7, r7, #48
 7263              	.LCFI330:
 7264              		.cfi_def_cfa_offset 8
 7265 017c BD46     		mov	sp, r7
 7266              	.LCFI331:
 7267              		.cfi_def_cfa_register 13
 7268              		@ sp needed
 7269 017e 80BD     		pop	{r7, pc}
 7270              		.cfi_endproc
 7271              	.LFE128:
 7273              		.section	.text.HAL_TIM_DMABurst_WriteStart,"ax",%progbits
 7274              		.align	1
ARM GAS  /tmp/cc5HGhWi.s 			page 185


 7275              		.global	HAL_TIM_DMABurst_WriteStart
 7276              		.syntax unified
 7277              		.thumb
 7278              		.thumb_func
 7279              		.fpu softvfp
 7281              	HAL_TIM_DMABurst_WriteStart:
 7282              	.LFB129:
3297:Drivers/STM32F1xx_HAL_Driver/Src/stm32f1xx_hal_tim.c **** 
3298:Drivers/STM32F1xx_HAL_Driver/Src/stm32f1xx_hal_tim.c **** /**
3299:Drivers/STM32F1xx_HAL_Driver/Src/stm32f1xx_hal_tim.c ****   * @brief  Configure the DMA Burst to transfer Data from the memory to the TIM peripheral 
3300:Drivers/STM32F1xx_HAL_Driver/Src/stm32f1xx_hal_tim.c ****   * @param  htim : TIM handle
3301:Drivers/STM32F1xx_HAL_Driver/Src/stm32f1xx_hal_tim.c ****   * @param  BurstBaseAddress : TIM Base address from where the DMA will start the Data write
3302:Drivers/STM32F1xx_HAL_Driver/Src/stm32f1xx_hal_tim.c ****   *         This parameter can be one of the following values:
3303:Drivers/STM32F1xx_HAL_Driver/Src/stm32f1xx_hal_tim.c ****   *            @arg TIM_DMABASE_CR1 
3304:Drivers/STM32F1xx_HAL_Driver/Src/stm32f1xx_hal_tim.c ****   *            @arg TIM_DMABASE_CR2
3305:Drivers/STM32F1xx_HAL_Driver/Src/stm32f1xx_hal_tim.c ****   *            @arg TIM_DMABASE_SMCR
3306:Drivers/STM32F1xx_HAL_Driver/Src/stm32f1xx_hal_tim.c ****   *            @arg TIM_DMABASE_DIER
3307:Drivers/STM32F1xx_HAL_Driver/Src/stm32f1xx_hal_tim.c ****   *            @arg TIM_DMABASE_SR
3308:Drivers/STM32F1xx_HAL_Driver/Src/stm32f1xx_hal_tim.c ****   *            @arg TIM_DMABASE_EGR
3309:Drivers/STM32F1xx_HAL_Driver/Src/stm32f1xx_hal_tim.c ****   *            @arg TIM_DMABASE_CCMR1
3310:Drivers/STM32F1xx_HAL_Driver/Src/stm32f1xx_hal_tim.c ****   *            @arg TIM_DMABASE_CCMR2
3311:Drivers/STM32F1xx_HAL_Driver/Src/stm32f1xx_hal_tim.c ****   *            @arg TIM_DMABASE_CCER
3312:Drivers/STM32F1xx_HAL_Driver/Src/stm32f1xx_hal_tim.c ****   *            @arg TIM_DMABASE_CNT 
3313:Drivers/STM32F1xx_HAL_Driver/Src/stm32f1xx_hal_tim.c ****   *            @arg TIM_DMABASE_PSC 
3314:Drivers/STM32F1xx_HAL_Driver/Src/stm32f1xx_hal_tim.c ****   *            @arg TIM_DMABASE_ARR
3315:Drivers/STM32F1xx_HAL_Driver/Src/stm32f1xx_hal_tim.c ****   *            @arg TIM_DMABASE_RCR
3316:Drivers/STM32F1xx_HAL_Driver/Src/stm32f1xx_hal_tim.c ****   *            @arg TIM_DMABASE_CCR1
3317:Drivers/STM32F1xx_HAL_Driver/Src/stm32f1xx_hal_tim.c ****   *            @arg TIM_DMABASE_CCR2
3318:Drivers/STM32F1xx_HAL_Driver/Src/stm32f1xx_hal_tim.c ****   *            @arg TIM_DMABASE_CCR3 
3319:Drivers/STM32F1xx_HAL_Driver/Src/stm32f1xx_hal_tim.c ****   *            @arg TIM_DMABASE_CCR4
3320:Drivers/STM32F1xx_HAL_Driver/Src/stm32f1xx_hal_tim.c ****   *            @arg TIM_DMABASE_BDTR
3321:Drivers/STM32F1xx_HAL_Driver/Src/stm32f1xx_hal_tim.c ****   *            @arg TIM_DMABASE_DCR
3322:Drivers/STM32F1xx_HAL_Driver/Src/stm32f1xx_hal_tim.c ****   * @param  BurstRequestSrc : TIM DMA Request sources
3323:Drivers/STM32F1xx_HAL_Driver/Src/stm32f1xx_hal_tim.c ****   *         This parameter can be one of the following values:
3324:Drivers/STM32F1xx_HAL_Driver/Src/stm32f1xx_hal_tim.c ****   *            @arg TIM_DMA_UPDATE: TIM update Interrupt source
3325:Drivers/STM32F1xx_HAL_Driver/Src/stm32f1xx_hal_tim.c ****   *            @arg TIM_DMA_CC1: TIM Capture Compare 1 DMA source
3326:Drivers/STM32F1xx_HAL_Driver/Src/stm32f1xx_hal_tim.c ****   *            @arg TIM_DMA_CC2: TIM Capture Compare 2 DMA source
3327:Drivers/STM32F1xx_HAL_Driver/Src/stm32f1xx_hal_tim.c ****   *            @arg TIM_DMA_CC3: TIM Capture Compare 3 DMA source
3328:Drivers/STM32F1xx_HAL_Driver/Src/stm32f1xx_hal_tim.c ****   *            @arg TIM_DMA_CC4: TIM Capture Compare 4 DMA source
3329:Drivers/STM32F1xx_HAL_Driver/Src/stm32f1xx_hal_tim.c ****   *            @arg TIM_DMA_COM: TIM Commutation DMA source
3330:Drivers/STM32F1xx_HAL_Driver/Src/stm32f1xx_hal_tim.c ****   *            @arg TIM_DMA_TRIGGER: TIM Trigger DMA source
3331:Drivers/STM32F1xx_HAL_Driver/Src/stm32f1xx_hal_tim.c ****   * @param  BurstBuffer : The Buffer address.
3332:Drivers/STM32F1xx_HAL_Driver/Src/stm32f1xx_hal_tim.c ****   * @param  BurstLength : DMA Burst length. This parameter can be one value
3333:Drivers/STM32F1xx_HAL_Driver/Src/stm32f1xx_hal_tim.c ****   *         between: TIM_DMABURSTLENGTH_1TRANSFER and TIM_DMABURSTLENGTH_18TRANSFERS.
3334:Drivers/STM32F1xx_HAL_Driver/Src/stm32f1xx_hal_tim.c ****   * @retval HAL status
3335:Drivers/STM32F1xx_HAL_Driver/Src/stm32f1xx_hal_tim.c ****   */
3336:Drivers/STM32F1xx_HAL_Driver/Src/stm32f1xx_hal_tim.c **** HAL_StatusTypeDef HAL_TIM_DMABurst_WriteStart(TIM_HandleTypeDef *htim, uint32_t BurstBaseAddress, u
3337:Drivers/STM32F1xx_HAL_Driver/Src/stm32f1xx_hal_tim.c ****                                               uint32_t* BurstBuffer, uint32_t  BurstLength)
3338:Drivers/STM32F1xx_HAL_Driver/Src/stm32f1xx_hal_tim.c **** {
 7283              		.loc 1 3338 0
 7284              		.cfi_startproc
 7285              		@ args = 4, pretend = 0, frame = 16
 7286              		@ frame_needed = 1, uses_anonymous_args = 0
 7287 0000 80B5     		push	{r7, lr}
 7288              	.LCFI332:
 7289              		.cfi_def_cfa_offset 8
 7290              		.cfi_offset 7, -8
ARM GAS  /tmp/cc5HGhWi.s 			page 186


 7291              		.cfi_offset 14, -4
 7292 0002 84B0     		sub	sp, sp, #16
 7293              	.LCFI333:
 7294              		.cfi_def_cfa_offset 24
 7295 0004 00AF     		add	r7, sp, #0
 7296              	.LCFI334:
 7297              		.cfi_def_cfa_register 7
 7298 0006 F860     		str	r0, [r7, #12]
 7299 0008 B960     		str	r1, [r7, #8]
 7300 000a 7A60     		str	r2, [r7, #4]
 7301 000c 3B60     		str	r3, [r7]
3339:Drivers/STM32F1xx_HAL_Driver/Src/stm32f1xx_hal_tim.c ****   /* Check the parameters */
3340:Drivers/STM32F1xx_HAL_Driver/Src/stm32f1xx_hal_tim.c ****   assert_param(IS_TIM_DMABURST_INSTANCE(htim->Instance));
3341:Drivers/STM32F1xx_HAL_Driver/Src/stm32f1xx_hal_tim.c ****   assert_param(IS_TIM_DMA_BASE(BurstBaseAddress));
3342:Drivers/STM32F1xx_HAL_Driver/Src/stm32f1xx_hal_tim.c ****   assert_param(IS_TIM_DMA_SOURCE(BurstRequestSrc));
3343:Drivers/STM32F1xx_HAL_Driver/Src/stm32f1xx_hal_tim.c ****   assert_param(IS_TIM_DMA_LENGTH(BurstLength));
3344:Drivers/STM32F1xx_HAL_Driver/Src/stm32f1xx_hal_tim.c **** 
3345:Drivers/STM32F1xx_HAL_Driver/Src/stm32f1xx_hal_tim.c ****   if((htim->State == HAL_TIM_STATE_BUSY))
 7302              		.loc 1 3345 0
 7303 000e FB68     		ldr	r3, [r7, #12]
 7304 0010 93F83D30 		ldrb	r3, [r3, #61]
 7305 0014 DBB2     		uxtb	r3, r3
 7306 0016 022B     		cmp	r3, #2
 7307 0018 01D1     		bne	.L393
3346:Drivers/STM32F1xx_HAL_Driver/Src/stm32f1xx_hal_tim.c ****   {
3347:Drivers/STM32F1xx_HAL_Driver/Src/stm32f1xx_hal_tim.c ****      return HAL_BUSY;
 7308              		.loc 1 3347 0
 7309 001a 0223     		movs	r3, #2
 7310 001c D3E0     		b	.L394
 7311              	.L393:
3348:Drivers/STM32F1xx_HAL_Driver/Src/stm32f1xx_hal_tim.c ****   }
3349:Drivers/STM32F1xx_HAL_Driver/Src/stm32f1xx_hal_tim.c ****   else if((htim->State == HAL_TIM_STATE_READY))
 7312              		.loc 1 3349 0
 7313 001e FB68     		ldr	r3, [r7, #12]
 7314 0020 93F83D30 		ldrb	r3, [r3, #61]
 7315 0024 DBB2     		uxtb	r3, r3
 7316 0026 012B     		cmp	r3, #1
 7317 0028 0BD1     		bne	.L395
3350:Drivers/STM32F1xx_HAL_Driver/Src/stm32f1xx_hal_tim.c ****   {
3351:Drivers/STM32F1xx_HAL_Driver/Src/stm32f1xx_hal_tim.c ****     if((BurstBuffer == 0U) && (BurstLength > 0U))
 7318              		.loc 1 3351 0
 7319 002a 3B68     		ldr	r3, [r7]
 7320 002c 002B     		cmp	r3, #0
 7321 002e 04D1     		bne	.L396
 7322              		.loc 1 3351 0 is_stmt 0 discriminator 1
 7323 0030 BB69     		ldr	r3, [r7, #24]
 7324 0032 002B     		cmp	r3, #0
 7325 0034 01D0     		beq	.L396
3352:Drivers/STM32F1xx_HAL_Driver/Src/stm32f1xx_hal_tim.c ****     {
3353:Drivers/STM32F1xx_HAL_Driver/Src/stm32f1xx_hal_tim.c ****       return HAL_ERROR;
 7326              		.loc 1 3353 0 is_stmt 1
 7327 0036 0123     		movs	r3, #1
 7328 0038 C5E0     		b	.L394
 7329              	.L396:
3354:Drivers/STM32F1xx_HAL_Driver/Src/stm32f1xx_hal_tim.c ****     }
3355:Drivers/STM32F1xx_HAL_Driver/Src/stm32f1xx_hal_tim.c ****     else
3356:Drivers/STM32F1xx_HAL_Driver/Src/stm32f1xx_hal_tim.c ****     {
ARM GAS  /tmp/cc5HGhWi.s 			page 187


3357:Drivers/STM32F1xx_HAL_Driver/Src/stm32f1xx_hal_tim.c ****       htim->State = HAL_TIM_STATE_BUSY;
 7330              		.loc 1 3357 0
 7331 003a FB68     		ldr	r3, [r7, #12]
 7332 003c 0222     		movs	r2, #2
 7333 003e 83F83D20 		strb	r2, [r3, #61]
 7334              	.L395:
3358:Drivers/STM32F1xx_HAL_Driver/Src/stm32f1xx_hal_tim.c ****     }
3359:Drivers/STM32F1xx_HAL_Driver/Src/stm32f1xx_hal_tim.c ****   }
3360:Drivers/STM32F1xx_HAL_Driver/Src/stm32f1xx_hal_tim.c ****   switch(BurstRequestSrc)
 7335              		.loc 1 3360 0
 7336 0042 7B68     		ldr	r3, [r7, #4]
 7337 0044 B3F5006F 		cmp	r3, #2048
 7338 0048 56D0     		beq	.L398
 7339 004a B3F5006F 		cmp	r3, #2048
 7340 004e 09D8     		bhi	.L399
 7341 0050 B3F5007F 		cmp	r3, #512
 7342 0054 26D0     		beq	.L400
 7343 0056 B3F5806F 		cmp	r3, #1024
 7344 005a 38D0     		beq	.L401
 7345 005c B3F5807F 		cmp	r3, #256
 7346 0060 0BD0     		beq	.L402
3361:Drivers/STM32F1xx_HAL_Driver/Src/stm32f1xx_hal_tim.c ****   {
3362:Drivers/STM32F1xx_HAL_Driver/Src/stm32f1xx_hal_tim.c ****     case TIM_DMA_UPDATE:
3363:Drivers/STM32F1xx_HAL_Driver/Src/stm32f1xx_hal_tim.c ****     {
3364:Drivers/STM32F1xx_HAL_Driver/Src/stm32f1xx_hal_tim.c ****       /* Set the DMA Period elapsed callback */
3365:Drivers/STM32F1xx_HAL_Driver/Src/stm32f1xx_hal_tim.c ****       htim->hdma[TIM_DMA_ID_UPDATE]->XferCpltCallback = TIM_DMAPeriodElapsedCplt;
3366:Drivers/STM32F1xx_HAL_Driver/Src/stm32f1xx_hal_tim.c **** 
3367:Drivers/STM32F1xx_HAL_Driver/Src/stm32f1xx_hal_tim.c ****       /* Set the DMA error callback */
3368:Drivers/STM32F1xx_HAL_Driver/Src/stm32f1xx_hal_tim.c ****       htim->hdma[TIM_DMA_ID_UPDATE]->XferErrorCallback = TIM_DMAError ;
3369:Drivers/STM32F1xx_HAL_Driver/Src/stm32f1xx_hal_tim.c **** 
3370:Drivers/STM32F1xx_HAL_Driver/Src/stm32f1xx_hal_tim.c ****       /* Enable the DMA channel */
3371:Drivers/STM32F1xx_HAL_Driver/Src/stm32f1xx_hal_tim.c ****       HAL_DMA_Start_IT(htim->hdma[TIM_DMA_ID_UPDATE], (uint32_t)BurstBuffer, (uint32_t)&htim->Insta
3372:Drivers/STM32F1xx_HAL_Driver/Src/stm32f1xx_hal_tim.c ****     }
3373:Drivers/STM32F1xx_HAL_Driver/Src/stm32f1xx_hal_tim.c ****     break;
3374:Drivers/STM32F1xx_HAL_Driver/Src/stm32f1xx_hal_tim.c ****     case TIM_DMA_CC1:
3375:Drivers/STM32F1xx_HAL_Driver/Src/stm32f1xx_hal_tim.c ****     {
3376:Drivers/STM32F1xx_HAL_Driver/Src/stm32f1xx_hal_tim.c ****       /* Set the DMA Period elapsed callback */
3377:Drivers/STM32F1xx_HAL_Driver/Src/stm32f1xx_hal_tim.c ****       htim->hdma[TIM_DMA_ID_CC1]->XferCpltCallback =  TIM_DMADelayPulseCplt;
3378:Drivers/STM32F1xx_HAL_Driver/Src/stm32f1xx_hal_tim.c **** 
3379:Drivers/STM32F1xx_HAL_Driver/Src/stm32f1xx_hal_tim.c ****       /* Set the DMA error callback */
3380:Drivers/STM32F1xx_HAL_Driver/Src/stm32f1xx_hal_tim.c ****       htim->hdma[TIM_DMA_ID_CC1]->XferErrorCallback = TIM_DMAError ;
3381:Drivers/STM32F1xx_HAL_Driver/Src/stm32f1xx_hal_tim.c **** 
3382:Drivers/STM32F1xx_HAL_Driver/Src/stm32f1xx_hal_tim.c ****       /* Enable the DMA channel */
3383:Drivers/STM32F1xx_HAL_Driver/Src/stm32f1xx_hal_tim.c ****       HAL_DMA_Start_IT(htim->hdma[TIM_DMA_ID_CC1], (uint32_t)BurstBuffer, (uint32_t)&htim->Instance
3384:Drivers/STM32F1xx_HAL_Driver/Src/stm32f1xx_hal_tim.c ****     }
3385:Drivers/STM32F1xx_HAL_Driver/Src/stm32f1xx_hal_tim.c ****     break;
3386:Drivers/STM32F1xx_HAL_Driver/Src/stm32f1xx_hal_tim.c ****     case TIM_DMA_CC2:
3387:Drivers/STM32F1xx_HAL_Driver/Src/stm32f1xx_hal_tim.c ****     {
3388:Drivers/STM32F1xx_HAL_Driver/Src/stm32f1xx_hal_tim.c ****       /* Set the DMA Period elapsed callback */
3389:Drivers/STM32F1xx_HAL_Driver/Src/stm32f1xx_hal_tim.c ****       htim->hdma[TIM_DMA_ID_CC2]->XferCpltCallback =  TIM_DMADelayPulseCplt;
3390:Drivers/STM32F1xx_HAL_Driver/Src/stm32f1xx_hal_tim.c **** 
3391:Drivers/STM32F1xx_HAL_Driver/Src/stm32f1xx_hal_tim.c ****       /* Set the DMA error callback */
3392:Drivers/STM32F1xx_HAL_Driver/Src/stm32f1xx_hal_tim.c ****       htim->hdma[TIM_DMA_ID_CC2]->XferErrorCallback = TIM_DMAError ;
3393:Drivers/STM32F1xx_HAL_Driver/Src/stm32f1xx_hal_tim.c **** 
3394:Drivers/STM32F1xx_HAL_Driver/Src/stm32f1xx_hal_tim.c ****       /* Enable the DMA channel */
3395:Drivers/STM32F1xx_HAL_Driver/Src/stm32f1xx_hal_tim.c ****       HAL_DMA_Start_IT(htim->hdma[TIM_DMA_ID_CC2], (uint32_t)BurstBuffer, (uint32_t)&htim->Instance
3396:Drivers/STM32F1xx_HAL_Driver/Src/stm32f1xx_hal_tim.c ****     }
ARM GAS  /tmp/cc5HGhWi.s 			page 188


3397:Drivers/STM32F1xx_HAL_Driver/Src/stm32f1xx_hal_tim.c ****     break;
3398:Drivers/STM32F1xx_HAL_Driver/Src/stm32f1xx_hal_tim.c ****     case TIM_DMA_CC3:
3399:Drivers/STM32F1xx_HAL_Driver/Src/stm32f1xx_hal_tim.c ****     {
3400:Drivers/STM32F1xx_HAL_Driver/Src/stm32f1xx_hal_tim.c ****       /* Set the DMA Period elapsed callback */
3401:Drivers/STM32F1xx_HAL_Driver/Src/stm32f1xx_hal_tim.c ****       htim->hdma[TIM_DMA_ID_CC3]->XferCpltCallback =  TIM_DMADelayPulseCplt;
3402:Drivers/STM32F1xx_HAL_Driver/Src/stm32f1xx_hal_tim.c **** 
3403:Drivers/STM32F1xx_HAL_Driver/Src/stm32f1xx_hal_tim.c ****       /* Set the DMA error callback */
3404:Drivers/STM32F1xx_HAL_Driver/Src/stm32f1xx_hal_tim.c ****       htim->hdma[TIM_DMA_ID_CC3]->XferErrorCallback = TIM_DMAError ;
3405:Drivers/STM32F1xx_HAL_Driver/Src/stm32f1xx_hal_tim.c **** 
3406:Drivers/STM32F1xx_HAL_Driver/Src/stm32f1xx_hal_tim.c ****       /* Enable the DMA channel */
3407:Drivers/STM32F1xx_HAL_Driver/Src/stm32f1xx_hal_tim.c ****       HAL_DMA_Start_IT(htim->hdma[TIM_DMA_ID_CC3], (uint32_t)BurstBuffer, (uint32_t)&htim->Instance
3408:Drivers/STM32F1xx_HAL_Driver/Src/stm32f1xx_hal_tim.c ****     }
3409:Drivers/STM32F1xx_HAL_Driver/Src/stm32f1xx_hal_tim.c ****     break;
3410:Drivers/STM32F1xx_HAL_Driver/Src/stm32f1xx_hal_tim.c ****     case TIM_DMA_CC4:
3411:Drivers/STM32F1xx_HAL_Driver/Src/stm32f1xx_hal_tim.c ****     {
3412:Drivers/STM32F1xx_HAL_Driver/Src/stm32f1xx_hal_tim.c ****       /* Set the DMA Period elapsed callback */
3413:Drivers/STM32F1xx_HAL_Driver/Src/stm32f1xx_hal_tim.c ****       htim->hdma[TIM_DMA_ID_CC4]->XferCpltCallback =  TIM_DMADelayPulseCplt;
3414:Drivers/STM32F1xx_HAL_Driver/Src/stm32f1xx_hal_tim.c **** 
3415:Drivers/STM32F1xx_HAL_Driver/Src/stm32f1xx_hal_tim.c ****       /* Set the DMA error callback */
3416:Drivers/STM32F1xx_HAL_Driver/Src/stm32f1xx_hal_tim.c ****       htim->hdma[TIM_DMA_ID_CC4]->XferErrorCallback = TIM_DMAError ;
3417:Drivers/STM32F1xx_HAL_Driver/Src/stm32f1xx_hal_tim.c **** 
3418:Drivers/STM32F1xx_HAL_Driver/Src/stm32f1xx_hal_tim.c ****       /* Enable the DMA channel */
3419:Drivers/STM32F1xx_HAL_Driver/Src/stm32f1xx_hal_tim.c ****       HAL_DMA_Start_IT(htim->hdma[TIM_DMA_ID_CC4], (uint32_t)BurstBuffer, (uint32_t)&htim->Instance
3420:Drivers/STM32F1xx_HAL_Driver/Src/stm32f1xx_hal_tim.c ****     }
3421:Drivers/STM32F1xx_HAL_Driver/Src/stm32f1xx_hal_tim.c ****     break;
3422:Drivers/STM32F1xx_HAL_Driver/Src/stm32f1xx_hal_tim.c ****     case TIM_DMA_COM:
3423:Drivers/STM32F1xx_HAL_Driver/Src/stm32f1xx_hal_tim.c ****     {
3424:Drivers/STM32F1xx_HAL_Driver/Src/stm32f1xx_hal_tim.c ****       /* Set the DMA Period elapsed callback */
3425:Drivers/STM32F1xx_HAL_Driver/Src/stm32f1xx_hal_tim.c ****       htim->hdma[TIM_DMA_ID_COMMUTATION]->XferCpltCallback =  TIMEx_DMACommutationCplt;
3426:Drivers/STM32F1xx_HAL_Driver/Src/stm32f1xx_hal_tim.c **** 
3427:Drivers/STM32F1xx_HAL_Driver/Src/stm32f1xx_hal_tim.c ****       /* Set the DMA error callback */
3428:Drivers/STM32F1xx_HAL_Driver/Src/stm32f1xx_hal_tim.c ****       htim->hdma[TIM_DMA_ID_COMMUTATION]->XferErrorCallback = TIM_DMAError ;
3429:Drivers/STM32F1xx_HAL_Driver/Src/stm32f1xx_hal_tim.c **** 
3430:Drivers/STM32F1xx_HAL_Driver/Src/stm32f1xx_hal_tim.c ****       /* Enable the DMA channel */
3431:Drivers/STM32F1xx_HAL_Driver/Src/stm32f1xx_hal_tim.c ****       HAL_DMA_Start_IT(htim->hdma[TIM_DMA_ID_COMMUTATION], (uint32_t)BurstBuffer, (uint32_t)&htim->
3432:Drivers/STM32F1xx_HAL_Driver/Src/stm32f1xx_hal_tim.c ****     }
3433:Drivers/STM32F1xx_HAL_Driver/Src/stm32f1xx_hal_tim.c ****     break;
3434:Drivers/STM32F1xx_HAL_Driver/Src/stm32f1xx_hal_tim.c ****     case TIM_DMA_TRIGGER:
3435:Drivers/STM32F1xx_HAL_Driver/Src/stm32f1xx_hal_tim.c ****     {
3436:Drivers/STM32F1xx_HAL_Driver/Src/stm32f1xx_hal_tim.c ****       /* Set the DMA Period elapsed callback */
3437:Drivers/STM32F1xx_HAL_Driver/Src/stm32f1xx_hal_tim.c ****       htim->hdma[TIM_DMA_ID_TRIGGER]->XferCpltCallback = TIM_DMATriggerCplt;
3438:Drivers/STM32F1xx_HAL_Driver/Src/stm32f1xx_hal_tim.c **** 
3439:Drivers/STM32F1xx_HAL_Driver/Src/stm32f1xx_hal_tim.c ****       /* Set the DMA error callback */
3440:Drivers/STM32F1xx_HAL_Driver/Src/stm32f1xx_hal_tim.c ****       htim->hdma[TIM_DMA_ID_TRIGGER]->XferErrorCallback = TIM_DMAError ;
3441:Drivers/STM32F1xx_HAL_Driver/Src/stm32f1xx_hal_tim.c **** 
3442:Drivers/STM32F1xx_HAL_Driver/Src/stm32f1xx_hal_tim.c ****       /* Enable the DMA channel */
3443:Drivers/STM32F1xx_HAL_Driver/Src/stm32f1xx_hal_tim.c ****       HAL_DMA_Start_IT(htim->hdma[TIM_DMA_ID_TRIGGER], (uint32_t)BurstBuffer, (uint32_t)&htim->Inst
3444:Drivers/STM32F1xx_HAL_Driver/Src/stm32f1xx_hal_tim.c ****     }
3445:Drivers/STM32F1xx_HAL_Driver/Src/stm32f1xx_hal_tim.c ****     break;
3446:Drivers/STM32F1xx_HAL_Driver/Src/stm32f1xx_hal_tim.c ****     default:
3447:Drivers/STM32F1xx_HAL_Driver/Src/stm32f1xx_hal_tim.c ****     break;
 7347              		.loc 1 3447 0
 7348 0062 9DE0     		b	.L406
 7349              	.L399:
3360:Drivers/STM32F1xx_HAL_Driver/Src/stm32f1xx_hal_tim.c ****   {
 7350              		.loc 1 3360 0
 7351 0064 B3F5005F 		cmp	r3, #8192
ARM GAS  /tmp/cc5HGhWi.s 			page 189


 7352 0068 70D0     		beq	.L403
 7353 006a B3F5804F 		cmp	r3, #16384
 7354 006e 00F08280 		beq	.L404
 7355 0072 B3F5805F 		cmp	r3, #4096
 7356 0076 54D0     		beq	.L405
 7357              		.loc 1 3447 0
 7358 0078 92E0     		b	.L406
 7359              	.L402:
3365:Drivers/STM32F1xx_HAL_Driver/Src/stm32f1xx_hal_tim.c **** 
 7360              		.loc 1 3365 0
 7361 007a FB68     		ldr	r3, [r7, #12]
 7362 007c 1B6A     		ldr	r3, [r3, #32]
 7363 007e 544A     		ldr	r2, .L407
 7364 0080 9A62     		str	r2, [r3, #40]
3368:Drivers/STM32F1xx_HAL_Driver/Src/stm32f1xx_hal_tim.c **** 
 7365              		.loc 1 3368 0
 7366 0082 FB68     		ldr	r3, [r7, #12]
 7367 0084 1B6A     		ldr	r3, [r3, #32]
 7368 0086 534A     		ldr	r2, .L407+4
 7369 0088 1A63     		str	r2, [r3, #48]
3371:Drivers/STM32F1xx_HAL_Driver/Src/stm32f1xx_hal_tim.c ****     }
 7370              		.loc 1 3371 0
 7371 008a FB68     		ldr	r3, [r7, #12]
 7372 008c 186A     		ldr	r0, [r3, #32]
 7373 008e 3968     		ldr	r1, [r7]
 7374 0090 FB68     		ldr	r3, [r7, #12]
 7375 0092 1B68     		ldr	r3, [r3]
 7376 0094 4C33     		adds	r3, r3, #76
 7377 0096 1A46     		mov	r2, r3
 7378 0098 BB69     		ldr	r3, [r7, #24]
 7379 009a 1B0A     		lsrs	r3, r3, #8
 7380 009c 0133     		adds	r3, r3, #1
 7381 009e FFF7FEFF 		bl	HAL_DMA_Start_IT
3373:Drivers/STM32F1xx_HAL_Driver/Src/stm32f1xx_hal_tim.c ****     case TIM_DMA_CC1:
 7382              		.loc 1 3373 0
 7383 00a2 7DE0     		b	.L406
 7384              	.L400:
3377:Drivers/STM32F1xx_HAL_Driver/Src/stm32f1xx_hal_tim.c **** 
 7385              		.loc 1 3377 0
 7386 00a4 FB68     		ldr	r3, [r7, #12]
 7387 00a6 5B6A     		ldr	r3, [r3, #36]
 7388 00a8 4B4A     		ldr	r2, .L407+8
 7389 00aa 9A62     		str	r2, [r3, #40]
3380:Drivers/STM32F1xx_HAL_Driver/Src/stm32f1xx_hal_tim.c **** 
 7390              		.loc 1 3380 0
 7391 00ac FB68     		ldr	r3, [r7, #12]
 7392 00ae 5B6A     		ldr	r3, [r3, #36]
 7393 00b0 484A     		ldr	r2, .L407+4
 7394 00b2 1A63     		str	r2, [r3, #48]
3383:Drivers/STM32F1xx_HAL_Driver/Src/stm32f1xx_hal_tim.c ****     }
 7395              		.loc 1 3383 0
 7396 00b4 FB68     		ldr	r3, [r7, #12]
 7397 00b6 586A     		ldr	r0, [r3, #36]
 7398 00b8 3968     		ldr	r1, [r7]
 7399 00ba FB68     		ldr	r3, [r7, #12]
 7400 00bc 1B68     		ldr	r3, [r3]
 7401 00be 4C33     		adds	r3, r3, #76
ARM GAS  /tmp/cc5HGhWi.s 			page 190


 7402 00c0 1A46     		mov	r2, r3
 7403 00c2 BB69     		ldr	r3, [r7, #24]
 7404 00c4 1B0A     		lsrs	r3, r3, #8
 7405 00c6 0133     		adds	r3, r3, #1
 7406 00c8 FFF7FEFF 		bl	HAL_DMA_Start_IT
3385:Drivers/STM32F1xx_HAL_Driver/Src/stm32f1xx_hal_tim.c ****     case TIM_DMA_CC2:
 7407              		.loc 1 3385 0
 7408 00cc 68E0     		b	.L406
 7409              	.L401:
3389:Drivers/STM32F1xx_HAL_Driver/Src/stm32f1xx_hal_tim.c **** 
 7410              		.loc 1 3389 0
 7411 00ce FB68     		ldr	r3, [r7, #12]
 7412 00d0 9B6A     		ldr	r3, [r3, #40]
 7413 00d2 414A     		ldr	r2, .L407+8
 7414 00d4 9A62     		str	r2, [r3, #40]
3392:Drivers/STM32F1xx_HAL_Driver/Src/stm32f1xx_hal_tim.c **** 
 7415              		.loc 1 3392 0
 7416 00d6 FB68     		ldr	r3, [r7, #12]
 7417 00d8 9B6A     		ldr	r3, [r3, #40]
 7418 00da 3E4A     		ldr	r2, .L407+4
 7419 00dc 1A63     		str	r2, [r3, #48]
3395:Drivers/STM32F1xx_HAL_Driver/Src/stm32f1xx_hal_tim.c ****     }
 7420              		.loc 1 3395 0
 7421 00de FB68     		ldr	r3, [r7, #12]
 7422 00e0 986A     		ldr	r0, [r3, #40]
 7423 00e2 3968     		ldr	r1, [r7]
 7424 00e4 FB68     		ldr	r3, [r7, #12]
 7425 00e6 1B68     		ldr	r3, [r3]
 7426 00e8 4C33     		adds	r3, r3, #76
 7427 00ea 1A46     		mov	r2, r3
 7428 00ec BB69     		ldr	r3, [r7, #24]
 7429 00ee 1B0A     		lsrs	r3, r3, #8
 7430 00f0 0133     		adds	r3, r3, #1
 7431 00f2 FFF7FEFF 		bl	HAL_DMA_Start_IT
3397:Drivers/STM32F1xx_HAL_Driver/Src/stm32f1xx_hal_tim.c ****     case TIM_DMA_CC3:
 7432              		.loc 1 3397 0
 7433 00f6 53E0     		b	.L406
 7434              	.L398:
3401:Drivers/STM32F1xx_HAL_Driver/Src/stm32f1xx_hal_tim.c **** 
 7435              		.loc 1 3401 0
 7436 00f8 FB68     		ldr	r3, [r7, #12]
 7437 00fa DB6A     		ldr	r3, [r3, #44]
 7438 00fc 364A     		ldr	r2, .L407+8
 7439 00fe 9A62     		str	r2, [r3, #40]
3404:Drivers/STM32F1xx_HAL_Driver/Src/stm32f1xx_hal_tim.c **** 
 7440              		.loc 1 3404 0
 7441 0100 FB68     		ldr	r3, [r7, #12]
 7442 0102 DB6A     		ldr	r3, [r3, #44]
 7443 0104 334A     		ldr	r2, .L407+4
 7444 0106 1A63     		str	r2, [r3, #48]
3407:Drivers/STM32F1xx_HAL_Driver/Src/stm32f1xx_hal_tim.c ****     }
 7445              		.loc 1 3407 0
 7446 0108 FB68     		ldr	r3, [r7, #12]
 7447 010a D86A     		ldr	r0, [r3, #44]
 7448 010c 3968     		ldr	r1, [r7]
 7449 010e FB68     		ldr	r3, [r7, #12]
 7450 0110 1B68     		ldr	r3, [r3]
ARM GAS  /tmp/cc5HGhWi.s 			page 191


 7451 0112 4C33     		adds	r3, r3, #76
 7452 0114 1A46     		mov	r2, r3
 7453 0116 BB69     		ldr	r3, [r7, #24]
 7454 0118 1B0A     		lsrs	r3, r3, #8
 7455 011a 0133     		adds	r3, r3, #1
 7456 011c FFF7FEFF 		bl	HAL_DMA_Start_IT
3409:Drivers/STM32F1xx_HAL_Driver/Src/stm32f1xx_hal_tim.c ****     case TIM_DMA_CC4:
 7457              		.loc 1 3409 0
 7458 0120 3EE0     		b	.L406
 7459              	.L405:
3413:Drivers/STM32F1xx_HAL_Driver/Src/stm32f1xx_hal_tim.c **** 
 7460              		.loc 1 3413 0
 7461 0122 FB68     		ldr	r3, [r7, #12]
 7462 0124 1B6B     		ldr	r3, [r3, #48]
 7463 0126 2C4A     		ldr	r2, .L407+8
 7464 0128 9A62     		str	r2, [r3, #40]
3416:Drivers/STM32F1xx_HAL_Driver/Src/stm32f1xx_hal_tim.c **** 
 7465              		.loc 1 3416 0
 7466 012a FB68     		ldr	r3, [r7, #12]
 7467 012c 1B6B     		ldr	r3, [r3, #48]
 7468 012e 294A     		ldr	r2, .L407+4
 7469 0130 1A63     		str	r2, [r3, #48]
3419:Drivers/STM32F1xx_HAL_Driver/Src/stm32f1xx_hal_tim.c ****     }
 7470              		.loc 1 3419 0
 7471 0132 FB68     		ldr	r3, [r7, #12]
 7472 0134 186B     		ldr	r0, [r3, #48]
 7473 0136 3968     		ldr	r1, [r7]
 7474 0138 FB68     		ldr	r3, [r7, #12]
 7475 013a 1B68     		ldr	r3, [r3]
 7476 013c 4C33     		adds	r3, r3, #76
 7477 013e 1A46     		mov	r2, r3
 7478 0140 BB69     		ldr	r3, [r7, #24]
 7479 0142 1B0A     		lsrs	r3, r3, #8
 7480 0144 0133     		adds	r3, r3, #1
 7481 0146 FFF7FEFF 		bl	HAL_DMA_Start_IT
3421:Drivers/STM32F1xx_HAL_Driver/Src/stm32f1xx_hal_tim.c ****     case TIM_DMA_COM:
 7482              		.loc 1 3421 0
 7483 014a 29E0     		b	.L406
 7484              	.L403:
3425:Drivers/STM32F1xx_HAL_Driver/Src/stm32f1xx_hal_tim.c **** 
 7485              		.loc 1 3425 0
 7486 014c FB68     		ldr	r3, [r7, #12]
 7487 014e 5B6B     		ldr	r3, [r3, #52]
 7488 0150 224A     		ldr	r2, .L407+12
 7489 0152 9A62     		str	r2, [r3, #40]
3428:Drivers/STM32F1xx_HAL_Driver/Src/stm32f1xx_hal_tim.c **** 
 7490              		.loc 1 3428 0
 7491 0154 FB68     		ldr	r3, [r7, #12]
 7492 0156 5B6B     		ldr	r3, [r3, #52]
 7493 0158 1E4A     		ldr	r2, .L407+4
 7494 015a 1A63     		str	r2, [r3, #48]
3431:Drivers/STM32F1xx_HAL_Driver/Src/stm32f1xx_hal_tim.c ****     }
 7495              		.loc 1 3431 0
 7496 015c FB68     		ldr	r3, [r7, #12]
 7497 015e 586B     		ldr	r0, [r3, #52]
 7498 0160 3968     		ldr	r1, [r7]
 7499 0162 FB68     		ldr	r3, [r7, #12]
ARM GAS  /tmp/cc5HGhWi.s 			page 192


 7500 0164 1B68     		ldr	r3, [r3]
 7501 0166 4C33     		adds	r3, r3, #76
 7502 0168 1A46     		mov	r2, r3
 7503 016a BB69     		ldr	r3, [r7, #24]
 7504 016c 1B0A     		lsrs	r3, r3, #8
 7505 016e 0133     		adds	r3, r3, #1
 7506 0170 FFF7FEFF 		bl	HAL_DMA_Start_IT
3433:Drivers/STM32F1xx_HAL_Driver/Src/stm32f1xx_hal_tim.c ****     case TIM_DMA_TRIGGER:
 7507              		.loc 1 3433 0
 7508 0174 14E0     		b	.L406
 7509              	.L404:
3437:Drivers/STM32F1xx_HAL_Driver/Src/stm32f1xx_hal_tim.c **** 
 7510              		.loc 1 3437 0
 7511 0176 FB68     		ldr	r3, [r7, #12]
 7512 0178 9B6B     		ldr	r3, [r3, #56]
 7513 017a 194A     		ldr	r2, .L407+16
 7514 017c 9A62     		str	r2, [r3, #40]
3440:Drivers/STM32F1xx_HAL_Driver/Src/stm32f1xx_hal_tim.c **** 
 7515              		.loc 1 3440 0
 7516 017e FB68     		ldr	r3, [r7, #12]
 7517 0180 9B6B     		ldr	r3, [r3, #56]
 7518 0182 144A     		ldr	r2, .L407+4
 7519 0184 1A63     		str	r2, [r3, #48]
3443:Drivers/STM32F1xx_HAL_Driver/Src/stm32f1xx_hal_tim.c ****     }
 7520              		.loc 1 3443 0
 7521 0186 FB68     		ldr	r3, [r7, #12]
 7522 0188 986B     		ldr	r0, [r3, #56]
 7523 018a 3968     		ldr	r1, [r7]
 7524 018c FB68     		ldr	r3, [r7, #12]
 7525 018e 1B68     		ldr	r3, [r3]
 7526 0190 4C33     		adds	r3, r3, #76
 7527 0192 1A46     		mov	r2, r3
 7528 0194 BB69     		ldr	r3, [r7, #24]
 7529 0196 1B0A     		lsrs	r3, r3, #8
 7530 0198 0133     		adds	r3, r3, #1
 7531 019a FFF7FEFF 		bl	HAL_DMA_Start_IT
3445:Drivers/STM32F1xx_HAL_Driver/Src/stm32f1xx_hal_tim.c ****     default:
 7532              		.loc 1 3445 0
 7533 019e 00BF     		nop
 7534              	.L406:
3448:Drivers/STM32F1xx_HAL_Driver/Src/stm32f1xx_hal_tim.c ****   }
3449:Drivers/STM32F1xx_HAL_Driver/Src/stm32f1xx_hal_tim.c ****    /* configure the DMA Burst Mode */
3450:Drivers/STM32F1xx_HAL_Driver/Src/stm32f1xx_hal_tim.c ****    htim->Instance->DCR = BurstBaseAddress | BurstLength;
 7535              		.loc 1 3450 0
 7536 01a0 FB68     		ldr	r3, [r7, #12]
 7537 01a2 1B68     		ldr	r3, [r3]
 7538 01a4 B968     		ldr	r1, [r7, #8]
 7539 01a6 BA69     		ldr	r2, [r7, #24]
 7540 01a8 0A43     		orrs	r2, r2, r1
 7541 01aa 9A64     		str	r2, [r3, #72]
3451:Drivers/STM32F1xx_HAL_Driver/Src/stm32f1xx_hal_tim.c **** 
3452:Drivers/STM32F1xx_HAL_Driver/Src/stm32f1xx_hal_tim.c ****    /* Enable the TIM DMA Request */
3453:Drivers/STM32F1xx_HAL_Driver/Src/stm32f1xx_hal_tim.c ****    __HAL_TIM_ENABLE_DMA(htim, BurstRequestSrc);
 7542              		.loc 1 3453 0
 7543 01ac FB68     		ldr	r3, [r7, #12]
 7544 01ae 1B68     		ldr	r3, [r3]
 7545 01b0 D968     		ldr	r1, [r3, #12]
ARM GAS  /tmp/cc5HGhWi.s 			page 193


 7546 01b2 FB68     		ldr	r3, [r7, #12]
 7547 01b4 1B68     		ldr	r3, [r3]
 7548 01b6 7A68     		ldr	r2, [r7, #4]
 7549 01b8 0A43     		orrs	r2, r2, r1
 7550 01ba DA60     		str	r2, [r3, #12]
3454:Drivers/STM32F1xx_HAL_Driver/Src/stm32f1xx_hal_tim.c **** 
3455:Drivers/STM32F1xx_HAL_Driver/Src/stm32f1xx_hal_tim.c ****    htim->State = HAL_TIM_STATE_READY;
 7551              		.loc 1 3455 0
 7552 01bc FB68     		ldr	r3, [r7, #12]
 7553 01be 0122     		movs	r2, #1
 7554 01c0 83F83D20 		strb	r2, [r3, #61]
3456:Drivers/STM32F1xx_HAL_Driver/Src/stm32f1xx_hal_tim.c **** 
3457:Drivers/STM32F1xx_HAL_Driver/Src/stm32f1xx_hal_tim.c ****   /* Return function status */
3458:Drivers/STM32F1xx_HAL_Driver/Src/stm32f1xx_hal_tim.c ****   return HAL_OK;
 7555              		.loc 1 3458 0
 7556 01c4 0023     		movs	r3, #0
 7557              	.L394:
3459:Drivers/STM32F1xx_HAL_Driver/Src/stm32f1xx_hal_tim.c **** }
 7558              		.loc 1 3459 0
 7559 01c6 1846     		mov	r0, r3
 7560 01c8 1037     		adds	r7, r7, #16
 7561              	.LCFI335:
 7562              		.cfi_def_cfa_offset 8
 7563 01ca BD46     		mov	sp, r7
 7564              	.LCFI336:
 7565              		.cfi_def_cfa_register 13
 7566              		@ sp needed
 7567 01cc 80BD     		pop	{r7, pc}
 7568              	.L408:
 7569 01ce 00BF     		.align	2
 7570              	.L407:
 7571 01d0 00000000 		.word	TIM_DMAPeriodElapsedCplt
 7572 01d4 00000000 		.word	TIM_DMAError
 7573 01d8 00000000 		.word	TIM_DMADelayPulseCplt
 7574 01dc 00000000 		.word	TIMEx_DMACommutationCplt
 7575 01e0 00000000 		.word	TIM_DMATriggerCplt
 7576              		.cfi_endproc
 7577              	.LFE129:
 7579              		.section	.text.HAL_TIM_DMABurst_WriteStop,"ax",%progbits
 7580              		.align	1
 7581              		.global	HAL_TIM_DMABurst_WriteStop
 7582              		.syntax unified
 7583              		.thumb
 7584              		.thumb_func
 7585              		.fpu softvfp
 7587              	HAL_TIM_DMABurst_WriteStop:
 7588              	.LFB130:
3460:Drivers/STM32F1xx_HAL_Driver/Src/stm32f1xx_hal_tim.c **** 
3461:Drivers/STM32F1xx_HAL_Driver/Src/stm32f1xx_hal_tim.c **** /**
3462:Drivers/STM32F1xx_HAL_Driver/Src/stm32f1xx_hal_tim.c ****   * @brief  Stops the TIM DMA Burst mode 
3463:Drivers/STM32F1xx_HAL_Driver/Src/stm32f1xx_hal_tim.c ****   * @param  htim : TIM handle
3464:Drivers/STM32F1xx_HAL_Driver/Src/stm32f1xx_hal_tim.c ****   * @param  BurstRequestSrc : TIM DMA Request sources to disable
3465:Drivers/STM32F1xx_HAL_Driver/Src/stm32f1xx_hal_tim.c ****   * @retval HAL status
3466:Drivers/STM32F1xx_HAL_Driver/Src/stm32f1xx_hal_tim.c ****   */
3467:Drivers/STM32F1xx_HAL_Driver/Src/stm32f1xx_hal_tim.c **** HAL_StatusTypeDef HAL_TIM_DMABurst_WriteStop(TIM_HandleTypeDef *htim, uint32_t BurstRequestSrc)
3468:Drivers/STM32F1xx_HAL_Driver/Src/stm32f1xx_hal_tim.c **** {
 7589              		.loc 1 3468 0
ARM GAS  /tmp/cc5HGhWi.s 			page 194


 7590              		.cfi_startproc
 7591              		@ args = 0, pretend = 0, frame = 8
 7592              		@ frame_needed = 1, uses_anonymous_args = 0
 7593 0000 80B5     		push	{r7, lr}
 7594              	.LCFI337:
 7595              		.cfi_def_cfa_offset 8
 7596              		.cfi_offset 7, -8
 7597              		.cfi_offset 14, -4
 7598 0002 82B0     		sub	sp, sp, #8
 7599              	.LCFI338:
 7600              		.cfi_def_cfa_offset 16
 7601 0004 00AF     		add	r7, sp, #0
 7602              	.LCFI339:
 7603              		.cfi_def_cfa_register 7
 7604 0006 7860     		str	r0, [r7, #4]
 7605 0008 3960     		str	r1, [r7]
3469:Drivers/STM32F1xx_HAL_Driver/Src/stm32f1xx_hal_tim.c ****   /* Check the parameters */
3470:Drivers/STM32F1xx_HAL_Driver/Src/stm32f1xx_hal_tim.c ****   assert_param(IS_TIM_DMA_SOURCE(BurstRequestSrc));
3471:Drivers/STM32F1xx_HAL_Driver/Src/stm32f1xx_hal_tim.c **** 
3472:Drivers/STM32F1xx_HAL_Driver/Src/stm32f1xx_hal_tim.c ****   /* Abort the DMA transfer (at least disable the DMA channel) */
3473:Drivers/STM32F1xx_HAL_Driver/Src/stm32f1xx_hal_tim.c ****   switch(BurstRequestSrc)
 7606              		.loc 1 3473 0
 7607 000a 3B68     		ldr	r3, [r7]
 7608 000c B3F5006F 		cmp	r3, #2048
 7609 0010 28D0     		beq	.L411
 7610 0012 B3F5006F 		cmp	r3, #2048
 7611 0016 09D8     		bhi	.L412
 7612 0018 B3F5007F 		cmp	r3, #512
 7613 001c 16D0     		beq	.L413
 7614 001e B3F5806F 		cmp	r3, #1024
 7615 0022 19D0     		beq	.L414
 7616 0024 B3F5807F 		cmp	r3, #256
 7617 0028 0AD0     		beq	.L415
3474:Drivers/STM32F1xx_HAL_Driver/Src/stm32f1xx_hal_tim.c ****   {
3475:Drivers/STM32F1xx_HAL_Driver/Src/stm32f1xx_hal_tim.c ****     case TIM_DMA_UPDATE:
3476:Drivers/STM32F1xx_HAL_Driver/Src/stm32f1xx_hal_tim.c ****     {
3477:Drivers/STM32F1xx_HAL_Driver/Src/stm32f1xx_hal_tim.c ****       HAL_DMA_Abort(htim->hdma[TIM_DMA_ID_UPDATE]);
3478:Drivers/STM32F1xx_HAL_Driver/Src/stm32f1xx_hal_tim.c ****     }
3479:Drivers/STM32F1xx_HAL_Driver/Src/stm32f1xx_hal_tim.c ****     break;
3480:Drivers/STM32F1xx_HAL_Driver/Src/stm32f1xx_hal_tim.c ****     case TIM_DMA_CC1:
3481:Drivers/STM32F1xx_HAL_Driver/Src/stm32f1xx_hal_tim.c ****     {
3482:Drivers/STM32F1xx_HAL_Driver/Src/stm32f1xx_hal_tim.c ****       HAL_DMA_Abort(htim->hdma[TIM_DMA_ID_CC1]);
3483:Drivers/STM32F1xx_HAL_Driver/Src/stm32f1xx_hal_tim.c ****     }
3484:Drivers/STM32F1xx_HAL_Driver/Src/stm32f1xx_hal_tim.c ****     break;
3485:Drivers/STM32F1xx_HAL_Driver/Src/stm32f1xx_hal_tim.c ****     case TIM_DMA_CC2:
3486:Drivers/STM32F1xx_HAL_Driver/Src/stm32f1xx_hal_tim.c ****     {
3487:Drivers/STM32F1xx_HAL_Driver/Src/stm32f1xx_hal_tim.c ****       HAL_DMA_Abort(htim->hdma[TIM_DMA_ID_CC2]);
3488:Drivers/STM32F1xx_HAL_Driver/Src/stm32f1xx_hal_tim.c ****     }
3489:Drivers/STM32F1xx_HAL_Driver/Src/stm32f1xx_hal_tim.c ****     break;
3490:Drivers/STM32F1xx_HAL_Driver/Src/stm32f1xx_hal_tim.c ****     case TIM_DMA_CC3:
3491:Drivers/STM32F1xx_HAL_Driver/Src/stm32f1xx_hal_tim.c ****     {
3492:Drivers/STM32F1xx_HAL_Driver/Src/stm32f1xx_hal_tim.c ****       HAL_DMA_Abort(htim->hdma[TIM_DMA_ID_CC3]);
3493:Drivers/STM32F1xx_HAL_Driver/Src/stm32f1xx_hal_tim.c ****     }
3494:Drivers/STM32F1xx_HAL_Driver/Src/stm32f1xx_hal_tim.c ****     break;
3495:Drivers/STM32F1xx_HAL_Driver/Src/stm32f1xx_hal_tim.c ****     case TIM_DMA_CC4:
3496:Drivers/STM32F1xx_HAL_Driver/Src/stm32f1xx_hal_tim.c ****     {
3497:Drivers/STM32F1xx_HAL_Driver/Src/stm32f1xx_hal_tim.c ****       HAL_DMA_Abort(htim->hdma[TIM_DMA_ID_CC4]);
ARM GAS  /tmp/cc5HGhWi.s 			page 195


3498:Drivers/STM32F1xx_HAL_Driver/Src/stm32f1xx_hal_tim.c ****     }
3499:Drivers/STM32F1xx_HAL_Driver/Src/stm32f1xx_hal_tim.c ****     break;
3500:Drivers/STM32F1xx_HAL_Driver/Src/stm32f1xx_hal_tim.c ****     case TIM_DMA_COM:
3501:Drivers/STM32F1xx_HAL_Driver/Src/stm32f1xx_hal_tim.c ****     {
3502:Drivers/STM32F1xx_HAL_Driver/Src/stm32f1xx_hal_tim.c ****       HAL_DMA_Abort(htim->hdma[TIM_DMA_ID_COMMUTATION]);
3503:Drivers/STM32F1xx_HAL_Driver/Src/stm32f1xx_hal_tim.c ****     }
3504:Drivers/STM32F1xx_HAL_Driver/Src/stm32f1xx_hal_tim.c ****     break;
3505:Drivers/STM32F1xx_HAL_Driver/Src/stm32f1xx_hal_tim.c ****     case TIM_DMA_TRIGGER:
3506:Drivers/STM32F1xx_HAL_Driver/Src/stm32f1xx_hal_tim.c ****     {
3507:Drivers/STM32F1xx_HAL_Driver/Src/stm32f1xx_hal_tim.c ****       HAL_DMA_Abort(htim->hdma[TIM_DMA_ID_TRIGGER]);
3508:Drivers/STM32F1xx_HAL_Driver/Src/stm32f1xx_hal_tim.c ****     }
3509:Drivers/STM32F1xx_HAL_Driver/Src/stm32f1xx_hal_tim.c ****     break;
3510:Drivers/STM32F1xx_HAL_Driver/Src/stm32f1xx_hal_tim.c ****     default:
3511:Drivers/STM32F1xx_HAL_Driver/Src/stm32f1xx_hal_tim.c ****     break;
 7618              		.loc 1 3511 0
 7619 002a 33E0     		b	.L419
 7620              	.L412:
3473:Drivers/STM32F1xx_HAL_Driver/Src/stm32f1xx_hal_tim.c ****   {
 7621              		.loc 1 3473 0
 7622 002c B3F5005F 		cmp	r3, #8192
 7623 0030 24D0     		beq	.L416
 7624 0032 B3F5804F 		cmp	r3, #16384
 7625 0036 27D0     		beq	.L417
 7626 0038 B3F5805F 		cmp	r3, #4096
 7627 003c 18D0     		beq	.L418
 7628              		.loc 1 3511 0
 7629 003e 29E0     		b	.L419
 7630              	.L415:
3477:Drivers/STM32F1xx_HAL_Driver/Src/stm32f1xx_hal_tim.c ****     }
 7631              		.loc 1 3477 0
 7632 0040 7B68     		ldr	r3, [r7, #4]
 7633 0042 1B6A     		ldr	r3, [r3, #32]
 7634 0044 1846     		mov	r0, r3
 7635 0046 FFF7FEFF 		bl	HAL_DMA_Abort
3479:Drivers/STM32F1xx_HAL_Driver/Src/stm32f1xx_hal_tim.c ****     case TIM_DMA_CC1:
 7636              		.loc 1 3479 0
 7637 004a 23E0     		b	.L419
 7638              	.L413:
3482:Drivers/STM32F1xx_HAL_Driver/Src/stm32f1xx_hal_tim.c ****     }
 7639              		.loc 1 3482 0
 7640 004c 7B68     		ldr	r3, [r7, #4]
 7641 004e 5B6A     		ldr	r3, [r3, #36]
 7642 0050 1846     		mov	r0, r3
 7643 0052 FFF7FEFF 		bl	HAL_DMA_Abort
3484:Drivers/STM32F1xx_HAL_Driver/Src/stm32f1xx_hal_tim.c ****     case TIM_DMA_CC2:
 7644              		.loc 1 3484 0
 7645 0056 1DE0     		b	.L419
 7646              	.L414:
3487:Drivers/STM32F1xx_HAL_Driver/Src/stm32f1xx_hal_tim.c ****     }
 7647              		.loc 1 3487 0
 7648 0058 7B68     		ldr	r3, [r7, #4]
 7649 005a 9B6A     		ldr	r3, [r3, #40]
 7650 005c 1846     		mov	r0, r3
 7651 005e FFF7FEFF 		bl	HAL_DMA_Abort
3489:Drivers/STM32F1xx_HAL_Driver/Src/stm32f1xx_hal_tim.c ****     case TIM_DMA_CC3:
 7652              		.loc 1 3489 0
 7653 0062 17E0     		b	.L419
ARM GAS  /tmp/cc5HGhWi.s 			page 196


 7654              	.L411:
3492:Drivers/STM32F1xx_HAL_Driver/Src/stm32f1xx_hal_tim.c ****     }
 7655              		.loc 1 3492 0
 7656 0064 7B68     		ldr	r3, [r7, #4]
 7657 0066 DB6A     		ldr	r3, [r3, #44]
 7658 0068 1846     		mov	r0, r3
 7659 006a FFF7FEFF 		bl	HAL_DMA_Abort
3494:Drivers/STM32F1xx_HAL_Driver/Src/stm32f1xx_hal_tim.c ****     case TIM_DMA_CC4:
 7660              		.loc 1 3494 0
 7661 006e 11E0     		b	.L419
 7662              	.L418:
3497:Drivers/STM32F1xx_HAL_Driver/Src/stm32f1xx_hal_tim.c ****     }
 7663              		.loc 1 3497 0
 7664 0070 7B68     		ldr	r3, [r7, #4]
 7665 0072 1B6B     		ldr	r3, [r3, #48]
 7666 0074 1846     		mov	r0, r3
 7667 0076 FFF7FEFF 		bl	HAL_DMA_Abort
3499:Drivers/STM32F1xx_HAL_Driver/Src/stm32f1xx_hal_tim.c ****     case TIM_DMA_COM:
 7668              		.loc 1 3499 0
 7669 007a 0BE0     		b	.L419
 7670              	.L416:
3502:Drivers/STM32F1xx_HAL_Driver/Src/stm32f1xx_hal_tim.c ****     }
 7671              		.loc 1 3502 0
 7672 007c 7B68     		ldr	r3, [r7, #4]
 7673 007e 5B6B     		ldr	r3, [r3, #52]
 7674 0080 1846     		mov	r0, r3
 7675 0082 FFF7FEFF 		bl	HAL_DMA_Abort
3504:Drivers/STM32F1xx_HAL_Driver/Src/stm32f1xx_hal_tim.c ****     case TIM_DMA_TRIGGER:
 7676              		.loc 1 3504 0
 7677 0086 05E0     		b	.L419
 7678              	.L417:
3507:Drivers/STM32F1xx_HAL_Driver/Src/stm32f1xx_hal_tim.c ****     }
 7679              		.loc 1 3507 0
 7680 0088 7B68     		ldr	r3, [r7, #4]
 7681 008a 9B6B     		ldr	r3, [r3, #56]
 7682 008c 1846     		mov	r0, r3
 7683 008e FFF7FEFF 		bl	HAL_DMA_Abort
3509:Drivers/STM32F1xx_HAL_Driver/Src/stm32f1xx_hal_tim.c ****     default:
 7684              		.loc 1 3509 0
 7685 0092 00BF     		nop
 7686              	.L419:
3512:Drivers/STM32F1xx_HAL_Driver/Src/stm32f1xx_hal_tim.c ****   }
3513:Drivers/STM32F1xx_HAL_Driver/Src/stm32f1xx_hal_tim.c **** 
3514:Drivers/STM32F1xx_HAL_Driver/Src/stm32f1xx_hal_tim.c ****   /* Disable the TIM Update DMA request */
3515:Drivers/STM32F1xx_HAL_Driver/Src/stm32f1xx_hal_tim.c ****   __HAL_TIM_DISABLE_DMA(htim, BurstRequestSrc);
 7687              		.loc 1 3515 0
 7688 0094 7B68     		ldr	r3, [r7, #4]
 7689 0096 1B68     		ldr	r3, [r3]
 7690 0098 D968     		ldr	r1, [r3, #12]
 7691 009a 3B68     		ldr	r3, [r7]
 7692 009c DA43     		mvns	r2, r3
 7693 009e 7B68     		ldr	r3, [r7, #4]
 7694 00a0 1B68     		ldr	r3, [r3]
 7695 00a2 0A40     		ands	r2, r2, r1
 7696 00a4 DA60     		str	r2, [r3, #12]
3516:Drivers/STM32F1xx_HAL_Driver/Src/stm32f1xx_hal_tim.c **** 
3517:Drivers/STM32F1xx_HAL_Driver/Src/stm32f1xx_hal_tim.c ****   /* Return function status */
ARM GAS  /tmp/cc5HGhWi.s 			page 197


3518:Drivers/STM32F1xx_HAL_Driver/Src/stm32f1xx_hal_tim.c ****   return HAL_OK;
 7697              		.loc 1 3518 0
 7698 00a6 0023     		movs	r3, #0
3519:Drivers/STM32F1xx_HAL_Driver/Src/stm32f1xx_hal_tim.c **** }
 7699              		.loc 1 3519 0
 7700 00a8 1846     		mov	r0, r3
 7701 00aa 0837     		adds	r7, r7, #8
 7702              	.LCFI340:
 7703              		.cfi_def_cfa_offset 8
 7704 00ac BD46     		mov	sp, r7
 7705              	.LCFI341:
 7706              		.cfi_def_cfa_register 13
 7707              		@ sp needed
 7708 00ae 80BD     		pop	{r7, pc}
 7709              		.cfi_endproc
 7710              	.LFE130:
 7712              		.section	.text.HAL_TIM_DMABurst_ReadStart,"ax",%progbits
 7713              		.align	1
 7714              		.global	HAL_TIM_DMABurst_ReadStart
 7715              		.syntax unified
 7716              		.thumb
 7717              		.thumb_func
 7718              		.fpu softvfp
 7720              	HAL_TIM_DMABurst_ReadStart:
 7721              	.LFB131:
3520:Drivers/STM32F1xx_HAL_Driver/Src/stm32f1xx_hal_tim.c **** 
3521:Drivers/STM32F1xx_HAL_Driver/Src/stm32f1xx_hal_tim.c **** /**
3522:Drivers/STM32F1xx_HAL_Driver/Src/stm32f1xx_hal_tim.c ****   * @brief  Configure the DMA Burst to transfer Data from the TIM peripheral to the memory 
3523:Drivers/STM32F1xx_HAL_Driver/Src/stm32f1xx_hal_tim.c ****   * @param  htim : TIM handle
3524:Drivers/STM32F1xx_HAL_Driver/Src/stm32f1xx_hal_tim.c ****   * @param  BurstBaseAddress : TIM Base address from where the DMA will starts the Data read
3525:Drivers/STM32F1xx_HAL_Driver/Src/stm32f1xx_hal_tim.c ****   *         This parameter can be one of the following values:
3526:Drivers/STM32F1xx_HAL_Driver/Src/stm32f1xx_hal_tim.c ****   *            @arg TIM_DMABASE_CR1 
3527:Drivers/STM32F1xx_HAL_Driver/Src/stm32f1xx_hal_tim.c ****   *            @arg TIM_DMABASE_CR2
3528:Drivers/STM32F1xx_HAL_Driver/Src/stm32f1xx_hal_tim.c ****   *            @arg TIM_DMABASE_SMCR
3529:Drivers/STM32F1xx_HAL_Driver/Src/stm32f1xx_hal_tim.c ****   *            @arg TIM_DMABASE_DIER
3530:Drivers/STM32F1xx_HAL_Driver/Src/stm32f1xx_hal_tim.c ****   *            @arg TIM_DMABASE_SR
3531:Drivers/STM32F1xx_HAL_Driver/Src/stm32f1xx_hal_tim.c ****   *            @arg TIM_DMABASE_EGR
3532:Drivers/STM32F1xx_HAL_Driver/Src/stm32f1xx_hal_tim.c ****   *            @arg TIM_DMABASE_CCMR1
3533:Drivers/STM32F1xx_HAL_Driver/Src/stm32f1xx_hal_tim.c ****   *            @arg TIM_DMABASE_CCMR2
3534:Drivers/STM32F1xx_HAL_Driver/Src/stm32f1xx_hal_tim.c ****   *            @arg TIM_DMABASE_CCER
3535:Drivers/STM32F1xx_HAL_Driver/Src/stm32f1xx_hal_tim.c ****   *            @arg TIM_DMABASE_CNT 
3536:Drivers/STM32F1xx_HAL_Driver/Src/stm32f1xx_hal_tim.c ****   *            @arg TIM_DMABASE_PSC 
3537:Drivers/STM32F1xx_HAL_Driver/Src/stm32f1xx_hal_tim.c ****   *            @arg TIM_DMABASE_ARR
3538:Drivers/STM32F1xx_HAL_Driver/Src/stm32f1xx_hal_tim.c ****   *            @arg TIM_DMABASE_RCR
3539:Drivers/STM32F1xx_HAL_Driver/Src/stm32f1xx_hal_tim.c ****   *            @arg TIM_DMABASE_CCR1
3540:Drivers/STM32F1xx_HAL_Driver/Src/stm32f1xx_hal_tim.c ****   *            @arg TIM_DMABASE_CCR2
3541:Drivers/STM32F1xx_HAL_Driver/Src/stm32f1xx_hal_tim.c ****   *            @arg TIM_DMABASE_CCR3 
3542:Drivers/STM32F1xx_HAL_Driver/Src/stm32f1xx_hal_tim.c ****   *            @arg TIM_DMABASE_CCR4
3543:Drivers/STM32F1xx_HAL_Driver/Src/stm32f1xx_hal_tim.c ****   *            @arg TIM_DMABASE_BDTR
3544:Drivers/STM32F1xx_HAL_Driver/Src/stm32f1xx_hal_tim.c ****   *            @arg TIM_DMABASE_DCR
3545:Drivers/STM32F1xx_HAL_Driver/Src/stm32f1xx_hal_tim.c ****   * @param  BurstRequestSrc : TIM DMA Request sources
3546:Drivers/STM32F1xx_HAL_Driver/Src/stm32f1xx_hal_tim.c ****   *         This parameter can be one of the following values:
3547:Drivers/STM32F1xx_HAL_Driver/Src/stm32f1xx_hal_tim.c ****   *            @arg TIM_DMA_UPDATE: TIM update Interrupt source
3548:Drivers/STM32F1xx_HAL_Driver/Src/stm32f1xx_hal_tim.c ****   *            @arg TIM_DMA_CC1: TIM Capture Compare 1 DMA source
3549:Drivers/STM32F1xx_HAL_Driver/Src/stm32f1xx_hal_tim.c ****   *            @arg TIM_DMA_CC2: TIM Capture Compare 2 DMA source
3550:Drivers/STM32F1xx_HAL_Driver/Src/stm32f1xx_hal_tim.c ****   *            @arg TIM_DMA_CC3: TIM Capture Compare 3 DMA source
3551:Drivers/STM32F1xx_HAL_Driver/Src/stm32f1xx_hal_tim.c ****   *            @arg TIM_DMA_CC4: TIM Capture Compare 4 DMA source
ARM GAS  /tmp/cc5HGhWi.s 			page 198


3552:Drivers/STM32F1xx_HAL_Driver/Src/stm32f1xx_hal_tim.c ****   *            @arg TIM_DMA_COM: TIM Commutation DMA source
3553:Drivers/STM32F1xx_HAL_Driver/Src/stm32f1xx_hal_tim.c ****   *            @arg TIM_DMA_TRIGGER: TIM Trigger DMA source
3554:Drivers/STM32F1xx_HAL_Driver/Src/stm32f1xx_hal_tim.c ****   * @param  BurstBuffer : The Buffer address.
3555:Drivers/STM32F1xx_HAL_Driver/Src/stm32f1xx_hal_tim.c ****   * @param  BurstLength : DMA Burst length. This parameter can be one value
3556:Drivers/STM32F1xx_HAL_Driver/Src/stm32f1xx_hal_tim.c ****   *         between: TIM_DMABURSTLENGTH_1TRANSFER and TIM_DMABURSTLENGTH_18TRANSFERS.
3557:Drivers/STM32F1xx_HAL_Driver/Src/stm32f1xx_hal_tim.c ****   * @retval HAL status
3558:Drivers/STM32F1xx_HAL_Driver/Src/stm32f1xx_hal_tim.c ****   */
3559:Drivers/STM32F1xx_HAL_Driver/Src/stm32f1xx_hal_tim.c **** HAL_StatusTypeDef HAL_TIM_DMABurst_ReadStart(TIM_HandleTypeDef *htim, uint32_t BurstBaseAddress, ui
3560:Drivers/STM32F1xx_HAL_Driver/Src/stm32f1xx_hal_tim.c ****                                              uint32_t  *BurstBuffer, uint32_t  BurstLength)
3561:Drivers/STM32F1xx_HAL_Driver/Src/stm32f1xx_hal_tim.c **** {
 7722              		.loc 1 3561 0
 7723              		.cfi_startproc
 7724              		@ args = 4, pretend = 0, frame = 16
 7725              		@ frame_needed = 1, uses_anonymous_args = 0
 7726 0000 80B5     		push	{r7, lr}
 7727              	.LCFI342:
 7728              		.cfi_def_cfa_offset 8
 7729              		.cfi_offset 7, -8
 7730              		.cfi_offset 14, -4
 7731 0002 84B0     		sub	sp, sp, #16
 7732              	.LCFI343:
 7733              		.cfi_def_cfa_offset 24
 7734 0004 00AF     		add	r7, sp, #0
 7735              	.LCFI344:
 7736              		.cfi_def_cfa_register 7
 7737 0006 F860     		str	r0, [r7, #12]
 7738 0008 B960     		str	r1, [r7, #8]
 7739 000a 7A60     		str	r2, [r7, #4]
 7740 000c 3B60     		str	r3, [r7]
3562:Drivers/STM32F1xx_HAL_Driver/Src/stm32f1xx_hal_tim.c ****   /* Check the parameters */
3563:Drivers/STM32F1xx_HAL_Driver/Src/stm32f1xx_hal_tim.c ****   assert_param(IS_TIM_DMABURST_INSTANCE(htim->Instance));
3564:Drivers/STM32F1xx_HAL_Driver/Src/stm32f1xx_hal_tim.c ****   assert_param(IS_TIM_DMA_BASE(BurstBaseAddress));
3565:Drivers/STM32F1xx_HAL_Driver/Src/stm32f1xx_hal_tim.c ****   assert_param(IS_TIM_DMA_SOURCE(BurstRequestSrc));
3566:Drivers/STM32F1xx_HAL_Driver/Src/stm32f1xx_hal_tim.c ****   assert_param(IS_TIM_DMA_LENGTH(BurstLength));
3567:Drivers/STM32F1xx_HAL_Driver/Src/stm32f1xx_hal_tim.c **** 
3568:Drivers/STM32F1xx_HAL_Driver/Src/stm32f1xx_hal_tim.c ****   if((htim->State == HAL_TIM_STATE_BUSY))
 7741              		.loc 1 3568 0
 7742 000e FB68     		ldr	r3, [r7, #12]
 7743 0010 93F83D30 		ldrb	r3, [r3, #61]
 7744 0014 DBB2     		uxtb	r3, r3
 7745 0016 022B     		cmp	r3, #2
 7746 0018 01D1     		bne	.L422
3569:Drivers/STM32F1xx_HAL_Driver/Src/stm32f1xx_hal_tim.c ****   {
3570:Drivers/STM32F1xx_HAL_Driver/Src/stm32f1xx_hal_tim.c ****      return HAL_BUSY;
 7747              		.loc 1 3570 0
 7748 001a 0223     		movs	r3, #2
 7749 001c D3E0     		b	.L423
 7750              	.L422:
3571:Drivers/STM32F1xx_HAL_Driver/Src/stm32f1xx_hal_tim.c ****   }
3572:Drivers/STM32F1xx_HAL_Driver/Src/stm32f1xx_hal_tim.c ****   else if((htim->State == HAL_TIM_STATE_READY))
 7751              		.loc 1 3572 0
 7752 001e FB68     		ldr	r3, [r7, #12]
 7753 0020 93F83D30 		ldrb	r3, [r3, #61]
 7754 0024 DBB2     		uxtb	r3, r3
 7755 0026 012B     		cmp	r3, #1
 7756 0028 0BD1     		bne	.L424
3573:Drivers/STM32F1xx_HAL_Driver/Src/stm32f1xx_hal_tim.c ****   {
ARM GAS  /tmp/cc5HGhWi.s 			page 199


3574:Drivers/STM32F1xx_HAL_Driver/Src/stm32f1xx_hal_tim.c ****     if((BurstBuffer == 0U) && (BurstLength > 0U))
 7757              		.loc 1 3574 0
 7758 002a 3B68     		ldr	r3, [r7]
 7759 002c 002B     		cmp	r3, #0
 7760 002e 04D1     		bne	.L425
 7761              		.loc 1 3574 0 is_stmt 0 discriminator 1
 7762 0030 BB69     		ldr	r3, [r7, #24]
 7763 0032 002B     		cmp	r3, #0
 7764 0034 01D0     		beq	.L425
3575:Drivers/STM32F1xx_HAL_Driver/Src/stm32f1xx_hal_tim.c ****     {
3576:Drivers/STM32F1xx_HAL_Driver/Src/stm32f1xx_hal_tim.c ****       return HAL_ERROR;
 7765              		.loc 1 3576 0 is_stmt 1
 7766 0036 0123     		movs	r3, #1
 7767 0038 C5E0     		b	.L423
 7768              	.L425:
3577:Drivers/STM32F1xx_HAL_Driver/Src/stm32f1xx_hal_tim.c ****     }
3578:Drivers/STM32F1xx_HAL_Driver/Src/stm32f1xx_hal_tim.c ****     else
3579:Drivers/STM32F1xx_HAL_Driver/Src/stm32f1xx_hal_tim.c ****     {
3580:Drivers/STM32F1xx_HAL_Driver/Src/stm32f1xx_hal_tim.c ****       htim->State = HAL_TIM_STATE_BUSY;
 7769              		.loc 1 3580 0
 7770 003a FB68     		ldr	r3, [r7, #12]
 7771 003c 0222     		movs	r2, #2
 7772 003e 83F83D20 		strb	r2, [r3, #61]
 7773              	.L424:
3581:Drivers/STM32F1xx_HAL_Driver/Src/stm32f1xx_hal_tim.c ****     }
3582:Drivers/STM32F1xx_HAL_Driver/Src/stm32f1xx_hal_tim.c ****   }
3583:Drivers/STM32F1xx_HAL_Driver/Src/stm32f1xx_hal_tim.c ****   switch(BurstRequestSrc)
 7774              		.loc 1 3583 0
 7775 0042 7B68     		ldr	r3, [r7, #4]
 7776 0044 B3F5006F 		cmp	r3, #2048
 7777 0048 56D0     		beq	.L427
 7778 004a B3F5006F 		cmp	r3, #2048
 7779 004e 09D8     		bhi	.L428
 7780 0050 B3F5007F 		cmp	r3, #512
 7781 0054 26D0     		beq	.L429
 7782 0056 B3F5806F 		cmp	r3, #1024
 7783 005a 38D0     		beq	.L430
 7784 005c B3F5807F 		cmp	r3, #256
 7785 0060 0BD0     		beq	.L431
3584:Drivers/STM32F1xx_HAL_Driver/Src/stm32f1xx_hal_tim.c ****   {
3585:Drivers/STM32F1xx_HAL_Driver/Src/stm32f1xx_hal_tim.c ****     case TIM_DMA_UPDATE:
3586:Drivers/STM32F1xx_HAL_Driver/Src/stm32f1xx_hal_tim.c ****     {
3587:Drivers/STM32F1xx_HAL_Driver/Src/stm32f1xx_hal_tim.c ****       /* Set the DMA Period elapsed callback */
3588:Drivers/STM32F1xx_HAL_Driver/Src/stm32f1xx_hal_tim.c ****       htim->hdma[TIM_DMA_ID_UPDATE]->XferCpltCallback = TIM_DMAPeriodElapsedCplt;
3589:Drivers/STM32F1xx_HAL_Driver/Src/stm32f1xx_hal_tim.c **** 
3590:Drivers/STM32F1xx_HAL_Driver/Src/stm32f1xx_hal_tim.c ****       /* Set the DMA error callback */
3591:Drivers/STM32F1xx_HAL_Driver/Src/stm32f1xx_hal_tim.c ****       htim->hdma[TIM_DMA_ID_UPDATE]->XferErrorCallback = TIM_DMAError ;
3592:Drivers/STM32F1xx_HAL_Driver/Src/stm32f1xx_hal_tim.c **** 
3593:Drivers/STM32F1xx_HAL_Driver/Src/stm32f1xx_hal_tim.c ****       /* Enable the DMA channel */
3594:Drivers/STM32F1xx_HAL_Driver/Src/stm32f1xx_hal_tim.c ****        HAL_DMA_Start_IT(htim->hdma[TIM_DMA_ID_UPDATE], (uint32_t)&htim->Instance->DMAR, (uint32_t)B
3595:Drivers/STM32F1xx_HAL_Driver/Src/stm32f1xx_hal_tim.c ****     }
3596:Drivers/STM32F1xx_HAL_Driver/Src/stm32f1xx_hal_tim.c ****     break;
3597:Drivers/STM32F1xx_HAL_Driver/Src/stm32f1xx_hal_tim.c ****     case TIM_DMA_CC1:
3598:Drivers/STM32F1xx_HAL_Driver/Src/stm32f1xx_hal_tim.c ****     {
3599:Drivers/STM32F1xx_HAL_Driver/Src/stm32f1xx_hal_tim.c ****       /* Set the DMA Period elapsed callback */
3600:Drivers/STM32F1xx_HAL_Driver/Src/stm32f1xx_hal_tim.c ****       htim->hdma[TIM_DMA_ID_CC1]->XferCpltCallback =  TIM_DMACaptureCplt;
3601:Drivers/STM32F1xx_HAL_Driver/Src/stm32f1xx_hal_tim.c **** 
ARM GAS  /tmp/cc5HGhWi.s 			page 200


3602:Drivers/STM32F1xx_HAL_Driver/Src/stm32f1xx_hal_tim.c ****       /* Set the DMA error callback */
3603:Drivers/STM32F1xx_HAL_Driver/Src/stm32f1xx_hal_tim.c ****       htim->hdma[TIM_DMA_ID_CC1]->XferErrorCallback = TIM_DMAError ;
3604:Drivers/STM32F1xx_HAL_Driver/Src/stm32f1xx_hal_tim.c **** 
3605:Drivers/STM32F1xx_HAL_Driver/Src/stm32f1xx_hal_tim.c ****       /* Enable the DMA channel */
3606:Drivers/STM32F1xx_HAL_Driver/Src/stm32f1xx_hal_tim.c ****       HAL_DMA_Start_IT(htim->hdma[TIM_DMA_ID_CC1], (uint32_t)&htim->Instance->DMAR, (uint32_t)Burst
3607:Drivers/STM32F1xx_HAL_Driver/Src/stm32f1xx_hal_tim.c ****     }
3608:Drivers/STM32F1xx_HAL_Driver/Src/stm32f1xx_hal_tim.c ****     break;
3609:Drivers/STM32F1xx_HAL_Driver/Src/stm32f1xx_hal_tim.c ****     case TIM_DMA_CC2:
3610:Drivers/STM32F1xx_HAL_Driver/Src/stm32f1xx_hal_tim.c ****     {
3611:Drivers/STM32F1xx_HAL_Driver/Src/stm32f1xx_hal_tim.c ****       /* Set the DMA Period elapsed callback */
3612:Drivers/STM32F1xx_HAL_Driver/Src/stm32f1xx_hal_tim.c ****       htim->hdma[TIM_DMA_ID_CC2]->XferCpltCallback =  TIM_DMACaptureCplt;
3613:Drivers/STM32F1xx_HAL_Driver/Src/stm32f1xx_hal_tim.c **** 
3614:Drivers/STM32F1xx_HAL_Driver/Src/stm32f1xx_hal_tim.c ****       /* Set the DMA error callback */
3615:Drivers/STM32F1xx_HAL_Driver/Src/stm32f1xx_hal_tim.c ****       htim->hdma[TIM_DMA_ID_CC2]->XferErrorCallback = TIM_DMAError ;
3616:Drivers/STM32F1xx_HAL_Driver/Src/stm32f1xx_hal_tim.c **** 
3617:Drivers/STM32F1xx_HAL_Driver/Src/stm32f1xx_hal_tim.c ****       /* Enable the DMA channel */
3618:Drivers/STM32F1xx_HAL_Driver/Src/stm32f1xx_hal_tim.c ****       HAL_DMA_Start_IT(htim->hdma[TIM_DMA_ID_CC2], (uint32_t)&htim->Instance->DMAR, (uint32_t)Burst
3619:Drivers/STM32F1xx_HAL_Driver/Src/stm32f1xx_hal_tim.c ****     }
3620:Drivers/STM32F1xx_HAL_Driver/Src/stm32f1xx_hal_tim.c ****     break;
3621:Drivers/STM32F1xx_HAL_Driver/Src/stm32f1xx_hal_tim.c ****     case TIM_DMA_CC3:
3622:Drivers/STM32F1xx_HAL_Driver/Src/stm32f1xx_hal_tim.c ****     {
3623:Drivers/STM32F1xx_HAL_Driver/Src/stm32f1xx_hal_tim.c ****       /* Set the DMA Period elapsed callback */
3624:Drivers/STM32F1xx_HAL_Driver/Src/stm32f1xx_hal_tim.c ****       htim->hdma[TIM_DMA_ID_CC3]->XferCpltCallback =  TIM_DMACaptureCplt;
3625:Drivers/STM32F1xx_HAL_Driver/Src/stm32f1xx_hal_tim.c **** 
3626:Drivers/STM32F1xx_HAL_Driver/Src/stm32f1xx_hal_tim.c ****       /* Set the DMA error callback */
3627:Drivers/STM32F1xx_HAL_Driver/Src/stm32f1xx_hal_tim.c ****       htim->hdma[TIM_DMA_ID_CC3]->XferErrorCallback = TIM_DMAError ;
3628:Drivers/STM32F1xx_HAL_Driver/Src/stm32f1xx_hal_tim.c **** 
3629:Drivers/STM32F1xx_HAL_Driver/Src/stm32f1xx_hal_tim.c ****       /* Enable the DMA channel */
3630:Drivers/STM32F1xx_HAL_Driver/Src/stm32f1xx_hal_tim.c ****       HAL_DMA_Start_IT(htim->hdma[TIM_DMA_ID_CC3], (uint32_t)&htim->Instance->DMAR, (uint32_t)Burst
3631:Drivers/STM32F1xx_HAL_Driver/Src/stm32f1xx_hal_tim.c ****     }
3632:Drivers/STM32F1xx_HAL_Driver/Src/stm32f1xx_hal_tim.c ****     break;
3633:Drivers/STM32F1xx_HAL_Driver/Src/stm32f1xx_hal_tim.c ****     case TIM_DMA_CC4:
3634:Drivers/STM32F1xx_HAL_Driver/Src/stm32f1xx_hal_tim.c ****     {
3635:Drivers/STM32F1xx_HAL_Driver/Src/stm32f1xx_hal_tim.c ****       /* Set the DMA Period elapsed callback */
3636:Drivers/STM32F1xx_HAL_Driver/Src/stm32f1xx_hal_tim.c ****       htim->hdma[TIM_DMA_ID_CC4]->XferCpltCallback =  TIM_DMACaptureCplt;
3637:Drivers/STM32F1xx_HAL_Driver/Src/stm32f1xx_hal_tim.c **** 
3638:Drivers/STM32F1xx_HAL_Driver/Src/stm32f1xx_hal_tim.c ****       /* Set the DMA error callback */
3639:Drivers/STM32F1xx_HAL_Driver/Src/stm32f1xx_hal_tim.c ****       htim->hdma[TIM_DMA_ID_CC4]->XferErrorCallback = TIM_DMAError ;
3640:Drivers/STM32F1xx_HAL_Driver/Src/stm32f1xx_hal_tim.c **** 
3641:Drivers/STM32F1xx_HAL_Driver/Src/stm32f1xx_hal_tim.c ****       /* Enable the DMA channel */
3642:Drivers/STM32F1xx_HAL_Driver/Src/stm32f1xx_hal_tim.c ****       HAL_DMA_Start_IT(htim->hdma[TIM_DMA_ID_CC4], (uint32_t)&htim->Instance->DMAR, (uint32_t)Burst
3643:Drivers/STM32F1xx_HAL_Driver/Src/stm32f1xx_hal_tim.c ****     }
3644:Drivers/STM32F1xx_HAL_Driver/Src/stm32f1xx_hal_tim.c ****     break;
3645:Drivers/STM32F1xx_HAL_Driver/Src/stm32f1xx_hal_tim.c ****     case TIM_DMA_COM:
3646:Drivers/STM32F1xx_HAL_Driver/Src/stm32f1xx_hal_tim.c ****     {
3647:Drivers/STM32F1xx_HAL_Driver/Src/stm32f1xx_hal_tim.c ****       /* Set the DMA Period elapsed callback */
3648:Drivers/STM32F1xx_HAL_Driver/Src/stm32f1xx_hal_tim.c ****       htim->hdma[TIM_DMA_ID_COMMUTATION]->XferCpltCallback =  TIMEx_DMACommutationCplt;
3649:Drivers/STM32F1xx_HAL_Driver/Src/stm32f1xx_hal_tim.c **** 
3650:Drivers/STM32F1xx_HAL_Driver/Src/stm32f1xx_hal_tim.c ****       /* Set the DMA error callback */
3651:Drivers/STM32F1xx_HAL_Driver/Src/stm32f1xx_hal_tim.c ****       htim->hdma[TIM_DMA_ID_COMMUTATION]->XferErrorCallback = TIM_DMAError ;
3652:Drivers/STM32F1xx_HAL_Driver/Src/stm32f1xx_hal_tim.c **** 
3653:Drivers/STM32F1xx_HAL_Driver/Src/stm32f1xx_hal_tim.c ****       /* Enable the DMA channel */
3654:Drivers/STM32F1xx_HAL_Driver/Src/stm32f1xx_hal_tim.c ****       HAL_DMA_Start_IT(htim->hdma[TIM_DMA_ID_COMMUTATION], (uint32_t)&htim->Instance->DMAR, (uint32
3655:Drivers/STM32F1xx_HAL_Driver/Src/stm32f1xx_hal_tim.c ****     }
3656:Drivers/STM32F1xx_HAL_Driver/Src/stm32f1xx_hal_tim.c ****     break;
3657:Drivers/STM32F1xx_HAL_Driver/Src/stm32f1xx_hal_tim.c ****     case TIM_DMA_TRIGGER:
3658:Drivers/STM32F1xx_HAL_Driver/Src/stm32f1xx_hal_tim.c ****     {
ARM GAS  /tmp/cc5HGhWi.s 			page 201


3659:Drivers/STM32F1xx_HAL_Driver/Src/stm32f1xx_hal_tim.c ****       /* Set the DMA Period elapsed callback */
3660:Drivers/STM32F1xx_HAL_Driver/Src/stm32f1xx_hal_tim.c ****       htim->hdma[TIM_DMA_ID_TRIGGER]->XferCpltCallback = TIM_DMATriggerCplt;
3661:Drivers/STM32F1xx_HAL_Driver/Src/stm32f1xx_hal_tim.c **** 
3662:Drivers/STM32F1xx_HAL_Driver/Src/stm32f1xx_hal_tim.c ****       /* Set the DMA error callback */
3663:Drivers/STM32F1xx_HAL_Driver/Src/stm32f1xx_hal_tim.c ****       htim->hdma[TIM_DMA_ID_TRIGGER]->XferErrorCallback = TIM_DMAError ;
3664:Drivers/STM32F1xx_HAL_Driver/Src/stm32f1xx_hal_tim.c **** 
3665:Drivers/STM32F1xx_HAL_Driver/Src/stm32f1xx_hal_tim.c ****       /* Enable the DMA channel */
3666:Drivers/STM32F1xx_HAL_Driver/Src/stm32f1xx_hal_tim.c ****       HAL_DMA_Start_IT(htim->hdma[TIM_DMA_ID_TRIGGER], (uint32_t)&htim->Instance->DMAR, (uint32_t)B
3667:Drivers/STM32F1xx_HAL_Driver/Src/stm32f1xx_hal_tim.c ****     }
3668:Drivers/STM32F1xx_HAL_Driver/Src/stm32f1xx_hal_tim.c ****     break;
3669:Drivers/STM32F1xx_HAL_Driver/Src/stm32f1xx_hal_tim.c ****     default:
3670:Drivers/STM32F1xx_HAL_Driver/Src/stm32f1xx_hal_tim.c ****     break;
 7786              		.loc 1 3670 0
 7787 0062 9DE0     		b	.L435
 7788              	.L428:
3583:Drivers/STM32F1xx_HAL_Driver/Src/stm32f1xx_hal_tim.c ****   {
 7789              		.loc 1 3583 0
 7790 0064 B3F5005F 		cmp	r3, #8192
 7791 0068 70D0     		beq	.L432
 7792 006a B3F5804F 		cmp	r3, #16384
 7793 006e 00F08280 		beq	.L433
 7794 0072 B3F5805F 		cmp	r3, #4096
 7795 0076 54D0     		beq	.L434
 7796              		.loc 1 3670 0
 7797 0078 92E0     		b	.L435
 7798              	.L431:
3588:Drivers/STM32F1xx_HAL_Driver/Src/stm32f1xx_hal_tim.c **** 
 7799              		.loc 1 3588 0
 7800 007a FB68     		ldr	r3, [r7, #12]
 7801 007c 1B6A     		ldr	r3, [r3, #32]
 7802 007e 544A     		ldr	r2, .L436
 7803 0080 9A62     		str	r2, [r3, #40]
3591:Drivers/STM32F1xx_HAL_Driver/Src/stm32f1xx_hal_tim.c **** 
 7804              		.loc 1 3591 0
 7805 0082 FB68     		ldr	r3, [r7, #12]
 7806 0084 1B6A     		ldr	r3, [r3, #32]
 7807 0086 534A     		ldr	r2, .L436+4
 7808 0088 1A63     		str	r2, [r3, #48]
3594:Drivers/STM32F1xx_HAL_Driver/Src/stm32f1xx_hal_tim.c ****     }
 7809              		.loc 1 3594 0
 7810 008a FB68     		ldr	r3, [r7, #12]
 7811 008c 186A     		ldr	r0, [r3, #32]
 7812 008e FB68     		ldr	r3, [r7, #12]
 7813 0090 1B68     		ldr	r3, [r3]
 7814 0092 4C33     		adds	r3, r3, #76
 7815 0094 1946     		mov	r1, r3
 7816 0096 3A68     		ldr	r2, [r7]
 7817 0098 BB69     		ldr	r3, [r7, #24]
 7818 009a 1B0A     		lsrs	r3, r3, #8
 7819 009c 0133     		adds	r3, r3, #1
 7820 009e FFF7FEFF 		bl	HAL_DMA_Start_IT
3596:Drivers/STM32F1xx_HAL_Driver/Src/stm32f1xx_hal_tim.c ****     case TIM_DMA_CC1:
 7821              		.loc 1 3596 0
 7822 00a2 7DE0     		b	.L435
 7823              	.L429:
3600:Drivers/STM32F1xx_HAL_Driver/Src/stm32f1xx_hal_tim.c **** 
 7824              		.loc 1 3600 0
ARM GAS  /tmp/cc5HGhWi.s 			page 202


 7825 00a4 FB68     		ldr	r3, [r7, #12]
 7826 00a6 5B6A     		ldr	r3, [r3, #36]
 7827 00a8 4B4A     		ldr	r2, .L436+8
 7828 00aa 9A62     		str	r2, [r3, #40]
3603:Drivers/STM32F1xx_HAL_Driver/Src/stm32f1xx_hal_tim.c **** 
 7829              		.loc 1 3603 0
 7830 00ac FB68     		ldr	r3, [r7, #12]
 7831 00ae 5B6A     		ldr	r3, [r3, #36]
 7832 00b0 484A     		ldr	r2, .L436+4
 7833 00b2 1A63     		str	r2, [r3, #48]
3606:Drivers/STM32F1xx_HAL_Driver/Src/stm32f1xx_hal_tim.c ****     }
 7834              		.loc 1 3606 0
 7835 00b4 FB68     		ldr	r3, [r7, #12]
 7836 00b6 586A     		ldr	r0, [r3, #36]
 7837 00b8 FB68     		ldr	r3, [r7, #12]
 7838 00ba 1B68     		ldr	r3, [r3]
 7839 00bc 4C33     		adds	r3, r3, #76
 7840 00be 1946     		mov	r1, r3
 7841 00c0 3A68     		ldr	r2, [r7]
 7842 00c2 BB69     		ldr	r3, [r7, #24]
 7843 00c4 1B0A     		lsrs	r3, r3, #8
 7844 00c6 0133     		adds	r3, r3, #1
 7845 00c8 FFF7FEFF 		bl	HAL_DMA_Start_IT
3608:Drivers/STM32F1xx_HAL_Driver/Src/stm32f1xx_hal_tim.c ****     case TIM_DMA_CC2:
 7846              		.loc 1 3608 0
 7847 00cc 68E0     		b	.L435
 7848              	.L430:
3612:Drivers/STM32F1xx_HAL_Driver/Src/stm32f1xx_hal_tim.c **** 
 7849              		.loc 1 3612 0
 7850 00ce FB68     		ldr	r3, [r7, #12]
 7851 00d0 9B6A     		ldr	r3, [r3, #40]
 7852 00d2 414A     		ldr	r2, .L436+8
 7853 00d4 9A62     		str	r2, [r3, #40]
3615:Drivers/STM32F1xx_HAL_Driver/Src/stm32f1xx_hal_tim.c **** 
 7854              		.loc 1 3615 0
 7855 00d6 FB68     		ldr	r3, [r7, #12]
 7856 00d8 9B6A     		ldr	r3, [r3, #40]
 7857 00da 3E4A     		ldr	r2, .L436+4
 7858 00dc 1A63     		str	r2, [r3, #48]
3618:Drivers/STM32F1xx_HAL_Driver/Src/stm32f1xx_hal_tim.c ****     }
 7859              		.loc 1 3618 0
 7860 00de FB68     		ldr	r3, [r7, #12]
 7861 00e0 986A     		ldr	r0, [r3, #40]
 7862 00e2 FB68     		ldr	r3, [r7, #12]
 7863 00e4 1B68     		ldr	r3, [r3]
 7864 00e6 4C33     		adds	r3, r3, #76
 7865 00e8 1946     		mov	r1, r3
 7866 00ea 3A68     		ldr	r2, [r7]
 7867 00ec BB69     		ldr	r3, [r7, #24]
 7868 00ee 1B0A     		lsrs	r3, r3, #8
 7869 00f0 0133     		adds	r3, r3, #1
 7870 00f2 FFF7FEFF 		bl	HAL_DMA_Start_IT
3620:Drivers/STM32F1xx_HAL_Driver/Src/stm32f1xx_hal_tim.c ****     case TIM_DMA_CC3:
 7871              		.loc 1 3620 0
 7872 00f6 53E0     		b	.L435
 7873              	.L427:
3624:Drivers/STM32F1xx_HAL_Driver/Src/stm32f1xx_hal_tim.c **** 
ARM GAS  /tmp/cc5HGhWi.s 			page 203


 7874              		.loc 1 3624 0
 7875 00f8 FB68     		ldr	r3, [r7, #12]
 7876 00fa DB6A     		ldr	r3, [r3, #44]
 7877 00fc 364A     		ldr	r2, .L436+8
 7878 00fe 9A62     		str	r2, [r3, #40]
3627:Drivers/STM32F1xx_HAL_Driver/Src/stm32f1xx_hal_tim.c **** 
 7879              		.loc 1 3627 0
 7880 0100 FB68     		ldr	r3, [r7, #12]
 7881 0102 DB6A     		ldr	r3, [r3, #44]
 7882 0104 334A     		ldr	r2, .L436+4
 7883 0106 1A63     		str	r2, [r3, #48]
3630:Drivers/STM32F1xx_HAL_Driver/Src/stm32f1xx_hal_tim.c ****     }
 7884              		.loc 1 3630 0
 7885 0108 FB68     		ldr	r3, [r7, #12]
 7886 010a D86A     		ldr	r0, [r3, #44]
 7887 010c FB68     		ldr	r3, [r7, #12]
 7888 010e 1B68     		ldr	r3, [r3]
 7889 0110 4C33     		adds	r3, r3, #76
 7890 0112 1946     		mov	r1, r3
 7891 0114 3A68     		ldr	r2, [r7]
 7892 0116 BB69     		ldr	r3, [r7, #24]
 7893 0118 1B0A     		lsrs	r3, r3, #8
 7894 011a 0133     		adds	r3, r3, #1
 7895 011c FFF7FEFF 		bl	HAL_DMA_Start_IT
3632:Drivers/STM32F1xx_HAL_Driver/Src/stm32f1xx_hal_tim.c ****     case TIM_DMA_CC4:
 7896              		.loc 1 3632 0
 7897 0120 3EE0     		b	.L435
 7898              	.L434:
3636:Drivers/STM32F1xx_HAL_Driver/Src/stm32f1xx_hal_tim.c **** 
 7899              		.loc 1 3636 0
 7900 0122 FB68     		ldr	r3, [r7, #12]
 7901 0124 1B6B     		ldr	r3, [r3, #48]
 7902 0126 2C4A     		ldr	r2, .L436+8
 7903 0128 9A62     		str	r2, [r3, #40]
3639:Drivers/STM32F1xx_HAL_Driver/Src/stm32f1xx_hal_tim.c **** 
 7904              		.loc 1 3639 0
 7905 012a FB68     		ldr	r3, [r7, #12]
 7906 012c 1B6B     		ldr	r3, [r3, #48]
 7907 012e 294A     		ldr	r2, .L436+4
 7908 0130 1A63     		str	r2, [r3, #48]
3642:Drivers/STM32F1xx_HAL_Driver/Src/stm32f1xx_hal_tim.c ****     }
 7909              		.loc 1 3642 0
 7910 0132 FB68     		ldr	r3, [r7, #12]
 7911 0134 186B     		ldr	r0, [r3, #48]
 7912 0136 FB68     		ldr	r3, [r7, #12]
 7913 0138 1B68     		ldr	r3, [r3]
 7914 013a 4C33     		adds	r3, r3, #76
 7915 013c 1946     		mov	r1, r3
 7916 013e 3A68     		ldr	r2, [r7]
 7917 0140 BB69     		ldr	r3, [r7, #24]
 7918 0142 1B0A     		lsrs	r3, r3, #8
 7919 0144 0133     		adds	r3, r3, #1
 7920 0146 FFF7FEFF 		bl	HAL_DMA_Start_IT
3644:Drivers/STM32F1xx_HAL_Driver/Src/stm32f1xx_hal_tim.c ****     case TIM_DMA_COM:
 7921              		.loc 1 3644 0
 7922 014a 29E0     		b	.L435
 7923              	.L432:
ARM GAS  /tmp/cc5HGhWi.s 			page 204


3648:Drivers/STM32F1xx_HAL_Driver/Src/stm32f1xx_hal_tim.c **** 
 7924              		.loc 1 3648 0
 7925 014c FB68     		ldr	r3, [r7, #12]
 7926 014e 5B6B     		ldr	r3, [r3, #52]
 7927 0150 224A     		ldr	r2, .L436+12
 7928 0152 9A62     		str	r2, [r3, #40]
3651:Drivers/STM32F1xx_HAL_Driver/Src/stm32f1xx_hal_tim.c **** 
 7929              		.loc 1 3651 0
 7930 0154 FB68     		ldr	r3, [r7, #12]
 7931 0156 5B6B     		ldr	r3, [r3, #52]
 7932 0158 1E4A     		ldr	r2, .L436+4
 7933 015a 1A63     		str	r2, [r3, #48]
3654:Drivers/STM32F1xx_HAL_Driver/Src/stm32f1xx_hal_tim.c ****     }
 7934              		.loc 1 3654 0
 7935 015c FB68     		ldr	r3, [r7, #12]
 7936 015e 586B     		ldr	r0, [r3, #52]
 7937 0160 FB68     		ldr	r3, [r7, #12]
 7938 0162 1B68     		ldr	r3, [r3]
 7939 0164 4C33     		adds	r3, r3, #76
 7940 0166 1946     		mov	r1, r3
 7941 0168 3A68     		ldr	r2, [r7]
 7942 016a BB69     		ldr	r3, [r7, #24]
 7943 016c 1B0A     		lsrs	r3, r3, #8
 7944 016e 0133     		adds	r3, r3, #1
 7945 0170 FFF7FEFF 		bl	HAL_DMA_Start_IT
3656:Drivers/STM32F1xx_HAL_Driver/Src/stm32f1xx_hal_tim.c ****     case TIM_DMA_TRIGGER:
 7946              		.loc 1 3656 0
 7947 0174 14E0     		b	.L435
 7948              	.L433:
3660:Drivers/STM32F1xx_HAL_Driver/Src/stm32f1xx_hal_tim.c **** 
 7949              		.loc 1 3660 0
 7950 0176 FB68     		ldr	r3, [r7, #12]
 7951 0178 9B6B     		ldr	r3, [r3, #56]
 7952 017a 194A     		ldr	r2, .L436+16
 7953 017c 9A62     		str	r2, [r3, #40]
3663:Drivers/STM32F1xx_HAL_Driver/Src/stm32f1xx_hal_tim.c **** 
 7954              		.loc 1 3663 0
 7955 017e FB68     		ldr	r3, [r7, #12]
 7956 0180 9B6B     		ldr	r3, [r3, #56]
 7957 0182 144A     		ldr	r2, .L436+4
 7958 0184 1A63     		str	r2, [r3, #48]
3666:Drivers/STM32F1xx_HAL_Driver/Src/stm32f1xx_hal_tim.c ****     }
 7959              		.loc 1 3666 0
 7960 0186 FB68     		ldr	r3, [r7, #12]
 7961 0188 986B     		ldr	r0, [r3, #56]
 7962 018a FB68     		ldr	r3, [r7, #12]
 7963 018c 1B68     		ldr	r3, [r3]
 7964 018e 4C33     		adds	r3, r3, #76
 7965 0190 1946     		mov	r1, r3
 7966 0192 3A68     		ldr	r2, [r7]
 7967 0194 BB69     		ldr	r3, [r7, #24]
 7968 0196 1B0A     		lsrs	r3, r3, #8
 7969 0198 0133     		adds	r3, r3, #1
 7970 019a FFF7FEFF 		bl	HAL_DMA_Start_IT
3668:Drivers/STM32F1xx_HAL_Driver/Src/stm32f1xx_hal_tim.c ****     default:
 7971              		.loc 1 3668 0
 7972 019e 00BF     		nop
ARM GAS  /tmp/cc5HGhWi.s 			page 205


 7973              	.L435:
3671:Drivers/STM32F1xx_HAL_Driver/Src/stm32f1xx_hal_tim.c ****   }
3672:Drivers/STM32F1xx_HAL_Driver/Src/stm32f1xx_hal_tim.c **** 
3673:Drivers/STM32F1xx_HAL_Driver/Src/stm32f1xx_hal_tim.c ****   /* configure the DMA Burst Mode */
3674:Drivers/STM32F1xx_HAL_Driver/Src/stm32f1xx_hal_tim.c ****   htim->Instance->DCR = BurstBaseAddress | BurstLength;
 7974              		.loc 1 3674 0
 7975 01a0 FB68     		ldr	r3, [r7, #12]
 7976 01a2 1B68     		ldr	r3, [r3]
 7977 01a4 B968     		ldr	r1, [r7, #8]
 7978 01a6 BA69     		ldr	r2, [r7, #24]
 7979 01a8 0A43     		orrs	r2, r2, r1
 7980 01aa 9A64     		str	r2, [r3, #72]
3675:Drivers/STM32F1xx_HAL_Driver/Src/stm32f1xx_hal_tim.c **** 
3676:Drivers/STM32F1xx_HAL_Driver/Src/stm32f1xx_hal_tim.c ****   /* Enable the TIM DMA Request */
3677:Drivers/STM32F1xx_HAL_Driver/Src/stm32f1xx_hal_tim.c ****   __HAL_TIM_ENABLE_DMA(htim, BurstRequestSrc);
 7981              		.loc 1 3677 0
 7982 01ac FB68     		ldr	r3, [r7, #12]
 7983 01ae 1B68     		ldr	r3, [r3]
 7984 01b0 D968     		ldr	r1, [r3, #12]
 7985 01b2 FB68     		ldr	r3, [r7, #12]
 7986 01b4 1B68     		ldr	r3, [r3]
 7987 01b6 7A68     		ldr	r2, [r7, #4]
 7988 01b8 0A43     		orrs	r2, r2, r1
 7989 01ba DA60     		str	r2, [r3, #12]
3678:Drivers/STM32F1xx_HAL_Driver/Src/stm32f1xx_hal_tim.c **** 
3679:Drivers/STM32F1xx_HAL_Driver/Src/stm32f1xx_hal_tim.c ****   htim->State = HAL_TIM_STATE_READY;
 7990              		.loc 1 3679 0
 7991 01bc FB68     		ldr	r3, [r7, #12]
 7992 01be 0122     		movs	r2, #1
 7993 01c0 83F83D20 		strb	r2, [r3, #61]
3680:Drivers/STM32F1xx_HAL_Driver/Src/stm32f1xx_hal_tim.c **** 
3681:Drivers/STM32F1xx_HAL_Driver/Src/stm32f1xx_hal_tim.c ****   /* Return function status */
3682:Drivers/STM32F1xx_HAL_Driver/Src/stm32f1xx_hal_tim.c ****   return HAL_OK;
 7994              		.loc 1 3682 0
 7995 01c4 0023     		movs	r3, #0
 7996              	.L423:
3683:Drivers/STM32F1xx_HAL_Driver/Src/stm32f1xx_hal_tim.c **** }
 7997              		.loc 1 3683 0
 7998 01c6 1846     		mov	r0, r3
 7999 01c8 1037     		adds	r7, r7, #16
 8000              	.LCFI345:
 8001              		.cfi_def_cfa_offset 8
 8002 01ca BD46     		mov	sp, r7
 8003              	.LCFI346:
 8004              		.cfi_def_cfa_register 13
 8005              		@ sp needed
 8006 01cc 80BD     		pop	{r7, pc}
 8007              	.L437:
 8008 01ce 00BF     		.align	2
 8009              	.L436:
 8010 01d0 00000000 		.word	TIM_DMAPeriodElapsedCplt
 8011 01d4 00000000 		.word	TIM_DMAError
 8012 01d8 00000000 		.word	TIM_DMACaptureCplt
 8013 01dc 00000000 		.word	TIMEx_DMACommutationCplt
 8014 01e0 00000000 		.word	TIM_DMATriggerCplt
 8015              		.cfi_endproc
 8016              	.LFE131:
ARM GAS  /tmp/cc5HGhWi.s 			page 206


 8018              		.section	.text.HAL_TIM_DMABurst_ReadStop,"ax",%progbits
 8019              		.align	1
 8020              		.global	HAL_TIM_DMABurst_ReadStop
 8021              		.syntax unified
 8022              		.thumb
 8023              		.thumb_func
 8024              		.fpu softvfp
 8026              	HAL_TIM_DMABurst_ReadStop:
 8027              	.LFB132:
3684:Drivers/STM32F1xx_HAL_Driver/Src/stm32f1xx_hal_tim.c **** 
3685:Drivers/STM32F1xx_HAL_Driver/Src/stm32f1xx_hal_tim.c **** /**
3686:Drivers/STM32F1xx_HAL_Driver/Src/stm32f1xx_hal_tim.c ****   * @brief  Stop the DMA burst reading 
3687:Drivers/STM32F1xx_HAL_Driver/Src/stm32f1xx_hal_tim.c ****   * @param  htim : TIM handle
3688:Drivers/STM32F1xx_HAL_Driver/Src/stm32f1xx_hal_tim.c ****   * @param  BurstRequestSrc : TIM DMA Request sources to disable.
3689:Drivers/STM32F1xx_HAL_Driver/Src/stm32f1xx_hal_tim.c ****   * @retval HAL status
3690:Drivers/STM32F1xx_HAL_Driver/Src/stm32f1xx_hal_tim.c ****   */
3691:Drivers/STM32F1xx_HAL_Driver/Src/stm32f1xx_hal_tim.c **** HAL_StatusTypeDef HAL_TIM_DMABurst_ReadStop(TIM_HandleTypeDef *htim, uint32_t BurstRequestSrc)
3692:Drivers/STM32F1xx_HAL_Driver/Src/stm32f1xx_hal_tim.c **** {
 8028              		.loc 1 3692 0
 8029              		.cfi_startproc
 8030              		@ args = 0, pretend = 0, frame = 8
 8031              		@ frame_needed = 1, uses_anonymous_args = 0
 8032 0000 80B5     		push	{r7, lr}
 8033              	.LCFI347:
 8034              		.cfi_def_cfa_offset 8
 8035              		.cfi_offset 7, -8
 8036              		.cfi_offset 14, -4
 8037 0002 82B0     		sub	sp, sp, #8
 8038              	.LCFI348:
 8039              		.cfi_def_cfa_offset 16
 8040 0004 00AF     		add	r7, sp, #0
 8041              	.LCFI349:
 8042              		.cfi_def_cfa_register 7
 8043 0006 7860     		str	r0, [r7, #4]
 8044 0008 3960     		str	r1, [r7]
3693:Drivers/STM32F1xx_HAL_Driver/Src/stm32f1xx_hal_tim.c ****   /* Check the parameters */
3694:Drivers/STM32F1xx_HAL_Driver/Src/stm32f1xx_hal_tim.c ****   assert_param(IS_TIM_DMA_SOURCE(BurstRequestSrc));
3695:Drivers/STM32F1xx_HAL_Driver/Src/stm32f1xx_hal_tim.c **** 
3696:Drivers/STM32F1xx_HAL_Driver/Src/stm32f1xx_hal_tim.c ****   /* Abort the DMA transfer (at least disable the DMA channel) */
3697:Drivers/STM32F1xx_HAL_Driver/Src/stm32f1xx_hal_tim.c ****   switch(BurstRequestSrc)
 8045              		.loc 1 3697 0
 8046 000a 3B68     		ldr	r3, [r7]
 8047 000c B3F5006F 		cmp	r3, #2048
 8048 0010 28D0     		beq	.L440
 8049 0012 B3F5006F 		cmp	r3, #2048
 8050 0016 09D8     		bhi	.L441
 8051 0018 B3F5007F 		cmp	r3, #512
 8052 001c 16D0     		beq	.L442
 8053 001e B3F5806F 		cmp	r3, #1024
 8054 0022 19D0     		beq	.L443
 8055 0024 B3F5807F 		cmp	r3, #256
 8056 0028 0AD0     		beq	.L444
3698:Drivers/STM32F1xx_HAL_Driver/Src/stm32f1xx_hal_tim.c ****   {
3699:Drivers/STM32F1xx_HAL_Driver/Src/stm32f1xx_hal_tim.c ****     case TIM_DMA_UPDATE:
3700:Drivers/STM32F1xx_HAL_Driver/Src/stm32f1xx_hal_tim.c ****     {
3701:Drivers/STM32F1xx_HAL_Driver/Src/stm32f1xx_hal_tim.c ****       HAL_DMA_Abort(htim->hdma[TIM_DMA_ID_UPDATE]);
3702:Drivers/STM32F1xx_HAL_Driver/Src/stm32f1xx_hal_tim.c ****     }
ARM GAS  /tmp/cc5HGhWi.s 			page 207


3703:Drivers/STM32F1xx_HAL_Driver/Src/stm32f1xx_hal_tim.c ****     break;
3704:Drivers/STM32F1xx_HAL_Driver/Src/stm32f1xx_hal_tim.c ****     case TIM_DMA_CC1:
3705:Drivers/STM32F1xx_HAL_Driver/Src/stm32f1xx_hal_tim.c ****     {
3706:Drivers/STM32F1xx_HAL_Driver/Src/stm32f1xx_hal_tim.c ****       HAL_DMA_Abort(htim->hdma[TIM_DMA_ID_CC1]);
3707:Drivers/STM32F1xx_HAL_Driver/Src/stm32f1xx_hal_tim.c ****     }
3708:Drivers/STM32F1xx_HAL_Driver/Src/stm32f1xx_hal_tim.c ****     break;
3709:Drivers/STM32F1xx_HAL_Driver/Src/stm32f1xx_hal_tim.c ****     case TIM_DMA_CC2:
3710:Drivers/STM32F1xx_HAL_Driver/Src/stm32f1xx_hal_tim.c ****     {
3711:Drivers/STM32F1xx_HAL_Driver/Src/stm32f1xx_hal_tim.c ****       HAL_DMA_Abort(htim->hdma[TIM_DMA_ID_CC2]);
3712:Drivers/STM32F1xx_HAL_Driver/Src/stm32f1xx_hal_tim.c ****     }
3713:Drivers/STM32F1xx_HAL_Driver/Src/stm32f1xx_hal_tim.c ****     break;
3714:Drivers/STM32F1xx_HAL_Driver/Src/stm32f1xx_hal_tim.c ****     case TIM_DMA_CC3:
3715:Drivers/STM32F1xx_HAL_Driver/Src/stm32f1xx_hal_tim.c ****     {
3716:Drivers/STM32F1xx_HAL_Driver/Src/stm32f1xx_hal_tim.c ****       HAL_DMA_Abort(htim->hdma[TIM_DMA_ID_CC3]);
3717:Drivers/STM32F1xx_HAL_Driver/Src/stm32f1xx_hal_tim.c ****     }
3718:Drivers/STM32F1xx_HAL_Driver/Src/stm32f1xx_hal_tim.c ****     break;
3719:Drivers/STM32F1xx_HAL_Driver/Src/stm32f1xx_hal_tim.c ****     case TIM_DMA_CC4:
3720:Drivers/STM32F1xx_HAL_Driver/Src/stm32f1xx_hal_tim.c ****     {
3721:Drivers/STM32F1xx_HAL_Driver/Src/stm32f1xx_hal_tim.c ****       HAL_DMA_Abort(htim->hdma[TIM_DMA_ID_CC4]);
3722:Drivers/STM32F1xx_HAL_Driver/Src/stm32f1xx_hal_tim.c ****     }
3723:Drivers/STM32F1xx_HAL_Driver/Src/stm32f1xx_hal_tim.c ****     break;
3724:Drivers/STM32F1xx_HAL_Driver/Src/stm32f1xx_hal_tim.c ****     case TIM_DMA_COM:
3725:Drivers/STM32F1xx_HAL_Driver/Src/stm32f1xx_hal_tim.c ****     {
3726:Drivers/STM32F1xx_HAL_Driver/Src/stm32f1xx_hal_tim.c ****       HAL_DMA_Abort(htim->hdma[TIM_DMA_ID_COMMUTATION]);
3727:Drivers/STM32F1xx_HAL_Driver/Src/stm32f1xx_hal_tim.c ****     }
3728:Drivers/STM32F1xx_HAL_Driver/Src/stm32f1xx_hal_tim.c ****     break;
3729:Drivers/STM32F1xx_HAL_Driver/Src/stm32f1xx_hal_tim.c ****     case TIM_DMA_TRIGGER:
3730:Drivers/STM32F1xx_HAL_Driver/Src/stm32f1xx_hal_tim.c ****     {
3731:Drivers/STM32F1xx_HAL_Driver/Src/stm32f1xx_hal_tim.c ****       HAL_DMA_Abort(htim->hdma[TIM_DMA_ID_TRIGGER]);
3732:Drivers/STM32F1xx_HAL_Driver/Src/stm32f1xx_hal_tim.c ****     }
3733:Drivers/STM32F1xx_HAL_Driver/Src/stm32f1xx_hal_tim.c ****     break;
3734:Drivers/STM32F1xx_HAL_Driver/Src/stm32f1xx_hal_tim.c ****     default:
3735:Drivers/STM32F1xx_HAL_Driver/Src/stm32f1xx_hal_tim.c ****     break;
 8057              		.loc 1 3735 0
 8058 002a 33E0     		b	.L448
 8059              	.L441:
3697:Drivers/STM32F1xx_HAL_Driver/Src/stm32f1xx_hal_tim.c ****   {
 8060              		.loc 1 3697 0
 8061 002c B3F5005F 		cmp	r3, #8192
 8062 0030 24D0     		beq	.L445
 8063 0032 B3F5804F 		cmp	r3, #16384
 8064 0036 27D0     		beq	.L446
 8065 0038 B3F5805F 		cmp	r3, #4096
 8066 003c 18D0     		beq	.L447
 8067              		.loc 1 3735 0
 8068 003e 29E0     		b	.L448
 8069              	.L444:
3701:Drivers/STM32F1xx_HAL_Driver/Src/stm32f1xx_hal_tim.c ****     }
 8070              		.loc 1 3701 0
 8071 0040 7B68     		ldr	r3, [r7, #4]
 8072 0042 1B6A     		ldr	r3, [r3, #32]
 8073 0044 1846     		mov	r0, r3
 8074 0046 FFF7FEFF 		bl	HAL_DMA_Abort
3703:Drivers/STM32F1xx_HAL_Driver/Src/stm32f1xx_hal_tim.c ****     case TIM_DMA_CC1:
 8075              		.loc 1 3703 0
 8076 004a 23E0     		b	.L448
 8077              	.L442:
ARM GAS  /tmp/cc5HGhWi.s 			page 208


3706:Drivers/STM32F1xx_HAL_Driver/Src/stm32f1xx_hal_tim.c ****     }
 8078              		.loc 1 3706 0
 8079 004c 7B68     		ldr	r3, [r7, #4]
 8080 004e 5B6A     		ldr	r3, [r3, #36]
 8081 0050 1846     		mov	r0, r3
 8082 0052 FFF7FEFF 		bl	HAL_DMA_Abort
3708:Drivers/STM32F1xx_HAL_Driver/Src/stm32f1xx_hal_tim.c ****     case TIM_DMA_CC2:
 8083              		.loc 1 3708 0
 8084 0056 1DE0     		b	.L448
 8085              	.L443:
3711:Drivers/STM32F1xx_HAL_Driver/Src/stm32f1xx_hal_tim.c ****     }
 8086              		.loc 1 3711 0
 8087 0058 7B68     		ldr	r3, [r7, #4]
 8088 005a 9B6A     		ldr	r3, [r3, #40]
 8089 005c 1846     		mov	r0, r3
 8090 005e FFF7FEFF 		bl	HAL_DMA_Abort
3713:Drivers/STM32F1xx_HAL_Driver/Src/stm32f1xx_hal_tim.c ****     case TIM_DMA_CC3:
 8091              		.loc 1 3713 0
 8092 0062 17E0     		b	.L448
 8093              	.L440:
3716:Drivers/STM32F1xx_HAL_Driver/Src/stm32f1xx_hal_tim.c ****     }
 8094              		.loc 1 3716 0
 8095 0064 7B68     		ldr	r3, [r7, #4]
 8096 0066 DB6A     		ldr	r3, [r3, #44]
 8097 0068 1846     		mov	r0, r3
 8098 006a FFF7FEFF 		bl	HAL_DMA_Abort
3718:Drivers/STM32F1xx_HAL_Driver/Src/stm32f1xx_hal_tim.c ****     case TIM_DMA_CC4:
 8099              		.loc 1 3718 0
 8100 006e 11E0     		b	.L448
 8101              	.L447:
3721:Drivers/STM32F1xx_HAL_Driver/Src/stm32f1xx_hal_tim.c ****     }
 8102              		.loc 1 3721 0
 8103 0070 7B68     		ldr	r3, [r7, #4]
 8104 0072 1B6B     		ldr	r3, [r3, #48]
 8105 0074 1846     		mov	r0, r3
 8106 0076 FFF7FEFF 		bl	HAL_DMA_Abort
3723:Drivers/STM32F1xx_HAL_Driver/Src/stm32f1xx_hal_tim.c ****     case TIM_DMA_COM:
 8107              		.loc 1 3723 0
 8108 007a 0BE0     		b	.L448
 8109              	.L445:
3726:Drivers/STM32F1xx_HAL_Driver/Src/stm32f1xx_hal_tim.c ****     }
 8110              		.loc 1 3726 0
 8111 007c 7B68     		ldr	r3, [r7, #4]
 8112 007e 5B6B     		ldr	r3, [r3, #52]
 8113 0080 1846     		mov	r0, r3
 8114 0082 FFF7FEFF 		bl	HAL_DMA_Abort
3728:Drivers/STM32F1xx_HAL_Driver/Src/stm32f1xx_hal_tim.c ****     case TIM_DMA_TRIGGER:
 8115              		.loc 1 3728 0
 8116 0086 05E0     		b	.L448
 8117              	.L446:
3731:Drivers/STM32F1xx_HAL_Driver/Src/stm32f1xx_hal_tim.c ****     }
 8118              		.loc 1 3731 0
 8119 0088 7B68     		ldr	r3, [r7, #4]
 8120 008a 9B6B     		ldr	r3, [r3, #56]
 8121 008c 1846     		mov	r0, r3
 8122 008e FFF7FEFF 		bl	HAL_DMA_Abort
3733:Drivers/STM32F1xx_HAL_Driver/Src/stm32f1xx_hal_tim.c ****     default:
ARM GAS  /tmp/cc5HGhWi.s 			page 209


 8123              		.loc 1 3733 0
 8124 0092 00BF     		nop
 8125              	.L448:
3736:Drivers/STM32F1xx_HAL_Driver/Src/stm32f1xx_hal_tim.c ****   }
3737:Drivers/STM32F1xx_HAL_Driver/Src/stm32f1xx_hal_tim.c **** 
3738:Drivers/STM32F1xx_HAL_Driver/Src/stm32f1xx_hal_tim.c ****   /* Disable the TIM Update DMA request */
3739:Drivers/STM32F1xx_HAL_Driver/Src/stm32f1xx_hal_tim.c ****   __HAL_TIM_DISABLE_DMA(htim, BurstRequestSrc);
 8126              		.loc 1 3739 0
 8127 0094 7B68     		ldr	r3, [r7, #4]
 8128 0096 1B68     		ldr	r3, [r3]
 8129 0098 D968     		ldr	r1, [r3, #12]
 8130 009a 3B68     		ldr	r3, [r7]
 8131 009c DA43     		mvns	r2, r3
 8132 009e 7B68     		ldr	r3, [r7, #4]
 8133 00a0 1B68     		ldr	r3, [r3]
 8134 00a2 0A40     		ands	r2, r2, r1
 8135 00a4 DA60     		str	r2, [r3, #12]
3740:Drivers/STM32F1xx_HAL_Driver/Src/stm32f1xx_hal_tim.c **** 
3741:Drivers/STM32F1xx_HAL_Driver/Src/stm32f1xx_hal_tim.c ****   /* Return function status */
3742:Drivers/STM32F1xx_HAL_Driver/Src/stm32f1xx_hal_tim.c ****   return HAL_OK;
 8136              		.loc 1 3742 0
 8137 00a6 0023     		movs	r3, #0
3743:Drivers/STM32F1xx_HAL_Driver/Src/stm32f1xx_hal_tim.c **** }
 8138              		.loc 1 3743 0
 8139 00a8 1846     		mov	r0, r3
 8140 00aa 0837     		adds	r7, r7, #8
 8141              	.LCFI350:
 8142              		.cfi_def_cfa_offset 8
 8143 00ac BD46     		mov	sp, r7
 8144              	.LCFI351:
 8145              		.cfi_def_cfa_register 13
 8146              		@ sp needed
 8147 00ae 80BD     		pop	{r7, pc}
 8148              		.cfi_endproc
 8149              	.LFE132:
 8151              		.section	.text.HAL_TIM_GenerateEvent,"ax",%progbits
 8152              		.align	1
 8153              		.global	HAL_TIM_GenerateEvent
 8154              		.syntax unified
 8155              		.thumb
 8156              		.thumb_func
 8157              		.fpu softvfp
 8159              	HAL_TIM_GenerateEvent:
 8160              	.LFB133:
3744:Drivers/STM32F1xx_HAL_Driver/Src/stm32f1xx_hal_tim.c **** 
3745:Drivers/STM32F1xx_HAL_Driver/Src/stm32f1xx_hal_tim.c **** /**
3746:Drivers/STM32F1xx_HAL_Driver/Src/stm32f1xx_hal_tim.c ****   * @brief  Generate a software event
3747:Drivers/STM32F1xx_HAL_Driver/Src/stm32f1xx_hal_tim.c ****   * @param  htim : TIM handle
3748:Drivers/STM32F1xx_HAL_Driver/Src/stm32f1xx_hal_tim.c ****   * @param  EventSource : specifies the event source.
3749:Drivers/STM32F1xx_HAL_Driver/Src/stm32f1xx_hal_tim.c ****   *          This parameter can be one of the following values:
3750:Drivers/STM32F1xx_HAL_Driver/Src/stm32f1xx_hal_tim.c ****   *            @arg TIM_EVENTSOURCE_UPDATE: Timer update Event source
3751:Drivers/STM32F1xx_HAL_Driver/Src/stm32f1xx_hal_tim.c ****   *            @arg TIM_EVENTSOURCE_CC1: Timer Capture Compare 1 Event source
3752:Drivers/STM32F1xx_HAL_Driver/Src/stm32f1xx_hal_tim.c ****   *            @arg TIM_EVENTSOURCE_CC2: Timer Capture Compare 2 Event source
3753:Drivers/STM32F1xx_HAL_Driver/Src/stm32f1xx_hal_tim.c ****   *            @arg TIM_EVENTSOURCE_CC3: Timer Capture Compare 3 Event source
3754:Drivers/STM32F1xx_HAL_Driver/Src/stm32f1xx_hal_tim.c ****   *            @arg TIM_EVENTSOURCE_CC4: Timer Capture Compare 4 Event source
3755:Drivers/STM32F1xx_HAL_Driver/Src/stm32f1xx_hal_tim.c ****   *            @arg TIM_EVENTSOURCE_COM: Timer COM event source 
3756:Drivers/STM32F1xx_HAL_Driver/Src/stm32f1xx_hal_tim.c ****   *            @arg TIM_EVENTSOURCE_TRIGGER: Timer Trigger Event source
ARM GAS  /tmp/cc5HGhWi.s 			page 210


3757:Drivers/STM32F1xx_HAL_Driver/Src/stm32f1xx_hal_tim.c ****   *            @arg TIM_EVENTSOURCE_BREAK: Timer Break event source
3758:Drivers/STM32F1xx_HAL_Driver/Src/stm32f1xx_hal_tim.c ****   * @note TIM6 and TIM7 can only generate an update event.
3759:Drivers/STM32F1xx_HAL_Driver/Src/stm32f1xx_hal_tim.c ****   * @note TIM_EVENTSOURCE_COM and TIM_EVENTSOURCE_BREAK are used only with TIM1, TIM15, TIM16 and T
3760:Drivers/STM32F1xx_HAL_Driver/Src/stm32f1xx_hal_tim.c ****   * @retval HAL status
3761:Drivers/STM32F1xx_HAL_Driver/Src/stm32f1xx_hal_tim.c ****   */
3762:Drivers/STM32F1xx_HAL_Driver/Src/stm32f1xx_hal_tim.c **** 
3763:Drivers/STM32F1xx_HAL_Driver/Src/stm32f1xx_hal_tim.c **** HAL_StatusTypeDef HAL_TIM_GenerateEvent(TIM_HandleTypeDef *htim, uint32_t EventSource)
3764:Drivers/STM32F1xx_HAL_Driver/Src/stm32f1xx_hal_tim.c **** {
 8161              		.loc 1 3764 0
 8162              		.cfi_startproc
 8163              		@ args = 0, pretend = 0, frame = 8
 8164              		@ frame_needed = 1, uses_anonymous_args = 0
 8165              		@ link register save eliminated.
 8166 0000 80B4     		push	{r7}
 8167              	.LCFI352:
 8168              		.cfi_def_cfa_offset 4
 8169              		.cfi_offset 7, -4
 8170 0002 83B0     		sub	sp, sp, #12
 8171              	.LCFI353:
 8172              		.cfi_def_cfa_offset 16
 8173 0004 00AF     		add	r7, sp, #0
 8174              	.LCFI354:
 8175              		.cfi_def_cfa_register 7
 8176 0006 7860     		str	r0, [r7, #4]
 8177 0008 3960     		str	r1, [r7]
3765:Drivers/STM32F1xx_HAL_Driver/Src/stm32f1xx_hal_tim.c ****   /* Check the parameters */
3766:Drivers/STM32F1xx_HAL_Driver/Src/stm32f1xx_hal_tim.c ****   assert_param(IS_TIM_INSTANCE(htim->Instance));
3767:Drivers/STM32F1xx_HAL_Driver/Src/stm32f1xx_hal_tim.c ****   assert_param(IS_TIM_EVENT_SOURCE(EventSource));
3768:Drivers/STM32F1xx_HAL_Driver/Src/stm32f1xx_hal_tim.c **** 
3769:Drivers/STM32F1xx_HAL_Driver/Src/stm32f1xx_hal_tim.c ****   /* Process Locked */
3770:Drivers/STM32F1xx_HAL_Driver/Src/stm32f1xx_hal_tim.c ****   __HAL_LOCK(htim);
 8178              		.loc 1 3770 0
 8179 000a 7B68     		ldr	r3, [r7, #4]
 8180 000c 93F83C30 		ldrb	r3, [r3, #60]	@ zero_extendqisi2
 8181 0010 012B     		cmp	r3, #1
 8182 0012 01D1     		bne	.L451
 8183              		.loc 1 3770 0 is_stmt 0 discriminator 1
 8184 0014 0223     		movs	r3, #2
 8185 0016 14E0     		b	.L452
 8186              	.L451:
 8187              		.loc 1 3770 0 discriminator 2
 8188 0018 7B68     		ldr	r3, [r7, #4]
 8189 001a 0122     		movs	r2, #1
 8190 001c 83F83C20 		strb	r2, [r3, #60]
3771:Drivers/STM32F1xx_HAL_Driver/Src/stm32f1xx_hal_tim.c **** 
3772:Drivers/STM32F1xx_HAL_Driver/Src/stm32f1xx_hal_tim.c ****   /* Change the TIM state */
3773:Drivers/STM32F1xx_HAL_Driver/Src/stm32f1xx_hal_tim.c ****   htim->State = HAL_TIM_STATE_BUSY;
 8191              		.loc 1 3773 0 is_stmt 1 discriminator 2
 8192 0020 7B68     		ldr	r3, [r7, #4]
 8193 0022 0222     		movs	r2, #2
 8194 0024 83F83D20 		strb	r2, [r3, #61]
3774:Drivers/STM32F1xx_HAL_Driver/Src/stm32f1xx_hal_tim.c **** 
3775:Drivers/STM32F1xx_HAL_Driver/Src/stm32f1xx_hal_tim.c ****   /* Set the event sources */
3776:Drivers/STM32F1xx_HAL_Driver/Src/stm32f1xx_hal_tim.c ****   htim->Instance->EGR = EventSource;
 8195              		.loc 1 3776 0 discriminator 2
 8196 0028 7B68     		ldr	r3, [r7, #4]
 8197 002a 1B68     		ldr	r3, [r3]
ARM GAS  /tmp/cc5HGhWi.s 			page 211


 8198 002c 3A68     		ldr	r2, [r7]
 8199 002e 5A61     		str	r2, [r3, #20]
3777:Drivers/STM32F1xx_HAL_Driver/Src/stm32f1xx_hal_tim.c **** 
3778:Drivers/STM32F1xx_HAL_Driver/Src/stm32f1xx_hal_tim.c ****   /* Change the TIM state */
3779:Drivers/STM32F1xx_HAL_Driver/Src/stm32f1xx_hal_tim.c ****   htim->State = HAL_TIM_STATE_READY;
 8200              		.loc 1 3779 0 discriminator 2
 8201 0030 7B68     		ldr	r3, [r7, #4]
 8202 0032 0122     		movs	r2, #1
 8203 0034 83F83D20 		strb	r2, [r3, #61]
3780:Drivers/STM32F1xx_HAL_Driver/Src/stm32f1xx_hal_tim.c **** 
3781:Drivers/STM32F1xx_HAL_Driver/Src/stm32f1xx_hal_tim.c ****   __HAL_UNLOCK(htim);
 8204              		.loc 1 3781 0 discriminator 2
 8205 0038 7B68     		ldr	r3, [r7, #4]
 8206 003a 0022     		movs	r2, #0
 8207 003c 83F83C20 		strb	r2, [r3, #60]
3782:Drivers/STM32F1xx_HAL_Driver/Src/stm32f1xx_hal_tim.c **** 
3783:Drivers/STM32F1xx_HAL_Driver/Src/stm32f1xx_hal_tim.c ****   /* Return function status */
3784:Drivers/STM32F1xx_HAL_Driver/Src/stm32f1xx_hal_tim.c ****   return HAL_OK;
 8208              		.loc 1 3784 0 discriminator 2
 8209 0040 0023     		movs	r3, #0
 8210              	.L452:
3785:Drivers/STM32F1xx_HAL_Driver/Src/stm32f1xx_hal_tim.c **** }
 8211              		.loc 1 3785 0
 8212 0042 1846     		mov	r0, r3
 8213 0044 0C37     		adds	r7, r7, #12
 8214              	.LCFI355:
 8215              		.cfi_def_cfa_offset 4
 8216 0046 BD46     		mov	sp, r7
 8217              	.LCFI356:
 8218              		.cfi_def_cfa_register 13
 8219              		@ sp needed
 8220 0048 80BC     		pop	{r7}
 8221              	.LCFI357:
 8222              		.cfi_restore 7
 8223              		.cfi_def_cfa_offset 0
 8224 004a 7047     		bx	lr
 8225              		.cfi_endproc
 8226              	.LFE133:
 8228              		.section	.text.HAL_TIM_ConfigOCrefClear,"ax",%progbits
 8229              		.align	1
 8230              		.global	HAL_TIM_ConfigOCrefClear
 8231              		.syntax unified
 8232              		.thumb
 8233              		.thumb_func
 8234              		.fpu softvfp
 8236              	HAL_TIM_ConfigOCrefClear:
 8237              	.LFB134:
3786:Drivers/STM32F1xx_HAL_Driver/Src/stm32f1xx_hal_tim.c **** 
3787:Drivers/STM32F1xx_HAL_Driver/Src/stm32f1xx_hal_tim.c **** /**
3788:Drivers/STM32F1xx_HAL_Driver/Src/stm32f1xx_hal_tim.c ****   * @brief  Configures the OCRef clear feature
3789:Drivers/STM32F1xx_HAL_Driver/Src/stm32f1xx_hal_tim.c ****   * @param  htim : TIM handle
3790:Drivers/STM32F1xx_HAL_Driver/Src/stm32f1xx_hal_tim.c ****   * @param  sClearInputConfig : pointer to a TIM_ClearInputConfigTypeDef structure that
3791:Drivers/STM32F1xx_HAL_Driver/Src/stm32f1xx_hal_tim.c ****   *         contains the OCREF clear feature and parameters for the TIM peripheral.
3792:Drivers/STM32F1xx_HAL_Driver/Src/stm32f1xx_hal_tim.c ****   * @param  Channel : specifies the TIM Channel
3793:Drivers/STM32F1xx_HAL_Driver/Src/stm32f1xx_hal_tim.c ****   *          This parameter can be one of the following values:
3794:Drivers/STM32F1xx_HAL_Driver/Src/stm32f1xx_hal_tim.c ****   *            @arg TIM_CHANNEL_1: TIM Channel 1
3795:Drivers/STM32F1xx_HAL_Driver/Src/stm32f1xx_hal_tim.c ****   *            @arg TIM_CHANNEL_2: TIM Channel 2
ARM GAS  /tmp/cc5HGhWi.s 			page 212


3796:Drivers/STM32F1xx_HAL_Driver/Src/stm32f1xx_hal_tim.c ****   *            @arg TIM_CHANNEL_3: TIM Channel 3
3797:Drivers/STM32F1xx_HAL_Driver/Src/stm32f1xx_hal_tim.c ****   *            @arg TIM_CHANNEL_4: TIM Channel 4
3798:Drivers/STM32F1xx_HAL_Driver/Src/stm32f1xx_hal_tim.c ****   * @retval HAL status
3799:Drivers/STM32F1xx_HAL_Driver/Src/stm32f1xx_hal_tim.c ****   */ 
3800:Drivers/STM32F1xx_HAL_Driver/Src/stm32f1xx_hal_tim.c **** HAL_StatusTypeDef HAL_TIM_ConfigOCrefClear(TIM_HandleTypeDef *htim, TIM_ClearInputConfigTypeDef * s
3801:Drivers/STM32F1xx_HAL_Driver/Src/stm32f1xx_hal_tim.c **** {
 8238              		.loc 1 3801 0
 8239              		.cfi_startproc
 8240              		@ args = 0, pretend = 0, frame = 24
 8241              		@ frame_needed = 1, uses_anonymous_args = 0
 8242 0000 80B5     		push	{r7, lr}
 8243              	.LCFI358:
 8244              		.cfi_def_cfa_offset 8
 8245              		.cfi_offset 7, -8
 8246              		.cfi_offset 14, -4
 8247 0002 86B0     		sub	sp, sp, #24
 8248              	.LCFI359:
 8249              		.cfi_def_cfa_offset 32
 8250 0004 00AF     		add	r7, sp, #0
 8251              	.LCFI360:
 8252              		.cfi_def_cfa_register 7
 8253 0006 F860     		str	r0, [r7, #12]
 8254 0008 B960     		str	r1, [r7, #8]
 8255 000a 7A60     		str	r2, [r7, #4]
3802:Drivers/STM32F1xx_HAL_Driver/Src/stm32f1xx_hal_tim.c ****   uint32_t tmpsmcr = 0U;
 8256              		.loc 1 3802 0
 8257 000c 0023     		movs	r3, #0
 8258 000e 7B61     		str	r3, [r7, #20]
3803:Drivers/STM32F1xx_HAL_Driver/Src/stm32f1xx_hal_tim.c **** 
3804:Drivers/STM32F1xx_HAL_Driver/Src/stm32f1xx_hal_tim.c ****   /* Check the parameters */
3805:Drivers/STM32F1xx_HAL_Driver/Src/stm32f1xx_hal_tim.c ****   assert_param(IS_TIM_OCXREF_CLEAR_INSTANCE(htim->Instance));
3806:Drivers/STM32F1xx_HAL_Driver/Src/stm32f1xx_hal_tim.c ****   assert_param(IS_TIM_CLEARINPUT_SOURCE(sClearInputConfig->ClearInputSource));
3807:Drivers/STM32F1xx_HAL_Driver/Src/stm32f1xx_hal_tim.c ****   assert_param(IS_TIM_CLEARINPUT_POLARITY(sClearInputConfig->ClearInputPolarity));
3808:Drivers/STM32F1xx_HAL_Driver/Src/stm32f1xx_hal_tim.c ****   assert_param(IS_TIM_CLEARINPUT_PRESCALER(sClearInputConfig->ClearInputPrescaler));
3809:Drivers/STM32F1xx_HAL_Driver/Src/stm32f1xx_hal_tim.c ****   assert_param(IS_TIM_CLEARINPUT_FILTER(sClearInputConfig->ClearInputFilter));
3810:Drivers/STM32F1xx_HAL_Driver/Src/stm32f1xx_hal_tim.c **** 
3811:Drivers/STM32F1xx_HAL_Driver/Src/stm32f1xx_hal_tim.c ****   /* Process Locked */
3812:Drivers/STM32F1xx_HAL_Driver/Src/stm32f1xx_hal_tim.c ****   __HAL_LOCK(htim);
 8259              		.loc 1 3812 0
 8260 0010 FB68     		ldr	r3, [r7, #12]
 8261 0012 93F83C30 		ldrb	r3, [r3, #60]	@ zero_extendqisi2
 8262 0016 012B     		cmp	r3, #1
 8263 0018 01D1     		bne	.L454
 8264              		.loc 1 3812 0 is_stmt 0 discriminator 1
 8265 001a 0223     		movs	r3, #2
 8266 001c A4E0     		b	.L455
 8267              	.L454:
 8268              		.loc 1 3812 0 discriminator 2
 8269 001e FB68     		ldr	r3, [r7, #12]
 8270 0020 0122     		movs	r2, #1
 8271 0022 83F83C20 		strb	r2, [r3, #60]
3813:Drivers/STM32F1xx_HAL_Driver/Src/stm32f1xx_hal_tim.c **** 
3814:Drivers/STM32F1xx_HAL_Driver/Src/stm32f1xx_hal_tim.c ****   htim->State = HAL_TIM_STATE_BUSY;
 8272              		.loc 1 3814 0 is_stmt 1 discriminator 2
 8273 0026 FB68     		ldr	r3, [r7, #12]
 8274 0028 0222     		movs	r2, #2
 8275 002a 83F83D20 		strb	r2, [r3, #61]
ARM GAS  /tmp/cc5HGhWi.s 			page 213


3815:Drivers/STM32F1xx_HAL_Driver/Src/stm32f1xx_hal_tim.c **** 
3816:Drivers/STM32F1xx_HAL_Driver/Src/stm32f1xx_hal_tim.c ****   switch (sClearInputConfig->ClearInputSource)
 8276              		.loc 1 3816 0 discriminator 2
 8277 002e BB68     		ldr	r3, [r7, #8]
 8278 0030 5B68     		ldr	r3, [r3, #4]
 8279 0032 002B     		cmp	r3, #0
 8280 0034 02D0     		beq	.L457
 8281 0036 012B     		cmp	r3, #1
 8282 0038 09D0     		beq	.L458
3817:Drivers/STM32F1xx_HAL_Driver/Src/stm32f1xx_hal_tim.c ****   {
3818:Drivers/STM32F1xx_HAL_Driver/Src/stm32f1xx_hal_tim.c ****     case TIM_CLEARINPUTSOURCE_NONE:
3819:Drivers/STM32F1xx_HAL_Driver/Src/stm32f1xx_hal_tim.c ****     {
3820:Drivers/STM32F1xx_HAL_Driver/Src/stm32f1xx_hal_tim.c **** 
3821:Drivers/STM32F1xx_HAL_Driver/Src/stm32f1xx_hal_tim.c ****       /* Clear the ETR Bits */
3822:Drivers/STM32F1xx_HAL_Driver/Src/stm32f1xx_hal_tim.c ****       tmpsmcr &= ~(TIM_SMCR_ETF | TIM_SMCR_ETPS | TIM_SMCR_ECE | TIM_SMCR_ETP);
3823:Drivers/STM32F1xx_HAL_Driver/Src/stm32f1xx_hal_tim.c **** 
3824:Drivers/STM32F1xx_HAL_Driver/Src/stm32f1xx_hal_tim.c ****       /* Set TIMx_SMCR */
3825:Drivers/STM32F1xx_HAL_Driver/Src/stm32f1xx_hal_tim.c ****       htim->Instance->SMCR = tmpsmcr;
3826:Drivers/STM32F1xx_HAL_Driver/Src/stm32f1xx_hal_tim.c ****    }
3827:Drivers/STM32F1xx_HAL_Driver/Src/stm32f1xx_hal_tim.c ****     break;
3828:Drivers/STM32F1xx_HAL_Driver/Src/stm32f1xx_hal_tim.c **** 
3829:Drivers/STM32F1xx_HAL_Driver/Src/stm32f1xx_hal_tim.c ****     case TIM_CLEARINPUTSOURCE_ETR:
3830:Drivers/STM32F1xx_HAL_Driver/Src/stm32f1xx_hal_tim.c ****     {
3831:Drivers/STM32F1xx_HAL_Driver/Src/stm32f1xx_hal_tim.c ****       TIM_ETR_SetConfig(htim->Instance,
3832:Drivers/STM32F1xx_HAL_Driver/Src/stm32f1xx_hal_tim.c ****                         sClearInputConfig->ClearInputPrescaler,
3833:Drivers/STM32F1xx_HAL_Driver/Src/stm32f1xx_hal_tim.c ****                         sClearInputConfig->ClearInputPolarity,
3834:Drivers/STM32F1xx_HAL_Driver/Src/stm32f1xx_hal_tim.c ****                         sClearInputConfig->ClearInputFilter);
3835:Drivers/STM32F1xx_HAL_Driver/Src/stm32f1xx_hal_tim.c **** 
3836:Drivers/STM32F1xx_HAL_Driver/Src/stm32f1xx_hal_tim.c ****     }
3837:Drivers/STM32F1xx_HAL_Driver/Src/stm32f1xx_hal_tim.c ****     break;
3838:Drivers/STM32F1xx_HAL_Driver/Src/stm32f1xx_hal_tim.c ****     default:
3839:Drivers/STM32F1xx_HAL_Driver/Src/stm32f1xx_hal_tim.c ****     break;
 8283              		.loc 1 3839 0 discriminator 2
 8284 003a 13E0     		b	.L459
 8285              	.L457:
3822:Drivers/STM32F1xx_HAL_Driver/Src/stm32f1xx_hal_tim.c **** 
 8286              		.loc 1 3822 0
 8287 003c 7B69     		ldr	r3, [r7, #20]
 8288 003e 23F47F43 		bic	r3, r3, #65280
 8289 0042 7B61     		str	r3, [r7, #20]
3825:Drivers/STM32F1xx_HAL_Driver/Src/stm32f1xx_hal_tim.c ****    }
 8290              		.loc 1 3825 0
 8291 0044 FB68     		ldr	r3, [r7, #12]
 8292 0046 1B68     		ldr	r3, [r3]
 8293 0048 7A69     		ldr	r2, [r7, #20]
 8294 004a 9A60     		str	r2, [r3, #8]
3827:Drivers/STM32F1xx_HAL_Driver/Src/stm32f1xx_hal_tim.c **** 
 8295              		.loc 1 3827 0
 8296 004c 0AE0     		b	.L459
 8297              	.L458:
3831:Drivers/STM32F1xx_HAL_Driver/Src/stm32f1xx_hal_tim.c ****                         sClearInputConfig->ClearInputPrescaler,
 8298              		.loc 1 3831 0
 8299 004e FB68     		ldr	r3, [r7, #12]
 8300 0050 1868     		ldr	r0, [r3]
 8301 0052 BB68     		ldr	r3, [r7, #8]
 8302 0054 D968     		ldr	r1, [r3, #12]
 8303 0056 BB68     		ldr	r3, [r7, #8]
ARM GAS  /tmp/cc5HGhWi.s 			page 214


 8304 0058 9A68     		ldr	r2, [r3, #8]
 8305 005a BB68     		ldr	r3, [r7, #8]
 8306 005c 1B69     		ldr	r3, [r3, #16]
 8307 005e FFF7FEFF 		bl	TIM_ETR_SetConfig
3837:Drivers/STM32F1xx_HAL_Driver/Src/stm32f1xx_hal_tim.c ****     default:
 8308              		.loc 1 3837 0
 8309 0062 00BF     		nop
 8310              	.L459:
3840:Drivers/STM32F1xx_HAL_Driver/Src/stm32f1xx_hal_tim.c ****   }
3841:Drivers/STM32F1xx_HAL_Driver/Src/stm32f1xx_hal_tim.c **** 
3842:Drivers/STM32F1xx_HAL_Driver/Src/stm32f1xx_hal_tim.c ****   switch (Channel)
 8311              		.loc 1 3842 0
 8312 0064 7B68     		ldr	r3, [r7, #4]
 8313 0066 0C2B     		cmp	r3, #12
 8314 0068 74D8     		bhi	.L475
 8315 006a 01A2     		adr	r2, .L462
 8316 006c 52F823F0 		ldr	pc, [r2, r3, lsl #2]
 8317              		.p2align 2
 8318              	.L462:
 8319 0070 A5000000 		.word	.L461+1
 8320 0074 55010000 		.word	.L475+1
 8321 0078 55010000 		.word	.L475+1
 8322 007c 55010000 		.word	.L475+1
 8323 0080 D1000000 		.word	.L463+1
 8324 0084 55010000 		.word	.L475+1
 8325 0088 55010000 		.word	.L475+1
 8326 008c 55010000 		.word	.L475+1
 8327 0090 FD000000 		.word	.L464+1
 8328 0094 55010000 		.word	.L475+1
 8329 0098 55010000 		.word	.L475+1
 8330 009c 55010000 		.word	.L475+1
 8331 00a0 29010000 		.word	.L465+1
 8332              		.p2align 1
 8333              	.L461:
3843:Drivers/STM32F1xx_HAL_Driver/Src/stm32f1xx_hal_tim.c ****   {
3844:Drivers/STM32F1xx_HAL_Driver/Src/stm32f1xx_hal_tim.c ****     case TIM_CHANNEL_1:
3845:Drivers/STM32F1xx_HAL_Driver/Src/stm32f1xx_hal_tim.c ****       {
3846:Drivers/STM32F1xx_HAL_Driver/Src/stm32f1xx_hal_tim.c ****         if(sClearInputConfig->ClearInputState != RESET)
 8334              		.loc 1 3846 0
 8335 00a4 BB68     		ldr	r3, [r7, #8]
 8336 00a6 1B68     		ldr	r3, [r3]
 8337 00a8 002B     		cmp	r3, #0
 8338 00aa 08D0     		beq	.L466
3847:Drivers/STM32F1xx_HAL_Driver/Src/stm32f1xx_hal_tim.c ****         {
3848:Drivers/STM32F1xx_HAL_Driver/Src/stm32f1xx_hal_tim.c ****           /* Enable the Ocref clear feature for Channel 1 */
3849:Drivers/STM32F1xx_HAL_Driver/Src/stm32f1xx_hal_tim.c ****           htim->Instance->CCMR1 |= TIM_CCMR1_OC1CE;
 8339              		.loc 1 3849 0
 8340 00ac FB68     		ldr	r3, [r7, #12]
 8341 00ae 1B68     		ldr	r3, [r3]
 8342 00b0 9A69     		ldr	r2, [r3, #24]
 8343 00b2 FB68     		ldr	r3, [r7, #12]
 8344 00b4 1B68     		ldr	r3, [r3]
 8345 00b6 42F08002 		orr	r2, r2, #128
 8346 00ba 9A61     		str	r2, [r3, #24]
3850:Drivers/STM32F1xx_HAL_Driver/Src/stm32f1xx_hal_tim.c ****         }
3851:Drivers/STM32F1xx_HAL_Driver/Src/stm32f1xx_hal_tim.c ****         else
3852:Drivers/STM32F1xx_HAL_Driver/Src/stm32f1xx_hal_tim.c ****         {
ARM GAS  /tmp/cc5HGhWi.s 			page 215


3853:Drivers/STM32F1xx_HAL_Driver/Src/stm32f1xx_hal_tim.c ****           /* Disable the Ocref clear feature for Channel 1 */
3854:Drivers/STM32F1xx_HAL_Driver/Src/stm32f1xx_hal_tim.c ****         htim->Instance->CCMR1 &= ~TIM_CCMR1_OC1CE;
3855:Drivers/STM32F1xx_HAL_Driver/Src/stm32f1xx_hal_tim.c ****         }
3856:Drivers/STM32F1xx_HAL_Driver/Src/stm32f1xx_hal_tim.c ****       }
3857:Drivers/STM32F1xx_HAL_Driver/Src/stm32f1xx_hal_tim.c ****       break;
 8347              		.loc 1 3857 0
 8348 00bc 4BE0     		b	.L468
 8349              	.L466:
3854:Drivers/STM32F1xx_HAL_Driver/Src/stm32f1xx_hal_tim.c ****         }
 8350              		.loc 1 3854 0
 8351 00be FB68     		ldr	r3, [r7, #12]
 8352 00c0 1B68     		ldr	r3, [r3]
 8353 00c2 9A69     		ldr	r2, [r3, #24]
 8354 00c4 FB68     		ldr	r3, [r7, #12]
 8355 00c6 1B68     		ldr	r3, [r3]
 8356 00c8 22F08002 		bic	r2, r2, #128
 8357 00cc 9A61     		str	r2, [r3, #24]
 8358              		.loc 1 3857 0
 8359 00ce 42E0     		b	.L468
 8360              	.L463:
3858:Drivers/STM32F1xx_HAL_Driver/Src/stm32f1xx_hal_tim.c ****     case TIM_CHANNEL_2:
3859:Drivers/STM32F1xx_HAL_Driver/Src/stm32f1xx_hal_tim.c ****       {
3860:Drivers/STM32F1xx_HAL_Driver/Src/stm32f1xx_hal_tim.c ****         assert_param(IS_TIM_CC2_INSTANCE(htim->Instance));
3861:Drivers/STM32F1xx_HAL_Driver/Src/stm32f1xx_hal_tim.c ****         if(sClearInputConfig->ClearInputState != RESET)
 8361              		.loc 1 3861 0
 8362 00d0 BB68     		ldr	r3, [r7, #8]
 8363 00d2 1B68     		ldr	r3, [r3]
 8364 00d4 002B     		cmp	r3, #0
 8365 00d6 08D0     		beq	.L469
3862:Drivers/STM32F1xx_HAL_Driver/Src/stm32f1xx_hal_tim.c ****         {
3863:Drivers/STM32F1xx_HAL_Driver/Src/stm32f1xx_hal_tim.c ****           /* Enable the Ocref clear feature for Channel 2 */
3864:Drivers/STM32F1xx_HAL_Driver/Src/stm32f1xx_hal_tim.c ****           htim->Instance->CCMR1 |= TIM_CCMR1_OC2CE;
 8366              		.loc 1 3864 0
 8367 00d8 FB68     		ldr	r3, [r7, #12]
 8368 00da 1B68     		ldr	r3, [r3]
 8369 00dc 9A69     		ldr	r2, [r3, #24]
 8370 00de FB68     		ldr	r3, [r7, #12]
 8371 00e0 1B68     		ldr	r3, [r3]
 8372 00e2 42F40042 		orr	r2, r2, #32768
 8373 00e6 9A61     		str	r2, [r3, #24]
3865:Drivers/STM32F1xx_HAL_Driver/Src/stm32f1xx_hal_tim.c ****         }
3866:Drivers/STM32F1xx_HAL_Driver/Src/stm32f1xx_hal_tim.c ****         else
3867:Drivers/STM32F1xx_HAL_Driver/Src/stm32f1xx_hal_tim.c ****         {
3868:Drivers/STM32F1xx_HAL_Driver/Src/stm32f1xx_hal_tim.c ****           /* Disable the Ocref clear feature for Channel 2 */
3869:Drivers/STM32F1xx_HAL_Driver/Src/stm32f1xx_hal_tim.c ****           htim->Instance->CCMR1 &= ~TIM_CCMR1_OC2CE;
3870:Drivers/STM32F1xx_HAL_Driver/Src/stm32f1xx_hal_tim.c ****         }
3871:Drivers/STM32F1xx_HAL_Driver/Src/stm32f1xx_hal_tim.c ****       }
3872:Drivers/STM32F1xx_HAL_Driver/Src/stm32f1xx_hal_tim.c ****     break;
 8374              		.loc 1 3872 0
 8375 00e8 35E0     		b	.L468
 8376              	.L469:
3869:Drivers/STM32F1xx_HAL_Driver/Src/stm32f1xx_hal_tim.c ****         }
 8377              		.loc 1 3869 0
 8378 00ea FB68     		ldr	r3, [r7, #12]
 8379 00ec 1B68     		ldr	r3, [r3]
 8380 00ee 9A69     		ldr	r2, [r3, #24]
 8381 00f0 FB68     		ldr	r3, [r7, #12]
ARM GAS  /tmp/cc5HGhWi.s 			page 216


 8382 00f2 1B68     		ldr	r3, [r3]
 8383 00f4 22F40042 		bic	r2, r2, #32768
 8384 00f8 9A61     		str	r2, [r3, #24]
 8385              		.loc 1 3872 0
 8386 00fa 2CE0     		b	.L468
 8387              	.L464:
3873:Drivers/STM32F1xx_HAL_Driver/Src/stm32f1xx_hal_tim.c ****     case TIM_CHANNEL_3:
3874:Drivers/STM32F1xx_HAL_Driver/Src/stm32f1xx_hal_tim.c ****       {
3875:Drivers/STM32F1xx_HAL_Driver/Src/stm32f1xx_hal_tim.c ****         assert_param(IS_TIM_CC3_INSTANCE(htim->Instance));
3876:Drivers/STM32F1xx_HAL_Driver/Src/stm32f1xx_hal_tim.c ****         if(sClearInputConfig->ClearInputState != RESET)
 8388              		.loc 1 3876 0
 8389 00fc BB68     		ldr	r3, [r7, #8]
 8390 00fe 1B68     		ldr	r3, [r3]
 8391 0100 002B     		cmp	r3, #0
 8392 0102 08D0     		beq	.L471
3877:Drivers/STM32F1xx_HAL_Driver/Src/stm32f1xx_hal_tim.c ****         {
3878:Drivers/STM32F1xx_HAL_Driver/Src/stm32f1xx_hal_tim.c ****           /* Enable the Ocref clear feature for Channel 3 */
3879:Drivers/STM32F1xx_HAL_Driver/Src/stm32f1xx_hal_tim.c ****           htim->Instance->CCMR2 |= TIM_CCMR2_OC3CE;
 8393              		.loc 1 3879 0
 8394 0104 FB68     		ldr	r3, [r7, #12]
 8395 0106 1B68     		ldr	r3, [r3]
 8396 0108 DA69     		ldr	r2, [r3, #28]
 8397 010a FB68     		ldr	r3, [r7, #12]
 8398 010c 1B68     		ldr	r3, [r3]
 8399 010e 42F08002 		orr	r2, r2, #128
 8400 0112 DA61     		str	r2, [r3, #28]
3880:Drivers/STM32F1xx_HAL_Driver/Src/stm32f1xx_hal_tim.c ****         }
3881:Drivers/STM32F1xx_HAL_Driver/Src/stm32f1xx_hal_tim.c ****         else
3882:Drivers/STM32F1xx_HAL_Driver/Src/stm32f1xx_hal_tim.c ****         {
3883:Drivers/STM32F1xx_HAL_Driver/Src/stm32f1xx_hal_tim.c ****           /* Disable the Ocref clear feature for Channel 3 */
3884:Drivers/STM32F1xx_HAL_Driver/Src/stm32f1xx_hal_tim.c ****         htim->Instance->CCMR2 &= ~TIM_CCMR2_OC3CE;
3885:Drivers/STM32F1xx_HAL_Driver/Src/stm32f1xx_hal_tim.c ****         }
3886:Drivers/STM32F1xx_HAL_Driver/Src/stm32f1xx_hal_tim.c ****       }
3887:Drivers/STM32F1xx_HAL_Driver/Src/stm32f1xx_hal_tim.c ****     break;
 8401              		.loc 1 3887 0
 8402 0114 1FE0     		b	.L468
 8403              	.L471:
3884:Drivers/STM32F1xx_HAL_Driver/Src/stm32f1xx_hal_tim.c ****         }
 8404              		.loc 1 3884 0
 8405 0116 FB68     		ldr	r3, [r7, #12]
 8406 0118 1B68     		ldr	r3, [r3]
 8407 011a DA69     		ldr	r2, [r3, #28]
 8408 011c FB68     		ldr	r3, [r7, #12]
 8409 011e 1B68     		ldr	r3, [r3]
 8410 0120 22F08002 		bic	r2, r2, #128
 8411 0124 DA61     		str	r2, [r3, #28]
 8412              		.loc 1 3887 0
 8413 0126 16E0     		b	.L468
 8414              	.L465:
3888:Drivers/STM32F1xx_HAL_Driver/Src/stm32f1xx_hal_tim.c ****     case TIM_CHANNEL_4:
3889:Drivers/STM32F1xx_HAL_Driver/Src/stm32f1xx_hal_tim.c ****       {
3890:Drivers/STM32F1xx_HAL_Driver/Src/stm32f1xx_hal_tim.c ****         assert_param(IS_TIM_CC4_INSTANCE(htim->Instance));
3891:Drivers/STM32F1xx_HAL_Driver/Src/stm32f1xx_hal_tim.c ****         if(sClearInputConfig->ClearInputState != RESET)
 8415              		.loc 1 3891 0
 8416 0128 BB68     		ldr	r3, [r7, #8]
 8417 012a 1B68     		ldr	r3, [r3]
 8418 012c 002B     		cmp	r3, #0
ARM GAS  /tmp/cc5HGhWi.s 			page 217


 8419 012e 08D0     		beq	.L473
3892:Drivers/STM32F1xx_HAL_Driver/Src/stm32f1xx_hal_tim.c ****         {
3893:Drivers/STM32F1xx_HAL_Driver/Src/stm32f1xx_hal_tim.c ****           /* Enable the Ocref clear feature for Channel 4 */
3894:Drivers/STM32F1xx_HAL_Driver/Src/stm32f1xx_hal_tim.c ****           htim->Instance->CCMR2 |= TIM_CCMR2_OC4CE;
 8420              		.loc 1 3894 0
 8421 0130 FB68     		ldr	r3, [r7, #12]
 8422 0132 1B68     		ldr	r3, [r3]
 8423 0134 DA69     		ldr	r2, [r3, #28]
 8424 0136 FB68     		ldr	r3, [r7, #12]
 8425 0138 1B68     		ldr	r3, [r3]
 8426 013a 42F40042 		orr	r2, r2, #32768
 8427 013e DA61     		str	r2, [r3, #28]
3895:Drivers/STM32F1xx_HAL_Driver/Src/stm32f1xx_hal_tim.c ****         }
3896:Drivers/STM32F1xx_HAL_Driver/Src/stm32f1xx_hal_tim.c ****         else
3897:Drivers/STM32F1xx_HAL_Driver/Src/stm32f1xx_hal_tim.c ****         {
3898:Drivers/STM32F1xx_HAL_Driver/Src/stm32f1xx_hal_tim.c ****           /* Disable the Ocref clear feature for Channel 4 */
3899:Drivers/STM32F1xx_HAL_Driver/Src/stm32f1xx_hal_tim.c ****         htim->Instance->CCMR2 &= ~TIM_CCMR2_OC4CE;
3900:Drivers/STM32F1xx_HAL_Driver/Src/stm32f1xx_hal_tim.c ****         }
3901:Drivers/STM32F1xx_HAL_Driver/Src/stm32f1xx_hal_tim.c ****       }
3902:Drivers/STM32F1xx_HAL_Driver/Src/stm32f1xx_hal_tim.c ****     break;
 8428              		.loc 1 3902 0
 8429 0140 09E0     		b	.L468
 8430              	.L473:
3899:Drivers/STM32F1xx_HAL_Driver/Src/stm32f1xx_hal_tim.c ****         }
 8431              		.loc 1 3899 0
 8432 0142 FB68     		ldr	r3, [r7, #12]
 8433 0144 1B68     		ldr	r3, [r3]
 8434 0146 DA69     		ldr	r2, [r3, #28]
 8435 0148 FB68     		ldr	r3, [r7, #12]
 8436 014a 1B68     		ldr	r3, [r3]
 8437 014c 22F40042 		bic	r2, r2, #32768
 8438 0150 DA61     		str	r2, [r3, #28]
 8439              		.loc 1 3902 0
 8440 0152 00E0     		b	.L468
 8441              	.L475:
3903:Drivers/STM32F1xx_HAL_Driver/Src/stm32f1xx_hal_tim.c ****     default:
3904:Drivers/STM32F1xx_HAL_Driver/Src/stm32f1xx_hal_tim.c ****     break;
 8442              		.loc 1 3904 0
 8443 0154 00BF     		nop
 8444              	.L468:
3905:Drivers/STM32F1xx_HAL_Driver/Src/stm32f1xx_hal_tim.c ****   }
3906:Drivers/STM32F1xx_HAL_Driver/Src/stm32f1xx_hal_tim.c **** 
3907:Drivers/STM32F1xx_HAL_Driver/Src/stm32f1xx_hal_tim.c ****   htim->State = HAL_TIM_STATE_READY;
 8445              		.loc 1 3907 0
 8446 0156 FB68     		ldr	r3, [r7, #12]
 8447 0158 0122     		movs	r2, #1
 8448 015a 83F83D20 		strb	r2, [r3, #61]
3908:Drivers/STM32F1xx_HAL_Driver/Src/stm32f1xx_hal_tim.c **** 
3909:Drivers/STM32F1xx_HAL_Driver/Src/stm32f1xx_hal_tim.c ****   __HAL_UNLOCK(htim);
 8449              		.loc 1 3909 0
 8450 015e FB68     		ldr	r3, [r7, #12]
 8451 0160 0022     		movs	r2, #0
 8452 0162 83F83C20 		strb	r2, [r3, #60]
3910:Drivers/STM32F1xx_HAL_Driver/Src/stm32f1xx_hal_tim.c **** 
3911:Drivers/STM32F1xx_HAL_Driver/Src/stm32f1xx_hal_tim.c ****   return HAL_OK;
 8453              		.loc 1 3911 0
 8454 0166 0023     		movs	r3, #0
ARM GAS  /tmp/cc5HGhWi.s 			page 218


 8455              	.L455:
3912:Drivers/STM32F1xx_HAL_Driver/Src/stm32f1xx_hal_tim.c **** }
 8456              		.loc 1 3912 0
 8457 0168 1846     		mov	r0, r3
 8458 016a 1837     		adds	r7, r7, #24
 8459              	.LCFI361:
 8460              		.cfi_def_cfa_offset 8
 8461 016c BD46     		mov	sp, r7
 8462              	.LCFI362:
 8463              		.cfi_def_cfa_register 13
 8464              		@ sp needed
 8465 016e 80BD     		pop	{r7, pc}
 8466              		.cfi_endproc
 8467              	.LFE134:
 8469              		.section	.text.HAL_TIM_ConfigClockSource,"ax",%progbits
 8470              		.align	1
 8471              		.global	HAL_TIM_ConfigClockSource
 8472              		.syntax unified
 8473              		.thumb
 8474              		.thumb_func
 8475              		.fpu softvfp
 8477              	HAL_TIM_ConfigClockSource:
 8478              	.LFB135:
3913:Drivers/STM32F1xx_HAL_Driver/Src/stm32f1xx_hal_tim.c **** 
3914:Drivers/STM32F1xx_HAL_Driver/Src/stm32f1xx_hal_tim.c **** /**
3915:Drivers/STM32F1xx_HAL_Driver/Src/stm32f1xx_hal_tim.c ****   * @brief   Configures the clock source to be used
3916:Drivers/STM32F1xx_HAL_Driver/Src/stm32f1xx_hal_tim.c ****   * @param  htim : TIM handle
3917:Drivers/STM32F1xx_HAL_Driver/Src/stm32f1xx_hal_tim.c ****   * @param  sClockSourceConfig : pointer to a TIM_ClockConfigTypeDef structure that
3918:Drivers/STM32F1xx_HAL_Driver/Src/stm32f1xx_hal_tim.c ****   *         contains the clock source information for the TIM peripheral.
3919:Drivers/STM32F1xx_HAL_Driver/Src/stm32f1xx_hal_tim.c ****   * @retval HAL status
3920:Drivers/STM32F1xx_HAL_Driver/Src/stm32f1xx_hal_tim.c ****   */ 
3921:Drivers/STM32F1xx_HAL_Driver/Src/stm32f1xx_hal_tim.c **** HAL_StatusTypeDef HAL_TIM_ConfigClockSource(TIM_HandleTypeDef *htim, TIM_ClockConfigTypeDef * sCloc
3922:Drivers/STM32F1xx_HAL_Driver/Src/stm32f1xx_hal_tim.c **** {
 8479              		.loc 1 3922 0
 8480              		.cfi_startproc
 8481              		@ args = 0, pretend = 0, frame = 16
 8482              		@ frame_needed = 1, uses_anonymous_args = 0
 8483 0000 80B5     		push	{r7, lr}
 8484              	.LCFI363:
 8485              		.cfi_def_cfa_offset 8
 8486              		.cfi_offset 7, -8
 8487              		.cfi_offset 14, -4
 8488 0002 84B0     		sub	sp, sp, #16
 8489              	.LCFI364:
 8490              		.cfi_def_cfa_offset 24
 8491 0004 00AF     		add	r7, sp, #0
 8492              	.LCFI365:
 8493              		.cfi_def_cfa_register 7
 8494 0006 7860     		str	r0, [r7, #4]
 8495 0008 3960     		str	r1, [r7]
3923:Drivers/STM32F1xx_HAL_Driver/Src/stm32f1xx_hal_tim.c ****   uint32_t tmpsmcr = 0U;
 8496              		.loc 1 3923 0
 8497 000a 0023     		movs	r3, #0
 8498 000c FB60     		str	r3, [r7, #12]
3924:Drivers/STM32F1xx_HAL_Driver/Src/stm32f1xx_hal_tim.c **** 
3925:Drivers/STM32F1xx_HAL_Driver/Src/stm32f1xx_hal_tim.c ****   /* Process Locked */
3926:Drivers/STM32F1xx_HAL_Driver/Src/stm32f1xx_hal_tim.c ****   __HAL_LOCK(htim);
ARM GAS  /tmp/cc5HGhWi.s 			page 219


 8499              		.loc 1 3926 0
 8500 000e 7B68     		ldr	r3, [r7, #4]
 8501 0010 93F83C30 		ldrb	r3, [r3, #60]	@ zero_extendqisi2
 8502 0014 012B     		cmp	r3, #1
 8503 0016 01D1     		bne	.L477
 8504              		.loc 1 3926 0 is_stmt 0 discriminator 1
 8505 0018 0223     		movs	r3, #2
 8506 001a C8E0     		b	.L478
 8507              	.L477:
 8508              		.loc 1 3926 0 discriminator 2
 8509 001c 7B68     		ldr	r3, [r7, #4]
 8510 001e 0122     		movs	r2, #1
 8511 0020 83F83C20 		strb	r2, [r3, #60]
3927:Drivers/STM32F1xx_HAL_Driver/Src/stm32f1xx_hal_tim.c **** 
3928:Drivers/STM32F1xx_HAL_Driver/Src/stm32f1xx_hal_tim.c ****   htim->State = HAL_TIM_STATE_BUSY;
 8512              		.loc 1 3928 0 is_stmt 1 discriminator 2
 8513 0024 7B68     		ldr	r3, [r7, #4]
 8514 0026 0222     		movs	r2, #2
 8515 0028 83F83D20 		strb	r2, [r3, #61]
3929:Drivers/STM32F1xx_HAL_Driver/Src/stm32f1xx_hal_tim.c **** 
3930:Drivers/STM32F1xx_HAL_Driver/Src/stm32f1xx_hal_tim.c ****   /* Check the parameters */
3931:Drivers/STM32F1xx_HAL_Driver/Src/stm32f1xx_hal_tim.c ****   assert_param(IS_TIM_CLOCKSOURCE(sClockSourceConfig->ClockSource));
3932:Drivers/STM32F1xx_HAL_Driver/Src/stm32f1xx_hal_tim.c **** 
3933:Drivers/STM32F1xx_HAL_Driver/Src/stm32f1xx_hal_tim.c ****   /* Reset the SMS, TS, ECE, ETPS and ETRF bits */
3934:Drivers/STM32F1xx_HAL_Driver/Src/stm32f1xx_hal_tim.c ****   tmpsmcr = htim->Instance->SMCR;
 8516              		.loc 1 3934 0 discriminator 2
 8517 002c 7B68     		ldr	r3, [r7, #4]
 8518 002e 1B68     		ldr	r3, [r3]
 8519 0030 9B68     		ldr	r3, [r3, #8]
 8520 0032 FB60     		str	r3, [r7, #12]
3935:Drivers/STM32F1xx_HAL_Driver/Src/stm32f1xx_hal_tim.c ****   tmpsmcr &= ~(TIM_SMCR_SMS | TIM_SMCR_TS);
 8521              		.loc 1 3935 0 discriminator 2
 8522 0034 FB68     		ldr	r3, [r7, #12]
 8523 0036 23F07703 		bic	r3, r3, #119
 8524 003a FB60     		str	r3, [r7, #12]
3936:Drivers/STM32F1xx_HAL_Driver/Src/stm32f1xx_hal_tim.c ****   tmpsmcr &= ~(TIM_SMCR_ETF | TIM_SMCR_ETPS | TIM_SMCR_ECE | TIM_SMCR_ETP);
 8525              		.loc 1 3936 0 discriminator 2
 8526 003c FB68     		ldr	r3, [r7, #12]
 8527 003e 23F47F43 		bic	r3, r3, #65280
 8528 0042 FB60     		str	r3, [r7, #12]
3937:Drivers/STM32F1xx_HAL_Driver/Src/stm32f1xx_hal_tim.c ****   htim->Instance->SMCR = tmpsmcr;
 8529              		.loc 1 3937 0 discriminator 2
 8530 0044 7B68     		ldr	r3, [r7, #4]
 8531 0046 1B68     		ldr	r3, [r3]
 8532 0048 FA68     		ldr	r2, [r7, #12]
 8533 004a 9A60     		str	r2, [r3, #8]
3938:Drivers/STM32F1xx_HAL_Driver/Src/stm32f1xx_hal_tim.c **** 
3939:Drivers/STM32F1xx_HAL_Driver/Src/stm32f1xx_hal_tim.c ****   switch (sClockSourceConfig->ClockSource)
 8534              		.loc 1 3939 0 discriminator 2
 8535 004c 3B68     		ldr	r3, [r7]
 8536 004e 1B68     		ldr	r3, [r3]
 8537 0050 402B     		cmp	r3, #64
 8538 0052 77D0     		beq	.L480
 8539 0054 402B     		cmp	r3, #64
 8540 0056 0ED8     		bhi	.L481
 8541 0058 102B     		cmp	r3, #16
 8542 005a 00F08A80 		beq	.L482
ARM GAS  /tmp/cc5HGhWi.s 			page 220


 8543 005e 102B     		cmp	r3, #16
 8544 0060 02D8     		bhi	.L483
 8545 0062 002B     		cmp	r3, #0
 8546 0064 7ED0     		beq	.L484
3940:Drivers/STM32F1xx_HAL_Driver/Src/stm32f1xx_hal_tim.c ****   {
3941:Drivers/STM32F1xx_HAL_Driver/Src/stm32f1xx_hal_tim.c ****   case TIM_CLOCKSOURCE_INTERNAL:
3942:Drivers/STM32F1xx_HAL_Driver/Src/stm32f1xx_hal_tim.c ****     {
3943:Drivers/STM32F1xx_HAL_Driver/Src/stm32f1xx_hal_tim.c ****       assert_param(IS_TIM_INSTANCE(htim->Instance));
3944:Drivers/STM32F1xx_HAL_Driver/Src/stm32f1xx_hal_tim.c ****       /* Disable slave mode to clock the prescaler directly with the internal clock */
3945:Drivers/STM32F1xx_HAL_Driver/Src/stm32f1xx_hal_tim.c ****       htim->Instance->SMCR &= ~TIM_SMCR_SMS;
3946:Drivers/STM32F1xx_HAL_Driver/Src/stm32f1xx_hal_tim.c ****     }
3947:Drivers/STM32F1xx_HAL_Driver/Src/stm32f1xx_hal_tim.c ****     break;
3948:Drivers/STM32F1xx_HAL_Driver/Src/stm32f1xx_hal_tim.c **** 
3949:Drivers/STM32F1xx_HAL_Driver/Src/stm32f1xx_hal_tim.c ****   case TIM_CLOCKSOURCE_ETRMODE1:
3950:Drivers/STM32F1xx_HAL_Driver/Src/stm32f1xx_hal_tim.c ****     {
3951:Drivers/STM32F1xx_HAL_Driver/Src/stm32f1xx_hal_tim.c ****       /* Check whether or not the timer instance supports external trigger input mode 1 (ETRF)*/
3952:Drivers/STM32F1xx_HAL_Driver/Src/stm32f1xx_hal_tim.c ****       assert_param(IS_TIM_CLOCKSOURCE_ETRMODE1_INSTANCE(htim->Instance));
3953:Drivers/STM32F1xx_HAL_Driver/Src/stm32f1xx_hal_tim.c **** 
3954:Drivers/STM32F1xx_HAL_Driver/Src/stm32f1xx_hal_tim.c ****       /* Check ETR input conditioning related parameters */
3955:Drivers/STM32F1xx_HAL_Driver/Src/stm32f1xx_hal_tim.c ****       assert_param(IS_TIM_CLOCKPRESCALER(sClockSourceConfig->ClockPrescaler));
3956:Drivers/STM32F1xx_HAL_Driver/Src/stm32f1xx_hal_tim.c ****       assert_param(IS_TIM_CLOCKPOLARITY(sClockSourceConfig->ClockPolarity));
3957:Drivers/STM32F1xx_HAL_Driver/Src/stm32f1xx_hal_tim.c ****       assert_param(IS_TIM_CLOCKFILTER(sClockSourceConfig->ClockFilter));
3958:Drivers/STM32F1xx_HAL_Driver/Src/stm32f1xx_hal_tim.c ****       
3959:Drivers/STM32F1xx_HAL_Driver/Src/stm32f1xx_hal_tim.c ****       /* Configure the ETR Clock source */
3960:Drivers/STM32F1xx_HAL_Driver/Src/stm32f1xx_hal_tim.c ****       TIM_ETR_SetConfig(htim->Instance,
3961:Drivers/STM32F1xx_HAL_Driver/Src/stm32f1xx_hal_tim.c ****                         sClockSourceConfig->ClockPrescaler,
3962:Drivers/STM32F1xx_HAL_Driver/Src/stm32f1xx_hal_tim.c ****                         sClockSourceConfig->ClockPolarity,
3963:Drivers/STM32F1xx_HAL_Driver/Src/stm32f1xx_hal_tim.c ****                         sClockSourceConfig->ClockFilter);
3964:Drivers/STM32F1xx_HAL_Driver/Src/stm32f1xx_hal_tim.c ****       /* Get the TIMx SMCR register value */
3965:Drivers/STM32F1xx_HAL_Driver/Src/stm32f1xx_hal_tim.c ****       tmpsmcr = htim->Instance->SMCR;
3966:Drivers/STM32F1xx_HAL_Driver/Src/stm32f1xx_hal_tim.c ****       /* Reset the SMS and TS Bits */
3967:Drivers/STM32F1xx_HAL_Driver/Src/stm32f1xx_hal_tim.c ****       tmpsmcr &= ~(TIM_SMCR_SMS | TIM_SMCR_TS);
3968:Drivers/STM32F1xx_HAL_Driver/Src/stm32f1xx_hal_tim.c ****       /* Select the External clock mode1 and the ETRF trigger */
3969:Drivers/STM32F1xx_HAL_Driver/Src/stm32f1xx_hal_tim.c ****       tmpsmcr |= (TIM_SLAVEMODE_EXTERNAL1 | TIM_CLOCKSOURCE_ETRMODE1);
3970:Drivers/STM32F1xx_HAL_Driver/Src/stm32f1xx_hal_tim.c ****       /* Write to TIMx SMCR */
3971:Drivers/STM32F1xx_HAL_Driver/Src/stm32f1xx_hal_tim.c ****       htim->Instance->SMCR = tmpsmcr;
3972:Drivers/STM32F1xx_HAL_Driver/Src/stm32f1xx_hal_tim.c ****     }
3973:Drivers/STM32F1xx_HAL_Driver/Src/stm32f1xx_hal_tim.c ****     break;
3974:Drivers/STM32F1xx_HAL_Driver/Src/stm32f1xx_hal_tim.c **** 
3975:Drivers/STM32F1xx_HAL_Driver/Src/stm32f1xx_hal_tim.c ****   case TIM_CLOCKSOURCE_ETRMODE2:
3976:Drivers/STM32F1xx_HAL_Driver/Src/stm32f1xx_hal_tim.c ****     {
3977:Drivers/STM32F1xx_HAL_Driver/Src/stm32f1xx_hal_tim.c ****       /* Check whether or not the timer instance supports external trigger input mode 2 (ETRF)*/
3978:Drivers/STM32F1xx_HAL_Driver/Src/stm32f1xx_hal_tim.c ****       assert_param(IS_TIM_CLOCKSOURCE_ETRMODE2_INSTANCE(htim->Instance));
3979:Drivers/STM32F1xx_HAL_Driver/Src/stm32f1xx_hal_tim.c **** 
3980:Drivers/STM32F1xx_HAL_Driver/Src/stm32f1xx_hal_tim.c ****       /* Check ETR input conditioning related parameters */
3981:Drivers/STM32F1xx_HAL_Driver/Src/stm32f1xx_hal_tim.c ****       assert_param(IS_TIM_CLOCKPRESCALER(sClockSourceConfig->ClockPrescaler));
3982:Drivers/STM32F1xx_HAL_Driver/Src/stm32f1xx_hal_tim.c ****       assert_param(IS_TIM_CLOCKPOLARITY(sClockSourceConfig->ClockPolarity));
3983:Drivers/STM32F1xx_HAL_Driver/Src/stm32f1xx_hal_tim.c ****       assert_param(IS_TIM_CLOCKFILTER(sClockSourceConfig->ClockFilter));
3984:Drivers/STM32F1xx_HAL_Driver/Src/stm32f1xx_hal_tim.c ****       
3985:Drivers/STM32F1xx_HAL_Driver/Src/stm32f1xx_hal_tim.c ****       /* Configure the ETR Clock source */
3986:Drivers/STM32F1xx_HAL_Driver/Src/stm32f1xx_hal_tim.c ****       TIM_ETR_SetConfig(htim->Instance,
3987:Drivers/STM32F1xx_HAL_Driver/Src/stm32f1xx_hal_tim.c ****                         sClockSourceConfig->ClockPrescaler,
3988:Drivers/STM32F1xx_HAL_Driver/Src/stm32f1xx_hal_tim.c ****                         sClockSourceConfig->ClockPolarity,
3989:Drivers/STM32F1xx_HAL_Driver/Src/stm32f1xx_hal_tim.c ****                         sClockSourceConfig->ClockFilter);
3990:Drivers/STM32F1xx_HAL_Driver/Src/stm32f1xx_hal_tim.c ****       /* Enable the External clock mode2 */
3991:Drivers/STM32F1xx_HAL_Driver/Src/stm32f1xx_hal_tim.c ****       htim->Instance->SMCR |= TIM_SMCR_ECE;
3992:Drivers/STM32F1xx_HAL_Driver/Src/stm32f1xx_hal_tim.c ****     }
ARM GAS  /tmp/cc5HGhWi.s 			page 221


3993:Drivers/STM32F1xx_HAL_Driver/Src/stm32f1xx_hal_tim.c ****     break;
3994:Drivers/STM32F1xx_HAL_Driver/Src/stm32f1xx_hal_tim.c **** 
3995:Drivers/STM32F1xx_HAL_Driver/Src/stm32f1xx_hal_tim.c ****   case TIM_CLOCKSOURCE_TI1:
3996:Drivers/STM32F1xx_HAL_Driver/Src/stm32f1xx_hal_tim.c ****     {
3997:Drivers/STM32F1xx_HAL_Driver/Src/stm32f1xx_hal_tim.c ****       /* Check whether or not the timer instance supports external clock mode 1 */
3998:Drivers/STM32F1xx_HAL_Driver/Src/stm32f1xx_hal_tim.c ****       assert_param(IS_TIM_CLOCKSOURCE_TIX_INSTANCE(htim->Instance));
3999:Drivers/STM32F1xx_HAL_Driver/Src/stm32f1xx_hal_tim.c **** 
4000:Drivers/STM32F1xx_HAL_Driver/Src/stm32f1xx_hal_tim.c ****       /* Check TI1 input conditioning related parameters */
4001:Drivers/STM32F1xx_HAL_Driver/Src/stm32f1xx_hal_tim.c ****       assert_param(IS_TIM_CLOCKPOLARITY(sClockSourceConfig->ClockPolarity));
4002:Drivers/STM32F1xx_HAL_Driver/Src/stm32f1xx_hal_tim.c ****       assert_param(IS_TIM_CLOCKFILTER(sClockSourceConfig->ClockFilter));
4003:Drivers/STM32F1xx_HAL_Driver/Src/stm32f1xx_hal_tim.c ****       
4004:Drivers/STM32F1xx_HAL_Driver/Src/stm32f1xx_hal_tim.c ****       TIM_TI1_ConfigInputStage(htim->Instance,
4005:Drivers/STM32F1xx_HAL_Driver/Src/stm32f1xx_hal_tim.c ****                                sClockSourceConfig->ClockPolarity,
4006:Drivers/STM32F1xx_HAL_Driver/Src/stm32f1xx_hal_tim.c ****                                sClockSourceConfig->ClockFilter);
4007:Drivers/STM32F1xx_HAL_Driver/Src/stm32f1xx_hal_tim.c ****       TIM_ITRx_SetConfig(htim->Instance, TIM_CLOCKSOURCE_TI1);
4008:Drivers/STM32F1xx_HAL_Driver/Src/stm32f1xx_hal_tim.c ****     }
4009:Drivers/STM32F1xx_HAL_Driver/Src/stm32f1xx_hal_tim.c ****     break;
4010:Drivers/STM32F1xx_HAL_Driver/Src/stm32f1xx_hal_tim.c ****   case TIM_CLOCKSOURCE_TI2:
4011:Drivers/STM32F1xx_HAL_Driver/Src/stm32f1xx_hal_tim.c ****     {
4012:Drivers/STM32F1xx_HAL_Driver/Src/stm32f1xx_hal_tim.c ****       /* Check whether or not the timer instance supports external clock mode 1 (ETRF)*/
4013:Drivers/STM32F1xx_HAL_Driver/Src/stm32f1xx_hal_tim.c ****       assert_param(IS_TIM_CLOCKSOURCE_TIX_INSTANCE(htim->Instance));
4014:Drivers/STM32F1xx_HAL_Driver/Src/stm32f1xx_hal_tim.c **** 
4015:Drivers/STM32F1xx_HAL_Driver/Src/stm32f1xx_hal_tim.c ****        /* Check TI2 input conditioning related parameters */
4016:Drivers/STM32F1xx_HAL_Driver/Src/stm32f1xx_hal_tim.c ****       assert_param(IS_TIM_CLOCKPOLARITY(sClockSourceConfig->ClockPolarity));
4017:Drivers/STM32F1xx_HAL_Driver/Src/stm32f1xx_hal_tim.c ****       assert_param(IS_TIM_CLOCKFILTER(sClockSourceConfig->ClockFilter));
4018:Drivers/STM32F1xx_HAL_Driver/Src/stm32f1xx_hal_tim.c **** 
4019:Drivers/STM32F1xx_HAL_Driver/Src/stm32f1xx_hal_tim.c ****       TIM_TI2_ConfigInputStage(htim->Instance,
4020:Drivers/STM32F1xx_HAL_Driver/Src/stm32f1xx_hal_tim.c ****                                sClockSourceConfig->ClockPolarity,
4021:Drivers/STM32F1xx_HAL_Driver/Src/stm32f1xx_hal_tim.c ****                                sClockSourceConfig->ClockFilter);
4022:Drivers/STM32F1xx_HAL_Driver/Src/stm32f1xx_hal_tim.c ****       TIM_ITRx_SetConfig(htim->Instance, TIM_CLOCKSOURCE_TI2);
4023:Drivers/STM32F1xx_HAL_Driver/Src/stm32f1xx_hal_tim.c ****     }
4024:Drivers/STM32F1xx_HAL_Driver/Src/stm32f1xx_hal_tim.c ****     break;
4025:Drivers/STM32F1xx_HAL_Driver/Src/stm32f1xx_hal_tim.c ****   case TIM_CLOCKSOURCE_TI1ED:
4026:Drivers/STM32F1xx_HAL_Driver/Src/stm32f1xx_hal_tim.c ****     {
4027:Drivers/STM32F1xx_HAL_Driver/Src/stm32f1xx_hal_tim.c ****       /* Check whether or not the timer instance supports external clock mode 1 */
4028:Drivers/STM32F1xx_HAL_Driver/Src/stm32f1xx_hal_tim.c ****       assert_param(IS_TIM_CLOCKSOURCE_TIX_INSTANCE(htim->Instance));
4029:Drivers/STM32F1xx_HAL_Driver/Src/stm32f1xx_hal_tim.c **** 
4030:Drivers/STM32F1xx_HAL_Driver/Src/stm32f1xx_hal_tim.c ****       /* Check TI1 input conditioning related parameters */
4031:Drivers/STM32F1xx_HAL_Driver/Src/stm32f1xx_hal_tim.c ****       assert_param(IS_TIM_CLOCKPOLARITY(sClockSourceConfig->ClockPolarity));
4032:Drivers/STM32F1xx_HAL_Driver/Src/stm32f1xx_hal_tim.c ****       assert_param(IS_TIM_CLOCKFILTER(sClockSourceConfig->ClockFilter));
4033:Drivers/STM32F1xx_HAL_Driver/Src/stm32f1xx_hal_tim.c **** 
4034:Drivers/STM32F1xx_HAL_Driver/Src/stm32f1xx_hal_tim.c ****       TIM_TI1_ConfigInputStage(htim->Instance,
4035:Drivers/STM32F1xx_HAL_Driver/Src/stm32f1xx_hal_tim.c ****                                sClockSourceConfig->ClockPolarity,
4036:Drivers/STM32F1xx_HAL_Driver/Src/stm32f1xx_hal_tim.c ****                                sClockSourceConfig->ClockFilter);
4037:Drivers/STM32F1xx_HAL_Driver/Src/stm32f1xx_hal_tim.c ****       TIM_ITRx_SetConfig(htim->Instance, TIM_CLOCKSOURCE_TI1ED);
4038:Drivers/STM32F1xx_HAL_Driver/Src/stm32f1xx_hal_tim.c ****     }
4039:Drivers/STM32F1xx_HAL_Driver/Src/stm32f1xx_hal_tim.c ****     break;
4040:Drivers/STM32F1xx_HAL_Driver/Src/stm32f1xx_hal_tim.c ****   case TIM_CLOCKSOURCE_ITR0:
4041:Drivers/STM32F1xx_HAL_Driver/Src/stm32f1xx_hal_tim.c ****     {
4042:Drivers/STM32F1xx_HAL_Driver/Src/stm32f1xx_hal_tim.c ****       /* Check whether or not the timer instance supports external clock mode 1 */
4043:Drivers/STM32F1xx_HAL_Driver/Src/stm32f1xx_hal_tim.c ****       assert_param(IS_TIM_CLOCKSOURCE_ITRX_INSTANCE(htim->Instance));
4044:Drivers/STM32F1xx_HAL_Driver/Src/stm32f1xx_hal_tim.c **** 
4045:Drivers/STM32F1xx_HAL_Driver/Src/stm32f1xx_hal_tim.c ****       TIM_ITRx_SetConfig(htim->Instance, TIM_CLOCKSOURCE_ITR0);
4046:Drivers/STM32F1xx_HAL_Driver/Src/stm32f1xx_hal_tim.c ****     }
4047:Drivers/STM32F1xx_HAL_Driver/Src/stm32f1xx_hal_tim.c ****     break;
4048:Drivers/STM32F1xx_HAL_Driver/Src/stm32f1xx_hal_tim.c ****   case TIM_CLOCKSOURCE_ITR1:
4049:Drivers/STM32F1xx_HAL_Driver/Src/stm32f1xx_hal_tim.c ****     {
ARM GAS  /tmp/cc5HGhWi.s 			page 222


4050:Drivers/STM32F1xx_HAL_Driver/Src/stm32f1xx_hal_tim.c ****       /* Check whether or not the timer instance supports external clock mode 1 */
4051:Drivers/STM32F1xx_HAL_Driver/Src/stm32f1xx_hal_tim.c ****       assert_param(IS_TIM_CLOCKSOURCE_ITRX_INSTANCE(htim->Instance));
4052:Drivers/STM32F1xx_HAL_Driver/Src/stm32f1xx_hal_tim.c **** 
4053:Drivers/STM32F1xx_HAL_Driver/Src/stm32f1xx_hal_tim.c ****       TIM_ITRx_SetConfig(htim->Instance, TIM_CLOCKSOURCE_ITR1);
4054:Drivers/STM32F1xx_HAL_Driver/Src/stm32f1xx_hal_tim.c ****     }
4055:Drivers/STM32F1xx_HAL_Driver/Src/stm32f1xx_hal_tim.c ****     break;
4056:Drivers/STM32F1xx_HAL_Driver/Src/stm32f1xx_hal_tim.c ****   case TIM_CLOCKSOURCE_ITR2:
4057:Drivers/STM32F1xx_HAL_Driver/Src/stm32f1xx_hal_tim.c ****     {
4058:Drivers/STM32F1xx_HAL_Driver/Src/stm32f1xx_hal_tim.c ****       /* Check whether or not the timer instance supports external clock mode 1 */
4059:Drivers/STM32F1xx_HAL_Driver/Src/stm32f1xx_hal_tim.c ****       assert_param(IS_TIM_CLOCKSOURCE_ITRX_INSTANCE(htim->Instance));
4060:Drivers/STM32F1xx_HAL_Driver/Src/stm32f1xx_hal_tim.c **** 
4061:Drivers/STM32F1xx_HAL_Driver/Src/stm32f1xx_hal_tim.c ****       TIM_ITRx_SetConfig(htim->Instance, TIM_CLOCKSOURCE_ITR2);
4062:Drivers/STM32F1xx_HAL_Driver/Src/stm32f1xx_hal_tim.c ****     }
4063:Drivers/STM32F1xx_HAL_Driver/Src/stm32f1xx_hal_tim.c ****     break;
4064:Drivers/STM32F1xx_HAL_Driver/Src/stm32f1xx_hal_tim.c ****   case TIM_CLOCKSOURCE_ITR3:
4065:Drivers/STM32F1xx_HAL_Driver/Src/stm32f1xx_hal_tim.c ****     {
4066:Drivers/STM32F1xx_HAL_Driver/Src/stm32f1xx_hal_tim.c ****       /* Check whether or not the timer instance supports external clock mode 1 */
4067:Drivers/STM32F1xx_HAL_Driver/Src/stm32f1xx_hal_tim.c ****       assert_param(IS_TIM_CLOCKSOURCE_ITRX_INSTANCE(htim->Instance));
4068:Drivers/STM32F1xx_HAL_Driver/Src/stm32f1xx_hal_tim.c **** 
4069:Drivers/STM32F1xx_HAL_Driver/Src/stm32f1xx_hal_tim.c ****       TIM_ITRx_SetConfig(htim->Instance, TIM_CLOCKSOURCE_ITR3);
4070:Drivers/STM32F1xx_HAL_Driver/Src/stm32f1xx_hal_tim.c ****     }
4071:Drivers/STM32F1xx_HAL_Driver/Src/stm32f1xx_hal_tim.c ****     break;
4072:Drivers/STM32F1xx_HAL_Driver/Src/stm32f1xx_hal_tim.c **** 
4073:Drivers/STM32F1xx_HAL_Driver/Src/stm32f1xx_hal_tim.c ****   default:
4074:Drivers/STM32F1xx_HAL_Driver/Src/stm32f1xx_hal_tim.c ****     break;
 8547              		.loc 1 4074 0 discriminator 2
 8548 0066 99E0     		b	.L493
 8549              	.L483:
3939:Drivers/STM32F1xx_HAL_Driver/Src/stm32f1xx_hal_tim.c ****   {
 8550              		.loc 1 3939 0 discriminator 2
 8551 0068 202B     		cmp	r3, #32
 8552 006a 00F08980 		beq	.L485
 8553 006e 302B     		cmp	r3, #48
 8554 0070 00F08D80 		beq	.L486
 8555              		.loc 1 4074 0 discriminator 2
 8556 0074 92E0     		b	.L493
 8557              	.L481:
3939:Drivers/STM32F1xx_HAL_Driver/Src/stm32f1xx_hal_tim.c ****   {
 8558              		.loc 1 3939 0 discriminator 2
 8559 0076 702B     		cmp	r3, #112
 8560 0078 16D0     		beq	.L487
 8561 007a 702B     		cmp	r3, #112
 8562 007c 04D8     		bhi	.L488
 8563 007e 502B     		cmp	r3, #80
 8564 0080 40D0     		beq	.L489
 8565 0082 602B     		cmp	r3, #96
 8566 0084 4ED0     		beq	.L490
 8567              		.loc 1 4074 0 discriminator 2
 8568 0086 89E0     		b	.L493
 8569              	.L488:
3939:Drivers/STM32F1xx_HAL_Driver/Src/stm32f1xx_hal_tim.c ****   {
 8570              		.loc 1 3939 0 discriminator 2
 8571 0088 B3F5805F 		cmp	r3, #4096
 8572 008c 03D0     		beq	.L491
 8573 008e B3F5005F 		cmp	r3, #8192
 8574 0092 24D0     		beq	.L492
 8575              		.loc 1 4074 0 discriminator 2
ARM GAS  /tmp/cc5HGhWi.s 			page 223


 8576 0094 82E0     		b	.L493
 8577              	.L491:
3945:Drivers/STM32F1xx_HAL_Driver/Src/stm32f1xx_hal_tim.c ****     }
 8578              		.loc 1 3945 0
 8579 0096 7B68     		ldr	r3, [r7, #4]
 8580 0098 1B68     		ldr	r3, [r3]
 8581 009a 9A68     		ldr	r2, [r3, #8]
 8582 009c 7B68     		ldr	r3, [r7, #4]
 8583 009e 1B68     		ldr	r3, [r3]
 8584 00a0 22F00702 		bic	r2, r2, #7
 8585 00a4 9A60     		str	r2, [r3, #8]
3947:Drivers/STM32F1xx_HAL_Driver/Src/stm32f1xx_hal_tim.c **** 
 8586              		.loc 1 3947 0
 8587 00a6 79E0     		b	.L493
 8588              	.L487:
3960:Drivers/STM32F1xx_HAL_Driver/Src/stm32f1xx_hal_tim.c ****                         sClockSourceConfig->ClockPrescaler,
 8589              		.loc 1 3960 0
 8590 00a8 7B68     		ldr	r3, [r7, #4]
 8591 00aa 1868     		ldr	r0, [r3]
 8592 00ac 3B68     		ldr	r3, [r7]
 8593 00ae 9968     		ldr	r1, [r3, #8]
 8594 00b0 3B68     		ldr	r3, [r7]
 8595 00b2 5A68     		ldr	r2, [r3, #4]
 8596 00b4 3B68     		ldr	r3, [r7]
 8597 00b6 DB68     		ldr	r3, [r3, #12]
 8598 00b8 FFF7FEFF 		bl	TIM_ETR_SetConfig
3965:Drivers/STM32F1xx_HAL_Driver/Src/stm32f1xx_hal_tim.c ****       /* Reset the SMS and TS Bits */
 8599              		.loc 1 3965 0
 8600 00bc 7B68     		ldr	r3, [r7, #4]
 8601 00be 1B68     		ldr	r3, [r3]
 8602 00c0 9B68     		ldr	r3, [r3, #8]
 8603 00c2 FB60     		str	r3, [r7, #12]
3967:Drivers/STM32F1xx_HAL_Driver/Src/stm32f1xx_hal_tim.c ****       /* Select the External clock mode1 and the ETRF trigger */
 8604              		.loc 1 3967 0
 8605 00c4 FB68     		ldr	r3, [r7, #12]
 8606 00c6 23F07703 		bic	r3, r3, #119
 8607 00ca FB60     		str	r3, [r7, #12]
3969:Drivers/STM32F1xx_HAL_Driver/Src/stm32f1xx_hal_tim.c ****       /* Write to TIMx SMCR */
 8608              		.loc 1 3969 0
 8609 00cc FB68     		ldr	r3, [r7, #12]
 8610 00ce 43F07703 		orr	r3, r3, #119
 8611 00d2 FB60     		str	r3, [r7, #12]
3971:Drivers/STM32F1xx_HAL_Driver/Src/stm32f1xx_hal_tim.c ****     }
 8612              		.loc 1 3971 0
 8613 00d4 7B68     		ldr	r3, [r7, #4]
 8614 00d6 1B68     		ldr	r3, [r3]
 8615 00d8 FA68     		ldr	r2, [r7, #12]
 8616 00da 9A60     		str	r2, [r3, #8]
3973:Drivers/STM32F1xx_HAL_Driver/Src/stm32f1xx_hal_tim.c **** 
 8617              		.loc 1 3973 0
 8618 00dc 5EE0     		b	.L493
 8619              	.L492:
3986:Drivers/STM32F1xx_HAL_Driver/Src/stm32f1xx_hal_tim.c ****                         sClockSourceConfig->ClockPrescaler,
 8620              		.loc 1 3986 0
 8621 00de 7B68     		ldr	r3, [r7, #4]
 8622 00e0 1868     		ldr	r0, [r3]
 8623 00e2 3B68     		ldr	r3, [r7]
ARM GAS  /tmp/cc5HGhWi.s 			page 224


 8624 00e4 9968     		ldr	r1, [r3, #8]
 8625 00e6 3B68     		ldr	r3, [r7]
 8626 00e8 5A68     		ldr	r2, [r3, #4]
 8627 00ea 3B68     		ldr	r3, [r7]
 8628 00ec DB68     		ldr	r3, [r3, #12]
 8629 00ee FFF7FEFF 		bl	TIM_ETR_SetConfig
3991:Drivers/STM32F1xx_HAL_Driver/Src/stm32f1xx_hal_tim.c ****     }
 8630              		.loc 1 3991 0
 8631 00f2 7B68     		ldr	r3, [r7, #4]
 8632 00f4 1B68     		ldr	r3, [r3]
 8633 00f6 9A68     		ldr	r2, [r3, #8]
 8634 00f8 7B68     		ldr	r3, [r7, #4]
 8635 00fa 1B68     		ldr	r3, [r3]
 8636 00fc 42F48042 		orr	r2, r2, #16384
 8637 0100 9A60     		str	r2, [r3, #8]
3993:Drivers/STM32F1xx_HAL_Driver/Src/stm32f1xx_hal_tim.c **** 
 8638              		.loc 1 3993 0
 8639 0102 4BE0     		b	.L493
 8640              	.L489:
4004:Drivers/STM32F1xx_HAL_Driver/Src/stm32f1xx_hal_tim.c ****                                sClockSourceConfig->ClockPolarity,
 8641              		.loc 1 4004 0
 8642 0104 7B68     		ldr	r3, [r7, #4]
 8643 0106 1868     		ldr	r0, [r3]
 8644 0108 3B68     		ldr	r3, [r7]
 8645 010a 5968     		ldr	r1, [r3, #4]
 8646 010c 3B68     		ldr	r3, [r7]
 8647 010e DB68     		ldr	r3, [r3, #12]
 8648 0110 1A46     		mov	r2, r3
 8649 0112 FFF7FEFF 		bl	TIM_TI1_ConfigInputStage
4007:Drivers/STM32F1xx_HAL_Driver/Src/stm32f1xx_hal_tim.c ****     }
 8650              		.loc 1 4007 0
 8651 0116 7B68     		ldr	r3, [r7, #4]
 8652 0118 1B68     		ldr	r3, [r3]
 8653 011a 5021     		movs	r1, #80
 8654 011c 1846     		mov	r0, r3
 8655 011e FFF7FEFF 		bl	TIM_ITRx_SetConfig
4009:Drivers/STM32F1xx_HAL_Driver/Src/stm32f1xx_hal_tim.c ****   case TIM_CLOCKSOURCE_TI2:
 8656              		.loc 1 4009 0
 8657 0122 3BE0     		b	.L493
 8658              	.L490:
4019:Drivers/STM32F1xx_HAL_Driver/Src/stm32f1xx_hal_tim.c ****                                sClockSourceConfig->ClockPolarity,
 8659              		.loc 1 4019 0
 8660 0124 7B68     		ldr	r3, [r7, #4]
 8661 0126 1868     		ldr	r0, [r3]
 8662 0128 3B68     		ldr	r3, [r7]
 8663 012a 5968     		ldr	r1, [r3, #4]
 8664 012c 3B68     		ldr	r3, [r7]
 8665 012e DB68     		ldr	r3, [r3, #12]
 8666 0130 1A46     		mov	r2, r3
 8667 0132 FFF7FEFF 		bl	TIM_TI2_ConfigInputStage
4022:Drivers/STM32F1xx_HAL_Driver/Src/stm32f1xx_hal_tim.c ****     }
 8668              		.loc 1 4022 0
 8669 0136 7B68     		ldr	r3, [r7, #4]
 8670 0138 1B68     		ldr	r3, [r3]
 8671 013a 6021     		movs	r1, #96
 8672 013c 1846     		mov	r0, r3
 8673 013e FFF7FEFF 		bl	TIM_ITRx_SetConfig
ARM GAS  /tmp/cc5HGhWi.s 			page 225


4024:Drivers/STM32F1xx_HAL_Driver/Src/stm32f1xx_hal_tim.c ****   case TIM_CLOCKSOURCE_TI1ED:
 8674              		.loc 1 4024 0
 8675 0142 2BE0     		b	.L493
 8676              	.L480:
4034:Drivers/STM32F1xx_HAL_Driver/Src/stm32f1xx_hal_tim.c ****                                sClockSourceConfig->ClockPolarity,
 8677              		.loc 1 4034 0
 8678 0144 7B68     		ldr	r3, [r7, #4]
 8679 0146 1868     		ldr	r0, [r3]
 8680 0148 3B68     		ldr	r3, [r7]
 8681 014a 5968     		ldr	r1, [r3, #4]
 8682 014c 3B68     		ldr	r3, [r7]
 8683 014e DB68     		ldr	r3, [r3, #12]
 8684 0150 1A46     		mov	r2, r3
 8685 0152 FFF7FEFF 		bl	TIM_TI1_ConfigInputStage
4037:Drivers/STM32F1xx_HAL_Driver/Src/stm32f1xx_hal_tim.c ****     }
 8686              		.loc 1 4037 0
 8687 0156 7B68     		ldr	r3, [r7, #4]
 8688 0158 1B68     		ldr	r3, [r3]
 8689 015a 4021     		movs	r1, #64
 8690 015c 1846     		mov	r0, r3
 8691 015e FFF7FEFF 		bl	TIM_ITRx_SetConfig
4039:Drivers/STM32F1xx_HAL_Driver/Src/stm32f1xx_hal_tim.c ****   case TIM_CLOCKSOURCE_ITR0:
 8692              		.loc 1 4039 0
 8693 0162 1BE0     		b	.L493
 8694              	.L484:
4045:Drivers/STM32F1xx_HAL_Driver/Src/stm32f1xx_hal_tim.c ****     }
 8695              		.loc 1 4045 0
 8696 0164 7B68     		ldr	r3, [r7, #4]
 8697 0166 1B68     		ldr	r3, [r3]
 8698 0168 0021     		movs	r1, #0
 8699 016a 1846     		mov	r0, r3
 8700 016c FFF7FEFF 		bl	TIM_ITRx_SetConfig
4047:Drivers/STM32F1xx_HAL_Driver/Src/stm32f1xx_hal_tim.c ****   case TIM_CLOCKSOURCE_ITR1:
 8701              		.loc 1 4047 0
 8702 0170 14E0     		b	.L493
 8703              	.L482:
4053:Drivers/STM32F1xx_HAL_Driver/Src/stm32f1xx_hal_tim.c ****     }
 8704              		.loc 1 4053 0
 8705 0172 7B68     		ldr	r3, [r7, #4]
 8706 0174 1B68     		ldr	r3, [r3]
 8707 0176 1021     		movs	r1, #16
 8708 0178 1846     		mov	r0, r3
 8709 017a FFF7FEFF 		bl	TIM_ITRx_SetConfig
4055:Drivers/STM32F1xx_HAL_Driver/Src/stm32f1xx_hal_tim.c ****   case TIM_CLOCKSOURCE_ITR2:
 8710              		.loc 1 4055 0
 8711 017e 0DE0     		b	.L493
 8712              	.L485:
4061:Drivers/STM32F1xx_HAL_Driver/Src/stm32f1xx_hal_tim.c ****     }
 8713              		.loc 1 4061 0
 8714 0180 7B68     		ldr	r3, [r7, #4]
 8715 0182 1B68     		ldr	r3, [r3]
 8716 0184 2021     		movs	r1, #32
 8717 0186 1846     		mov	r0, r3
 8718 0188 FFF7FEFF 		bl	TIM_ITRx_SetConfig
4063:Drivers/STM32F1xx_HAL_Driver/Src/stm32f1xx_hal_tim.c ****   case TIM_CLOCKSOURCE_ITR3:
 8719              		.loc 1 4063 0
 8720 018c 06E0     		b	.L493
ARM GAS  /tmp/cc5HGhWi.s 			page 226


 8721              	.L486:
4069:Drivers/STM32F1xx_HAL_Driver/Src/stm32f1xx_hal_tim.c ****     }
 8722              		.loc 1 4069 0
 8723 018e 7B68     		ldr	r3, [r7, #4]
 8724 0190 1B68     		ldr	r3, [r3]
 8725 0192 3021     		movs	r1, #48
 8726 0194 1846     		mov	r0, r3
 8727 0196 FFF7FEFF 		bl	TIM_ITRx_SetConfig
4071:Drivers/STM32F1xx_HAL_Driver/Src/stm32f1xx_hal_tim.c **** 
 8728              		.loc 1 4071 0
 8729 019a 00BF     		nop
 8730              	.L493:
4075:Drivers/STM32F1xx_HAL_Driver/Src/stm32f1xx_hal_tim.c ****   }
4076:Drivers/STM32F1xx_HAL_Driver/Src/stm32f1xx_hal_tim.c ****   htim->State = HAL_TIM_STATE_READY;
 8731              		.loc 1 4076 0
 8732 019c 7B68     		ldr	r3, [r7, #4]
 8733 019e 0122     		movs	r2, #1
 8734 01a0 83F83D20 		strb	r2, [r3, #61]
4077:Drivers/STM32F1xx_HAL_Driver/Src/stm32f1xx_hal_tim.c **** 
4078:Drivers/STM32F1xx_HAL_Driver/Src/stm32f1xx_hal_tim.c ****   __HAL_UNLOCK(htim);
 8735              		.loc 1 4078 0
 8736 01a4 7B68     		ldr	r3, [r7, #4]
 8737 01a6 0022     		movs	r2, #0
 8738 01a8 83F83C20 		strb	r2, [r3, #60]
4079:Drivers/STM32F1xx_HAL_Driver/Src/stm32f1xx_hal_tim.c **** 
4080:Drivers/STM32F1xx_HAL_Driver/Src/stm32f1xx_hal_tim.c ****   return HAL_OK;
 8739              		.loc 1 4080 0
 8740 01ac 0023     		movs	r3, #0
 8741              	.L478:
4081:Drivers/STM32F1xx_HAL_Driver/Src/stm32f1xx_hal_tim.c **** }
 8742              		.loc 1 4081 0
 8743 01ae 1846     		mov	r0, r3
 8744 01b0 1037     		adds	r7, r7, #16
 8745              	.LCFI366:
 8746              		.cfi_def_cfa_offset 8
 8747 01b2 BD46     		mov	sp, r7
 8748              	.LCFI367:
 8749              		.cfi_def_cfa_register 13
 8750              		@ sp needed
 8751 01b4 80BD     		pop	{r7, pc}
 8752              		.cfi_endproc
 8753              	.LFE135:
 8755              		.section	.text.HAL_TIM_ConfigTI1Input,"ax",%progbits
 8756              		.align	1
 8757              		.global	HAL_TIM_ConfigTI1Input
 8758              		.syntax unified
 8759              		.thumb
 8760              		.thumb_func
 8761              		.fpu softvfp
 8763              	HAL_TIM_ConfigTI1Input:
 8764              	.LFB136:
4082:Drivers/STM32F1xx_HAL_Driver/Src/stm32f1xx_hal_tim.c **** 
4083:Drivers/STM32F1xx_HAL_Driver/Src/stm32f1xx_hal_tim.c **** /**
4084:Drivers/STM32F1xx_HAL_Driver/Src/stm32f1xx_hal_tim.c ****   * @brief  Selects the signal connected to the TI1 input: direct from CH1_input
4085:Drivers/STM32F1xx_HAL_Driver/Src/stm32f1xx_hal_tim.c ****   *         or a XOR combination between CH1_input, CH2_input & CH3_input
4086:Drivers/STM32F1xx_HAL_Driver/Src/stm32f1xx_hal_tim.c ****   * @param  htim : TIM handle.
4087:Drivers/STM32F1xx_HAL_Driver/Src/stm32f1xx_hal_tim.c ****   * @param  TI1_Selection : Indicate whether or not channel 1 is connected to the
ARM GAS  /tmp/cc5HGhWi.s 			page 227


4088:Drivers/STM32F1xx_HAL_Driver/Src/stm32f1xx_hal_tim.c ****   *         output of a XOR gate.
4089:Drivers/STM32F1xx_HAL_Driver/Src/stm32f1xx_hal_tim.c ****   *          This parameter can be one of the following values:
4090:Drivers/STM32F1xx_HAL_Driver/Src/stm32f1xx_hal_tim.c ****   *            @arg TIM_TI1SELECTION_CH1: The TIMx_CH1 pin is connected to TI1 input
4091:Drivers/STM32F1xx_HAL_Driver/Src/stm32f1xx_hal_tim.c ****   *            @arg TIM_TI1SELECTION_XORCOMBINATION: The TIMx_CH1, CH2 and CH3
4092:Drivers/STM32F1xx_HAL_Driver/Src/stm32f1xx_hal_tim.c ****   *            pins are connected to the TI1 input (XOR combination)
4093:Drivers/STM32F1xx_HAL_Driver/Src/stm32f1xx_hal_tim.c ****   * @retval HAL status
4094:Drivers/STM32F1xx_HAL_Driver/Src/stm32f1xx_hal_tim.c ****   */
4095:Drivers/STM32F1xx_HAL_Driver/Src/stm32f1xx_hal_tim.c **** HAL_StatusTypeDef HAL_TIM_ConfigTI1Input(TIM_HandleTypeDef *htim, uint32_t TI1_Selection)
4096:Drivers/STM32F1xx_HAL_Driver/Src/stm32f1xx_hal_tim.c **** {
 8765              		.loc 1 4096 0
 8766              		.cfi_startproc
 8767              		@ args = 0, pretend = 0, frame = 16
 8768              		@ frame_needed = 1, uses_anonymous_args = 0
 8769              		@ link register save eliminated.
 8770 0000 80B4     		push	{r7}
 8771              	.LCFI368:
 8772              		.cfi_def_cfa_offset 4
 8773              		.cfi_offset 7, -4
 8774 0002 85B0     		sub	sp, sp, #20
 8775              	.LCFI369:
 8776              		.cfi_def_cfa_offset 24
 8777 0004 00AF     		add	r7, sp, #0
 8778              	.LCFI370:
 8779              		.cfi_def_cfa_register 7
 8780 0006 7860     		str	r0, [r7, #4]
 8781 0008 3960     		str	r1, [r7]
4097:Drivers/STM32F1xx_HAL_Driver/Src/stm32f1xx_hal_tim.c ****   uint32_t tmpcr2 = 0U;
 8782              		.loc 1 4097 0
 8783 000a 0023     		movs	r3, #0
 8784 000c FB60     		str	r3, [r7, #12]
4098:Drivers/STM32F1xx_HAL_Driver/Src/stm32f1xx_hal_tim.c **** 
4099:Drivers/STM32F1xx_HAL_Driver/Src/stm32f1xx_hal_tim.c ****   /* Check the parameters */
4100:Drivers/STM32F1xx_HAL_Driver/Src/stm32f1xx_hal_tim.c ****   assert_param(IS_TIM_XOR_INSTANCE(htim->Instance));
4101:Drivers/STM32F1xx_HAL_Driver/Src/stm32f1xx_hal_tim.c ****   assert_param(IS_TIM_TI1SELECTION(TI1_Selection));
4102:Drivers/STM32F1xx_HAL_Driver/Src/stm32f1xx_hal_tim.c **** 
4103:Drivers/STM32F1xx_HAL_Driver/Src/stm32f1xx_hal_tim.c ****   /* Get the TIMx CR2 register value */
4104:Drivers/STM32F1xx_HAL_Driver/Src/stm32f1xx_hal_tim.c ****   tmpcr2 = htim->Instance->CR2;
 8785              		.loc 1 4104 0
 8786 000e 7B68     		ldr	r3, [r7, #4]
 8787 0010 1B68     		ldr	r3, [r3]
 8788 0012 5B68     		ldr	r3, [r3, #4]
 8789 0014 FB60     		str	r3, [r7, #12]
4105:Drivers/STM32F1xx_HAL_Driver/Src/stm32f1xx_hal_tim.c **** 
4106:Drivers/STM32F1xx_HAL_Driver/Src/stm32f1xx_hal_tim.c ****   /* Reset the TI1 selection */
4107:Drivers/STM32F1xx_HAL_Driver/Src/stm32f1xx_hal_tim.c ****   tmpcr2 &= ~TIM_CR2_TI1S;
 8790              		.loc 1 4107 0
 8791 0016 FB68     		ldr	r3, [r7, #12]
 8792 0018 23F08003 		bic	r3, r3, #128
 8793 001c FB60     		str	r3, [r7, #12]
4108:Drivers/STM32F1xx_HAL_Driver/Src/stm32f1xx_hal_tim.c **** 
4109:Drivers/STM32F1xx_HAL_Driver/Src/stm32f1xx_hal_tim.c ****   /* Set the the TI1 selection */
4110:Drivers/STM32F1xx_HAL_Driver/Src/stm32f1xx_hal_tim.c ****   tmpcr2 |= TI1_Selection;
 8794              		.loc 1 4110 0
 8795 001e FA68     		ldr	r2, [r7, #12]
 8796 0020 3B68     		ldr	r3, [r7]
 8797 0022 1343     		orrs	r3, r3, r2
 8798 0024 FB60     		str	r3, [r7, #12]
ARM GAS  /tmp/cc5HGhWi.s 			page 228


4111:Drivers/STM32F1xx_HAL_Driver/Src/stm32f1xx_hal_tim.c **** 
4112:Drivers/STM32F1xx_HAL_Driver/Src/stm32f1xx_hal_tim.c ****   /* Write to TIMxCR2 */
4113:Drivers/STM32F1xx_HAL_Driver/Src/stm32f1xx_hal_tim.c ****   htim->Instance->CR2 = tmpcr2;
 8799              		.loc 1 4113 0
 8800 0026 7B68     		ldr	r3, [r7, #4]
 8801 0028 1B68     		ldr	r3, [r3]
 8802 002a FA68     		ldr	r2, [r7, #12]
 8803 002c 5A60     		str	r2, [r3, #4]
4114:Drivers/STM32F1xx_HAL_Driver/Src/stm32f1xx_hal_tim.c **** 
4115:Drivers/STM32F1xx_HAL_Driver/Src/stm32f1xx_hal_tim.c ****   return HAL_OK;
 8804              		.loc 1 4115 0
 8805 002e 0023     		movs	r3, #0
4116:Drivers/STM32F1xx_HAL_Driver/Src/stm32f1xx_hal_tim.c **** }
 8806              		.loc 1 4116 0
 8807 0030 1846     		mov	r0, r3
 8808 0032 1437     		adds	r7, r7, #20
 8809              	.LCFI371:
 8810              		.cfi_def_cfa_offset 4
 8811 0034 BD46     		mov	sp, r7
 8812              	.LCFI372:
 8813              		.cfi_def_cfa_register 13
 8814              		@ sp needed
 8815 0036 80BC     		pop	{r7}
 8816              	.LCFI373:
 8817              		.cfi_restore 7
 8818              		.cfi_def_cfa_offset 0
 8819 0038 7047     		bx	lr
 8820              		.cfi_endproc
 8821              	.LFE136:
 8823              		.section	.text.HAL_TIM_SlaveConfigSynchronization,"ax",%progbits
 8824              		.align	1
 8825              		.global	HAL_TIM_SlaveConfigSynchronization
 8826              		.syntax unified
 8827              		.thumb
 8828              		.thumb_func
 8829              		.fpu softvfp
 8831              	HAL_TIM_SlaveConfigSynchronization:
 8832              	.LFB137:
4117:Drivers/STM32F1xx_HAL_Driver/Src/stm32f1xx_hal_tim.c **** 
4118:Drivers/STM32F1xx_HAL_Driver/Src/stm32f1xx_hal_tim.c **** /**
4119:Drivers/STM32F1xx_HAL_Driver/Src/stm32f1xx_hal_tim.c ****   * @brief  Configures the TIM in Slave mode
4120:Drivers/STM32F1xx_HAL_Driver/Src/stm32f1xx_hal_tim.c ****   * @param  htim : TIM handle.
4121:Drivers/STM32F1xx_HAL_Driver/Src/stm32f1xx_hal_tim.c ****   * @param  sSlaveConfig : pointer to a TIM_SlaveConfigTypeDef structure that
4122:Drivers/STM32F1xx_HAL_Driver/Src/stm32f1xx_hal_tim.c ****   *         contains the selected trigger (internal trigger input, filtered
4123:Drivers/STM32F1xx_HAL_Driver/Src/stm32f1xx_hal_tim.c ****   *         timer input or external trigger input) and the ) and the Slave 
4124:Drivers/STM32F1xx_HAL_Driver/Src/stm32f1xx_hal_tim.c ****   *         mode (Disable, Reset, Gated, Trigger, External clock mode 1).
4125:Drivers/STM32F1xx_HAL_Driver/Src/stm32f1xx_hal_tim.c ****   * @retval HAL status
4126:Drivers/STM32F1xx_HAL_Driver/Src/stm32f1xx_hal_tim.c ****   */
4127:Drivers/STM32F1xx_HAL_Driver/Src/stm32f1xx_hal_tim.c **** HAL_StatusTypeDef HAL_TIM_SlaveConfigSynchronization(TIM_HandleTypeDef *htim, TIM_SlaveConfigTypeDe
4128:Drivers/STM32F1xx_HAL_Driver/Src/stm32f1xx_hal_tim.c **** {
 8833              		.loc 1 4128 0
 8834              		.cfi_startproc
 8835              		@ args = 0, pretend = 0, frame = 8
 8836              		@ frame_needed = 1, uses_anonymous_args = 0
 8837 0000 80B5     		push	{r7, lr}
 8838              	.LCFI374:
 8839              		.cfi_def_cfa_offset 8
ARM GAS  /tmp/cc5HGhWi.s 			page 229


 8840              		.cfi_offset 7, -8
 8841              		.cfi_offset 14, -4
 8842 0002 82B0     		sub	sp, sp, #8
 8843              	.LCFI375:
 8844              		.cfi_def_cfa_offset 16
 8845 0004 00AF     		add	r7, sp, #0
 8846              	.LCFI376:
 8847              		.cfi_def_cfa_register 7
 8848 0006 7860     		str	r0, [r7, #4]
 8849 0008 3960     		str	r1, [r7]
4129:Drivers/STM32F1xx_HAL_Driver/Src/stm32f1xx_hal_tim.c ****   /* Check the parameters */
4130:Drivers/STM32F1xx_HAL_Driver/Src/stm32f1xx_hal_tim.c ****   assert_param(IS_TIM_SLAVE_INSTANCE(htim->Instance));
4131:Drivers/STM32F1xx_HAL_Driver/Src/stm32f1xx_hal_tim.c ****   assert_param(IS_TIM_SLAVE_MODE(sSlaveConfig->SlaveMode));
4132:Drivers/STM32F1xx_HAL_Driver/Src/stm32f1xx_hal_tim.c ****   assert_param(IS_TIM_TRIGGER_SELECTION(sSlaveConfig->InputTrigger));
4133:Drivers/STM32F1xx_HAL_Driver/Src/stm32f1xx_hal_tim.c **** 
4134:Drivers/STM32F1xx_HAL_Driver/Src/stm32f1xx_hal_tim.c ****   __HAL_LOCK(htim);
 8850              		.loc 1 4134 0
 8851 000a 7B68     		ldr	r3, [r7, #4]
 8852 000c 93F83C30 		ldrb	r3, [r3, #60]	@ zero_extendqisi2
 8853 0010 012B     		cmp	r3, #1
 8854 0012 01D1     		bne	.L497
 8855              		.loc 1 4134 0 is_stmt 0 discriminator 1
 8856 0014 0223     		movs	r3, #2
 8857 0016 24E0     		b	.L498
 8858              	.L497:
 8859              		.loc 1 4134 0 discriminator 2
 8860 0018 7B68     		ldr	r3, [r7, #4]
 8861 001a 0122     		movs	r2, #1
 8862 001c 83F83C20 		strb	r2, [r3, #60]
4135:Drivers/STM32F1xx_HAL_Driver/Src/stm32f1xx_hal_tim.c **** 
4136:Drivers/STM32F1xx_HAL_Driver/Src/stm32f1xx_hal_tim.c ****   htim->State = HAL_TIM_STATE_BUSY;
 8863              		.loc 1 4136 0 is_stmt 1 discriminator 2
 8864 0020 7B68     		ldr	r3, [r7, #4]
 8865 0022 0222     		movs	r2, #2
 8866 0024 83F83D20 		strb	r2, [r3, #61]
4137:Drivers/STM32F1xx_HAL_Driver/Src/stm32f1xx_hal_tim.c **** 
4138:Drivers/STM32F1xx_HAL_Driver/Src/stm32f1xx_hal_tim.c ****   TIM_SlaveTimer_SetConfig(htim, sSlaveConfig);
 8867              		.loc 1 4138 0 discriminator 2
 8868 0028 3968     		ldr	r1, [r7]
 8869 002a 7868     		ldr	r0, [r7, #4]
 8870 002c FFF7FEFF 		bl	TIM_SlaveTimer_SetConfig
4139:Drivers/STM32F1xx_HAL_Driver/Src/stm32f1xx_hal_tim.c **** 
4140:Drivers/STM32F1xx_HAL_Driver/Src/stm32f1xx_hal_tim.c ****   /* Disable Trigger Interrupt */
4141:Drivers/STM32F1xx_HAL_Driver/Src/stm32f1xx_hal_tim.c ****   __HAL_TIM_DISABLE_IT(htim, TIM_IT_TRIGGER);
 8871              		.loc 1 4141 0 discriminator 2
 8872 0030 7B68     		ldr	r3, [r7, #4]
 8873 0032 1B68     		ldr	r3, [r3]
 8874 0034 DA68     		ldr	r2, [r3, #12]
 8875 0036 7B68     		ldr	r3, [r7, #4]
 8876 0038 1B68     		ldr	r3, [r3]
 8877 003a 22F04002 		bic	r2, r2, #64
 8878 003e DA60     		str	r2, [r3, #12]
4142:Drivers/STM32F1xx_HAL_Driver/Src/stm32f1xx_hal_tim.c **** 
4143:Drivers/STM32F1xx_HAL_Driver/Src/stm32f1xx_hal_tim.c ****   /* Disable Trigger DMA request */
4144:Drivers/STM32F1xx_HAL_Driver/Src/stm32f1xx_hal_tim.c ****   __HAL_TIM_DISABLE_DMA(htim, TIM_DMA_TRIGGER);
 8879              		.loc 1 4144 0 discriminator 2
 8880 0040 7B68     		ldr	r3, [r7, #4]
ARM GAS  /tmp/cc5HGhWi.s 			page 230


 8881 0042 1B68     		ldr	r3, [r3]
 8882 0044 DA68     		ldr	r2, [r3, #12]
 8883 0046 7B68     		ldr	r3, [r7, #4]
 8884 0048 1B68     		ldr	r3, [r3]
 8885 004a 22F48042 		bic	r2, r2, #16384
 8886 004e DA60     		str	r2, [r3, #12]
4145:Drivers/STM32F1xx_HAL_Driver/Src/stm32f1xx_hal_tim.c **** 
4146:Drivers/STM32F1xx_HAL_Driver/Src/stm32f1xx_hal_tim.c ****   htim->State = HAL_TIM_STATE_READY;
 8887              		.loc 1 4146 0 discriminator 2
 8888 0050 7B68     		ldr	r3, [r7, #4]
 8889 0052 0122     		movs	r2, #1
 8890 0054 83F83D20 		strb	r2, [r3, #61]
4147:Drivers/STM32F1xx_HAL_Driver/Src/stm32f1xx_hal_tim.c **** 
4148:Drivers/STM32F1xx_HAL_Driver/Src/stm32f1xx_hal_tim.c ****   __HAL_UNLOCK(htim);
 8891              		.loc 1 4148 0 discriminator 2
 8892 0058 7B68     		ldr	r3, [r7, #4]
 8893 005a 0022     		movs	r2, #0
 8894 005c 83F83C20 		strb	r2, [r3, #60]
4149:Drivers/STM32F1xx_HAL_Driver/Src/stm32f1xx_hal_tim.c **** 
4150:Drivers/STM32F1xx_HAL_Driver/Src/stm32f1xx_hal_tim.c ****   return HAL_OK;
 8895              		.loc 1 4150 0 discriminator 2
 8896 0060 0023     		movs	r3, #0
 8897              	.L498:
4151:Drivers/STM32F1xx_HAL_Driver/Src/stm32f1xx_hal_tim.c ****     }
 8898              		.loc 1 4151 0
 8899 0062 1846     		mov	r0, r3
 8900 0064 0837     		adds	r7, r7, #8
 8901              	.LCFI377:
 8902              		.cfi_def_cfa_offset 8
 8903 0066 BD46     		mov	sp, r7
 8904              	.LCFI378:
 8905              		.cfi_def_cfa_register 13
 8906              		@ sp needed
 8907 0068 80BD     		pop	{r7, pc}
 8908              		.cfi_endproc
 8909              	.LFE137:
 8911              		.section	.text.HAL_TIM_SlaveConfigSynchronization_IT,"ax",%progbits
 8912              		.align	1
 8913              		.global	HAL_TIM_SlaveConfigSynchronization_IT
 8914              		.syntax unified
 8915              		.thumb
 8916              		.thumb_func
 8917              		.fpu softvfp
 8919              	HAL_TIM_SlaveConfigSynchronization_IT:
 8920              	.LFB138:
4152:Drivers/STM32F1xx_HAL_Driver/Src/stm32f1xx_hal_tim.c **** 
4153:Drivers/STM32F1xx_HAL_Driver/Src/stm32f1xx_hal_tim.c **** /**
4154:Drivers/STM32F1xx_HAL_Driver/Src/stm32f1xx_hal_tim.c ****   * @brief  Configures the TIM in Slave mode in interrupt mode
4155:Drivers/STM32F1xx_HAL_Driver/Src/stm32f1xx_hal_tim.c ****   * @param  htim: TIM handle.
4156:Drivers/STM32F1xx_HAL_Driver/Src/stm32f1xx_hal_tim.c ****   * @param  sSlaveConfig: pointer to a TIM_SlaveConfigTypeDef structure that
4157:Drivers/STM32F1xx_HAL_Driver/Src/stm32f1xx_hal_tim.c ****   *         contains the selected trigger (internal trigger input, filtered
4158:Drivers/STM32F1xx_HAL_Driver/Src/stm32f1xx_hal_tim.c ****   *         timer input or external trigger input) and the ) and the Slave 
4159:Drivers/STM32F1xx_HAL_Driver/Src/stm32f1xx_hal_tim.c ****   *         mode (Disable, Reset, Gated, Trigger, External clock mode 1).
4160:Drivers/STM32F1xx_HAL_Driver/Src/stm32f1xx_hal_tim.c ****   * @retval HAL status
4161:Drivers/STM32F1xx_HAL_Driver/Src/stm32f1xx_hal_tim.c ****   */
4162:Drivers/STM32F1xx_HAL_Driver/Src/stm32f1xx_hal_tim.c **** HAL_StatusTypeDef HAL_TIM_SlaveConfigSynchronization_IT(TIM_HandleTypeDef *htim,
4163:Drivers/STM32F1xx_HAL_Driver/Src/stm32f1xx_hal_tim.c ****                                                         TIM_SlaveConfigTypeDef * sSlaveConfig)
ARM GAS  /tmp/cc5HGhWi.s 			page 231


4164:Drivers/STM32F1xx_HAL_Driver/Src/stm32f1xx_hal_tim.c ****     {
 8921              		.loc 1 4164 0
 8922              		.cfi_startproc
 8923              		@ args = 0, pretend = 0, frame = 8
 8924              		@ frame_needed = 1, uses_anonymous_args = 0
 8925 0000 80B5     		push	{r7, lr}
 8926              	.LCFI379:
 8927              		.cfi_def_cfa_offset 8
 8928              		.cfi_offset 7, -8
 8929              		.cfi_offset 14, -4
 8930 0002 82B0     		sub	sp, sp, #8
 8931              	.LCFI380:
 8932              		.cfi_def_cfa_offset 16
 8933 0004 00AF     		add	r7, sp, #0
 8934              	.LCFI381:
 8935              		.cfi_def_cfa_register 7
 8936 0006 7860     		str	r0, [r7, #4]
 8937 0008 3960     		str	r1, [r7]
4165:Drivers/STM32F1xx_HAL_Driver/Src/stm32f1xx_hal_tim.c ****       /* Check the parameters */
4166:Drivers/STM32F1xx_HAL_Driver/Src/stm32f1xx_hal_tim.c ****   assert_param(IS_TIM_SLAVE_INSTANCE(htim->Instance));
4167:Drivers/STM32F1xx_HAL_Driver/Src/stm32f1xx_hal_tim.c ****   assert_param(IS_TIM_SLAVE_MODE(sSlaveConfig->SlaveMode));
4168:Drivers/STM32F1xx_HAL_Driver/Src/stm32f1xx_hal_tim.c ****   assert_param(IS_TIM_TRIGGER_SELECTION(sSlaveConfig->InputTrigger));
4169:Drivers/STM32F1xx_HAL_Driver/Src/stm32f1xx_hal_tim.c **** 
4170:Drivers/STM32F1xx_HAL_Driver/Src/stm32f1xx_hal_tim.c ****   __HAL_LOCK(htim);
 8938              		.loc 1 4170 0
 8939 000a 7B68     		ldr	r3, [r7, #4]
 8940 000c 93F83C30 		ldrb	r3, [r3, #60]	@ zero_extendqisi2
 8941 0010 012B     		cmp	r3, #1
 8942 0012 01D1     		bne	.L500
 8943              		.loc 1 4170 0 is_stmt 0 discriminator 1
 8944 0014 0223     		movs	r3, #2
 8945 0016 24E0     		b	.L501
 8946              	.L500:
 8947              		.loc 1 4170 0 discriminator 2
 8948 0018 7B68     		ldr	r3, [r7, #4]
 8949 001a 0122     		movs	r2, #1
 8950 001c 83F83C20 		strb	r2, [r3, #60]
4171:Drivers/STM32F1xx_HAL_Driver/Src/stm32f1xx_hal_tim.c **** 
4172:Drivers/STM32F1xx_HAL_Driver/Src/stm32f1xx_hal_tim.c ****   htim->State = HAL_TIM_STATE_BUSY;
 8951              		.loc 1 4172 0 is_stmt 1 discriminator 2
 8952 0020 7B68     		ldr	r3, [r7, #4]
 8953 0022 0222     		movs	r2, #2
 8954 0024 83F83D20 		strb	r2, [r3, #61]
4173:Drivers/STM32F1xx_HAL_Driver/Src/stm32f1xx_hal_tim.c **** 
4174:Drivers/STM32F1xx_HAL_Driver/Src/stm32f1xx_hal_tim.c ****   TIM_SlaveTimer_SetConfig(htim, sSlaveConfig);
 8955              		.loc 1 4174 0 discriminator 2
 8956 0028 3968     		ldr	r1, [r7]
 8957 002a 7868     		ldr	r0, [r7, #4]
 8958 002c FFF7FEFF 		bl	TIM_SlaveTimer_SetConfig
4175:Drivers/STM32F1xx_HAL_Driver/Src/stm32f1xx_hal_tim.c **** 
4176:Drivers/STM32F1xx_HAL_Driver/Src/stm32f1xx_hal_tim.c ****   /* Enable Trigger Interrupt */
4177:Drivers/STM32F1xx_HAL_Driver/Src/stm32f1xx_hal_tim.c ****   __HAL_TIM_ENABLE_IT(htim, TIM_IT_TRIGGER);
 8959              		.loc 1 4177 0 discriminator 2
 8960 0030 7B68     		ldr	r3, [r7, #4]
 8961 0032 1B68     		ldr	r3, [r3]
 8962 0034 DA68     		ldr	r2, [r3, #12]
 8963 0036 7B68     		ldr	r3, [r7, #4]
ARM GAS  /tmp/cc5HGhWi.s 			page 232


 8964 0038 1B68     		ldr	r3, [r3]
 8965 003a 42F04002 		orr	r2, r2, #64
 8966 003e DA60     		str	r2, [r3, #12]
4178:Drivers/STM32F1xx_HAL_Driver/Src/stm32f1xx_hal_tim.c **** 
4179:Drivers/STM32F1xx_HAL_Driver/Src/stm32f1xx_hal_tim.c ****   /* Disable Trigger DMA request */
4180:Drivers/STM32F1xx_HAL_Driver/Src/stm32f1xx_hal_tim.c ****   __HAL_TIM_DISABLE_DMA(htim, TIM_DMA_TRIGGER);
 8967              		.loc 1 4180 0 discriminator 2
 8968 0040 7B68     		ldr	r3, [r7, #4]
 8969 0042 1B68     		ldr	r3, [r3]
 8970 0044 DA68     		ldr	r2, [r3, #12]
 8971 0046 7B68     		ldr	r3, [r7, #4]
 8972 0048 1B68     		ldr	r3, [r3]
 8973 004a 22F48042 		bic	r2, r2, #16384
 8974 004e DA60     		str	r2, [r3, #12]
4181:Drivers/STM32F1xx_HAL_Driver/Src/stm32f1xx_hal_tim.c **** 
4182:Drivers/STM32F1xx_HAL_Driver/Src/stm32f1xx_hal_tim.c ****   htim->State = HAL_TIM_STATE_READY;
 8975              		.loc 1 4182 0 discriminator 2
 8976 0050 7B68     		ldr	r3, [r7, #4]
 8977 0052 0122     		movs	r2, #1
 8978 0054 83F83D20 		strb	r2, [r3, #61]
4183:Drivers/STM32F1xx_HAL_Driver/Src/stm32f1xx_hal_tim.c **** 
4184:Drivers/STM32F1xx_HAL_Driver/Src/stm32f1xx_hal_tim.c ****   __HAL_UNLOCK(htim);
 8979              		.loc 1 4184 0 discriminator 2
 8980 0058 7B68     		ldr	r3, [r7, #4]
 8981 005a 0022     		movs	r2, #0
 8982 005c 83F83C20 		strb	r2, [r3, #60]
4185:Drivers/STM32F1xx_HAL_Driver/Src/stm32f1xx_hal_tim.c **** 
4186:Drivers/STM32F1xx_HAL_Driver/Src/stm32f1xx_hal_tim.c ****   return HAL_OK;
 8983              		.loc 1 4186 0 discriminator 2
 8984 0060 0023     		movs	r3, #0
 8985              	.L501:
4187:Drivers/STM32F1xx_HAL_Driver/Src/stm32f1xx_hal_tim.c **** }
 8986              		.loc 1 4187 0
 8987 0062 1846     		mov	r0, r3
 8988 0064 0837     		adds	r7, r7, #8
 8989              	.LCFI382:
 8990              		.cfi_def_cfa_offset 8
 8991 0066 BD46     		mov	sp, r7
 8992              	.LCFI383:
 8993              		.cfi_def_cfa_register 13
 8994              		@ sp needed
 8995 0068 80BD     		pop	{r7, pc}
 8996              		.cfi_endproc
 8997              	.LFE138:
 8999              		.section	.text.HAL_TIM_ReadCapturedValue,"ax",%progbits
 9000              		.align	1
 9001              		.global	HAL_TIM_ReadCapturedValue
 9002              		.syntax unified
 9003              		.thumb
 9004              		.thumb_func
 9005              		.fpu softvfp
 9007              	HAL_TIM_ReadCapturedValue:
 9008              	.LFB139:
4188:Drivers/STM32F1xx_HAL_Driver/Src/stm32f1xx_hal_tim.c **** 
4189:Drivers/STM32F1xx_HAL_Driver/Src/stm32f1xx_hal_tim.c **** /**
4190:Drivers/STM32F1xx_HAL_Driver/Src/stm32f1xx_hal_tim.c ****   * @brief  Read the captured value from Capture Compare unit
4191:Drivers/STM32F1xx_HAL_Driver/Src/stm32f1xx_hal_tim.c ****   * @param  htim : TIM handle.
ARM GAS  /tmp/cc5HGhWi.s 			page 233


4192:Drivers/STM32F1xx_HAL_Driver/Src/stm32f1xx_hal_tim.c ****   * @param  Channel : TIM Channels to be enabled
4193:Drivers/STM32F1xx_HAL_Driver/Src/stm32f1xx_hal_tim.c ****   *          This parameter can be one of the following values:
4194:Drivers/STM32F1xx_HAL_Driver/Src/stm32f1xx_hal_tim.c ****   *            @arg TIM_CHANNEL_1 : TIM Channel 1 selected
4195:Drivers/STM32F1xx_HAL_Driver/Src/stm32f1xx_hal_tim.c ****   *            @arg TIM_CHANNEL_2 : TIM Channel 2 selected
4196:Drivers/STM32F1xx_HAL_Driver/Src/stm32f1xx_hal_tim.c ****   *            @arg TIM_CHANNEL_3 : TIM Channel 3 selected
4197:Drivers/STM32F1xx_HAL_Driver/Src/stm32f1xx_hal_tim.c ****   *            @arg TIM_CHANNEL_4 : TIM Channel 4 selected
4198:Drivers/STM32F1xx_HAL_Driver/Src/stm32f1xx_hal_tim.c ****   * @retval Captured value
4199:Drivers/STM32F1xx_HAL_Driver/Src/stm32f1xx_hal_tim.c ****   */
4200:Drivers/STM32F1xx_HAL_Driver/Src/stm32f1xx_hal_tim.c **** uint32_t HAL_TIM_ReadCapturedValue(TIM_HandleTypeDef *htim, uint32_t Channel)
4201:Drivers/STM32F1xx_HAL_Driver/Src/stm32f1xx_hal_tim.c **** {
 9009              		.loc 1 4201 0
 9010              		.cfi_startproc
 9011              		@ args = 0, pretend = 0, frame = 16
 9012              		@ frame_needed = 1, uses_anonymous_args = 0
 9013              		@ link register save eliminated.
 9014 0000 80B4     		push	{r7}
 9015              	.LCFI384:
 9016              		.cfi_def_cfa_offset 4
 9017              		.cfi_offset 7, -4
 9018 0002 85B0     		sub	sp, sp, #20
 9019              	.LCFI385:
 9020              		.cfi_def_cfa_offset 24
 9021 0004 00AF     		add	r7, sp, #0
 9022              	.LCFI386:
 9023              		.cfi_def_cfa_register 7
 9024 0006 7860     		str	r0, [r7, #4]
 9025 0008 3960     		str	r1, [r7]
4202:Drivers/STM32F1xx_HAL_Driver/Src/stm32f1xx_hal_tim.c ****   uint32_t tmpreg = 0U;
 9026              		.loc 1 4202 0
 9027 000a 0023     		movs	r3, #0
 9028 000c FB60     		str	r3, [r7, #12]
4203:Drivers/STM32F1xx_HAL_Driver/Src/stm32f1xx_hal_tim.c **** 
4204:Drivers/STM32F1xx_HAL_Driver/Src/stm32f1xx_hal_tim.c ****   __HAL_LOCK(htim);
 9029              		.loc 1 4204 0
 9030 000e 7B68     		ldr	r3, [r7, #4]
 9031 0010 93F83C30 		ldrb	r3, [r3, #60]	@ zero_extendqisi2
 9032 0014 012B     		cmp	r3, #1
 9033 0016 01D1     		bne	.L503
 9034              		.loc 1 4204 0 is_stmt 0 discriminator 1
 9035 0018 0223     		movs	r3, #2
 9036 001a 3DE0     		b	.L504
 9037              	.L503:
 9038              		.loc 1 4204 0 discriminator 2
 9039 001c 7B68     		ldr	r3, [r7, #4]
 9040 001e 0122     		movs	r2, #1
 9041 0020 83F83C20 		strb	r2, [r3, #60]
4205:Drivers/STM32F1xx_HAL_Driver/Src/stm32f1xx_hal_tim.c **** 
4206:Drivers/STM32F1xx_HAL_Driver/Src/stm32f1xx_hal_tim.c ****   switch (Channel)
 9042              		.loc 1 4206 0 is_stmt 1 discriminator 2
 9043 0024 3B68     		ldr	r3, [r7]
 9044 0026 0C2B     		cmp	r3, #12
 9045 0028 30D8     		bhi	.L512
 9046 002a 01A2     		adr	r2, .L507
 9047 002c 52F823F0 		ldr	pc, [r2, r3, lsl #2]
 9048              		.p2align 2
 9049              	.L507:
 9050 0030 65000000 		.word	.L506+1
ARM GAS  /tmp/cc5HGhWi.s 			page 234


 9051 0034 8D000000 		.word	.L512+1
 9052 0038 8D000000 		.word	.L512+1
 9053 003c 8D000000 		.word	.L512+1
 9054 0040 6F000000 		.word	.L508+1
 9055 0044 8D000000 		.word	.L512+1
 9056 0048 8D000000 		.word	.L512+1
 9057 004c 8D000000 		.word	.L512+1
 9058 0050 79000000 		.word	.L509+1
 9059 0054 8D000000 		.word	.L512+1
 9060 0058 8D000000 		.word	.L512+1
 9061 005c 8D000000 		.word	.L512+1
 9062 0060 83000000 		.word	.L510+1
 9063              		.p2align 1
 9064              	.L506:
4207:Drivers/STM32F1xx_HAL_Driver/Src/stm32f1xx_hal_tim.c ****   {
4208:Drivers/STM32F1xx_HAL_Driver/Src/stm32f1xx_hal_tim.c ****   case TIM_CHANNEL_1:
4209:Drivers/STM32F1xx_HAL_Driver/Src/stm32f1xx_hal_tim.c ****     {
4210:Drivers/STM32F1xx_HAL_Driver/Src/stm32f1xx_hal_tim.c ****       /* Check the parameters */
4211:Drivers/STM32F1xx_HAL_Driver/Src/stm32f1xx_hal_tim.c ****       assert_param(IS_TIM_CC1_INSTANCE(htim->Instance));
4212:Drivers/STM32F1xx_HAL_Driver/Src/stm32f1xx_hal_tim.c **** 
4213:Drivers/STM32F1xx_HAL_Driver/Src/stm32f1xx_hal_tim.c ****       /* Return the capture 1 value */
4214:Drivers/STM32F1xx_HAL_Driver/Src/stm32f1xx_hal_tim.c ****       tmpreg =  htim->Instance->CCR1;
 9065              		.loc 1 4214 0
 9066 0064 7B68     		ldr	r3, [r7, #4]
 9067 0066 1B68     		ldr	r3, [r3]
 9068 0068 5B6B     		ldr	r3, [r3, #52]
 9069 006a FB60     		str	r3, [r7, #12]
4215:Drivers/STM32F1xx_HAL_Driver/Src/stm32f1xx_hal_tim.c **** 
4216:Drivers/STM32F1xx_HAL_Driver/Src/stm32f1xx_hal_tim.c ****       break;
 9070              		.loc 1 4216 0
 9071 006c 0FE0     		b	.L511
 9072              	.L508:
4217:Drivers/STM32F1xx_HAL_Driver/Src/stm32f1xx_hal_tim.c ****     }
4218:Drivers/STM32F1xx_HAL_Driver/Src/stm32f1xx_hal_tim.c ****   case TIM_CHANNEL_2:
4219:Drivers/STM32F1xx_HAL_Driver/Src/stm32f1xx_hal_tim.c ****     {
4220:Drivers/STM32F1xx_HAL_Driver/Src/stm32f1xx_hal_tim.c ****       /* Check the parameters */
4221:Drivers/STM32F1xx_HAL_Driver/Src/stm32f1xx_hal_tim.c ****       assert_param(IS_TIM_CC2_INSTANCE(htim->Instance));
4222:Drivers/STM32F1xx_HAL_Driver/Src/stm32f1xx_hal_tim.c **** 
4223:Drivers/STM32F1xx_HAL_Driver/Src/stm32f1xx_hal_tim.c ****       /* Return the capture 2 value */
4224:Drivers/STM32F1xx_HAL_Driver/Src/stm32f1xx_hal_tim.c ****       tmpreg =   htim->Instance->CCR2;
 9073              		.loc 1 4224 0
 9074 006e 7B68     		ldr	r3, [r7, #4]
 9075 0070 1B68     		ldr	r3, [r3]
 9076 0072 9B6B     		ldr	r3, [r3, #56]
 9077 0074 FB60     		str	r3, [r7, #12]
4225:Drivers/STM32F1xx_HAL_Driver/Src/stm32f1xx_hal_tim.c **** 
4226:Drivers/STM32F1xx_HAL_Driver/Src/stm32f1xx_hal_tim.c ****       break;
 9078              		.loc 1 4226 0
 9079 0076 0AE0     		b	.L511
 9080              	.L509:
4227:Drivers/STM32F1xx_HAL_Driver/Src/stm32f1xx_hal_tim.c ****     }
4228:Drivers/STM32F1xx_HAL_Driver/Src/stm32f1xx_hal_tim.c **** 
4229:Drivers/STM32F1xx_HAL_Driver/Src/stm32f1xx_hal_tim.c ****   case TIM_CHANNEL_3:
4230:Drivers/STM32F1xx_HAL_Driver/Src/stm32f1xx_hal_tim.c ****     {
4231:Drivers/STM32F1xx_HAL_Driver/Src/stm32f1xx_hal_tim.c ****       /* Check the parameters */
4232:Drivers/STM32F1xx_HAL_Driver/Src/stm32f1xx_hal_tim.c ****       assert_param(IS_TIM_CC3_INSTANCE(htim->Instance));
4233:Drivers/STM32F1xx_HAL_Driver/Src/stm32f1xx_hal_tim.c **** 
ARM GAS  /tmp/cc5HGhWi.s 			page 235


4234:Drivers/STM32F1xx_HAL_Driver/Src/stm32f1xx_hal_tim.c ****       /* Return the capture 3 value */
4235:Drivers/STM32F1xx_HAL_Driver/Src/stm32f1xx_hal_tim.c ****       tmpreg =   htim->Instance->CCR3;
 9081              		.loc 1 4235 0
 9082 0078 7B68     		ldr	r3, [r7, #4]
 9083 007a 1B68     		ldr	r3, [r3]
 9084 007c DB6B     		ldr	r3, [r3, #60]
 9085 007e FB60     		str	r3, [r7, #12]
4236:Drivers/STM32F1xx_HAL_Driver/Src/stm32f1xx_hal_tim.c **** 
4237:Drivers/STM32F1xx_HAL_Driver/Src/stm32f1xx_hal_tim.c ****       break;
 9086              		.loc 1 4237 0
 9087 0080 05E0     		b	.L511
 9088              	.L510:
4238:Drivers/STM32F1xx_HAL_Driver/Src/stm32f1xx_hal_tim.c ****     }
4239:Drivers/STM32F1xx_HAL_Driver/Src/stm32f1xx_hal_tim.c **** 
4240:Drivers/STM32F1xx_HAL_Driver/Src/stm32f1xx_hal_tim.c ****   case TIM_CHANNEL_4:
4241:Drivers/STM32F1xx_HAL_Driver/Src/stm32f1xx_hal_tim.c ****     {
4242:Drivers/STM32F1xx_HAL_Driver/Src/stm32f1xx_hal_tim.c ****       /* Check the parameters */
4243:Drivers/STM32F1xx_HAL_Driver/Src/stm32f1xx_hal_tim.c ****       assert_param(IS_TIM_CC4_INSTANCE(htim->Instance));
4244:Drivers/STM32F1xx_HAL_Driver/Src/stm32f1xx_hal_tim.c **** 
4245:Drivers/STM32F1xx_HAL_Driver/Src/stm32f1xx_hal_tim.c ****       /* Return the capture 4 value */
4246:Drivers/STM32F1xx_HAL_Driver/Src/stm32f1xx_hal_tim.c ****       tmpreg =   htim->Instance->CCR4;
 9089              		.loc 1 4246 0
 9090 0082 7B68     		ldr	r3, [r7, #4]
 9091 0084 1B68     		ldr	r3, [r3]
 9092 0086 1B6C     		ldr	r3, [r3, #64]
 9093 0088 FB60     		str	r3, [r7, #12]
4247:Drivers/STM32F1xx_HAL_Driver/Src/stm32f1xx_hal_tim.c **** 
4248:Drivers/STM32F1xx_HAL_Driver/Src/stm32f1xx_hal_tim.c ****       break;
 9094              		.loc 1 4248 0
 9095 008a 00E0     		b	.L511
 9096              	.L512:
4249:Drivers/STM32F1xx_HAL_Driver/Src/stm32f1xx_hal_tim.c ****     }
4250:Drivers/STM32F1xx_HAL_Driver/Src/stm32f1xx_hal_tim.c **** 
4251:Drivers/STM32F1xx_HAL_Driver/Src/stm32f1xx_hal_tim.c ****   default:
4252:Drivers/STM32F1xx_HAL_Driver/Src/stm32f1xx_hal_tim.c ****     break;
 9097              		.loc 1 4252 0
 9098 008c 00BF     		nop
 9099              	.L511:
4253:Drivers/STM32F1xx_HAL_Driver/Src/stm32f1xx_hal_tim.c ****   }
4254:Drivers/STM32F1xx_HAL_Driver/Src/stm32f1xx_hal_tim.c **** 
4255:Drivers/STM32F1xx_HAL_Driver/Src/stm32f1xx_hal_tim.c ****   __HAL_UNLOCK(htim);
 9100              		.loc 1 4255 0
 9101 008e 7B68     		ldr	r3, [r7, #4]
 9102 0090 0022     		movs	r2, #0
 9103 0092 83F83C20 		strb	r2, [r3, #60]
4256:Drivers/STM32F1xx_HAL_Driver/Src/stm32f1xx_hal_tim.c ****   return tmpreg;
 9104              		.loc 1 4256 0
 9105 0096 FB68     		ldr	r3, [r7, #12]
 9106              	.L504:
4257:Drivers/STM32F1xx_HAL_Driver/Src/stm32f1xx_hal_tim.c **** }
 9107              		.loc 1 4257 0
 9108 0098 1846     		mov	r0, r3
 9109 009a 1437     		adds	r7, r7, #20
 9110              	.LCFI387:
 9111              		.cfi_def_cfa_offset 4
 9112 009c BD46     		mov	sp, r7
 9113              	.LCFI388:
ARM GAS  /tmp/cc5HGhWi.s 			page 236


 9114              		.cfi_def_cfa_register 13
 9115              		@ sp needed
 9116 009e 80BC     		pop	{r7}
 9117              	.LCFI389:
 9118              		.cfi_restore 7
 9119              		.cfi_def_cfa_offset 0
 9120 00a0 7047     		bx	lr
 9121              		.cfi_endproc
 9122              	.LFE139:
 9124 00a2 00BF     		.section	.text.HAL_TIM_PeriodElapsedCallback,"ax",%progbits
 9125              		.align	1
 9126              		.weak	HAL_TIM_PeriodElapsedCallback
 9127              		.syntax unified
 9128              		.thumb
 9129              		.thumb_func
 9130              		.fpu softvfp
 9132              	HAL_TIM_PeriodElapsedCallback:
 9133              	.LFB140:
4258:Drivers/STM32F1xx_HAL_Driver/Src/stm32f1xx_hal_tim.c **** 
4259:Drivers/STM32F1xx_HAL_Driver/Src/stm32f1xx_hal_tim.c **** /**
4260:Drivers/STM32F1xx_HAL_Driver/Src/stm32f1xx_hal_tim.c ****   * @}
4261:Drivers/STM32F1xx_HAL_Driver/Src/stm32f1xx_hal_tim.c ****   */
4262:Drivers/STM32F1xx_HAL_Driver/Src/stm32f1xx_hal_tim.c **** 
4263:Drivers/STM32F1xx_HAL_Driver/Src/stm32f1xx_hal_tim.c **** /** @defgroup TIM_Exported_Functions_Group9 TIM Callbacks functions
4264:Drivers/STM32F1xx_HAL_Driver/Src/stm32f1xx_hal_tim.c ****  *  @brief    TIM Callbacks functions 
4265:Drivers/STM32F1xx_HAL_Driver/Src/stm32f1xx_hal_tim.c ****  *
4266:Drivers/STM32F1xx_HAL_Driver/Src/stm32f1xx_hal_tim.c **** @verbatim 
4267:Drivers/STM32F1xx_HAL_Driver/Src/stm32f1xx_hal_tim.c ****   ==============================================================================
4268:Drivers/STM32F1xx_HAL_Driver/Src/stm32f1xx_hal_tim.c ****                         ##### TIM Callbacks functions #####
4269:Drivers/STM32F1xx_HAL_Driver/Src/stm32f1xx_hal_tim.c ****   ==============================================================================
4270:Drivers/STM32F1xx_HAL_Driver/Src/stm32f1xx_hal_tim.c ****  [..]
4271:Drivers/STM32F1xx_HAL_Driver/Src/stm32f1xx_hal_tim.c ****    This section provides TIM callback functions:
4272:Drivers/STM32F1xx_HAL_Driver/Src/stm32f1xx_hal_tim.c ****    (+) Timer Period elapsed callback
4273:Drivers/STM32F1xx_HAL_Driver/Src/stm32f1xx_hal_tim.c ****    (+) Timer Output Compare callback
4274:Drivers/STM32F1xx_HAL_Driver/Src/stm32f1xx_hal_tim.c ****    (+) Timer Input capture callback
4275:Drivers/STM32F1xx_HAL_Driver/Src/stm32f1xx_hal_tim.c ****    (+) Timer Trigger callback
4276:Drivers/STM32F1xx_HAL_Driver/Src/stm32f1xx_hal_tim.c ****    (+) Timer Error callback
4277:Drivers/STM32F1xx_HAL_Driver/Src/stm32f1xx_hal_tim.c **** 
4278:Drivers/STM32F1xx_HAL_Driver/Src/stm32f1xx_hal_tim.c **** @endverbatim
4279:Drivers/STM32F1xx_HAL_Driver/Src/stm32f1xx_hal_tim.c ****   * @{
4280:Drivers/STM32F1xx_HAL_Driver/Src/stm32f1xx_hal_tim.c ****   */
4281:Drivers/STM32F1xx_HAL_Driver/Src/stm32f1xx_hal_tim.c **** 
4282:Drivers/STM32F1xx_HAL_Driver/Src/stm32f1xx_hal_tim.c **** /**
4283:Drivers/STM32F1xx_HAL_Driver/Src/stm32f1xx_hal_tim.c ****   * @brief  Period elapsed callback in non blocking mode 
4284:Drivers/STM32F1xx_HAL_Driver/Src/stm32f1xx_hal_tim.c ****   * @param  htim : TIM handle
4285:Drivers/STM32F1xx_HAL_Driver/Src/stm32f1xx_hal_tim.c ****   * @retval None
4286:Drivers/STM32F1xx_HAL_Driver/Src/stm32f1xx_hal_tim.c ****   */
4287:Drivers/STM32F1xx_HAL_Driver/Src/stm32f1xx_hal_tim.c **** __weak void HAL_TIM_PeriodElapsedCallback(TIM_HandleTypeDef *htim)
4288:Drivers/STM32F1xx_HAL_Driver/Src/stm32f1xx_hal_tim.c **** {
 9134              		.loc 1 4288 0
 9135              		.cfi_startproc
 9136              		@ args = 0, pretend = 0, frame = 8
 9137              		@ frame_needed = 1, uses_anonymous_args = 0
 9138              		@ link register save eliminated.
 9139 0000 80B4     		push	{r7}
 9140              	.LCFI390:
 9141              		.cfi_def_cfa_offset 4
ARM GAS  /tmp/cc5HGhWi.s 			page 237


 9142              		.cfi_offset 7, -4
 9143 0002 83B0     		sub	sp, sp, #12
 9144              	.LCFI391:
 9145              		.cfi_def_cfa_offset 16
 9146 0004 00AF     		add	r7, sp, #0
 9147              	.LCFI392:
 9148              		.cfi_def_cfa_register 7
 9149 0006 7860     		str	r0, [r7, #4]
4289:Drivers/STM32F1xx_HAL_Driver/Src/stm32f1xx_hal_tim.c ****   /* Prevent unused argument(s) compilation warning */
4290:Drivers/STM32F1xx_HAL_Driver/Src/stm32f1xx_hal_tim.c ****   UNUSED(htim);
4291:Drivers/STM32F1xx_HAL_Driver/Src/stm32f1xx_hal_tim.c ****   /* NOTE : This function Should not be modified, when the callback is needed,
4292:Drivers/STM32F1xx_HAL_Driver/Src/stm32f1xx_hal_tim.c ****             the __HAL_TIM_PeriodElapsedCallback could be implemented in the user file
4293:Drivers/STM32F1xx_HAL_Driver/Src/stm32f1xx_hal_tim.c ****    */
4294:Drivers/STM32F1xx_HAL_Driver/Src/stm32f1xx_hal_tim.c **** 
4295:Drivers/STM32F1xx_HAL_Driver/Src/stm32f1xx_hal_tim.c **** }
 9150              		.loc 1 4295 0
 9151 0008 00BF     		nop
 9152 000a 0C37     		adds	r7, r7, #12
 9153              	.LCFI393:
 9154              		.cfi_def_cfa_offset 4
 9155 000c BD46     		mov	sp, r7
 9156              	.LCFI394:
 9157              		.cfi_def_cfa_register 13
 9158              		@ sp needed
 9159 000e 80BC     		pop	{r7}
 9160              	.LCFI395:
 9161              		.cfi_restore 7
 9162              		.cfi_def_cfa_offset 0
 9163 0010 7047     		bx	lr
 9164              		.cfi_endproc
 9165              	.LFE140:
 9167              		.section	.text.HAL_TIM_OC_DelayElapsedCallback,"ax",%progbits
 9168              		.align	1
 9169              		.weak	HAL_TIM_OC_DelayElapsedCallback
 9170              		.syntax unified
 9171              		.thumb
 9172              		.thumb_func
 9173              		.fpu softvfp
 9175              	HAL_TIM_OC_DelayElapsedCallback:
 9176              	.LFB141:
4296:Drivers/STM32F1xx_HAL_Driver/Src/stm32f1xx_hal_tim.c **** /**
4297:Drivers/STM32F1xx_HAL_Driver/Src/stm32f1xx_hal_tim.c ****   * @brief  Output Compare callback in non blocking mode 
4298:Drivers/STM32F1xx_HAL_Driver/Src/stm32f1xx_hal_tim.c ****   * @param  htim : TIM OC handle
4299:Drivers/STM32F1xx_HAL_Driver/Src/stm32f1xx_hal_tim.c ****   * @retval None
4300:Drivers/STM32F1xx_HAL_Driver/Src/stm32f1xx_hal_tim.c ****   */
4301:Drivers/STM32F1xx_HAL_Driver/Src/stm32f1xx_hal_tim.c **** __weak void HAL_TIM_OC_DelayElapsedCallback(TIM_HandleTypeDef *htim)
4302:Drivers/STM32F1xx_HAL_Driver/Src/stm32f1xx_hal_tim.c **** {
 9177              		.loc 1 4302 0
 9178              		.cfi_startproc
 9179              		@ args = 0, pretend = 0, frame = 8
 9180              		@ frame_needed = 1, uses_anonymous_args = 0
 9181              		@ link register save eliminated.
 9182 0000 80B4     		push	{r7}
 9183              	.LCFI396:
 9184              		.cfi_def_cfa_offset 4
 9185              		.cfi_offset 7, -4
 9186 0002 83B0     		sub	sp, sp, #12
ARM GAS  /tmp/cc5HGhWi.s 			page 238


 9187              	.LCFI397:
 9188              		.cfi_def_cfa_offset 16
 9189 0004 00AF     		add	r7, sp, #0
 9190              	.LCFI398:
 9191              		.cfi_def_cfa_register 7
 9192 0006 7860     		str	r0, [r7, #4]
4303:Drivers/STM32F1xx_HAL_Driver/Src/stm32f1xx_hal_tim.c ****   /* Prevent unused argument(s) compilation warning */
4304:Drivers/STM32F1xx_HAL_Driver/Src/stm32f1xx_hal_tim.c ****   UNUSED(htim);
4305:Drivers/STM32F1xx_HAL_Driver/Src/stm32f1xx_hal_tim.c ****   /* NOTE : This function Should not be modified, when the callback is needed,
4306:Drivers/STM32F1xx_HAL_Driver/Src/stm32f1xx_hal_tim.c ****             the __HAL_TIM_OC_DelayElapsedCallback could be implemented in the user file
4307:Drivers/STM32F1xx_HAL_Driver/Src/stm32f1xx_hal_tim.c ****    */
4308:Drivers/STM32F1xx_HAL_Driver/Src/stm32f1xx_hal_tim.c **** }
 9193              		.loc 1 4308 0
 9194 0008 00BF     		nop
 9195 000a 0C37     		adds	r7, r7, #12
 9196              	.LCFI399:
 9197              		.cfi_def_cfa_offset 4
 9198 000c BD46     		mov	sp, r7
 9199              	.LCFI400:
 9200              		.cfi_def_cfa_register 13
 9201              		@ sp needed
 9202 000e 80BC     		pop	{r7}
 9203              	.LCFI401:
 9204              		.cfi_restore 7
 9205              		.cfi_def_cfa_offset 0
 9206 0010 7047     		bx	lr
 9207              		.cfi_endproc
 9208              	.LFE141:
 9210              		.section	.text.HAL_TIM_IC_CaptureCallback,"ax",%progbits
 9211              		.align	1
 9212              		.weak	HAL_TIM_IC_CaptureCallback
 9213              		.syntax unified
 9214              		.thumb
 9215              		.thumb_func
 9216              		.fpu softvfp
 9218              	HAL_TIM_IC_CaptureCallback:
 9219              	.LFB142:
4309:Drivers/STM32F1xx_HAL_Driver/Src/stm32f1xx_hal_tim.c **** /**
4310:Drivers/STM32F1xx_HAL_Driver/Src/stm32f1xx_hal_tim.c ****   * @brief  Input Capture callback in non blocking mode 
4311:Drivers/STM32F1xx_HAL_Driver/Src/stm32f1xx_hal_tim.c ****   * @param  htim : TIM IC handle
4312:Drivers/STM32F1xx_HAL_Driver/Src/stm32f1xx_hal_tim.c ****   * @retval None
4313:Drivers/STM32F1xx_HAL_Driver/Src/stm32f1xx_hal_tim.c ****   */
4314:Drivers/STM32F1xx_HAL_Driver/Src/stm32f1xx_hal_tim.c **** __weak void HAL_TIM_IC_CaptureCallback(TIM_HandleTypeDef *htim)
4315:Drivers/STM32F1xx_HAL_Driver/Src/stm32f1xx_hal_tim.c **** {
 9220              		.loc 1 4315 0
 9221              		.cfi_startproc
 9222              		@ args = 0, pretend = 0, frame = 8
 9223              		@ frame_needed = 1, uses_anonymous_args = 0
 9224              		@ link register save eliminated.
 9225 0000 80B4     		push	{r7}
 9226              	.LCFI402:
 9227              		.cfi_def_cfa_offset 4
 9228              		.cfi_offset 7, -4
 9229 0002 83B0     		sub	sp, sp, #12
 9230              	.LCFI403:
 9231              		.cfi_def_cfa_offset 16
 9232 0004 00AF     		add	r7, sp, #0
ARM GAS  /tmp/cc5HGhWi.s 			page 239


 9233              	.LCFI404:
 9234              		.cfi_def_cfa_register 7
 9235 0006 7860     		str	r0, [r7, #4]
4316:Drivers/STM32F1xx_HAL_Driver/Src/stm32f1xx_hal_tim.c ****   /* Prevent unused argument(s) compilation warning */
4317:Drivers/STM32F1xx_HAL_Driver/Src/stm32f1xx_hal_tim.c ****   UNUSED(htim);
4318:Drivers/STM32F1xx_HAL_Driver/Src/stm32f1xx_hal_tim.c ****   /* NOTE : This function Should not be modified, when the callback is needed,
4319:Drivers/STM32F1xx_HAL_Driver/Src/stm32f1xx_hal_tim.c ****             the __HAL_TIM_IC_CaptureCallback could be implemented in the user file
4320:Drivers/STM32F1xx_HAL_Driver/Src/stm32f1xx_hal_tim.c ****    */
4321:Drivers/STM32F1xx_HAL_Driver/Src/stm32f1xx_hal_tim.c **** }
 9236              		.loc 1 4321 0
 9237 0008 00BF     		nop
 9238 000a 0C37     		adds	r7, r7, #12
 9239              	.LCFI405:
 9240              		.cfi_def_cfa_offset 4
 9241 000c BD46     		mov	sp, r7
 9242              	.LCFI406:
 9243              		.cfi_def_cfa_register 13
 9244              		@ sp needed
 9245 000e 80BC     		pop	{r7}
 9246              	.LCFI407:
 9247              		.cfi_restore 7
 9248              		.cfi_def_cfa_offset 0
 9249 0010 7047     		bx	lr
 9250              		.cfi_endproc
 9251              	.LFE142:
 9253              		.section	.text.HAL_TIM_PWM_PulseFinishedCallback,"ax",%progbits
 9254              		.align	1
 9255              		.weak	HAL_TIM_PWM_PulseFinishedCallback
 9256              		.syntax unified
 9257              		.thumb
 9258              		.thumb_func
 9259              		.fpu softvfp
 9261              	HAL_TIM_PWM_PulseFinishedCallback:
 9262              	.LFB143:
4322:Drivers/STM32F1xx_HAL_Driver/Src/stm32f1xx_hal_tim.c **** 
4323:Drivers/STM32F1xx_HAL_Driver/Src/stm32f1xx_hal_tim.c **** /**
4324:Drivers/STM32F1xx_HAL_Driver/Src/stm32f1xx_hal_tim.c ****   * @brief  PWM Pulse finished callback in non blocking mode 
4325:Drivers/STM32F1xx_HAL_Driver/Src/stm32f1xx_hal_tim.c ****   * @param  htim : TIM handle
4326:Drivers/STM32F1xx_HAL_Driver/Src/stm32f1xx_hal_tim.c ****   * @retval None
4327:Drivers/STM32F1xx_HAL_Driver/Src/stm32f1xx_hal_tim.c ****   */
4328:Drivers/STM32F1xx_HAL_Driver/Src/stm32f1xx_hal_tim.c **** __weak void HAL_TIM_PWM_PulseFinishedCallback(TIM_HandleTypeDef *htim)
4329:Drivers/STM32F1xx_HAL_Driver/Src/stm32f1xx_hal_tim.c **** {
 9263              		.loc 1 4329 0
 9264              		.cfi_startproc
 9265              		@ args = 0, pretend = 0, frame = 8
 9266              		@ frame_needed = 1, uses_anonymous_args = 0
 9267              		@ link register save eliminated.
 9268 0000 80B4     		push	{r7}
 9269              	.LCFI408:
 9270              		.cfi_def_cfa_offset 4
 9271              		.cfi_offset 7, -4
 9272 0002 83B0     		sub	sp, sp, #12
 9273              	.LCFI409:
 9274              		.cfi_def_cfa_offset 16
 9275 0004 00AF     		add	r7, sp, #0
 9276              	.LCFI410:
 9277              		.cfi_def_cfa_register 7
ARM GAS  /tmp/cc5HGhWi.s 			page 240


 9278 0006 7860     		str	r0, [r7, #4]
4330:Drivers/STM32F1xx_HAL_Driver/Src/stm32f1xx_hal_tim.c ****   /* Prevent unused argument(s) compilation warning */
4331:Drivers/STM32F1xx_HAL_Driver/Src/stm32f1xx_hal_tim.c ****   UNUSED(htim);
4332:Drivers/STM32F1xx_HAL_Driver/Src/stm32f1xx_hal_tim.c ****   /* NOTE : This function Should not be modified, when the callback is needed,
4333:Drivers/STM32F1xx_HAL_Driver/Src/stm32f1xx_hal_tim.c ****             the __HAL_TIM_PWM_PulseFinishedCallback could be implemented in the user file
4334:Drivers/STM32F1xx_HAL_Driver/Src/stm32f1xx_hal_tim.c ****    */
4335:Drivers/STM32F1xx_HAL_Driver/Src/stm32f1xx_hal_tim.c **** }
 9279              		.loc 1 4335 0
 9280 0008 00BF     		nop
 9281 000a 0C37     		adds	r7, r7, #12
 9282              	.LCFI411:
 9283              		.cfi_def_cfa_offset 4
 9284 000c BD46     		mov	sp, r7
 9285              	.LCFI412:
 9286              		.cfi_def_cfa_register 13
 9287              		@ sp needed
 9288 000e 80BC     		pop	{r7}
 9289              	.LCFI413:
 9290              		.cfi_restore 7
 9291              		.cfi_def_cfa_offset 0
 9292 0010 7047     		bx	lr
 9293              		.cfi_endproc
 9294              	.LFE143:
 9296              		.section	.text.HAL_TIM_TriggerCallback,"ax",%progbits
 9297              		.align	1
 9298              		.weak	HAL_TIM_TriggerCallback
 9299              		.syntax unified
 9300              		.thumb
 9301              		.thumb_func
 9302              		.fpu softvfp
 9304              	HAL_TIM_TriggerCallback:
 9305              	.LFB144:
4336:Drivers/STM32F1xx_HAL_Driver/Src/stm32f1xx_hal_tim.c **** 
4337:Drivers/STM32F1xx_HAL_Driver/Src/stm32f1xx_hal_tim.c **** /**
4338:Drivers/STM32F1xx_HAL_Driver/Src/stm32f1xx_hal_tim.c ****   * @brief  Hall Trigger detection callback in non blocking mode 
4339:Drivers/STM32F1xx_HAL_Driver/Src/stm32f1xx_hal_tim.c ****   * @param  htim : TIM handle
4340:Drivers/STM32F1xx_HAL_Driver/Src/stm32f1xx_hal_tim.c ****   * @retval None
4341:Drivers/STM32F1xx_HAL_Driver/Src/stm32f1xx_hal_tim.c ****   */
4342:Drivers/STM32F1xx_HAL_Driver/Src/stm32f1xx_hal_tim.c **** __weak void HAL_TIM_TriggerCallback(TIM_HandleTypeDef *htim)
4343:Drivers/STM32F1xx_HAL_Driver/Src/stm32f1xx_hal_tim.c **** {
 9306              		.loc 1 4343 0
 9307              		.cfi_startproc
 9308              		@ args = 0, pretend = 0, frame = 8
 9309              		@ frame_needed = 1, uses_anonymous_args = 0
 9310              		@ link register save eliminated.
 9311 0000 80B4     		push	{r7}
 9312              	.LCFI414:
 9313              		.cfi_def_cfa_offset 4
 9314              		.cfi_offset 7, -4
 9315 0002 83B0     		sub	sp, sp, #12
 9316              	.LCFI415:
 9317              		.cfi_def_cfa_offset 16
 9318 0004 00AF     		add	r7, sp, #0
 9319              	.LCFI416:
 9320              		.cfi_def_cfa_register 7
 9321 0006 7860     		str	r0, [r7, #4]
4344:Drivers/STM32F1xx_HAL_Driver/Src/stm32f1xx_hal_tim.c ****   /* Prevent unused argument(s) compilation warning */
ARM GAS  /tmp/cc5HGhWi.s 			page 241


4345:Drivers/STM32F1xx_HAL_Driver/Src/stm32f1xx_hal_tim.c ****   UNUSED(htim);
4346:Drivers/STM32F1xx_HAL_Driver/Src/stm32f1xx_hal_tim.c ****   /* NOTE : This function Should not be modified, when the callback is needed,
4347:Drivers/STM32F1xx_HAL_Driver/Src/stm32f1xx_hal_tim.c ****             the HAL_TIM_TriggerCallback could be implemented in the user file
4348:Drivers/STM32F1xx_HAL_Driver/Src/stm32f1xx_hal_tim.c ****    */
4349:Drivers/STM32F1xx_HAL_Driver/Src/stm32f1xx_hal_tim.c **** }
 9322              		.loc 1 4349 0
 9323 0008 00BF     		nop
 9324 000a 0C37     		adds	r7, r7, #12
 9325              	.LCFI417:
 9326              		.cfi_def_cfa_offset 4
 9327 000c BD46     		mov	sp, r7
 9328              	.LCFI418:
 9329              		.cfi_def_cfa_register 13
 9330              		@ sp needed
 9331 000e 80BC     		pop	{r7}
 9332              	.LCFI419:
 9333              		.cfi_restore 7
 9334              		.cfi_def_cfa_offset 0
 9335 0010 7047     		bx	lr
 9336              		.cfi_endproc
 9337              	.LFE144:
 9339              		.section	.text.HAL_TIM_ErrorCallback,"ax",%progbits
 9340              		.align	1
 9341              		.weak	HAL_TIM_ErrorCallback
 9342              		.syntax unified
 9343              		.thumb
 9344              		.thumb_func
 9345              		.fpu softvfp
 9347              	HAL_TIM_ErrorCallback:
 9348              	.LFB145:
4350:Drivers/STM32F1xx_HAL_Driver/Src/stm32f1xx_hal_tim.c **** 
4351:Drivers/STM32F1xx_HAL_Driver/Src/stm32f1xx_hal_tim.c **** /**
4352:Drivers/STM32F1xx_HAL_Driver/Src/stm32f1xx_hal_tim.c ****   * @brief  Timer error callback in non blocking mode 
4353:Drivers/STM32F1xx_HAL_Driver/Src/stm32f1xx_hal_tim.c ****   * @param  htim : TIM handle
4354:Drivers/STM32F1xx_HAL_Driver/Src/stm32f1xx_hal_tim.c ****   * @retval None
4355:Drivers/STM32F1xx_HAL_Driver/Src/stm32f1xx_hal_tim.c ****   */
4356:Drivers/STM32F1xx_HAL_Driver/Src/stm32f1xx_hal_tim.c **** __weak void HAL_TIM_ErrorCallback(TIM_HandleTypeDef *htim)
4357:Drivers/STM32F1xx_HAL_Driver/Src/stm32f1xx_hal_tim.c **** {
 9349              		.loc 1 4357 0
 9350              		.cfi_startproc
 9351              		@ args = 0, pretend = 0, frame = 8
 9352              		@ frame_needed = 1, uses_anonymous_args = 0
 9353              		@ link register save eliminated.
 9354 0000 80B4     		push	{r7}
 9355              	.LCFI420:
 9356              		.cfi_def_cfa_offset 4
 9357              		.cfi_offset 7, -4
 9358 0002 83B0     		sub	sp, sp, #12
 9359              	.LCFI421:
 9360              		.cfi_def_cfa_offset 16
 9361 0004 00AF     		add	r7, sp, #0
 9362              	.LCFI422:
 9363              		.cfi_def_cfa_register 7
 9364 0006 7860     		str	r0, [r7, #4]
4358:Drivers/STM32F1xx_HAL_Driver/Src/stm32f1xx_hal_tim.c ****   /* Prevent unused argument(s) compilation warning */
4359:Drivers/STM32F1xx_HAL_Driver/Src/stm32f1xx_hal_tim.c ****   UNUSED(htim);
4360:Drivers/STM32F1xx_HAL_Driver/Src/stm32f1xx_hal_tim.c ****   /* NOTE : This function Should not be modified, when the callback is needed,
ARM GAS  /tmp/cc5HGhWi.s 			page 242


4361:Drivers/STM32F1xx_HAL_Driver/Src/stm32f1xx_hal_tim.c ****             the HAL_TIM_ErrorCallback could be implemented in the user file
4362:Drivers/STM32F1xx_HAL_Driver/Src/stm32f1xx_hal_tim.c ****    */
4363:Drivers/STM32F1xx_HAL_Driver/Src/stm32f1xx_hal_tim.c **** }
 9365              		.loc 1 4363 0
 9366 0008 00BF     		nop
 9367 000a 0C37     		adds	r7, r7, #12
 9368              	.LCFI423:
 9369              		.cfi_def_cfa_offset 4
 9370 000c BD46     		mov	sp, r7
 9371              	.LCFI424:
 9372              		.cfi_def_cfa_register 13
 9373              		@ sp needed
 9374 000e 80BC     		pop	{r7}
 9375              	.LCFI425:
 9376              		.cfi_restore 7
 9377              		.cfi_def_cfa_offset 0
 9378 0010 7047     		bx	lr
 9379              		.cfi_endproc
 9380              	.LFE145:
 9382              		.section	.text.HAL_TIM_Base_GetState,"ax",%progbits
 9383              		.align	1
 9384              		.global	HAL_TIM_Base_GetState
 9385              		.syntax unified
 9386              		.thumb
 9387              		.thumb_func
 9388              		.fpu softvfp
 9390              	HAL_TIM_Base_GetState:
 9391              	.LFB146:
4364:Drivers/STM32F1xx_HAL_Driver/Src/stm32f1xx_hal_tim.c **** 
4365:Drivers/STM32F1xx_HAL_Driver/Src/stm32f1xx_hal_tim.c **** /**
4366:Drivers/STM32F1xx_HAL_Driver/Src/stm32f1xx_hal_tim.c ****   * @}
4367:Drivers/STM32F1xx_HAL_Driver/Src/stm32f1xx_hal_tim.c ****   */
4368:Drivers/STM32F1xx_HAL_Driver/Src/stm32f1xx_hal_tim.c **** 
4369:Drivers/STM32F1xx_HAL_Driver/Src/stm32f1xx_hal_tim.c **** /** @defgroup TIM_Exported_Functions_Group10 Peripheral State functions 
4370:Drivers/STM32F1xx_HAL_Driver/Src/stm32f1xx_hal_tim.c ****  *  @brief   Peripheral State functions 
4371:Drivers/STM32F1xx_HAL_Driver/Src/stm32f1xx_hal_tim.c ****  *
4372:Drivers/STM32F1xx_HAL_Driver/Src/stm32f1xx_hal_tim.c **** @verbatim 
4373:Drivers/STM32F1xx_HAL_Driver/Src/stm32f1xx_hal_tim.c ****   ==============================================================================
4374:Drivers/STM32F1xx_HAL_Driver/Src/stm32f1xx_hal_tim.c ****                         ##### Peripheral State functions #####
4375:Drivers/STM32F1xx_HAL_Driver/Src/stm32f1xx_hal_tim.c ****   ==============================================================================
4376:Drivers/STM32F1xx_HAL_Driver/Src/stm32f1xx_hal_tim.c ****     [..]
4377:Drivers/STM32F1xx_HAL_Driver/Src/stm32f1xx_hal_tim.c ****     This subsection permit to get in run-time the status of the peripheral 
4378:Drivers/STM32F1xx_HAL_Driver/Src/stm32f1xx_hal_tim.c ****     and the data flow.
4379:Drivers/STM32F1xx_HAL_Driver/Src/stm32f1xx_hal_tim.c **** 
4380:Drivers/STM32F1xx_HAL_Driver/Src/stm32f1xx_hal_tim.c **** @endverbatim
4381:Drivers/STM32F1xx_HAL_Driver/Src/stm32f1xx_hal_tim.c ****   * @{
4382:Drivers/STM32F1xx_HAL_Driver/Src/stm32f1xx_hal_tim.c ****   */
4383:Drivers/STM32F1xx_HAL_Driver/Src/stm32f1xx_hal_tim.c **** 
4384:Drivers/STM32F1xx_HAL_Driver/Src/stm32f1xx_hal_tim.c **** /**
4385:Drivers/STM32F1xx_HAL_Driver/Src/stm32f1xx_hal_tim.c ****   * @brief  Return the TIM Base state
4386:Drivers/STM32F1xx_HAL_Driver/Src/stm32f1xx_hal_tim.c ****   * @param  htim : TIM Base handle
4387:Drivers/STM32F1xx_HAL_Driver/Src/stm32f1xx_hal_tim.c ****   * @retval HAL state
4388:Drivers/STM32F1xx_HAL_Driver/Src/stm32f1xx_hal_tim.c ****   */
4389:Drivers/STM32F1xx_HAL_Driver/Src/stm32f1xx_hal_tim.c **** HAL_TIM_StateTypeDef HAL_TIM_Base_GetState(TIM_HandleTypeDef *htim)
4390:Drivers/STM32F1xx_HAL_Driver/Src/stm32f1xx_hal_tim.c **** {
 9392              		.loc 1 4390 0
 9393              		.cfi_startproc
ARM GAS  /tmp/cc5HGhWi.s 			page 243


 9394              		@ args = 0, pretend = 0, frame = 8
 9395              		@ frame_needed = 1, uses_anonymous_args = 0
 9396              		@ link register save eliminated.
 9397 0000 80B4     		push	{r7}
 9398              	.LCFI426:
 9399              		.cfi_def_cfa_offset 4
 9400              		.cfi_offset 7, -4
 9401 0002 83B0     		sub	sp, sp, #12
 9402              	.LCFI427:
 9403              		.cfi_def_cfa_offset 16
 9404 0004 00AF     		add	r7, sp, #0
 9405              	.LCFI428:
 9406              		.cfi_def_cfa_register 7
 9407 0006 7860     		str	r0, [r7, #4]
4391:Drivers/STM32F1xx_HAL_Driver/Src/stm32f1xx_hal_tim.c ****   return htim->State;
 9408              		.loc 1 4391 0
 9409 0008 7B68     		ldr	r3, [r7, #4]
 9410 000a 93F83D30 		ldrb	r3, [r3, #61]
 9411 000e DBB2     		uxtb	r3, r3
4392:Drivers/STM32F1xx_HAL_Driver/Src/stm32f1xx_hal_tim.c **** }
 9412              		.loc 1 4392 0
 9413 0010 1846     		mov	r0, r3
 9414 0012 0C37     		adds	r7, r7, #12
 9415              	.LCFI429:
 9416              		.cfi_def_cfa_offset 4
 9417 0014 BD46     		mov	sp, r7
 9418              	.LCFI430:
 9419              		.cfi_def_cfa_register 13
 9420              		@ sp needed
 9421 0016 80BC     		pop	{r7}
 9422              	.LCFI431:
 9423              		.cfi_restore 7
 9424              		.cfi_def_cfa_offset 0
 9425 0018 7047     		bx	lr
 9426              		.cfi_endproc
 9427              	.LFE146:
 9429              		.section	.text.HAL_TIM_OC_GetState,"ax",%progbits
 9430              		.align	1
 9431              		.global	HAL_TIM_OC_GetState
 9432              		.syntax unified
 9433              		.thumb
 9434              		.thumb_func
 9435              		.fpu softvfp
 9437              	HAL_TIM_OC_GetState:
 9438              	.LFB147:
4393:Drivers/STM32F1xx_HAL_Driver/Src/stm32f1xx_hal_tim.c **** 
4394:Drivers/STM32F1xx_HAL_Driver/Src/stm32f1xx_hal_tim.c **** /**
4395:Drivers/STM32F1xx_HAL_Driver/Src/stm32f1xx_hal_tim.c ****   * @brief  Return the TIM OC state
4396:Drivers/STM32F1xx_HAL_Driver/Src/stm32f1xx_hal_tim.c ****   * @param  htim : TIM Ouput Compare handle
4397:Drivers/STM32F1xx_HAL_Driver/Src/stm32f1xx_hal_tim.c ****   * @retval HAL state
4398:Drivers/STM32F1xx_HAL_Driver/Src/stm32f1xx_hal_tim.c ****   */
4399:Drivers/STM32F1xx_HAL_Driver/Src/stm32f1xx_hal_tim.c **** HAL_TIM_StateTypeDef HAL_TIM_OC_GetState(TIM_HandleTypeDef *htim)
4400:Drivers/STM32F1xx_HAL_Driver/Src/stm32f1xx_hal_tim.c **** {
 9439              		.loc 1 4400 0
 9440              		.cfi_startproc
 9441              		@ args = 0, pretend = 0, frame = 8
 9442              		@ frame_needed = 1, uses_anonymous_args = 0
ARM GAS  /tmp/cc5HGhWi.s 			page 244


 9443              		@ link register save eliminated.
 9444 0000 80B4     		push	{r7}
 9445              	.LCFI432:
 9446              		.cfi_def_cfa_offset 4
 9447              		.cfi_offset 7, -4
 9448 0002 83B0     		sub	sp, sp, #12
 9449              	.LCFI433:
 9450              		.cfi_def_cfa_offset 16
 9451 0004 00AF     		add	r7, sp, #0
 9452              	.LCFI434:
 9453              		.cfi_def_cfa_register 7
 9454 0006 7860     		str	r0, [r7, #4]
4401:Drivers/STM32F1xx_HAL_Driver/Src/stm32f1xx_hal_tim.c ****   return htim->State;
 9455              		.loc 1 4401 0
 9456 0008 7B68     		ldr	r3, [r7, #4]
 9457 000a 93F83D30 		ldrb	r3, [r3, #61]
 9458 000e DBB2     		uxtb	r3, r3
4402:Drivers/STM32F1xx_HAL_Driver/Src/stm32f1xx_hal_tim.c **** }
 9459              		.loc 1 4402 0
 9460 0010 1846     		mov	r0, r3
 9461 0012 0C37     		adds	r7, r7, #12
 9462              	.LCFI435:
 9463              		.cfi_def_cfa_offset 4
 9464 0014 BD46     		mov	sp, r7
 9465              	.LCFI436:
 9466              		.cfi_def_cfa_register 13
 9467              		@ sp needed
 9468 0016 80BC     		pop	{r7}
 9469              	.LCFI437:
 9470              		.cfi_restore 7
 9471              		.cfi_def_cfa_offset 0
 9472 0018 7047     		bx	lr
 9473              		.cfi_endproc
 9474              	.LFE147:
 9476              		.section	.text.HAL_TIM_PWM_GetState,"ax",%progbits
 9477              		.align	1
 9478              		.global	HAL_TIM_PWM_GetState
 9479              		.syntax unified
 9480              		.thumb
 9481              		.thumb_func
 9482              		.fpu softvfp
 9484              	HAL_TIM_PWM_GetState:
 9485              	.LFB148:
4403:Drivers/STM32F1xx_HAL_Driver/Src/stm32f1xx_hal_tim.c **** 
4404:Drivers/STM32F1xx_HAL_Driver/Src/stm32f1xx_hal_tim.c **** /**
4405:Drivers/STM32F1xx_HAL_Driver/Src/stm32f1xx_hal_tim.c ****   * @brief  Return the TIM PWM state
4406:Drivers/STM32F1xx_HAL_Driver/Src/stm32f1xx_hal_tim.c ****   * @param  htim : TIM handle
4407:Drivers/STM32F1xx_HAL_Driver/Src/stm32f1xx_hal_tim.c ****   * @retval HAL state
4408:Drivers/STM32F1xx_HAL_Driver/Src/stm32f1xx_hal_tim.c ****   */
4409:Drivers/STM32F1xx_HAL_Driver/Src/stm32f1xx_hal_tim.c **** HAL_TIM_StateTypeDef HAL_TIM_PWM_GetState(TIM_HandleTypeDef *htim)
4410:Drivers/STM32F1xx_HAL_Driver/Src/stm32f1xx_hal_tim.c **** {
 9486              		.loc 1 4410 0
 9487              		.cfi_startproc
 9488              		@ args = 0, pretend = 0, frame = 8
 9489              		@ frame_needed = 1, uses_anonymous_args = 0
 9490              		@ link register save eliminated.
 9491 0000 80B4     		push	{r7}
ARM GAS  /tmp/cc5HGhWi.s 			page 245


 9492              	.LCFI438:
 9493              		.cfi_def_cfa_offset 4
 9494              		.cfi_offset 7, -4
 9495 0002 83B0     		sub	sp, sp, #12
 9496              	.LCFI439:
 9497              		.cfi_def_cfa_offset 16
 9498 0004 00AF     		add	r7, sp, #0
 9499              	.LCFI440:
 9500              		.cfi_def_cfa_register 7
 9501 0006 7860     		str	r0, [r7, #4]
4411:Drivers/STM32F1xx_HAL_Driver/Src/stm32f1xx_hal_tim.c ****   return htim->State;
 9502              		.loc 1 4411 0
 9503 0008 7B68     		ldr	r3, [r7, #4]
 9504 000a 93F83D30 		ldrb	r3, [r3, #61]
 9505 000e DBB2     		uxtb	r3, r3
4412:Drivers/STM32F1xx_HAL_Driver/Src/stm32f1xx_hal_tim.c **** }
 9506              		.loc 1 4412 0
 9507 0010 1846     		mov	r0, r3
 9508 0012 0C37     		adds	r7, r7, #12
 9509              	.LCFI441:
 9510              		.cfi_def_cfa_offset 4
 9511 0014 BD46     		mov	sp, r7
 9512              	.LCFI442:
 9513              		.cfi_def_cfa_register 13
 9514              		@ sp needed
 9515 0016 80BC     		pop	{r7}
 9516              	.LCFI443:
 9517              		.cfi_restore 7
 9518              		.cfi_def_cfa_offset 0
 9519 0018 7047     		bx	lr
 9520              		.cfi_endproc
 9521              	.LFE148:
 9523              		.section	.text.HAL_TIM_IC_GetState,"ax",%progbits
 9524              		.align	1
 9525              		.global	HAL_TIM_IC_GetState
 9526              		.syntax unified
 9527              		.thumb
 9528              		.thumb_func
 9529              		.fpu softvfp
 9531              	HAL_TIM_IC_GetState:
 9532              	.LFB149:
4413:Drivers/STM32F1xx_HAL_Driver/Src/stm32f1xx_hal_tim.c **** 
4414:Drivers/STM32F1xx_HAL_Driver/Src/stm32f1xx_hal_tim.c **** /**
4415:Drivers/STM32F1xx_HAL_Driver/Src/stm32f1xx_hal_tim.c ****   * @brief  Return the TIM Input Capture state
4416:Drivers/STM32F1xx_HAL_Driver/Src/stm32f1xx_hal_tim.c ****   * @param  htim : TIM IC handle
4417:Drivers/STM32F1xx_HAL_Driver/Src/stm32f1xx_hal_tim.c ****   * @retval HAL state
4418:Drivers/STM32F1xx_HAL_Driver/Src/stm32f1xx_hal_tim.c ****   */
4419:Drivers/STM32F1xx_HAL_Driver/Src/stm32f1xx_hal_tim.c **** HAL_TIM_StateTypeDef HAL_TIM_IC_GetState(TIM_HandleTypeDef *htim)
4420:Drivers/STM32F1xx_HAL_Driver/Src/stm32f1xx_hal_tim.c **** {
 9533              		.loc 1 4420 0
 9534              		.cfi_startproc
 9535              		@ args = 0, pretend = 0, frame = 8
 9536              		@ frame_needed = 1, uses_anonymous_args = 0
 9537              		@ link register save eliminated.
 9538 0000 80B4     		push	{r7}
 9539              	.LCFI444:
 9540              		.cfi_def_cfa_offset 4
ARM GAS  /tmp/cc5HGhWi.s 			page 246


 9541              		.cfi_offset 7, -4
 9542 0002 83B0     		sub	sp, sp, #12
 9543              	.LCFI445:
 9544              		.cfi_def_cfa_offset 16
 9545 0004 00AF     		add	r7, sp, #0
 9546              	.LCFI446:
 9547              		.cfi_def_cfa_register 7
 9548 0006 7860     		str	r0, [r7, #4]
4421:Drivers/STM32F1xx_HAL_Driver/Src/stm32f1xx_hal_tim.c ****   return htim->State;
 9549              		.loc 1 4421 0
 9550 0008 7B68     		ldr	r3, [r7, #4]
 9551 000a 93F83D30 		ldrb	r3, [r3, #61]
 9552 000e DBB2     		uxtb	r3, r3
4422:Drivers/STM32F1xx_HAL_Driver/Src/stm32f1xx_hal_tim.c **** }
 9553              		.loc 1 4422 0
 9554 0010 1846     		mov	r0, r3
 9555 0012 0C37     		adds	r7, r7, #12
 9556              	.LCFI447:
 9557              		.cfi_def_cfa_offset 4
 9558 0014 BD46     		mov	sp, r7
 9559              	.LCFI448:
 9560              		.cfi_def_cfa_register 13
 9561              		@ sp needed
 9562 0016 80BC     		pop	{r7}
 9563              	.LCFI449:
 9564              		.cfi_restore 7
 9565              		.cfi_def_cfa_offset 0
 9566 0018 7047     		bx	lr
 9567              		.cfi_endproc
 9568              	.LFE149:
 9570              		.section	.text.HAL_TIM_OnePulse_GetState,"ax",%progbits
 9571              		.align	1
 9572              		.global	HAL_TIM_OnePulse_GetState
 9573              		.syntax unified
 9574              		.thumb
 9575              		.thumb_func
 9576              		.fpu softvfp
 9578              	HAL_TIM_OnePulse_GetState:
 9579              	.LFB150:
4423:Drivers/STM32F1xx_HAL_Driver/Src/stm32f1xx_hal_tim.c **** 
4424:Drivers/STM32F1xx_HAL_Driver/Src/stm32f1xx_hal_tim.c **** /**
4425:Drivers/STM32F1xx_HAL_Driver/Src/stm32f1xx_hal_tim.c ****   * @brief  Return the TIM One Pulse Mode state
4426:Drivers/STM32F1xx_HAL_Driver/Src/stm32f1xx_hal_tim.c ****   * @param  htim : TIM OPM handle
4427:Drivers/STM32F1xx_HAL_Driver/Src/stm32f1xx_hal_tim.c ****   * @retval HAL state
4428:Drivers/STM32F1xx_HAL_Driver/Src/stm32f1xx_hal_tim.c ****   */
4429:Drivers/STM32F1xx_HAL_Driver/Src/stm32f1xx_hal_tim.c **** HAL_TIM_StateTypeDef HAL_TIM_OnePulse_GetState(TIM_HandleTypeDef *htim)
4430:Drivers/STM32F1xx_HAL_Driver/Src/stm32f1xx_hal_tim.c **** {
 9580              		.loc 1 4430 0
 9581              		.cfi_startproc
 9582              		@ args = 0, pretend = 0, frame = 8
 9583              		@ frame_needed = 1, uses_anonymous_args = 0
 9584              		@ link register save eliminated.
 9585 0000 80B4     		push	{r7}
 9586              	.LCFI450:
 9587              		.cfi_def_cfa_offset 4
 9588              		.cfi_offset 7, -4
 9589 0002 83B0     		sub	sp, sp, #12
ARM GAS  /tmp/cc5HGhWi.s 			page 247


 9590              	.LCFI451:
 9591              		.cfi_def_cfa_offset 16
 9592 0004 00AF     		add	r7, sp, #0
 9593              	.LCFI452:
 9594              		.cfi_def_cfa_register 7
 9595 0006 7860     		str	r0, [r7, #4]
4431:Drivers/STM32F1xx_HAL_Driver/Src/stm32f1xx_hal_tim.c ****   return htim->State;
 9596              		.loc 1 4431 0
 9597 0008 7B68     		ldr	r3, [r7, #4]
 9598 000a 93F83D30 		ldrb	r3, [r3, #61]
 9599 000e DBB2     		uxtb	r3, r3
4432:Drivers/STM32F1xx_HAL_Driver/Src/stm32f1xx_hal_tim.c **** }
 9600              		.loc 1 4432 0
 9601 0010 1846     		mov	r0, r3
 9602 0012 0C37     		adds	r7, r7, #12
 9603              	.LCFI453:
 9604              		.cfi_def_cfa_offset 4
 9605 0014 BD46     		mov	sp, r7
 9606              	.LCFI454:
 9607              		.cfi_def_cfa_register 13
 9608              		@ sp needed
 9609 0016 80BC     		pop	{r7}
 9610              	.LCFI455:
 9611              		.cfi_restore 7
 9612              		.cfi_def_cfa_offset 0
 9613 0018 7047     		bx	lr
 9614              		.cfi_endproc
 9615              	.LFE150:
 9617              		.section	.text.HAL_TIM_Encoder_GetState,"ax",%progbits
 9618              		.align	1
 9619              		.global	HAL_TIM_Encoder_GetState
 9620              		.syntax unified
 9621              		.thumb
 9622              		.thumb_func
 9623              		.fpu softvfp
 9625              	HAL_TIM_Encoder_GetState:
 9626              	.LFB151:
4433:Drivers/STM32F1xx_HAL_Driver/Src/stm32f1xx_hal_tim.c **** 
4434:Drivers/STM32F1xx_HAL_Driver/Src/stm32f1xx_hal_tim.c **** /**
4435:Drivers/STM32F1xx_HAL_Driver/Src/stm32f1xx_hal_tim.c ****   * @brief  Return the TIM Encoder Mode state
4436:Drivers/STM32F1xx_HAL_Driver/Src/stm32f1xx_hal_tim.c ****   * @param  htim : TIM Encoder handle
4437:Drivers/STM32F1xx_HAL_Driver/Src/stm32f1xx_hal_tim.c ****   * @retval HAL state
4438:Drivers/STM32F1xx_HAL_Driver/Src/stm32f1xx_hal_tim.c ****   */
4439:Drivers/STM32F1xx_HAL_Driver/Src/stm32f1xx_hal_tim.c **** HAL_TIM_StateTypeDef HAL_TIM_Encoder_GetState(TIM_HandleTypeDef *htim)
4440:Drivers/STM32F1xx_HAL_Driver/Src/stm32f1xx_hal_tim.c **** {
 9627              		.loc 1 4440 0
 9628              		.cfi_startproc
 9629              		@ args = 0, pretend = 0, frame = 8
 9630              		@ frame_needed = 1, uses_anonymous_args = 0
 9631              		@ link register save eliminated.
 9632 0000 80B4     		push	{r7}
 9633              	.LCFI456:
 9634              		.cfi_def_cfa_offset 4
 9635              		.cfi_offset 7, -4
 9636 0002 83B0     		sub	sp, sp, #12
 9637              	.LCFI457:
 9638              		.cfi_def_cfa_offset 16
ARM GAS  /tmp/cc5HGhWi.s 			page 248


 9639 0004 00AF     		add	r7, sp, #0
 9640              	.LCFI458:
 9641              		.cfi_def_cfa_register 7
 9642 0006 7860     		str	r0, [r7, #4]
4441:Drivers/STM32F1xx_HAL_Driver/Src/stm32f1xx_hal_tim.c ****   return htim->State;
 9643              		.loc 1 4441 0
 9644 0008 7B68     		ldr	r3, [r7, #4]
 9645 000a 93F83D30 		ldrb	r3, [r3, #61]
 9646 000e DBB2     		uxtb	r3, r3
4442:Drivers/STM32F1xx_HAL_Driver/Src/stm32f1xx_hal_tim.c **** }
 9647              		.loc 1 4442 0
 9648 0010 1846     		mov	r0, r3
 9649 0012 0C37     		adds	r7, r7, #12
 9650              	.LCFI459:
 9651              		.cfi_def_cfa_offset 4
 9652 0014 BD46     		mov	sp, r7
 9653              	.LCFI460:
 9654              		.cfi_def_cfa_register 13
 9655              		@ sp needed
 9656 0016 80BC     		pop	{r7}
 9657              	.LCFI461:
 9658              		.cfi_restore 7
 9659              		.cfi_def_cfa_offset 0
 9660 0018 7047     		bx	lr
 9661              		.cfi_endproc
 9662              	.LFE151:
 9664              		.section	.text.TIM_DMAError,"ax",%progbits
 9665              		.align	1
 9666              		.global	TIM_DMAError
 9667              		.syntax unified
 9668              		.thumb
 9669              		.thumb_func
 9670              		.fpu softvfp
 9672              	TIM_DMAError:
 9673              	.LFB152:
4443:Drivers/STM32F1xx_HAL_Driver/Src/stm32f1xx_hal_tim.c **** 
4444:Drivers/STM32F1xx_HAL_Driver/Src/stm32f1xx_hal_tim.c **** /**
4445:Drivers/STM32F1xx_HAL_Driver/Src/stm32f1xx_hal_tim.c ****   * @}
4446:Drivers/STM32F1xx_HAL_Driver/Src/stm32f1xx_hal_tim.c ****   */
4447:Drivers/STM32F1xx_HAL_Driver/Src/stm32f1xx_hal_tim.c **** 
4448:Drivers/STM32F1xx_HAL_Driver/Src/stm32f1xx_hal_tim.c **** /**
4449:Drivers/STM32F1xx_HAL_Driver/Src/stm32f1xx_hal_tim.c ****   * @}
4450:Drivers/STM32F1xx_HAL_Driver/Src/stm32f1xx_hal_tim.c ****   */
4451:Drivers/STM32F1xx_HAL_Driver/Src/stm32f1xx_hal_tim.c **** 
4452:Drivers/STM32F1xx_HAL_Driver/Src/stm32f1xx_hal_tim.c **** /** @addtogroup TIM_Private_Functions
4453:Drivers/STM32F1xx_HAL_Driver/Src/stm32f1xx_hal_tim.c ****   * @{
4454:Drivers/STM32F1xx_HAL_Driver/Src/stm32f1xx_hal_tim.c ****   */
4455:Drivers/STM32F1xx_HAL_Driver/Src/stm32f1xx_hal_tim.c **** 
4456:Drivers/STM32F1xx_HAL_Driver/Src/stm32f1xx_hal_tim.c **** /**
4457:Drivers/STM32F1xx_HAL_Driver/Src/stm32f1xx_hal_tim.c ****   * @brief  TIM DMA error callback 
4458:Drivers/STM32F1xx_HAL_Driver/Src/stm32f1xx_hal_tim.c ****   * @param  hdma : pointer to DMA handle.
4459:Drivers/STM32F1xx_HAL_Driver/Src/stm32f1xx_hal_tim.c ****   * @retval None
4460:Drivers/STM32F1xx_HAL_Driver/Src/stm32f1xx_hal_tim.c ****   */
4461:Drivers/STM32F1xx_HAL_Driver/Src/stm32f1xx_hal_tim.c **** void TIM_DMAError(DMA_HandleTypeDef *hdma)
4462:Drivers/STM32F1xx_HAL_Driver/Src/stm32f1xx_hal_tim.c **** {
 9674              		.loc 1 4462 0
 9675              		.cfi_startproc
ARM GAS  /tmp/cc5HGhWi.s 			page 249


 9676              		@ args = 0, pretend = 0, frame = 16
 9677              		@ frame_needed = 1, uses_anonymous_args = 0
 9678 0000 80B5     		push	{r7, lr}
 9679              	.LCFI462:
 9680              		.cfi_def_cfa_offset 8
 9681              		.cfi_offset 7, -8
 9682              		.cfi_offset 14, -4
 9683 0002 84B0     		sub	sp, sp, #16
 9684              	.LCFI463:
 9685              		.cfi_def_cfa_offset 24
 9686 0004 00AF     		add	r7, sp, #0
 9687              	.LCFI464:
 9688              		.cfi_def_cfa_register 7
 9689 0006 7860     		str	r0, [r7, #4]
4463:Drivers/STM32F1xx_HAL_Driver/Src/stm32f1xx_hal_tim.c ****   TIM_HandleTypeDef* htim = ( TIM_HandleTypeDef* )((DMA_HandleTypeDef* )hdma)->Parent;
 9690              		.loc 1 4463 0
 9691 0008 7B68     		ldr	r3, [r7, #4]
 9692 000a 5B6A     		ldr	r3, [r3, #36]
 9693 000c FB60     		str	r3, [r7, #12]
4464:Drivers/STM32F1xx_HAL_Driver/Src/stm32f1xx_hal_tim.c **** 
4465:Drivers/STM32F1xx_HAL_Driver/Src/stm32f1xx_hal_tim.c ****   htim->State= HAL_TIM_STATE_READY;
 9694              		.loc 1 4465 0
 9695 000e FB68     		ldr	r3, [r7, #12]
 9696 0010 0122     		movs	r2, #1
 9697 0012 83F83D20 		strb	r2, [r3, #61]
4466:Drivers/STM32F1xx_HAL_Driver/Src/stm32f1xx_hal_tim.c **** 
4467:Drivers/STM32F1xx_HAL_Driver/Src/stm32f1xx_hal_tim.c ****   HAL_TIM_ErrorCallback(htim);
 9698              		.loc 1 4467 0
 9699 0016 F868     		ldr	r0, [r7, #12]
 9700 0018 FFF7FEFF 		bl	HAL_TIM_ErrorCallback
4468:Drivers/STM32F1xx_HAL_Driver/Src/stm32f1xx_hal_tim.c **** }
 9701              		.loc 1 4468 0
 9702 001c 00BF     		nop
 9703 001e 1037     		adds	r7, r7, #16
 9704              	.LCFI465:
 9705              		.cfi_def_cfa_offset 8
 9706 0020 BD46     		mov	sp, r7
 9707              	.LCFI466:
 9708              		.cfi_def_cfa_register 13
 9709              		@ sp needed
 9710 0022 80BD     		pop	{r7, pc}
 9711              		.cfi_endproc
 9712              	.LFE152:
 9714              		.section	.text.TIM_DMADelayPulseCplt,"ax",%progbits
 9715              		.align	1
 9716              		.global	TIM_DMADelayPulseCplt
 9717              		.syntax unified
 9718              		.thumb
 9719              		.thumb_func
 9720              		.fpu softvfp
 9722              	TIM_DMADelayPulseCplt:
 9723              	.LFB153:
4469:Drivers/STM32F1xx_HAL_Driver/Src/stm32f1xx_hal_tim.c **** 
4470:Drivers/STM32F1xx_HAL_Driver/Src/stm32f1xx_hal_tim.c **** /**
4471:Drivers/STM32F1xx_HAL_Driver/Src/stm32f1xx_hal_tim.c ****   * @brief  TIM DMA Delay Pulse complete callback.
4472:Drivers/STM32F1xx_HAL_Driver/Src/stm32f1xx_hal_tim.c ****   * @param  hdma : pointer to DMA handle.
4473:Drivers/STM32F1xx_HAL_Driver/Src/stm32f1xx_hal_tim.c ****   * @retval None
ARM GAS  /tmp/cc5HGhWi.s 			page 250


4474:Drivers/STM32F1xx_HAL_Driver/Src/stm32f1xx_hal_tim.c ****   */
4475:Drivers/STM32F1xx_HAL_Driver/Src/stm32f1xx_hal_tim.c **** void TIM_DMADelayPulseCplt(DMA_HandleTypeDef *hdma)
4476:Drivers/STM32F1xx_HAL_Driver/Src/stm32f1xx_hal_tim.c **** {
 9724              		.loc 1 4476 0
 9725              		.cfi_startproc
 9726              		@ args = 0, pretend = 0, frame = 16
 9727              		@ frame_needed = 1, uses_anonymous_args = 0
 9728 0000 80B5     		push	{r7, lr}
 9729              	.LCFI467:
 9730              		.cfi_def_cfa_offset 8
 9731              		.cfi_offset 7, -8
 9732              		.cfi_offset 14, -4
 9733 0002 84B0     		sub	sp, sp, #16
 9734              	.LCFI468:
 9735              		.cfi_def_cfa_offset 24
 9736 0004 00AF     		add	r7, sp, #0
 9737              	.LCFI469:
 9738              		.cfi_def_cfa_register 7
 9739 0006 7860     		str	r0, [r7, #4]
4477:Drivers/STM32F1xx_HAL_Driver/Src/stm32f1xx_hal_tim.c ****   TIM_HandleTypeDef* htim = ( TIM_HandleTypeDef* )((DMA_HandleTypeDef* )hdma)->Parent;
 9740              		.loc 1 4477 0
 9741 0008 7B68     		ldr	r3, [r7, #4]
 9742 000a 5B6A     		ldr	r3, [r3, #36]
 9743 000c FB60     		str	r3, [r7, #12]
4478:Drivers/STM32F1xx_HAL_Driver/Src/stm32f1xx_hal_tim.c **** 
4479:Drivers/STM32F1xx_HAL_Driver/Src/stm32f1xx_hal_tim.c ****   htim->State= HAL_TIM_STATE_READY;
 9744              		.loc 1 4479 0
 9745 000e FB68     		ldr	r3, [r7, #12]
 9746 0010 0122     		movs	r2, #1
 9747 0012 83F83D20 		strb	r2, [r3, #61]
4480:Drivers/STM32F1xx_HAL_Driver/Src/stm32f1xx_hal_tim.c **** 
4481:Drivers/STM32F1xx_HAL_Driver/Src/stm32f1xx_hal_tim.c ****   if (hdma == htim->hdma[TIM_DMA_ID_CC1])
 9748              		.loc 1 4481 0
 9749 0016 FB68     		ldr	r3, [r7, #12]
 9750 0018 5B6A     		ldr	r3, [r3, #36]
 9751 001a 7A68     		ldr	r2, [r7, #4]
 9752 001c 9A42     		cmp	r2, r3
 9753 001e 03D1     		bne	.L533
4482:Drivers/STM32F1xx_HAL_Driver/Src/stm32f1xx_hal_tim.c ****   {
4483:Drivers/STM32F1xx_HAL_Driver/Src/stm32f1xx_hal_tim.c ****     htim->Channel = HAL_TIM_ACTIVE_CHANNEL_1;
 9754              		.loc 1 4483 0
 9755 0020 FB68     		ldr	r3, [r7, #12]
 9756 0022 0122     		movs	r2, #1
 9757 0024 1A77     		strb	r2, [r3, #28]
 9758 0026 19E0     		b	.L534
 9759              	.L533:
4484:Drivers/STM32F1xx_HAL_Driver/Src/stm32f1xx_hal_tim.c ****   }
4485:Drivers/STM32F1xx_HAL_Driver/Src/stm32f1xx_hal_tim.c ****   else if (hdma == htim->hdma[TIM_DMA_ID_CC2])
 9760              		.loc 1 4485 0
 9761 0028 FB68     		ldr	r3, [r7, #12]
 9762 002a 9B6A     		ldr	r3, [r3, #40]
 9763 002c 7A68     		ldr	r2, [r7, #4]
 9764 002e 9A42     		cmp	r2, r3
 9765 0030 03D1     		bne	.L535
4486:Drivers/STM32F1xx_HAL_Driver/Src/stm32f1xx_hal_tim.c ****   {
4487:Drivers/STM32F1xx_HAL_Driver/Src/stm32f1xx_hal_tim.c ****     htim->Channel = HAL_TIM_ACTIVE_CHANNEL_2;
 9766              		.loc 1 4487 0
ARM GAS  /tmp/cc5HGhWi.s 			page 251


 9767 0032 FB68     		ldr	r3, [r7, #12]
 9768 0034 0222     		movs	r2, #2
 9769 0036 1A77     		strb	r2, [r3, #28]
 9770 0038 10E0     		b	.L534
 9771              	.L535:
4488:Drivers/STM32F1xx_HAL_Driver/Src/stm32f1xx_hal_tim.c ****   }
4489:Drivers/STM32F1xx_HAL_Driver/Src/stm32f1xx_hal_tim.c ****   else if (hdma == htim->hdma[TIM_DMA_ID_CC3])
 9772              		.loc 1 4489 0
 9773 003a FB68     		ldr	r3, [r7, #12]
 9774 003c DB6A     		ldr	r3, [r3, #44]
 9775 003e 7A68     		ldr	r2, [r7, #4]
 9776 0040 9A42     		cmp	r2, r3
 9777 0042 03D1     		bne	.L536
4490:Drivers/STM32F1xx_HAL_Driver/Src/stm32f1xx_hal_tim.c ****   {
4491:Drivers/STM32F1xx_HAL_Driver/Src/stm32f1xx_hal_tim.c ****     htim->Channel = HAL_TIM_ACTIVE_CHANNEL_3;
 9778              		.loc 1 4491 0
 9779 0044 FB68     		ldr	r3, [r7, #12]
 9780 0046 0422     		movs	r2, #4
 9781 0048 1A77     		strb	r2, [r3, #28]
 9782 004a 07E0     		b	.L534
 9783              	.L536:
4492:Drivers/STM32F1xx_HAL_Driver/Src/stm32f1xx_hal_tim.c ****   }
4493:Drivers/STM32F1xx_HAL_Driver/Src/stm32f1xx_hal_tim.c ****   else if (hdma == htim->hdma[TIM_DMA_ID_CC4])
 9784              		.loc 1 4493 0
 9785 004c FB68     		ldr	r3, [r7, #12]
 9786 004e 1B6B     		ldr	r3, [r3, #48]
 9787 0050 7A68     		ldr	r2, [r7, #4]
 9788 0052 9A42     		cmp	r2, r3
 9789 0054 02D1     		bne	.L534
4494:Drivers/STM32F1xx_HAL_Driver/Src/stm32f1xx_hal_tim.c ****   {
4495:Drivers/STM32F1xx_HAL_Driver/Src/stm32f1xx_hal_tim.c ****     htim->Channel = HAL_TIM_ACTIVE_CHANNEL_4;
 9790              		.loc 1 4495 0
 9791 0056 FB68     		ldr	r3, [r7, #12]
 9792 0058 0822     		movs	r2, #8
 9793 005a 1A77     		strb	r2, [r3, #28]
 9794              	.L534:
4496:Drivers/STM32F1xx_HAL_Driver/Src/stm32f1xx_hal_tim.c ****   }
4497:Drivers/STM32F1xx_HAL_Driver/Src/stm32f1xx_hal_tim.c **** 
4498:Drivers/STM32F1xx_HAL_Driver/Src/stm32f1xx_hal_tim.c ****   HAL_TIM_PWM_PulseFinishedCallback(htim);
 9795              		.loc 1 4498 0
 9796 005c F868     		ldr	r0, [r7, #12]
 9797 005e FFF7FEFF 		bl	HAL_TIM_PWM_PulseFinishedCallback
4499:Drivers/STM32F1xx_HAL_Driver/Src/stm32f1xx_hal_tim.c **** 
4500:Drivers/STM32F1xx_HAL_Driver/Src/stm32f1xx_hal_tim.c ****   htim->Channel = HAL_TIM_ACTIVE_CHANNEL_CLEARED;
 9798              		.loc 1 4500 0
 9799 0062 FB68     		ldr	r3, [r7, #12]
 9800 0064 0022     		movs	r2, #0
 9801 0066 1A77     		strb	r2, [r3, #28]
4501:Drivers/STM32F1xx_HAL_Driver/Src/stm32f1xx_hal_tim.c **** }
 9802              		.loc 1 4501 0
 9803 0068 00BF     		nop
 9804 006a 1037     		adds	r7, r7, #16
 9805              	.LCFI470:
 9806              		.cfi_def_cfa_offset 8
 9807 006c BD46     		mov	sp, r7
 9808              	.LCFI471:
 9809              		.cfi_def_cfa_register 13
ARM GAS  /tmp/cc5HGhWi.s 			page 252


 9810              		@ sp needed
 9811 006e 80BD     		pop	{r7, pc}
 9812              		.cfi_endproc
 9813              	.LFE153:
 9815              		.section	.text.TIM_DMACaptureCplt,"ax",%progbits
 9816              		.align	1
 9817              		.global	TIM_DMACaptureCplt
 9818              		.syntax unified
 9819              		.thumb
 9820              		.thumb_func
 9821              		.fpu softvfp
 9823              	TIM_DMACaptureCplt:
 9824              	.LFB154:
4502:Drivers/STM32F1xx_HAL_Driver/Src/stm32f1xx_hal_tim.c **** /**
4503:Drivers/STM32F1xx_HAL_Driver/Src/stm32f1xx_hal_tim.c ****   * @brief  TIM DMA Capture complete callback.
4504:Drivers/STM32F1xx_HAL_Driver/Src/stm32f1xx_hal_tim.c ****   * @param  hdma : pointer to DMA handle.
4505:Drivers/STM32F1xx_HAL_Driver/Src/stm32f1xx_hal_tim.c ****   * @retval None
4506:Drivers/STM32F1xx_HAL_Driver/Src/stm32f1xx_hal_tim.c ****   */
4507:Drivers/STM32F1xx_HAL_Driver/Src/stm32f1xx_hal_tim.c **** void TIM_DMACaptureCplt(DMA_HandleTypeDef *hdma)
4508:Drivers/STM32F1xx_HAL_Driver/Src/stm32f1xx_hal_tim.c **** {
 9825              		.loc 1 4508 0
 9826              		.cfi_startproc
 9827              		@ args = 0, pretend = 0, frame = 16
 9828              		@ frame_needed = 1, uses_anonymous_args = 0
 9829 0000 80B5     		push	{r7, lr}
 9830              	.LCFI472:
 9831              		.cfi_def_cfa_offset 8
 9832              		.cfi_offset 7, -8
 9833              		.cfi_offset 14, -4
 9834 0002 84B0     		sub	sp, sp, #16
 9835              	.LCFI473:
 9836              		.cfi_def_cfa_offset 24
 9837 0004 00AF     		add	r7, sp, #0
 9838              	.LCFI474:
 9839              		.cfi_def_cfa_register 7
 9840 0006 7860     		str	r0, [r7, #4]
4509:Drivers/STM32F1xx_HAL_Driver/Src/stm32f1xx_hal_tim.c ****   TIM_HandleTypeDef* htim = ( TIM_HandleTypeDef* )((DMA_HandleTypeDef* )hdma)->Parent;
 9841              		.loc 1 4509 0
 9842 0008 7B68     		ldr	r3, [r7, #4]
 9843 000a 5B6A     		ldr	r3, [r3, #36]
 9844 000c FB60     		str	r3, [r7, #12]
4510:Drivers/STM32F1xx_HAL_Driver/Src/stm32f1xx_hal_tim.c **** 
4511:Drivers/STM32F1xx_HAL_Driver/Src/stm32f1xx_hal_tim.c ****   htim->State= HAL_TIM_STATE_READY;
 9845              		.loc 1 4511 0
 9846 000e FB68     		ldr	r3, [r7, #12]
 9847 0010 0122     		movs	r2, #1
 9848 0012 83F83D20 		strb	r2, [r3, #61]
4512:Drivers/STM32F1xx_HAL_Driver/Src/stm32f1xx_hal_tim.c **** 
4513:Drivers/STM32F1xx_HAL_Driver/Src/stm32f1xx_hal_tim.c ****   if (hdma == htim->hdma[TIM_DMA_ID_CC1])
 9849              		.loc 1 4513 0
 9850 0016 FB68     		ldr	r3, [r7, #12]
 9851 0018 5B6A     		ldr	r3, [r3, #36]
 9852 001a 7A68     		ldr	r2, [r7, #4]
 9853 001c 9A42     		cmp	r2, r3
 9854 001e 03D1     		bne	.L538
4514:Drivers/STM32F1xx_HAL_Driver/Src/stm32f1xx_hal_tim.c ****   {
4515:Drivers/STM32F1xx_HAL_Driver/Src/stm32f1xx_hal_tim.c ****     htim->Channel = HAL_TIM_ACTIVE_CHANNEL_1;
ARM GAS  /tmp/cc5HGhWi.s 			page 253


 9855              		.loc 1 4515 0
 9856 0020 FB68     		ldr	r3, [r7, #12]
 9857 0022 0122     		movs	r2, #1
 9858 0024 1A77     		strb	r2, [r3, #28]
 9859 0026 19E0     		b	.L539
 9860              	.L538:
4516:Drivers/STM32F1xx_HAL_Driver/Src/stm32f1xx_hal_tim.c ****   }
4517:Drivers/STM32F1xx_HAL_Driver/Src/stm32f1xx_hal_tim.c ****   else if (hdma == htim->hdma[TIM_DMA_ID_CC2])
 9861              		.loc 1 4517 0
 9862 0028 FB68     		ldr	r3, [r7, #12]
 9863 002a 9B6A     		ldr	r3, [r3, #40]
 9864 002c 7A68     		ldr	r2, [r7, #4]
 9865 002e 9A42     		cmp	r2, r3
 9866 0030 03D1     		bne	.L540
4518:Drivers/STM32F1xx_HAL_Driver/Src/stm32f1xx_hal_tim.c ****   {
4519:Drivers/STM32F1xx_HAL_Driver/Src/stm32f1xx_hal_tim.c ****     htim->Channel = HAL_TIM_ACTIVE_CHANNEL_2;
 9867              		.loc 1 4519 0
 9868 0032 FB68     		ldr	r3, [r7, #12]
 9869 0034 0222     		movs	r2, #2
 9870 0036 1A77     		strb	r2, [r3, #28]
 9871 0038 10E0     		b	.L539
 9872              	.L540:
4520:Drivers/STM32F1xx_HAL_Driver/Src/stm32f1xx_hal_tim.c ****   }
4521:Drivers/STM32F1xx_HAL_Driver/Src/stm32f1xx_hal_tim.c ****   else if (hdma == htim->hdma[TIM_DMA_ID_CC3])
 9873              		.loc 1 4521 0
 9874 003a FB68     		ldr	r3, [r7, #12]
 9875 003c DB6A     		ldr	r3, [r3, #44]
 9876 003e 7A68     		ldr	r2, [r7, #4]
 9877 0040 9A42     		cmp	r2, r3
 9878 0042 03D1     		bne	.L541
4522:Drivers/STM32F1xx_HAL_Driver/Src/stm32f1xx_hal_tim.c ****   {
4523:Drivers/STM32F1xx_HAL_Driver/Src/stm32f1xx_hal_tim.c ****     htim->Channel = HAL_TIM_ACTIVE_CHANNEL_3;
 9879              		.loc 1 4523 0
 9880 0044 FB68     		ldr	r3, [r7, #12]
 9881 0046 0422     		movs	r2, #4
 9882 0048 1A77     		strb	r2, [r3, #28]
 9883 004a 07E0     		b	.L539
 9884              	.L541:
4524:Drivers/STM32F1xx_HAL_Driver/Src/stm32f1xx_hal_tim.c ****   }
4525:Drivers/STM32F1xx_HAL_Driver/Src/stm32f1xx_hal_tim.c ****   else if (hdma == htim->hdma[TIM_DMA_ID_CC4])
 9885              		.loc 1 4525 0
 9886 004c FB68     		ldr	r3, [r7, #12]
 9887 004e 1B6B     		ldr	r3, [r3, #48]
 9888 0050 7A68     		ldr	r2, [r7, #4]
 9889 0052 9A42     		cmp	r2, r3
 9890 0054 02D1     		bne	.L539
4526:Drivers/STM32F1xx_HAL_Driver/Src/stm32f1xx_hal_tim.c ****   {
4527:Drivers/STM32F1xx_HAL_Driver/Src/stm32f1xx_hal_tim.c ****     htim->Channel = HAL_TIM_ACTIVE_CHANNEL_4;
 9891              		.loc 1 4527 0
 9892 0056 FB68     		ldr	r3, [r7, #12]
 9893 0058 0822     		movs	r2, #8
 9894 005a 1A77     		strb	r2, [r3, #28]
 9895              	.L539:
4528:Drivers/STM32F1xx_HAL_Driver/Src/stm32f1xx_hal_tim.c ****   }
4529:Drivers/STM32F1xx_HAL_Driver/Src/stm32f1xx_hal_tim.c **** 
4530:Drivers/STM32F1xx_HAL_Driver/Src/stm32f1xx_hal_tim.c ****   HAL_TIM_IC_CaptureCallback(htim);
 9896              		.loc 1 4530 0
ARM GAS  /tmp/cc5HGhWi.s 			page 254


 9897 005c F868     		ldr	r0, [r7, #12]
 9898 005e FFF7FEFF 		bl	HAL_TIM_IC_CaptureCallback
4531:Drivers/STM32F1xx_HAL_Driver/Src/stm32f1xx_hal_tim.c **** 
4532:Drivers/STM32F1xx_HAL_Driver/Src/stm32f1xx_hal_tim.c ****   htim->Channel = HAL_TIM_ACTIVE_CHANNEL_CLEARED;
 9899              		.loc 1 4532 0
 9900 0062 FB68     		ldr	r3, [r7, #12]
 9901 0064 0022     		movs	r2, #0
 9902 0066 1A77     		strb	r2, [r3, #28]
4533:Drivers/STM32F1xx_HAL_Driver/Src/stm32f1xx_hal_tim.c **** }
 9903              		.loc 1 4533 0
 9904 0068 00BF     		nop
 9905 006a 1037     		adds	r7, r7, #16
 9906              	.LCFI475:
 9907              		.cfi_def_cfa_offset 8
 9908 006c BD46     		mov	sp, r7
 9909              	.LCFI476:
 9910              		.cfi_def_cfa_register 13
 9911              		@ sp needed
 9912 006e 80BD     		pop	{r7, pc}
 9913              		.cfi_endproc
 9914              	.LFE154:
 9916              		.section	.text.TIM_DMAPeriodElapsedCplt,"ax",%progbits
 9917              		.align	1
 9918              		.syntax unified
 9919              		.thumb
 9920              		.thumb_func
 9921              		.fpu softvfp
 9923              	TIM_DMAPeriodElapsedCplt:
 9924              	.LFB155:
4534:Drivers/STM32F1xx_HAL_Driver/Src/stm32f1xx_hal_tim.c **** 
4535:Drivers/STM32F1xx_HAL_Driver/Src/stm32f1xx_hal_tim.c **** /**
4536:Drivers/STM32F1xx_HAL_Driver/Src/stm32f1xx_hal_tim.c ****   * @brief  TIM DMA Period Elapse complete callback.
4537:Drivers/STM32F1xx_HAL_Driver/Src/stm32f1xx_hal_tim.c ****   * @param  hdma : pointer to DMA handle.
4538:Drivers/STM32F1xx_HAL_Driver/Src/stm32f1xx_hal_tim.c ****   * @retval None
4539:Drivers/STM32F1xx_HAL_Driver/Src/stm32f1xx_hal_tim.c ****   */
4540:Drivers/STM32F1xx_HAL_Driver/Src/stm32f1xx_hal_tim.c **** static void TIM_DMAPeriodElapsedCplt(DMA_HandleTypeDef *hdma)
4541:Drivers/STM32F1xx_HAL_Driver/Src/stm32f1xx_hal_tim.c **** {
 9925              		.loc 1 4541 0
 9926              		.cfi_startproc
 9927              		@ args = 0, pretend = 0, frame = 16
 9928              		@ frame_needed = 1, uses_anonymous_args = 0
 9929 0000 80B5     		push	{r7, lr}
 9930              	.LCFI477:
 9931              		.cfi_def_cfa_offset 8
 9932              		.cfi_offset 7, -8
 9933              		.cfi_offset 14, -4
 9934 0002 84B0     		sub	sp, sp, #16
 9935              	.LCFI478:
 9936              		.cfi_def_cfa_offset 24
 9937 0004 00AF     		add	r7, sp, #0
 9938              	.LCFI479:
 9939              		.cfi_def_cfa_register 7
 9940 0006 7860     		str	r0, [r7, #4]
4542:Drivers/STM32F1xx_HAL_Driver/Src/stm32f1xx_hal_tim.c ****   TIM_HandleTypeDef* htim = ( TIM_HandleTypeDef* )((DMA_HandleTypeDef* )hdma)->Parent;
 9941              		.loc 1 4542 0
 9942 0008 7B68     		ldr	r3, [r7, #4]
 9943 000a 5B6A     		ldr	r3, [r3, #36]
ARM GAS  /tmp/cc5HGhWi.s 			page 255


 9944 000c FB60     		str	r3, [r7, #12]
4543:Drivers/STM32F1xx_HAL_Driver/Src/stm32f1xx_hal_tim.c **** 
4544:Drivers/STM32F1xx_HAL_Driver/Src/stm32f1xx_hal_tim.c ****   htim->State= HAL_TIM_STATE_READY;
 9945              		.loc 1 4544 0
 9946 000e FB68     		ldr	r3, [r7, #12]
 9947 0010 0122     		movs	r2, #1
 9948 0012 83F83D20 		strb	r2, [r3, #61]
4545:Drivers/STM32F1xx_HAL_Driver/Src/stm32f1xx_hal_tim.c **** 
4546:Drivers/STM32F1xx_HAL_Driver/Src/stm32f1xx_hal_tim.c ****   HAL_TIM_PeriodElapsedCallback(htim);
 9949              		.loc 1 4546 0
 9950 0016 F868     		ldr	r0, [r7, #12]
 9951 0018 FFF7FEFF 		bl	HAL_TIM_PeriodElapsedCallback
4547:Drivers/STM32F1xx_HAL_Driver/Src/stm32f1xx_hal_tim.c **** }
 9952              		.loc 1 4547 0
 9953 001c 00BF     		nop
 9954 001e 1037     		adds	r7, r7, #16
 9955              	.LCFI480:
 9956              		.cfi_def_cfa_offset 8
 9957 0020 BD46     		mov	sp, r7
 9958              	.LCFI481:
 9959              		.cfi_def_cfa_register 13
 9960              		@ sp needed
 9961 0022 80BD     		pop	{r7, pc}
 9962              		.cfi_endproc
 9963              	.LFE155:
 9965              		.section	.text.TIM_DMATriggerCplt,"ax",%progbits
 9966              		.align	1
 9967              		.syntax unified
 9968              		.thumb
 9969              		.thumb_func
 9970              		.fpu softvfp
 9972              	TIM_DMATriggerCplt:
 9973              	.LFB156:
4548:Drivers/STM32F1xx_HAL_Driver/Src/stm32f1xx_hal_tim.c **** 
4549:Drivers/STM32F1xx_HAL_Driver/Src/stm32f1xx_hal_tim.c **** /**
4550:Drivers/STM32F1xx_HAL_Driver/Src/stm32f1xx_hal_tim.c ****   * @brief  TIM DMA Trigger callback.
4551:Drivers/STM32F1xx_HAL_Driver/Src/stm32f1xx_hal_tim.c ****   * @param  hdma : pointer to DMA handle.
4552:Drivers/STM32F1xx_HAL_Driver/Src/stm32f1xx_hal_tim.c ****   * @retval None
4553:Drivers/STM32F1xx_HAL_Driver/Src/stm32f1xx_hal_tim.c ****   */
4554:Drivers/STM32F1xx_HAL_Driver/Src/stm32f1xx_hal_tim.c **** static void TIM_DMATriggerCplt(DMA_HandleTypeDef *hdma)
4555:Drivers/STM32F1xx_HAL_Driver/Src/stm32f1xx_hal_tim.c **** {
 9974              		.loc 1 4555 0
 9975              		.cfi_startproc
 9976              		@ args = 0, pretend = 0, frame = 16
 9977              		@ frame_needed = 1, uses_anonymous_args = 0
 9978 0000 80B5     		push	{r7, lr}
 9979              	.LCFI482:
 9980              		.cfi_def_cfa_offset 8
 9981              		.cfi_offset 7, -8
 9982              		.cfi_offset 14, -4
 9983 0002 84B0     		sub	sp, sp, #16
 9984              	.LCFI483:
 9985              		.cfi_def_cfa_offset 24
 9986 0004 00AF     		add	r7, sp, #0
 9987              	.LCFI484:
 9988              		.cfi_def_cfa_register 7
 9989 0006 7860     		str	r0, [r7, #4]
ARM GAS  /tmp/cc5HGhWi.s 			page 256


4556:Drivers/STM32F1xx_HAL_Driver/Src/stm32f1xx_hal_tim.c ****   TIM_HandleTypeDef* htim = ( TIM_HandleTypeDef* )((DMA_HandleTypeDef* )hdma)->Parent;
 9990              		.loc 1 4556 0
 9991 0008 7B68     		ldr	r3, [r7, #4]
 9992 000a 5B6A     		ldr	r3, [r3, #36]
 9993 000c FB60     		str	r3, [r7, #12]
4557:Drivers/STM32F1xx_HAL_Driver/Src/stm32f1xx_hal_tim.c **** 
4558:Drivers/STM32F1xx_HAL_Driver/Src/stm32f1xx_hal_tim.c ****   htim->State= HAL_TIM_STATE_READY;
 9994              		.loc 1 4558 0
 9995 000e FB68     		ldr	r3, [r7, #12]
 9996 0010 0122     		movs	r2, #1
 9997 0012 83F83D20 		strb	r2, [r3, #61]
4559:Drivers/STM32F1xx_HAL_Driver/Src/stm32f1xx_hal_tim.c **** 
4560:Drivers/STM32F1xx_HAL_Driver/Src/stm32f1xx_hal_tim.c ****   HAL_TIM_TriggerCallback(htim);
 9998              		.loc 1 4560 0
 9999 0016 F868     		ldr	r0, [r7, #12]
 10000 0018 FFF7FEFF 		bl	HAL_TIM_TriggerCallback
4561:Drivers/STM32F1xx_HAL_Driver/Src/stm32f1xx_hal_tim.c **** }
 10001              		.loc 1 4561 0
 10002 001c 00BF     		nop
 10003 001e 1037     		adds	r7, r7, #16
 10004              	.LCFI485:
 10005              		.cfi_def_cfa_offset 8
 10006 0020 BD46     		mov	sp, r7
 10007              	.LCFI486:
 10008              		.cfi_def_cfa_register 13
 10009              		@ sp needed
 10010 0022 80BD     		pop	{r7, pc}
 10011              		.cfi_endproc
 10012              	.LFE156:
 10014              		.section	.text.TIM_Base_SetConfig,"ax",%progbits
 10015              		.align	1
 10016              		.global	TIM_Base_SetConfig
 10017              		.syntax unified
 10018              		.thumb
 10019              		.thumb_func
 10020              		.fpu softvfp
 10022              	TIM_Base_SetConfig:
 10023              	.LFB157:
4562:Drivers/STM32F1xx_HAL_Driver/Src/stm32f1xx_hal_tim.c **** 
4563:Drivers/STM32F1xx_HAL_Driver/Src/stm32f1xx_hal_tim.c **** /**
4564:Drivers/STM32F1xx_HAL_Driver/Src/stm32f1xx_hal_tim.c ****   * @brief  Time Base configuration
4565:Drivers/STM32F1xx_HAL_Driver/Src/stm32f1xx_hal_tim.c ****   * @param  TIMx : TIM periheral
4566:Drivers/STM32F1xx_HAL_Driver/Src/stm32f1xx_hal_tim.c ****   * @param  Structure : TIM Base configuration structure
4567:Drivers/STM32F1xx_HAL_Driver/Src/stm32f1xx_hal_tim.c ****   * @retval None
4568:Drivers/STM32F1xx_HAL_Driver/Src/stm32f1xx_hal_tim.c ****   */
4569:Drivers/STM32F1xx_HAL_Driver/Src/stm32f1xx_hal_tim.c **** void TIM_Base_SetConfig(TIM_TypeDef *TIMx, TIM_Base_InitTypeDef *Structure)
4570:Drivers/STM32F1xx_HAL_Driver/Src/stm32f1xx_hal_tim.c **** {
 10024              		.loc 1 4570 0
 10025              		.cfi_startproc
 10026              		@ args = 0, pretend = 0, frame = 16
 10027              		@ frame_needed = 1, uses_anonymous_args = 0
 10028              		@ link register save eliminated.
 10029 0000 80B4     		push	{r7}
 10030              	.LCFI487:
 10031              		.cfi_def_cfa_offset 4
 10032              		.cfi_offset 7, -4
 10033 0002 85B0     		sub	sp, sp, #20
ARM GAS  /tmp/cc5HGhWi.s 			page 257


 10034              	.LCFI488:
 10035              		.cfi_def_cfa_offset 24
 10036 0004 00AF     		add	r7, sp, #0
 10037              	.LCFI489:
 10038              		.cfi_def_cfa_register 7
 10039 0006 7860     		str	r0, [r7, #4]
 10040 0008 3960     		str	r1, [r7]
4571:Drivers/STM32F1xx_HAL_Driver/Src/stm32f1xx_hal_tim.c ****   uint32_t tmpcr1 = 0U;
 10041              		.loc 1 4571 0
 10042 000a 0023     		movs	r3, #0
 10043 000c FB60     		str	r3, [r7, #12]
4572:Drivers/STM32F1xx_HAL_Driver/Src/stm32f1xx_hal_tim.c ****   tmpcr1 = TIMx->CR1;
 10044              		.loc 1 4572 0
 10045 000e 7B68     		ldr	r3, [r7, #4]
 10046 0010 1B68     		ldr	r3, [r3]
 10047 0012 FB60     		str	r3, [r7, #12]
4573:Drivers/STM32F1xx_HAL_Driver/Src/stm32f1xx_hal_tim.c **** 
4574:Drivers/STM32F1xx_HAL_Driver/Src/stm32f1xx_hal_tim.c ****   /* Set TIM Time Base Unit parameters ---------------------------------------*/
4575:Drivers/STM32F1xx_HAL_Driver/Src/stm32f1xx_hal_tim.c ****   if (IS_TIM_COUNTER_MODE_SELECT_INSTANCE(TIMx))
 10048              		.loc 1 4575 0
 10049 0014 7B68     		ldr	r3, [r7, #4]
 10050 0016 2A4A     		ldr	r2, .L550
 10051 0018 9342     		cmp	r3, r2
 10052 001a 0BD0     		beq	.L545
 10053              		.loc 1 4575 0 is_stmt 0 discriminator 1
 10054 001c 7B68     		ldr	r3, [r7, #4]
 10055 001e B3F1804F 		cmp	r3, #1073741824
 10056 0022 07D0     		beq	.L545
 10057              		.loc 1 4575 0 discriminator 2
 10058 0024 7B68     		ldr	r3, [r7, #4]
 10059 0026 274A     		ldr	r2, .L550+4
 10060 0028 9342     		cmp	r3, r2
 10061 002a 03D0     		beq	.L545
 10062              		.loc 1 4575 0 discriminator 3
 10063 002c 7B68     		ldr	r3, [r7, #4]
 10064 002e 264A     		ldr	r2, .L550+8
 10065 0030 9342     		cmp	r3, r2
 10066 0032 08D1     		bne	.L546
 10067              	.L545:
4576:Drivers/STM32F1xx_HAL_Driver/Src/stm32f1xx_hal_tim.c ****   {
4577:Drivers/STM32F1xx_HAL_Driver/Src/stm32f1xx_hal_tim.c ****     /* Select the Counter Mode */
4578:Drivers/STM32F1xx_HAL_Driver/Src/stm32f1xx_hal_tim.c ****     tmpcr1 &= ~(TIM_CR1_DIR | TIM_CR1_CMS);
 10068              		.loc 1 4578 0 is_stmt 1
 10069 0034 FB68     		ldr	r3, [r7, #12]
 10070 0036 23F07003 		bic	r3, r3, #112
 10071 003a FB60     		str	r3, [r7, #12]
4579:Drivers/STM32F1xx_HAL_Driver/Src/stm32f1xx_hal_tim.c ****     tmpcr1 |= Structure->CounterMode;
 10072              		.loc 1 4579 0
 10073 003c 3B68     		ldr	r3, [r7]
 10074 003e 5B68     		ldr	r3, [r3, #4]
 10075 0040 FA68     		ldr	r2, [r7, #12]
 10076 0042 1343     		orrs	r3, r3, r2
 10077 0044 FB60     		str	r3, [r7, #12]
 10078              	.L546:
4580:Drivers/STM32F1xx_HAL_Driver/Src/stm32f1xx_hal_tim.c ****   }
4581:Drivers/STM32F1xx_HAL_Driver/Src/stm32f1xx_hal_tim.c **** 
4582:Drivers/STM32F1xx_HAL_Driver/Src/stm32f1xx_hal_tim.c ****   if(IS_TIM_CLOCK_DIVISION_INSTANCE(TIMx))
ARM GAS  /tmp/cc5HGhWi.s 			page 258


 10079              		.loc 1 4582 0
 10080 0046 7B68     		ldr	r3, [r7, #4]
 10081 0048 1D4A     		ldr	r2, .L550
 10082 004a 9342     		cmp	r3, r2
 10083 004c 0BD0     		beq	.L547
 10084              		.loc 1 4582 0 is_stmt 0 discriminator 1
 10085 004e 7B68     		ldr	r3, [r7, #4]
 10086 0050 B3F1804F 		cmp	r3, #1073741824
 10087 0054 07D0     		beq	.L547
 10088              		.loc 1 4582 0 discriminator 2
 10089 0056 7B68     		ldr	r3, [r7, #4]
 10090 0058 1A4A     		ldr	r2, .L550+4
 10091 005a 9342     		cmp	r3, r2
 10092 005c 03D0     		beq	.L547
 10093              		.loc 1 4582 0 discriminator 3
 10094 005e 7B68     		ldr	r3, [r7, #4]
 10095 0060 194A     		ldr	r2, .L550+8
 10096 0062 9342     		cmp	r3, r2
 10097 0064 08D1     		bne	.L548
 10098              	.L547:
4583:Drivers/STM32F1xx_HAL_Driver/Src/stm32f1xx_hal_tim.c ****   {
4584:Drivers/STM32F1xx_HAL_Driver/Src/stm32f1xx_hal_tim.c ****     /* Set the clock division */
4585:Drivers/STM32F1xx_HAL_Driver/Src/stm32f1xx_hal_tim.c ****     tmpcr1 &= ~TIM_CR1_CKD;
 10099              		.loc 1 4585 0 is_stmt 1
 10100 0066 FB68     		ldr	r3, [r7, #12]
 10101 0068 23F44073 		bic	r3, r3, #768
 10102 006c FB60     		str	r3, [r7, #12]
4586:Drivers/STM32F1xx_HAL_Driver/Src/stm32f1xx_hal_tim.c ****     tmpcr1 |= (uint32_t)Structure->ClockDivision;
 10103              		.loc 1 4586 0
 10104 006e 3B68     		ldr	r3, [r7]
 10105 0070 DB68     		ldr	r3, [r3, #12]
 10106 0072 FA68     		ldr	r2, [r7, #12]
 10107 0074 1343     		orrs	r3, r3, r2
 10108 0076 FB60     		str	r3, [r7, #12]
 10109              	.L548:
4587:Drivers/STM32F1xx_HAL_Driver/Src/stm32f1xx_hal_tim.c ****   }
4588:Drivers/STM32F1xx_HAL_Driver/Src/stm32f1xx_hal_tim.c **** 
4589:Drivers/STM32F1xx_HAL_Driver/Src/stm32f1xx_hal_tim.c ****   /* Set the auto-reload preload */
4590:Drivers/STM32F1xx_HAL_Driver/Src/stm32f1xx_hal_tim.c ****   tmpcr1 &= ~TIM_CR1_ARPE;
 10110              		.loc 1 4590 0
 10111 0078 FB68     		ldr	r3, [r7, #12]
 10112 007a 23F08003 		bic	r3, r3, #128
 10113 007e FB60     		str	r3, [r7, #12]
4591:Drivers/STM32F1xx_HAL_Driver/Src/stm32f1xx_hal_tim.c ****   tmpcr1 |= (uint32_t)Structure->AutoReloadPreload;
 10114              		.loc 1 4591 0
 10115 0080 3B68     		ldr	r3, [r7]
 10116 0082 5B69     		ldr	r3, [r3, #20]
 10117 0084 FA68     		ldr	r2, [r7, #12]
 10118 0086 1343     		orrs	r3, r3, r2
 10119 0088 FB60     		str	r3, [r7, #12]
4592:Drivers/STM32F1xx_HAL_Driver/Src/stm32f1xx_hal_tim.c **** 
4593:Drivers/STM32F1xx_HAL_Driver/Src/stm32f1xx_hal_tim.c ****   TIMx->CR1 = tmpcr1;
 10120              		.loc 1 4593 0
 10121 008a 7B68     		ldr	r3, [r7, #4]
 10122 008c FA68     		ldr	r2, [r7, #12]
 10123 008e 1A60     		str	r2, [r3]
4594:Drivers/STM32F1xx_HAL_Driver/Src/stm32f1xx_hal_tim.c **** 
ARM GAS  /tmp/cc5HGhWi.s 			page 259


4595:Drivers/STM32F1xx_HAL_Driver/Src/stm32f1xx_hal_tim.c ****   /* Set the Autoreload value */
4596:Drivers/STM32F1xx_HAL_Driver/Src/stm32f1xx_hal_tim.c ****   TIMx->ARR = (uint32_t)Structure->Period ;
 10124              		.loc 1 4596 0
 10125 0090 3B68     		ldr	r3, [r7]
 10126 0092 9A68     		ldr	r2, [r3, #8]
 10127 0094 7B68     		ldr	r3, [r7, #4]
 10128 0096 DA62     		str	r2, [r3, #44]
4597:Drivers/STM32F1xx_HAL_Driver/Src/stm32f1xx_hal_tim.c **** 
4598:Drivers/STM32F1xx_HAL_Driver/Src/stm32f1xx_hal_tim.c ****   /* Set the Prescaler value */
4599:Drivers/STM32F1xx_HAL_Driver/Src/stm32f1xx_hal_tim.c ****   TIMx->PSC = (uint32_t)Structure->Prescaler;
 10129              		.loc 1 4599 0
 10130 0098 3B68     		ldr	r3, [r7]
 10131 009a 1A68     		ldr	r2, [r3]
 10132 009c 7B68     		ldr	r3, [r7, #4]
 10133 009e 9A62     		str	r2, [r3, #40]
4600:Drivers/STM32F1xx_HAL_Driver/Src/stm32f1xx_hal_tim.c **** 
4601:Drivers/STM32F1xx_HAL_Driver/Src/stm32f1xx_hal_tim.c ****   if (IS_TIM_REPETITION_COUNTER_INSTANCE(TIMx))
 10134              		.loc 1 4601 0
 10135 00a0 7B68     		ldr	r3, [r7, #4]
 10136 00a2 074A     		ldr	r2, .L550
 10137 00a4 9342     		cmp	r3, r2
 10138 00a6 03D1     		bne	.L549
4602:Drivers/STM32F1xx_HAL_Driver/Src/stm32f1xx_hal_tim.c ****   {
4603:Drivers/STM32F1xx_HAL_Driver/Src/stm32f1xx_hal_tim.c ****     /* Set the Repetition Counter value */
4604:Drivers/STM32F1xx_HAL_Driver/Src/stm32f1xx_hal_tim.c ****     TIMx->RCR = Structure->RepetitionCounter;
 10139              		.loc 1 4604 0
 10140 00a8 3B68     		ldr	r3, [r7]
 10141 00aa 1A69     		ldr	r2, [r3, #16]
 10142 00ac 7B68     		ldr	r3, [r7, #4]
 10143 00ae 1A63     		str	r2, [r3, #48]
 10144              	.L549:
4605:Drivers/STM32F1xx_HAL_Driver/Src/stm32f1xx_hal_tim.c ****   }
4606:Drivers/STM32F1xx_HAL_Driver/Src/stm32f1xx_hal_tim.c **** 
4607:Drivers/STM32F1xx_HAL_Driver/Src/stm32f1xx_hal_tim.c ****   /* Generate an update event to reload the Prescaler 
4608:Drivers/STM32F1xx_HAL_Driver/Src/stm32f1xx_hal_tim.c ****      and the repetition counter(only for TIM1 and TIM8) value immediatly */
4609:Drivers/STM32F1xx_HAL_Driver/Src/stm32f1xx_hal_tim.c ****   TIMx->EGR = TIM_EGR_UG;
 10145              		.loc 1 4609 0
 10146 00b0 7B68     		ldr	r3, [r7, #4]
 10147 00b2 0122     		movs	r2, #1
 10148 00b4 5A61     		str	r2, [r3, #20]
4610:Drivers/STM32F1xx_HAL_Driver/Src/stm32f1xx_hal_tim.c **** }
 10149              		.loc 1 4610 0
 10150 00b6 00BF     		nop
 10151 00b8 1437     		adds	r7, r7, #20
 10152              	.LCFI490:
 10153              		.cfi_def_cfa_offset 4
 10154 00ba BD46     		mov	sp, r7
 10155              	.LCFI491:
 10156              		.cfi_def_cfa_register 13
 10157              		@ sp needed
 10158 00bc 80BC     		pop	{r7}
 10159              	.LCFI492:
 10160              		.cfi_restore 7
 10161              		.cfi_def_cfa_offset 0
 10162 00be 7047     		bx	lr
 10163              	.L551:
 10164              		.align	2
ARM GAS  /tmp/cc5HGhWi.s 			page 260


 10165              	.L550:
 10166 00c0 002C0140 		.word	1073818624
 10167 00c4 00040040 		.word	1073742848
 10168 00c8 00080040 		.word	1073743872
 10169              		.cfi_endproc
 10170              	.LFE157:
 10172              		.section	.text.TIM_OC1_SetConfig,"ax",%progbits
 10173              		.align	1
 10174              		.syntax unified
 10175              		.thumb
 10176              		.thumb_func
 10177              		.fpu softvfp
 10179              	TIM_OC1_SetConfig:
 10180              	.LFB158:
4611:Drivers/STM32F1xx_HAL_Driver/Src/stm32f1xx_hal_tim.c **** 
4612:Drivers/STM32F1xx_HAL_Driver/Src/stm32f1xx_hal_tim.c **** /**
4613:Drivers/STM32F1xx_HAL_Driver/Src/stm32f1xx_hal_tim.c ****   * @brief  Time Ouput Compare 1 configuration
4614:Drivers/STM32F1xx_HAL_Driver/Src/stm32f1xx_hal_tim.c ****   * @param  TIMx to select the TIM peripheral
4615:Drivers/STM32F1xx_HAL_Driver/Src/stm32f1xx_hal_tim.c ****   * @param  OC_Config : The ouput configuration structure
4616:Drivers/STM32F1xx_HAL_Driver/Src/stm32f1xx_hal_tim.c ****   * @retval None
4617:Drivers/STM32F1xx_HAL_Driver/Src/stm32f1xx_hal_tim.c ****   */
4618:Drivers/STM32F1xx_HAL_Driver/Src/stm32f1xx_hal_tim.c **** static void TIM_OC1_SetConfig(TIM_TypeDef *TIMx, TIM_OC_InitTypeDef *OC_Config)
4619:Drivers/STM32F1xx_HAL_Driver/Src/stm32f1xx_hal_tim.c **** {
 10181              		.loc 1 4619 0
 10182              		.cfi_startproc
 10183              		@ args = 0, pretend = 0, frame = 24
 10184              		@ frame_needed = 1, uses_anonymous_args = 0
 10185              		@ link register save eliminated.
 10186 0000 80B4     		push	{r7}
 10187              	.LCFI493:
 10188              		.cfi_def_cfa_offset 4
 10189              		.cfi_offset 7, -4
 10190 0002 87B0     		sub	sp, sp, #28
 10191              	.LCFI494:
 10192              		.cfi_def_cfa_offset 32
 10193 0004 00AF     		add	r7, sp, #0
 10194              	.LCFI495:
 10195              		.cfi_def_cfa_register 7
 10196 0006 7860     		str	r0, [r7, #4]
 10197 0008 3960     		str	r1, [r7]
4620:Drivers/STM32F1xx_HAL_Driver/Src/stm32f1xx_hal_tim.c ****   uint32_t tmpccmrx = 0U;
 10198              		.loc 1 4620 0
 10199 000a 0023     		movs	r3, #0
 10200 000c FB60     		str	r3, [r7, #12]
4621:Drivers/STM32F1xx_HAL_Driver/Src/stm32f1xx_hal_tim.c ****   uint32_t tmpccer = 0U;
 10201              		.loc 1 4621 0
 10202 000e 0023     		movs	r3, #0
 10203 0010 7B61     		str	r3, [r7, #20]
4622:Drivers/STM32F1xx_HAL_Driver/Src/stm32f1xx_hal_tim.c ****   uint32_t tmpcr2 = 0U;
 10204              		.loc 1 4622 0
 10205 0012 0023     		movs	r3, #0
 10206 0014 3B61     		str	r3, [r7, #16]
4623:Drivers/STM32F1xx_HAL_Driver/Src/stm32f1xx_hal_tim.c **** 
4624:Drivers/STM32F1xx_HAL_Driver/Src/stm32f1xx_hal_tim.c ****    /* Disable the Channel 1: Reset the CC1E Bit */
4625:Drivers/STM32F1xx_HAL_Driver/Src/stm32f1xx_hal_tim.c ****   TIMx->CCER &= ~TIM_CCER_CC1E;
 10207              		.loc 1 4625 0
 10208 0016 7B68     		ldr	r3, [r7, #4]
ARM GAS  /tmp/cc5HGhWi.s 			page 261


 10209 0018 1B6A     		ldr	r3, [r3, #32]
 10210 001a 23F00102 		bic	r2, r3, #1
 10211 001e 7B68     		ldr	r3, [r7, #4]
 10212 0020 1A62     		str	r2, [r3, #32]
4626:Drivers/STM32F1xx_HAL_Driver/Src/stm32f1xx_hal_tim.c **** 
4627:Drivers/STM32F1xx_HAL_Driver/Src/stm32f1xx_hal_tim.c ****   /* Get the TIMx CCER register value */
4628:Drivers/STM32F1xx_HAL_Driver/Src/stm32f1xx_hal_tim.c ****   tmpccer = TIMx->CCER;
 10213              		.loc 1 4628 0
 10214 0022 7B68     		ldr	r3, [r7, #4]
 10215 0024 1B6A     		ldr	r3, [r3, #32]
 10216 0026 7B61     		str	r3, [r7, #20]
4629:Drivers/STM32F1xx_HAL_Driver/Src/stm32f1xx_hal_tim.c ****   /* Get the TIMx CR2 register value */
4630:Drivers/STM32F1xx_HAL_Driver/Src/stm32f1xx_hal_tim.c ****   tmpcr2 =  TIMx->CR2;
 10217              		.loc 1 4630 0
 10218 0028 7B68     		ldr	r3, [r7, #4]
 10219 002a 5B68     		ldr	r3, [r3, #4]
 10220 002c 3B61     		str	r3, [r7, #16]
4631:Drivers/STM32F1xx_HAL_Driver/Src/stm32f1xx_hal_tim.c **** 
4632:Drivers/STM32F1xx_HAL_Driver/Src/stm32f1xx_hal_tim.c ****   /* Get the TIMx CCMR1 register value */
4633:Drivers/STM32F1xx_HAL_Driver/Src/stm32f1xx_hal_tim.c ****   tmpccmrx = TIMx->CCMR1;
 10221              		.loc 1 4633 0
 10222 002e 7B68     		ldr	r3, [r7, #4]
 10223 0030 9B69     		ldr	r3, [r3, #24]
 10224 0032 FB60     		str	r3, [r7, #12]
4634:Drivers/STM32F1xx_HAL_Driver/Src/stm32f1xx_hal_tim.c **** 
4635:Drivers/STM32F1xx_HAL_Driver/Src/stm32f1xx_hal_tim.c ****   /* Reset the Output Compare Mode Bits */
4636:Drivers/STM32F1xx_HAL_Driver/Src/stm32f1xx_hal_tim.c ****   tmpccmrx &= ~TIM_CCMR1_OC1M;
 10225              		.loc 1 4636 0
 10226 0034 FB68     		ldr	r3, [r7, #12]
 10227 0036 23F07003 		bic	r3, r3, #112
 10228 003a FB60     		str	r3, [r7, #12]
4637:Drivers/STM32F1xx_HAL_Driver/Src/stm32f1xx_hal_tim.c ****   tmpccmrx &= ~TIM_CCMR1_CC1S;
 10229              		.loc 1 4637 0
 10230 003c FB68     		ldr	r3, [r7, #12]
 10231 003e 23F00303 		bic	r3, r3, #3
 10232 0042 FB60     		str	r3, [r7, #12]
4638:Drivers/STM32F1xx_HAL_Driver/Src/stm32f1xx_hal_tim.c ****   /* Select the Output Compare Mode */
4639:Drivers/STM32F1xx_HAL_Driver/Src/stm32f1xx_hal_tim.c ****   tmpccmrx |= OC_Config->OCMode;
 10233              		.loc 1 4639 0
 10234 0044 3B68     		ldr	r3, [r7]
 10235 0046 1B68     		ldr	r3, [r3]
 10236 0048 FA68     		ldr	r2, [r7, #12]
 10237 004a 1343     		orrs	r3, r3, r2
 10238 004c FB60     		str	r3, [r7, #12]
4640:Drivers/STM32F1xx_HAL_Driver/Src/stm32f1xx_hal_tim.c **** 
4641:Drivers/STM32F1xx_HAL_Driver/Src/stm32f1xx_hal_tim.c ****   /* Reset the Output Polarity level */
4642:Drivers/STM32F1xx_HAL_Driver/Src/stm32f1xx_hal_tim.c ****   tmpccer &= ~TIM_CCER_CC1P;
 10239              		.loc 1 4642 0
 10240 004e 7B69     		ldr	r3, [r7, #20]
 10241 0050 23F00203 		bic	r3, r3, #2
 10242 0054 7B61     		str	r3, [r7, #20]
4643:Drivers/STM32F1xx_HAL_Driver/Src/stm32f1xx_hal_tim.c ****   /* Set the Output Compare Polarity */
4644:Drivers/STM32F1xx_HAL_Driver/Src/stm32f1xx_hal_tim.c ****   tmpccer |= OC_Config->OCPolarity;
 10243              		.loc 1 4644 0
 10244 0056 3B68     		ldr	r3, [r7]
 10245 0058 9B68     		ldr	r3, [r3, #8]
 10246 005a 7A69     		ldr	r2, [r7, #20]
ARM GAS  /tmp/cc5HGhWi.s 			page 262


 10247 005c 1343     		orrs	r3, r3, r2
 10248 005e 7B61     		str	r3, [r7, #20]
4645:Drivers/STM32F1xx_HAL_Driver/Src/stm32f1xx_hal_tim.c **** 
4646:Drivers/STM32F1xx_HAL_Driver/Src/stm32f1xx_hal_tim.c ****   if(IS_TIM_CCXN_INSTANCE(TIMx, TIM_CHANNEL_1))
 10249              		.loc 1 4646 0
 10250 0060 7B68     		ldr	r3, [r7, #4]
 10251 0062 1C4A     		ldr	r2, .L555
 10252 0064 9342     		cmp	r3, r2
 10253 0066 0CD1     		bne	.L553
4647:Drivers/STM32F1xx_HAL_Driver/Src/stm32f1xx_hal_tim.c ****   {
4648:Drivers/STM32F1xx_HAL_Driver/Src/stm32f1xx_hal_tim.c ****     /* Check parameters */
4649:Drivers/STM32F1xx_HAL_Driver/Src/stm32f1xx_hal_tim.c ****     assert_param(IS_TIM_OCN_POLARITY(OC_Config->OCNPolarity));
4650:Drivers/STM32F1xx_HAL_Driver/Src/stm32f1xx_hal_tim.c **** 
4651:Drivers/STM32F1xx_HAL_Driver/Src/stm32f1xx_hal_tim.c ****     /* Reset the Output N Polarity level */
4652:Drivers/STM32F1xx_HAL_Driver/Src/stm32f1xx_hal_tim.c ****     tmpccer &= ~TIM_CCER_CC1NP;
 10254              		.loc 1 4652 0
 10255 0068 7B69     		ldr	r3, [r7, #20]
 10256 006a 23F00803 		bic	r3, r3, #8
 10257 006e 7B61     		str	r3, [r7, #20]
4653:Drivers/STM32F1xx_HAL_Driver/Src/stm32f1xx_hal_tim.c ****     /* Set the Output N Polarity */
4654:Drivers/STM32F1xx_HAL_Driver/Src/stm32f1xx_hal_tim.c ****     tmpccer |= OC_Config->OCNPolarity;
 10258              		.loc 1 4654 0
 10259 0070 3B68     		ldr	r3, [r7]
 10260 0072 DB68     		ldr	r3, [r3, #12]
 10261 0074 7A69     		ldr	r2, [r7, #20]
 10262 0076 1343     		orrs	r3, r3, r2
 10263 0078 7B61     		str	r3, [r7, #20]
4655:Drivers/STM32F1xx_HAL_Driver/Src/stm32f1xx_hal_tim.c ****     /* Reset the Output N State */
4656:Drivers/STM32F1xx_HAL_Driver/Src/stm32f1xx_hal_tim.c ****     tmpccer &= ~TIM_CCER_CC1NE;
 10264              		.loc 1 4656 0
 10265 007a 7B69     		ldr	r3, [r7, #20]
 10266 007c 23F00403 		bic	r3, r3, #4
 10267 0080 7B61     		str	r3, [r7, #20]
 10268              	.L553:
4657:Drivers/STM32F1xx_HAL_Driver/Src/stm32f1xx_hal_tim.c ****   }
4658:Drivers/STM32F1xx_HAL_Driver/Src/stm32f1xx_hal_tim.c **** 
4659:Drivers/STM32F1xx_HAL_Driver/Src/stm32f1xx_hal_tim.c ****   if(IS_TIM_BREAK_INSTANCE(TIMx))
 10269              		.loc 1 4659 0
 10270 0082 7B68     		ldr	r3, [r7, #4]
 10271 0084 134A     		ldr	r2, .L555
 10272 0086 9342     		cmp	r3, r2
 10273 0088 11D1     		bne	.L554
4660:Drivers/STM32F1xx_HAL_Driver/Src/stm32f1xx_hal_tim.c ****   {
4661:Drivers/STM32F1xx_HAL_Driver/Src/stm32f1xx_hal_tim.c ****     /* Check parameters */
4662:Drivers/STM32F1xx_HAL_Driver/Src/stm32f1xx_hal_tim.c ****     assert_param(IS_TIM_OCNIDLE_STATE(OC_Config->OCNIdleState));
4663:Drivers/STM32F1xx_HAL_Driver/Src/stm32f1xx_hal_tim.c ****     assert_param(IS_TIM_OCIDLE_STATE(OC_Config->OCIdleState));
4664:Drivers/STM32F1xx_HAL_Driver/Src/stm32f1xx_hal_tim.c **** 
4665:Drivers/STM32F1xx_HAL_Driver/Src/stm32f1xx_hal_tim.c ****     /* Reset the Output Compare and Output Compare N IDLE State */
4666:Drivers/STM32F1xx_HAL_Driver/Src/stm32f1xx_hal_tim.c ****     tmpcr2 &= ~TIM_CR2_OIS1;
 10274              		.loc 1 4666 0
 10275 008a 3B69     		ldr	r3, [r7, #16]
 10276 008c 23F48073 		bic	r3, r3, #256
 10277 0090 3B61     		str	r3, [r7, #16]
4667:Drivers/STM32F1xx_HAL_Driver/Src/stm32f1xx_hal_tim.c ****     tmpcr2 &= ~TIM_CR2_OIS1N;
 10278              		.loc 1 4667 0
 10279 0092 3B69     		ldr	r3, [r7, #16]
 10280 0094 23F40073 		bic	r3, r3, #512
ARM GAS  /tmp/cc5HGhWi.s 			page 263


 10281 0098 3B61     		str	r3, [r7, #16]
4668:Drivers/STM32F1xx_HAL_Driver/Src/stm32f1xx_hal_tim.c ****     /* Set the Output Idle state */
4669:Drivers/STM32F1xx_HAL_Driver/Src/stm32f1xx_hal_tim.c ****     tmpcr2 |= OC_Config->OCIdleState;
 10282              		.loc 1 4669 0
 10283 009a 3B68     		ldr	r3, [r7]
 10284 009c 5B69     		ldr	r3, [r3, #20]
 10285 009e 3A69     		ldr	r2, [r7, #16]
 10286 00a0 1343     		orrs	r3, r3, r2
 10287 00a2 3B61     		str	r3, [r7, #16]
4670:Drivers/STM32F1xx_HAL_Driver/Src/stm32f1xx_hal_tim.c ****     /* Set the Output N Idle state */
4671:Drivers/STM32F1xx_HAL_Driver/Src/stm32f1xx_hal_tim.c ****     tmpcr2 |= OC_Config->OCNIdleState;
 10288              		.loc 1 4671 0
 10289 00a4 3B68     		ldr	r3, [r7]
 10290 00a6 9B69     		ldr	r3, [r3, #24]
 10291 00a8 3A69     		ldr	r2, [r7, #16]
 10292 00aa 1343     		orrs	r3, r3, r2
 10293 00ac 3B61     		str	r3, [r7, #16]
 10294              	.L554:
4672:Drivers/STM32F1xx_HAL_Driver/Src/stm32f1xx_hal_tim.c ****   }
4673:Drivers/STM32F1xx_HAL_Driver/Src/stm32f1xx_hal_tim.c ****   /* Write to TIMx CR2 */
4674:Drivers/STM32F1xx_HAL_Driver/Src/stm32f1xx_hal_tim.c ****   TIMx->CR2 = tmpcr2;
 10295              		.loc 1 4674 0
 10296 00ae 7B68     		ldr	r3, [r7, #4]
 10297 00b0 3A69     		ldr	r2, [r7, #16]
 10298 00b2 5A60     		str	r2, [r3, #4]
4675:Drivers/STM32F1xx_HAL_Driver/Src/stm32f1xx_hal_tim.c **** 
4676:Drivers/STM32F1xx_HAL_Driver/Src/stm32f1xx_hal_tim.c ****   /* Write to TIMx CCMR1 */
4677:Drivers/STM32F1xx_HAL_Driver/Src/stm32f1xx_hal_tim.c ****   TIMx->CCMR1 = tmpccmrx;
 10299              		.loc 1 4677 0
 10300 00b4 7B68     		ldr	r3, [r7, #4]
 10301 00b6 FA68     		ldr	r2, [r7, #12]
 10302 00b8 9A61     		str	r2, [r3, #24]
4678:Drivers/STM32F1xx_HAL_Driver/Src/stm32f1xx_hal_tim.c **** 
4679:Drivers/STM32F1xx_HAL_Driver/Src/stm32f1xx_hal_tim.c ****   /* Set the Capture Compare Register value */
4680:Drivers/STM32F1xx_HAL_Driver/Src/stm32f1xx_hal_tim.c ****   TIMx->CCR1 = OC_Config->Pulse;
 10303              		.loc 1 4680 0
 10304 00ba 3B68     		ldr	r3, [r7]
 10305 00bc 5A68     		ldr	r2, [r3, #4]
 10306 00be 7B68     		ldr	r3, [r7, #4]
 10307 00c0 5A63     		str	r2, [r3, #52]
4681:Drivers/STM32F1xx_HAL_Driver/Src/stm32f1xx_hal_tim.c **** 
4682:Drivers/STM32F1xx_HAL_Driver/Src/stm32f1xx_hal_tim.c ****   /* Write to TIMx CCER */
4683:Drivers/STM32F1xx_HAL_Driver/Src/stm32f1xx_hal_tim.c ****   TIMx->CCER = tmpccer;
 10308              		.loc 1 4683 0
 10309 00c2 7B68     		ldr	r3, [r7, #4]
 10310 00c4 7A69     		ldr	r2, [r7, #20]
 10311 00c6 1A62     		str	r2, [r3, #32]
4684:Drivers/STM32F1xx_HAL_Driver/Src/stm32f1xx_hal_tim.c **** }
 10312              		.loc 1 4684 0
 10313 00c8 00BF     		nop
 10314 00ca 1C37     		adds	r7, r7, #28
 10315              	.LCFI496:
 10316              		.cfi_def_cfa_offset 4
 10317 00cc BD46     		mov	sp, r7
 10318              	.LCFI497:
 10319              		.cfi_def_cfa_register 13
 10320              		@ sp needed
ARM GAS  /tmp/cc5HGhWi.s 			page 264


 10321 00ce 80BC     		pop	{r7}
 10322              	.LCFI498:
 10323              		.cfi_restore 7
 10324              		.cfi_def_cfa_offset 0
 10325 00d0 7047     		bx	lr
 10326              	.L556:
 10327 00d2 00BF     		.align	2
 10328              	.L555:
 10329 00d4 002C0140 		.word	1073818624
 10330              		.cfi_endproc
 10331              	.LFE158:
 10333              		.section	.text.TIM_OC2_SetConfig,"ax",%progbits
 10334              		.align	1
 10335              		.global	TIM_OC2_SetConfig
 10336              		.syntax unified
 10337              		.thumb
 10338              		.thumb_func
 10339              		.fpu softvfp
 10341              	TIM_OC2_SetConfig:
 10342              	.LFB159:
4685:Drivers/STM32F1xx_HAL_Driver/Src/stm32f1xx_hal_tim.c **** 
4686:Drivers/STM32F1xx_HAL_Driver/Src/stm32f1xx_hal_tim.c **** /**
4687:Drivers/STM32F1xx_HAL_Driver/Src/stm32f1xx_hal_tim.c ****   * @brief  Time Ouput Compare 2 configuration
4688:Drivers/STM32F1xx_HAL_Driver/Src/stm32f1xx_hal_tim.c ****   * @param  TIMx  to select the TIM peripheral
4689:Drivers/STM32F1xx_HAL_Driver/Src/stm32f1xx_hal_tim.c ****   * @param  OC_Config : The ouput configuration structure
4690:Drivers/STM32F1xx_HAL_Driver/Src/stm32f1xx_hal_tim.c ****   * @retval None
4691:Drivers/STM32F1xx_HAL_Driver/Src/stm32f1xx_hal_tim.c ****   */
4692:Drivers/STM32F1xx_HAL_Driver/Src/stm32f1xx_hal_tim.c **** void TIM_OC2_SetConfig(TIM_TypeDef *TIMx, TIM_OC_InitTypeDef *OC_Config)
4693:Drivers/STM32F1xx_HAL_Driver/Src/stm32f1xx_hal_tim.c **** {
 10343              		.loc 1 4693 0
 10344              		.cfi_startproc
 10345              		@ args = 0, pretend = 0, frame = 24
 10346              		@ frame_needed = 1, uses_anonymous_args = 0
 10347              		@ link register save eliminated.
 10348 0000 80B4     		push	{r7}
 10349              	.LCFI499:
 10350              		.cfi_def_cfa_offset 4
 10351              		.cfi_offset 7, -4
 10352 0002 87B0     		sub	sp, sp, #28
 10353              	.LCFI500:
 10354              		.cfi_def_cfa_offset 32
 10355 0004 00AF     		add	r7, sp, #0
 10356              	.LCFI501:
 10357              		.cfi_def_cfa_register 7
 10358 0006 7860     		str	r0, [r7, #4]
 10359 0008 3960     		str	r1, [r7]
4694:Drivers/STM32F1xx_HAL_Driver/Src/stm32f1xx_hal_tim.c ****   uint32_t tmpccmrx = 0U;
 10360              		.loc 1 4694 0
 10361 000a 0023     		movs	r3, #0
 10362 000c FB60     		str	r3, [r7, #12]
4695:Drivers/STM32F1xx_HAL_Driver/Src/stm32f1xx_hal_tim.c ****   uint32_t tmpccer = 0U;
 10363              		.loc 1 4695 0
 10364 000e 0023     		movs	r3, #0
 10365 0010 7B61     		str	r3, [r7, #20]
4696:Drivers/STM32F1xx_HAL_Driver/Src/stm32f1xx_hal_tim.c ****   uint32_t tmpcr2 = 0U;
 10366              		.loc 1 4696 0
 10367 0012 0023     		movs	r3, #0
ARM GAS  /tmp/cc5HGhWi.s 			page 265


 10368 0014 3B61     		str	r3, [r7, #16]
4697:Drivers/STM32F1xx_HAL_Driver/Src/stm32f1xx_hal_tim.c **** 
4698:Drivers/STM32F1xx_HAL_Driver/Src/stm32f1xx_hal_tim.c ****   /* Disable the Channel 2: Reset the CC2E Bit */
4699:Drivers/STM32F1xx_HAL_Driver/Src/stm32f1xx_hal_tim.c ****   TIMx->CCER &= ~TIM_CCER_CC2E;
 10369              		.loc 1 4699 0
 10370 0016 7B68     		ldr	r3, [r7, #4]
 10371 0018 1B6A     		ldr	r3, [r3, #32]
 10372 001a 23F01002 		bic	r2, r3, #16
 10373 001e 7B68     		ldr	r3, [r7, #4]
 10374 0020 1A62     		str	r2, [r3, #32]
4700:Drivers/STM32F1xx_HAL_Driver/Src/stm32f1xx_hal_tim.c **** 
4701:Drivers/STM32F1xx_HAL_Driver/Src/stm32f1xx_hal_tim.c ****   /* Get the TIMx CCER register value */
4702:Drivers/STM32F1xx_HAL_Driver/Src/stm32f1xx_hal_tim.c ****   tmpccer = TIMx->CCER;
 10375              		.loc 1 4702 0
 10376 0022 7B68     		ldr	r3, [r7, #4]
 10377 0024 1B6A     		ldr	r3, [r3, #32]
 10378 0026 7B61     		str	r3, [r7, #20]
4703:Drivers/STM32F1xx_HAL_Driver/Src/stm32f1xx_hal_tim.c ****   /* Get the TIMx CR2 register value */
4704:Drivers/STM32F1xx_HAL_Driver/Src/stm32f1xx_hal_tim.c ****   tmpcr2 =  TIMx->CR2;
 10379              		.loc 1 4704 0
 10380 0028 7B68     		ldr	r3, [r7, #4]
 10381 002a 5B68     		ldr	r3, [r3, #4]
 10382 002c 3B61     		str	r3, [r7, #16]
4705:Drivers/STM32F1xx_HAL_Driver/Src/stm32f1xx_hal_tim.c **** 
4706:Drivers/STM32F1xx_HAL_Driver/Src/stm32f1xx_hal_tim.c ****   /* Get the TIMx CCMR1 register value */
4707:Drivers/STM32F1xx_HAL_Driver/Src/stm32f1xx_hal_tim.c ****   tmpccmrx = TIMx->CCMR1;
 10383              		.loc 1 4707 0
 10384 002e 7B68     		ldr	r3, [r7, #4]
 10385 0030 9B69     		ldr	r3, [r3, #24]
 10386 0032 FB60     		str	r3, [r7, #12]
4708:Drivers/STM32F1xx_HAL_Driver/Src/stm32f1xx_hal_tim.c **** 
4709:Drivers/STM32F1xx_HAL_Driver/Src/stm32f1xx_hal_tim.c ****   /* Reset the Output Compare mode and Capture/Compare selection Bits */
4710:Drivers/STM32F1xx_HAL_Driver/Src/stm32f1xx_hal_tim.c ****   tmpccmrx &= ~TIM_CCMR1_OC2M;
 10387              		.loc 1 4710 0
 10388 0034 FB68     		ldr	r3, [r7, #12]
 10389 0036 23F4E043 		bic	r3, r3, #28672
 10390 003a FB60     		str	r3, [r7, #12]
4711:Drivers/STM32F1xx_HAL_Driver/Src/stm32f1xx_hal_tim.c ****   tmpccmrx &= ~TIM_CCMR1_CC2S;
 10391              		.loc 1 4711 0
 10392 003c FB68     		ldr	r3, [r7, #12]
 10393 003e 23F44073 		bic	r3, r3, #768
 10394 0042 FB60     		str	r3, [r7, #12]
4712:Drivers/STM32F1xx_HAL_Driver/Src/stm32f1xx_hal_tim.c **** 
4713:Drivers/STM32F1xx_HAL_Driver/Src/stm32f1xx_hal_tim.c ****   /* Select the Output Compare Mode */
4714:Drivers/STM32F1xx_HAL_Driver/Src/stm32f1xx_hal_tim.c ****   tmpccmrx |= (OC_Config->OCMode << 8U);
 10395              		.loc 1 4714 0
 10396 0044 3B68     		ldr	r3, [r7]
 10397 0046 1B68     		ldr	r3, [r3]
 10398 0048 1B02     		lsls	r3, r3, #8
 10399 004a FA68     		ldr	r2, [r7, #12]
 10400 004c 1343     		orrs	r3, r3, r2
 10401 004e FB60     		str	r3, [r7, #12]
4715:Drivers/STM32F1xx_HAL_Driver/Src/stm32f1xx_hal_tim.c **** 
4716:Drivers/STM32F1xx_HAL_Driver/Src/stm32f1xx_hal_tim.c ****   /* Reset the Output Polarity level */
4717:Drivers/STM32F1xx_HAL_Driver/Src/stm32f1xx_hal_tim.c ****   tmpccer &= ~TIM_CCER_CC2P;
 10402              		.loc 1 4717 0
 10403 0050 7B69     		ldr	r3, [r7, #20]
ARM GAS  /tmp/cc5HGhWi.s 			page 266


 10404 0052 23F02003 		bic	r3, r3, #32
 10405 0056 7B61     		str	r3, [r7, #20]
4718:Drivers/STM32F1xx_HAL_Driver/Src/stm32f1xx_hal_tim.c ****   /* Set the Output Compare Polarity */
4719:Drivers/STM32F1xx_HAL_Driver/Src/stm32f1xx_hal_tim.c ****   tmpccer |= (OC_Config->OCPolarity << 4U);
 10406              		.loc 1 4719 0
 10407 0058 3B68     		ldr	r3, [r7]
 10408 005a 9B68     		ldr	r3, [r3, #8]
 10409 005c 1B01     		lsls	r3, r3, #4
 10410 005e 7A69     		ldr	r2, [r7, #20]
 10411 0060 1343     		orrs	r3, r3, r2
 10412 0062 7B61     		str	r3, [r7, #20]
4720:Drivers/STM32F1xx_HAL_Driver/Src/stm32f1xx_hal_tim.c **** 
4721:Drivers/STM32F1xx_HAL_Driver/Src/stm32f1xx_hal_tim.c ****   if(IS_TIM_CCXN_INSTANCE(TIMx, TIM_CHANNEL_2))
 10413              		.loc 1 4721 0
 10414 0064 7B68     		ldr	r3, [r7, #4]
 10415 0066 1D4A     		ldr	r2, .L560
 10416 0068 9342     		cmp	r3, r2
 10417 006a 0DD1     		bne	.L558
4722:Drivers/STM32F1xx_HAL_Driver/Src/stm32f1xx_hal_tim.c ****   {
4723:Drivers/STM32F1xx_HAL_Driver/Src/stm32f1xx_hal_tim.c ****     assert_param(IS_TIM_OCN_POLARITY(OC_Config->OCNPolarity));
4724:Drivers/STM32F1xx_HAL_Driver/Src/stm32f1xx_hal_tim.c **** 
4725:Drivers/STM32F1xx_HAL_Driver/Src/stm32f1xx_hal_tim.c ****     /* Reset the Output N Polarity level */
4726:Drivers/STM32F1xx_HAL_Driver/Src/stm32f1xx_hal_tim.c ****     tmpccer &= ~TIM_CCER_CC2NP;
 10418              		.loc 1 4726 0
 10419 006c 7B69     		ldr	r3, [r7, #20]
 10420 006e 23F08003 		bic	r3, r3, #128
 10421 0072 7B61     		str	r3, [r7, #20]
4727:Drivers/STM32F1xx_HAL_Driver/Src/stm32f1xx_hal_tim.c ****     /* Set the Output N Polarity */
4728:Drivers/STM32F1xx_HAL_Driver/Src/stm32f1xx_hal_tim.c ****     tmpccer |= (OC_Config->OCNPolarity << 4U);
 10422              		.loc 1 4728 0
 10423 0074 3B68     		ldr	r3, [r7]
 10424 0076 DB68     		ldr	r3, [r3, #12]
 10425 0078 1B01     		lsls	r3, r3, #4
 10426 007a 7A69     		ldr	r2, [r7, #20]
 10427 007c 1343     		orrs	r3, r3, r2
 10428 007e 7B61     		str	r3, [r7, #20]
4729:Drivers/STM32F1xx_HAL_Driver/Src/stm32f1xx_hal_tim.c ****     /* Reset the Output N State */
4730:Drivers/STM32F1xx_HAL_Driver/Src/stm32f1xx_hal_tim.c ****     tmpccer &= ~TIM_CCER_CC2NE;
 10429              		.loc 1 4730 0
 10430 0080 7B69     		ldr	r3, [r7, #20]
 10431 0082 23F04003 		bic	r3, r3, #64
 10432 0086 7B61     		str	r3, [r7, #20]
 10433              	.L558:
4731:Drivers/STM32F1xx_HAL_Driver/Src/stm32f1xx_hal_tim.c **** 
4732:Drivers/STM32F1xx_HAL_Driver/Src/stm32f1xx_hal_tim.c ****   }
4733:Drivers/STM32F1xx_HAL_Driver/Src/stm32f1xx_hal_tim.c **** 
4734:Drivers/STM32F1xx_HAL_Driver/Src/stm32f1xx_hal_tim.c ****   if(IS_TIM_BREAK_INSTANCE(TIMx))
 10434              		.loc 1 4734 0
 10435 0088 7B68     		ldr	r3, [r7, #4]
 10436 008a 144A     		ldr	r2, .L560
 10437 008c 9342     		cmp	r3, r2
 10438 008e 13D1     		bne	.L559
4735:Drivers/STM32F1xx_HAL_Driver/Src/stm32f1xx_hal_tim.c ****   {
4736:Drivers/STM32F1xx_HAL_Driver/Src/stm32f1xx_hal_tim.c ****     /* Check parameters */
4737:Drivers/STM32F1xx_HAL_Driver/Src/stm32f1xx_hal_tim.c ****     assert_param(IS_TIM_OCNIDLE_STATE(OC_Config->OCNIdleState));
4738:Drivers/STM32F1xx_HAL_Driver/Src/stm32f1xx_hal_tim.c ****     assert_param(IS_TIM_OCIDLE_STATE(OC_Config->OCIdleState));
4739:Drivers/STM32F1xx_HAL_Driver/Src/stm32f1xx_hal_tim.c **** 
ARM GAS  /tmp/cc5HGhWi.s 			page 267


4740:Drivers/STM32F1xx_HAL_Driver/Src/stm32f1xx_hal_tim.c ****     /* Reset the Output Compare and Output Compare N IDLE State */
4741:Drivers/STM32F1xx_HAL_Driver/Src/stm32f1xx_hal_tim.c ****     tmpcr2 &= ~TIM_CR2_OIS2;
 10439              		.loc 1 4741 0
 10440 0090 3B69     		ldr	r3, [r7, #16]
 10441 0092 23F48063 		bic	r3, r3, #1024
 10442 0096 3B61     		str	r3, [r7, #16]
4742:Drivers/STM32F1xx_HAL_Driver/Src/stm32f1xx_hal_tim.c ****     tmpcr2 &= ~TIM_CR2_OIS2N;
 10443              		.loc 1 4742 0
 10444 0098 3B69     		ldr	r3, [r7, #16]
 10445 009a 23F40063 		bic	r3, r3, #2048
 10446 009e 3B61     		str	r3, [r7, #16]
4743:Drivers/STM32F1xx_HAL_Driver/Src/stm32f1xx_hal_tim.c ****     /* Set the Output Idle state */
4744:Drivers/STM32F1xx_HAL_Driver/Src/stm32f1xx_hal_tim.c ****     tmpcr2 |= (OC_Config->OCIdleState << 2);
 10447              		.loc 1 4744 0
 10448 00a0 3B68     		ldr	r3, [r7]
 10449 00a2 5B69     		ldr	r3, [r3, #20]
 10450 00a4 9B00     		lsls	r3, r3, #2
 10451 00a6 3A69     		ldr	r2, [r7, #16]
 10452 00a8 1343     		orrs	r3, r3, r2
 10453 00aa 3B61     		str	r3, [r7, #16]
4745:Drivers/STM32F1xx_HAL_Driver/Src/stm32f1xx_hal_tim.c ****     /* Set the Output N Idle state */
4746:Drivers/STM32F1xx_HAL_Driver/Src/stm32f1xx_hal_tim.c ****     tmpcr2 |= (OC_Config->OCNIdleState << 2);
 10454              		.loc 1 4746 0
 10455 00ac 3B68     		ldr	r3, [r7]
 10456 00ae 9B69     		ldr	r3, [r3, #24]
 10457 00b0 9B00     		lsls	r3, r3, #2
 10458 00b2 3A69     		ldr	r2, [r7, #16]
 10459 00b4 1343     		orrs	r3, r3, r2
 10460 00b6 3B61     		str	r3, [r7, #16]
 10461              	.L559:
4747:Drivers/STM32F1xx_HAL_Driver/Src/stm32f1xx_hal_tim.c ****   }
4748:Drivers/STM32F1xx_HAL_Driver/Src/stm32f1xx_hal_tim.c **** 
4749:Drivers/STM32F1xx_HAL_Driver/Src/stm32f1xx_hal_tim.c ****   /* Write to TIMx CR2 */
4750:Drivers/STM32F1xx_HAL_Driver/Src/stm32f1xx_hal_tim.c ****   TIMx->CR2 = tmpcr2;
 10462              		.loc 1 4750 0
 10463 00b8 7B68     		ldr	r3, [r7, #4]
 10464 00ba 3A69     		ldr	r2, [r7, #16]
 10465 00bc 5A60     		str	r2, [r3, #4]
4751:Drivers/STM32F1xx_HAL_Driver/Src/stm32f1xx_hal_tim.c **** 
4752:Drivers/STM32F1xx_HAL_Driver/Src/stm32f1xx_hal_tim.c ****   /* Write to TIMx CCMR1 */
4753:Drivers/STM32F1xx_HAL_Driver/Src/stm32f1xx_hal_tim.c ****   TIMx->CCMR1 = tmpccmrx;
 10466              		.loc 1 4753 0
 10467 00be 7B68     		ldr	r3, [r7, #4]
 10468 00c0 FA68     		ldr	r2, [r7, #12]
 10469 00c2 9A61     		str	r2, [r3, #24]
4754:Drivers/STM32F1xx_HAL_Driver/Src/stm32f1xx_hal_tim.c **** 
4755:Drivers/STM32F1xx_HAL_Driver/Src/stm32f1xx_hal_tim.c ****   /* Set the Capture Compare Register value */
4756:Drivers/STM32F1xx_HAL_Driver/Src/stm32f1xx_hal_tim.c ****   TIMx->CCR2 = OC_Config->Pulse;
 10470              		.loc 1 4756 0
 10471 00c4 3B68     		ldr	r3, [r7]
 10472 00c6 5A68     		ldr	r2, [r3, #4]
 10473 00c8 7B68     		ldr	r3, [r7, #4]
 10474 00ca 9A63     		str	r2, [r3, #56]
4757:Drivers/STM32F1xx_HAL_Driver/Src/stm32f1xx_hal_tim.c **** 
4758:Drivers/STM32F1xx_HAL_Driver/Src/stm32f1xx_hal_tim.c ****   /* Write to TIMx CCER */
4759:Drivers/STM32F1xx_HAL_Driver/Src/stm32f1xx_hal_tim.c ****   TIMx->CCER = tmpccer;
 10475              		.loc 1 4759 0
ARM GAS  /tmp/cc5HGhWi.s 			page 268


 10476 00cc 7B68     		ldr	r3, [r7, #4]
 10477 00ce 7A69     		ldr	r2, [r7, #20]
 10478 00d0 1A62     		str	r2, [r3, #32]
4760:Drivers/STM32F1xx_HAL_Driver/Src/stm32f1xx_hal_tim.c **** }
 10479              		.loc 1 4760 0
 10480 00d2 00BF     		nop
 10481 00d4 1C37     		adds	r7, r7, #28
 10482              	.LCFI502:
 10483              		.cfi_def_cfa_offset 4
 10484 00d6 BD46     		mov	sp, r7
 10485              	.LCFI503:
 10486              		.cfi_def_cfa_register 13
 10487              		@ sp needed
 10488 00d8 80BC     		pop	{r7}
 10489              	.LCFI504:
 10490              		.cfi_restore 7
 10491              		.cfi_def_cfa_offset 0
 10492 00da 7047     		bx	lr
 10493              	.L561:
 10494              		.align	2
 10495              	.L560:
 10496 00dc 002C0140 		.word	1073818624
 10497              		.cfi_endproc
 10498              	.LFE159:
 10500              		.section	.text.TIM_OC3_SetConfig,"ax",%progbits
 10501              		.align	1
 10502              		.syntax unified
 10503              		.thumb
 10504              		.thumb_func
 10505              		.fpu softvfp
 10507              	TIM_OC3_SetConfig:
 10508              	.LFB160:
4761:Drivers/STM32F1xx_HAL_Driver/Src/stm32f1xx_hal_tim.c **** 
4762:Drivers/STM32F1xx_HAL_Driver/Src/stm32f1xx_hal_tim.c **** /**
4763:Drivers/STM32F1xx_HAL_Driver/Src/stm32f1xx_hal_tim.c ****   * @brief  Time Ouput Compare 3 configuration
4764:Drivers/STM32F1xx_HAL_Driver/Src/stm32f1xx_hal_tim.c ****   * @param  TIMx  to select the TIM peripheral
4765:Drivers/STM32F1xx_HAL_Driver/Src/stm32f1xx_hal_tim.c ****   * @param  OC_Config : The ouput configuration structure
4766:Drivers/STM32F1xx_HAL_Driver/Src/stm32f1xx_hal_tim.c ****   * @retval None
4767:Drivers/STM32F1xx_HAL_Driver/Src/stm32f1xx_hal_tim.c ****   */
4768:Drivers/STM32F1xx_HAL_Driver/Src/stm32f1xx_hal_tim.c **** static void TIM_OC3_SetConfig(TIM_TypeDef *TIMx, TIM_OC_InitTypeDef *OC_Config)
4769:Drivers/STM32F1xx_HAL_Driver/Src/stm32f1xx_hal_tim.c **** {
 10509              		.loc 1 4769 0
 10510              		.cfi_startproc
 10511              		@ args = 0, pretend = 0, frame = 24
 10512              		@ frame_needed = 1, uses_anonymous_args = 0
 10513              		@ link register save eliminated.
 10514 0000 80B4     		push	{r7}
 10515              	.LCFI505:
 10516              		.cfi_def_cfa_offset 4
 10517              		.cfi_offset 7, -4
 10518 0002 87B0     		sub	sp, sp, #28
 10519              	.LCFI506:
 10520              		.cfi_def_cfa_offset 32
 10521 0004 00AF     		add	r7, sp, #0
 10522              	.LCFI507:
 10523              		.cfi_def_cfa_register 7
 10524 0006 7860     		str	r0, [r7, #4]
ARM GAS  /tmp/cc5HGhWi.s 			page 269


 10525 0008 3960     		str	r1, [r7]
4770:Drivers/STM32F1xx_HAL_Driver/Src/stm32f1xx_hal_tim.c ****   uint32_t tmpccmrx = 0U;
 10526              		.loc 1 4770 0
 10527 000a 0023     		movs	r3, #0
 10528 000c FB60     		str	r3, [r7, #12]
4771:Drivers/STM32F1xx_HAL_Driver/Src/stm32f1xx_hal_tim.c ****   uint32_t tmpccer = 0U;
 10529              		.loc 1 4771 0
 10530 000e 0023     		movs	r3, #0
 10531 0010 7B61     		str	r3, [r7, #20]
4772:Drivers/STM32F1xx_HAL_Driver/Src/stm32f1xx_hal_tim.c ****   uint32_t tmpcr2 = 0U;
 10532              		.loc 1 4772 0
 10533 0012 0023     		movs	r3, #0
 10534 0014 3B61     		str	r3, [r7, #16]
4773:Drivers/STM32F1xx_HAL_Driver/Src/stm32f1xx_hal_tim.c **** 
4774:Drivers/STM32F1xx_HAL_Driver/Src/stm32f1xx_hal_tim.c ****   /* Disable the Channel 3: Reset the CC2E Bit */
4775:Drivers/STM32F1xx_HAL_Driver/Src/stm32f1xx_hal_tim.c ****   TIMx->CCER &= ~TIM_CCER_CC3E;
 10535              		.loc 1 4775 0
 10536 0016 7B68     		ldr	r3, [r7, #4]
 10537 0018 1B6A     		ldr	r3, [r3, #32]
 10538 001a 23F48072 		bic	r2, r3, #256
 10539 001e 7B68     		ldr	r3, [r7, #4]
 10540 0020 1A62     		str	r2, [r3, #32]
4776:Drivers/STM32F1xx_HAL_Driver/Src/stm32f1xx_hal_tim.c **** 
4777:Drivers/STM32F1xx_HAL_Driver/Src/stm32f1xx_hal_tim.c ****   /* Get the TIMx CCER register value */
4778:Drivers/STM32F1xx_HAL_Driver/Src/stm32f1xx_hal_tim.c ****   tmpccer = TIMx->CCER;
 10541              		.loc 1 4778 0
 10542 0022 7B68     		ldr	r3, [r7, #4]
 10543 0024 1B6A     		ldr	r3, [r3, #32]
 10544 0026 7B61     		str	r3, [r7, #20]
4779:Drivers/STM32F1xx_HAL_Driver/Src/stm32f1xx_hal_tim.c ****   /* Get the TIMx CR2 register value */
4780:Drivers/STM32F1xx_HAL_Driver/Src/stm32f1xx_hal_tim.c ****   tmpcr2 =  TIMx->CR2;
 10545              		.loc 1 4780 0
 10546 0028 7B68     		ldr	r3, [r7, #4]
 10547 002a 5B68     		ldr	r3, [r3, #4]
 10548 002c 3B61     		str	r3, [r7, #16]
4781:Drivers/STM32F1xx_HAL_Driver/Src/stm32f1xx_hal_tim.c **** 
4782:Drivers/STM32F1xx_HAL_Driver/Src/stm32f1xx_hal_tim.c ****   /* Get the TIMx CCMR2 register value */
4783:Drivers/STM32F1xx_HAL_Driver/Src/stm32f1xx_hal_tim.c ****   tmpccmrx = TIMx->CCMR2;
 10549              		.loc 1 4783 0
 10550 002e 7B68     		ldr	r3, [r7, #4]
 10551 0030 DB69     		ldr	r3, [r3, #28]
 10552 0032 FB60     		str	r3, [r7, #12]
4784:Drivers/STM32F1xx_HAL_Driver/Src/stm32f1xx_hal_tim.c **** 
4785:Drivers/STM32F1xx_HAL_Driver/Src/stm32f1xx_hal_tim.c ****   /* Reset the Output Compare mode and Capture/Compare selection Bits */
4786:Drivers/STM32F1xx_HAL_Driver/Src/stm32f1xx_hal_tim.c ****   tmpccmrx &= ~TIM_CCMR2_OC3M;
 10553              		.loc 1 4786 0
 10554 0034 FB68     		ldr	r3, [r7, #12]
 10555 0036 23F07003 		bic	r3, r3, #112
 10556 003a FB60     		str	r3, [r7, #12]
4787:Drivers/STM32F1xx_HAL_Driver/Src/stm32f1xx_hal_tim.c ****   tmpccmrx &= ~TIM_CCMR2_CC3S;
 10557              		.loc 1 4787 0
 10558 003c FB68     		ldr	r3, [r7, #12]
 10559 003e 23F00303 		bic	r3, r3, #3
 10560 0042 FB60     		str	r3, [r7, #12]
4788:Drivers/STM32F1xx_HAL_Driver/Src/stm32f1xx_hal_tim.c ****   /* Select the Output Compare Mode */
4789:Drivers/STM32F1xx_HAL_Driver/Src/stm32f1xx_hal_tim.c ****   tmpccmrx |= OC_Config->OCMode;
 10561              		.loc 1 4789 0
ARM GAS  /tmp/cc5HGhWi.s 			page 270


 10562 0044 3B68     		ldr	r3, [r7]
 10563 0046 1B68     		ldr	r3, [r3]
 10564 0048 FA68     		ldr	r2, [r7, #12]
 10565 004a 1343     		orrs	r3, r3, r2
 10566 004c FB60     		str	r3, [r7, #12]
4790:Drivers/STM32F1xx_HAL_Driver/Src/stm32f1xx_hal_tim.c **** 
4791:Drivers/STM32F1xx_HAL_Driver/Src/stm32f1xx_hal_tim.c ****   /* Reset the Output Polarity level */
4792:Drivers/STM32F1xx_HAL_Driver/Src/stm32f1xx_hal_tim.c ****   tmpccer &= ~TIM_CCER_CC3P;
 10567              		.loc 1 4792 0
 10568 004e 7B69     		ldr	r3, [r7, #20]
 10569 0050 23F40073 		bic	r3, r3, #512
 10570 0054 7B61     		str	r3, [r7, #20]
4793:Drivers/STM32F1xx_HAL_Driver/Src/stm32f1xx_hal_tim.c ****   /* Set the Output Compare Polarity */
4794:Drivers/STM32F1xx_HAL_Driver/Src/stm32f1xx_hal_tim.c ****   tmpccer |= (OC_Config->OCPolarity << 8U);
 10571              		.loc 1 4794 0
 10572 0056 3B68     		ldr	r3, [r7]
 10573 0058 9B68     		ldr	r3, [r3, #8]
 10574 005a 1B02     		lsls	r3, r3, #8
 10575 005c 7A69     		ldr	r2, [r7, #20]
 10576 005e 1343     		orrs	r3, r3, r2
 10577 0060 7B61     		str	r3, [r7, #20]
4795:Drivers/STM32F1xx_HAL_Driver/Src/stm32f1xx_hal_tim.c **** 
4796:Drivers/STM32F1xx_HAL_Driver/Src/stm32f1xx_hal_tim.c ****   if(IS_TIM_CCXN_INSTANCE(TIMx, TIM_CHANNEL_3))
 10578              		.loc 1 4796 0
 10579 0062 7B68     		ldr	r3, [r7, #4]
 10580 0064 1D4A     		ldr	r2, .L565
 10581 0066 9342     		cmp	r3, r2
 10582 0068 0DD1     		bne	.L563
4797:Drivers/STM32F1xx_HAL_Driver/Src/stm32f1xx_hal_tim.c ****   {
4798:Drivers/STM32F1xx_HAL_Driver/Src/stm32f1xx_hal_tim.c ****     assert_param(IS_TIM_OCN_POLARITY(OC_Config->OCNPolarity));
4799:Drivers/STM32F1xx_HAL_Driver/Src/stm32f1xx_hal_tim.c **** 
4800:Drivers/STM32F1xx_HAL_Driver/Src/stm32f1xx_hal_tim.c ****     /* Reset the Output N Polarity level */
4801:Drivers/STM32F1xx_HAL_Driver/Src/stm32f1xx_hal_tim.c ****     tmpccer &= ~TIM_CCER_CC3NP;
 10583              		.loc 1 4801 0
 10584 006a 7B69     		ldr	r3, [r7, #20]
 10585 006c 23F40063 		bic	r3, r3, #2048
 10586 0070 7B61     		str	r3, [r7, #20]
4802:Drivers/STM32F1xx_HAL_Driver/Src/stm32f1xx_hal_tim.c ****     /* Set the Output N Polarity */
4803:Drivers/STM32F1xx_HAL_Driver/Src/stm32f1xx_hal_tim.c ****     tmpccer |= (OC_Config->OCNPolarity << 8U);
 10587              		.loc 1 4803 0
 10588 0072 3B68     		ldr	r3, [r7]
 10589 0074 DB68     		ldr	r3, [r3, #12]
 10590 0076 1B02     		lsls	r3, r3, #8
 10591 0078 7A69     		ldr	r2, [r7, #20]
 10592 007a 1343     		orrs	r3, r3, r2
 10593 007c 7B61     		str	r3, [r7, #20]
4804:Drivers/STM32F1xx_HAL_Driver/Src/stm32f1xx_hal_tim.c ****     /* Reset the Output N State */
4805:Drivers/STM32F1xx_HAL_Driver/Src/stm32f1xx_hal_tim.c ****     tmpccer &= ~TIM_CCER_CC3NE;
 10594              		.loc 1 4805 0
 10595 007e 7B69     		ldr	r3, [r7, #20]
 10596 0080 23F48063 		bic	r3, r3, #1024
 10597 0084 7B61     		str	r3, [r7, #20]
 10598              	.L563:
4806:Drivers/STM32F1xx_HAL_Driver/Src/stm32f1xx_hal_tim.c ****   }
4807:Drivers/STM32F1xx_HAL_Driver/Src/stm32f1xx_hal_tim.c **** 
4808:Drivers/STM32F1xx_HAL_Driver/Src/stm32f1xx_hal_tim.c ****   if(IS_TIM_BREAK_INSTANCE(TIMx))
 10599              		.loc 1 4808 0
ARM GAS  /tmp/cc5HGhWi.s 			page 271


 10600 0086 7B68     		ldr	r3, [r7, #4]
 10601 0088 144A     		ldr	r2, .L565
 10602 008a 9342     		cmp	r3, r2
 10603 008c 13D1     		bne	.L564
4809:Drivers/STM32F1xx_HAL_Driver/Src/stm32f1xx_hal_tim.c ****   {
4810:Drivers/STM32F1xx_HAL_Driver/Src/stm32f1xx_hal_tim.c ****     /* Check parameters */
4811:Drivers/STM32F1xx_HAL_Driver/Src/stm32f1xx_hal_tim.c ****     assert_param(IS_TIM_OCNIDLE_STATE(OC_Config->OCNIdleState));
4812:Drivers/STM32F1xx_HAL_Driver/Src/stm32f1xx_hal_tim.c ****     assert_param(IS_TIM_OCIDLE_STATE(OC_Config->OCIdleState));
4813:Drivers/STM32F1xx_HAL_Driver/Src/stm32f1xx_hal_tim.c **** 
4814:Drivers/STM32F1xx_HAL_Driver/Src/stm32f1xx_hal_tim.c ****     /* Reset the Output Compare and Output Compare N IDLE State */
4815:Drivers/STM32F1xx_HAL_Driver/Src/stm32f1xx_hal_tim.c ****     tmpcr2 &= ~TIM_CR2_OIS3;
 10604              		.loc 1 4815 0
 10605 008e 3B69     		ldr	r3, [r7, #16]
 10606 0090 23F48053 		bic	r3, r3, #4096
 10607 0094 3B61     		str	r3, [r7, #16]
4816:Drivers/STM32F1xx_HAL_Driver/Src/stm32f1xx_hal_tim.c ****     tmpcr2 &= ~TIM_CR2_OIS3N;
 10608              		.loc 1 4816 0
 10609 0096 3B69     		ldr	r3, [r7, #16]
 10610 0098 23F40053 		bic	r3, r3, #8192
 10611 009c 3B61     		str	r3, [r7, #16]
4817:Drivers/STM32F1xx_HAL_Driver/Src/stm32f1xx_hal_tim.c ****     /* Set the Output Idle state */
4818:Drivers/STM32F1xx_HAL_Driver/Src/stm32f1xx_hal_tim.c ****     tmpcr2 |= (OC_Config->OCIdleState << 4U);
 10612              		.loc 1 4818 0
 10613 009e 3B68     		ldr	r3, [r7]
 10614 00a0 5B69     		ldr	r3, [r3, #20]
 10615 00a2 1B01     		lsls	r3, r3, #4
 10616 00a4 3A69     		ldr	r2, [r7, #16]
 10617 00a6 1343     		orrs	r3, r3, r2
 10618 00a8 3B61     		str	r3, [r7, #16]
4819:Drivers/STM32F1xx_HAL_Driver/Src/stm32f1xx_hal_tim.c ****     /* Set the Output N Idle state */
4820:Drivers/STM32F1xx_HAL_Driver/Src/stm32f1xx_hal_tim.c ****     tmpcr2 |= (OC_Config->OCNIdleState << 4U);
 10619              		.loc 1 4820 0
 10620 00aa 3B68     		ldr	r3, [r7]
 10621 00ac 9B69     		ldr	r3, [r3, #24]
 10622 00ae 1B01     		lsls	r3, r3, #4
 10623 00b0 3A69     		ldr	r2, [r7, #16]
 10624 00b2 1343     		orrs	r3, r3, r2
 10625 00b4 3B61     		str	r3, [r7, #16]
 10626              	.L564:
4821:Drivers/STM32F1xx_HAL_Driver/Src/stm32f1xx_hal_tim.c ****   }
4822:Drivers/STM32F1xx_HAL_Driver/Src/stm32f1xx_hal_tim.c **** 
4823:Drivers/STM32F1xx_HAL_Driver/Src/stm32f1xx_hal_tim.c ****   /* Write to TIMx CR2 */
4824:Drivers/STM32F1xx_HAL_Driver/Src/stm32f1xx_hal_tim.c ****   TIMx->CR2 = tmpcr2;
 10627              		.loc 1 4824 0
 10628 00b6 7B68     		ldr	r3, [r7, #4]
 10629 00b8 3A69     		ldr	r2, [r7, #16]
 10630 00ba 5A60     		str	r2, [r3, #4]
4825:Drivers/STM32F1xx_HAL_Driver/Src/stm32f1xx_hal_tim.c **** 
4826:Drivers/STM32F1xx_HAL_Driver/Src/stm32f1xx_hal_tim.c ****   /* Write to TIMx CCMR2 */
4827:Drivers/STM32F1xx_HAL_Driver/Src/stm32f1xx_hal_tim.c ****   TIMx->CCMR2 = tmpccmrx;
 10631              		.loc 1 4827 0
 10632 00bc 7B68     		ldr	r3, [r7, #4]
 10633 00be FA68     		ldr	r2, [r7, #12]
 10634 00c0 DA61     		str	r2, [r3, #28]
4828:Drivers/STM32F1xx_HAL_Driver/Src/stm32f1xx_hal_tim.c **** 
4829:Drivers/STM32F1xx_HAL_Driver/Src/stm32f1xx_hal_tim.c ****   /* Set the Capture Compare Register value */
4830:Drivers/STM32F1xx_HAL_Driver/Src/stm32f1xx_hal_tim.c ****   TIMx->CCR3 = OC_Config->Pulse;
ARM GAS  /tmp/cc5HGhWi.s 			page 272


 10635              		.loc 1 4830 0
 10636 00c2 3B68     		ldr	r3, [r7]
 10637 00c4 5A68     		ldr	r2, [r3, #4]
 10638 00c6 7B68     		ldr	r3, [r7, #4]
 10639 00c8 DA63     		str	r2, [r3, #60]
4831:Drivers/STM32F1xx_HAL_Driver/Src/stm32f1xx_hal_tim.c **** 
4832:Drivers/STM32F1xx_HAL_Driver/Src/stm32f1xx_hal_tim.c ****   /* Write to TIMx CCER */
4833:Drivers/STM32F1xx_HAL_Driver/Src/stm32f1xx_hal_tim.c ****   TIMx->CCER = tmpccer;
 10640              		.loc 1 4833 0
 10641 00ca 7B68     		ldr	r3, [r7, #4]
 10642 00cc 7A69     		ldr	r2, [r7, #20]
 10643 00ce 1A62     		str	r2, [r3, #32]
4834:Drivers/STM32F1xx_HAL_Driver/Src/stm32f1xx_hal_tim.c **** }
 10644              		.loc 1 4834 0
 10645 00d0 00BF     		nop
 10646 00d2 1C37     		adds	r7, r7, #28
 10647              	.LCFI508:
 10648              		.cfi_def_cfa_offset 4
 10649 00d4 BD46     		mov	sp, r7
 10650              	.LCFI509:
 10651              		.cfi_def_cfa_register 13
 10652              		@ sp needed
 10653 00d6 80BC     		pop	{r7}
 10654              	.LCFI510:
 10655              		.cfi_restore 7
 10656              		.cfi_def_cfa_offset 0
 10657 00d8 7047     		bx	lr
 10658              	.L566:
 10659 00da 00BF     		.align	2
 10660              	.L565:
 10661 00dc 002C0140 		.word	1073818624
 10662              		.cfi_endproc
 10663              	.LFE160:
 10665              		.section	.text.TIM_OC4_SetConfig,"ax",%progbits
 10666              		.align	1
 10667              		.syntax unified
 10668              		.thumb
 10669              		.thumb_func
 10670              		.fpu softvfp
 10672              	TIM_OC4_SetConfig:
 10673              	.LFB161:
4835:Drivers/STM32F1xx_HAL_Driver/Src/stm32f1xx_hal_tim.c **** 
4836:Drivers/STM32F1xx_HAL_Driver/Src/stm32f1xx_hal_tim.c **** /**
4837:Drivers/STM32F1xx_HAL_Driver/Src/stm32f1xx_hal_tim.c ****   * @brief  Time Ouput Compare 4 configuration
4838:Drivers/STM32F1xx_HAL_Driver/Src/stm32f1xx_hal_tim.c ****   * @param  TIMx  to select the TIM peripheral
4839:Drivers/STM32F1xx_HAL_Driver/Src/stm32f1xx_hal_tim.c ****   * @param  OC_Config : The ouput configuration structure
4840:Drivers/STM32F1xx_HAL_Driver/Src/stm32f1xx_hal_tim.c ****   * @retval None
4841:Drivers/STM32F1xx_HAL_Driver/Src/stm32f1xx_hal_tim.c ****   */
4842:Drivers/STM32F1xx_HAL_Driver/Src/stm32f1xx_hal_tim.c **** static void TIM_OC4_SetConfig(TIM_TypeDef *TIMx, TIM_OC_InitTypeDef *OC_Config)
4843:Drivers/STM32F1xx_HAL_Driver/Src/stm32f1xx_hal_tim.c **** {
 10674              		.loc 1 4843 0
 10675              		.cfi_startproc
 10676              		@ args = 0, pretend = 0, frame = 24
 10677              		@ frame_needed = 1, uses_anonymous_args = 0
 10678              		@ link register save eliminated.
 10679 0000 80B4     		push	{r7}
 10680              	.LCFI511:
ARM GAS  /tmp/cc5HGhWi.s 			page 273


 10681              		.cfi_def_cfa_offset 4
 10682              		.cfi_offset 7, -4
 10683 0002 87B0     		sub	sp, sp, #28
 10684              	.LCFI512:
 10685              		.cfi_def_cfa_offset 32
 10686 0004 00AF     		add	r7, sp, #0
 10687              	.LCFI513:
 10688              		.cfi_def_cfa_register 7
 10689 0006 7860     		str	r0, [r7, #4]
 10690 0008 3960     		str	r1, [r7]
4844:Drivers/STM32F1xx_HAL_Driver/Src/stm32f1xx_hal_tim.c ****   uint32_t tmpccmrx = 0U;
 10691              		.loc 1 4844 0
 10692 000a 0023     		movs	r3, #0
 10693 000c 3B61     		str	r3, [r7, #16]
4845:Drivers/STM32F1xx_HAL_Driver/Src/stm32f1xx_hal_tim.c ****   uint32_t tmpccer = 0U;
 10694              		.loc 1 4845 0
 10695 000e 0023     		movs	r3, #0
 10696 0010 FB60     		str	r3, [r7, #12]
4846:Drivers/STM32F1xx_HAL_Driver/Src/stm32f1xx_hal_tim.c ****   uint32_t tmpcr2 = 0U;
 10697              		.loc 1 4846 0
 10698 0012 0023     		movs	r3, #0
 10699 0014 7B61     		str	r3, [r7, #20]
4847:Drivers/STM32F1xx_HAL_Driver/Src/stm32f1xx_hal_tim.c **** 
4848:Drivers/STM32F1xx_HAL_Driver/Src/stm32f1xx_hal_tim.c ****   /* Disable the Channel 4: Reset the CC4E Bit */
4849:Drivers/STM32F1xx_HAL_Driver/Src/stm32f1xx_hal_tim.c ****   TIMx->CCER &= ~TIM_CCER_CC4E;
 10700              		.loc 1 4849 0
 10701 0016 7B68     		ldr	r3, [r7, #4]
 10702 0018 1B6A     		ldr	r3, [r3, #32]
 10703 001a 23F48052 		bic	r2, r3, #4096
 10704 001e 7B68     		ldr	r3, [r7, #4]
 10705 0020 1A62     		str	r2, [r3, #32]
4850:Drivers/STM32F1xx_HAL_Driver/Src/stm32f1xx_hal_tim.c **** 
4851:Drivers/STM32F1xx_HAL_Driver/Src/stm32f1xx_hal_tim.c ****   /* Get the TIMx CCER register value */
4852:Drivers/STM32F1xx_HAL_Driver/Src/stm32f1xx_hal_tim.c ****   tmpccer = TIMx->CCER;
 10706              		.loc 1 4852 0
 10707 0022 7B68     		ldr	r3, [r7, #4]
 10708 0024 1B6A     		ldr	r3, [r3, #32]
 10709 0026 FB60     		str	r3, [r7, #12]
4853:Drivers/STM32F1xx_HAL_Driver/Src/stm32f1xx_hal_tim.c ****   /* Get the TIMx CR2 register value */
4854:Drivers/STM32F1xx_HAL_Driver/Src/stm32f1xx_hal_tim.c ****   tmpcr2 =  TIMx->CR2;
 10710              		.loc 1 4854 0
 10711 0028 7B68     		ldr	r3, [r7, #4]
 10712 002a 5B68     		ldr	r3, [r3, #4]
 10713 002c 7B61     		str	r3, [r7, #20]
4855:Drivers/STM32F1xx_HAL_Driver/Src/stm32f1xx_hal_tim.c **** 
4856:Drivers/STM32F1xx_HAL_Driver/Src/stm32f1xx_hal_tim.c ****   /* Get the TIMx CCMR2 register value */
4857:Drivers/STM32F1xx_HAL_Driver/Src/stm32f1xx_hal_tim.c ****   tmpccmrx = TIMx->CCMR2;
 10714              		.loc 1 4857 0
 10715 002e 7B68     		ldr	r3, [r7, #4]
 10716 0030 DB69     		ldr	r3, [r3, #28]
 10717 0032 3B61     		str	r3, [r7, #16]
4858:Drivers/STM32F1xx_HAL_Driver/Src/stm32f1xx_hal_tim.c **** 
4859:Drivers/STM32F1xx_HAL_Driver/Src/stm32f1xx_hal_tim.c ****   /* Reset the Output Compare mode and Capture/Compare selection Bits */
4860:Drivers/STM32F1xx_HAL_Driver/Src/stm32f1xx_hal_tim.c ****   tmpccmrx &= ~TIM_CCMR2_OC4M;
 10718              		.loc 1 4860 0
 10719 0034 3B69     		ldr	r3, [r7, #16]
 10720 0036 23F4E043 		bic	r3, r3, #28672
ARM GAS  /tmp/cc5HGhWi.s 			page 274


 10721 003a 3B61     		str	r3, [r7, #16]
4861:Drivers/STM32F1xx_HAL_Driver/Src/stm32f1xx_hal_tim.c ****   tmpccmrx &= ~TIM_CCMR2_CC4S;
 10722              		.loc 1 4861 0
 10723 003c 3B69     		ldr	r3, [r7, #16]
 10724 003e 23F44073 		bic	r3, r3, #768
 10725 0042 3B61     		str	r3, [r7, #16]
4862:Drivers/STM32F1xx_HAL_Driver/Src/stm32f1xx_hal_tim.c **** 
4863:Drivers/STM32F1xx_HAL_Driver/Src/stm32f1xx_hal_tim.c ****   /* Select the Output Compare Mode */
4864:Drivers/STM32F1xx_HAL_Driver/Src/stm32f1xx_hal_tim.c ****   tmpccmrx |= (OC_Config->OCMode << 8U);
 10726              		.loc 1 4864 0
 10727 0044 3B68     		ldr	r3, [r7]
 10728 0046 1B68     		ldr	r3, [r3]
 10729 0048 1B02     		lsls	r3, r3, #8
 10730 004a 3A69     		ldr	r2, [r7, #16]
 10731 004c 1343     		orrs	r3, r3, r2
 10732 004e 3B61     		str	r3, [r7, #16]
4865:Drivers/STM32F1xx_HAL_Driver/Src/stm32f1xx_hal_tim.c **** 
4866:Drivers/STM32F1xx_HAL_Driver/Src/stm32f1xx_hal_tim.c ****   /* Reset the Output Polarity level */
4867:Drivers/STM32F1xx_HAL_Driver/Src/stm32f1xx_hal_tim.c ****   tmpccer &= ~TIM_CCER_CC4P;
 10733              		.loc 1 4867 0
 10734 0050 FB68     		ldr	r3, [r7, #12]
 10735 0052 23F40053 		bic	r3, r3, #8192
 10736 0056 FB60     		str	r3, [r7, #12]
4868:Drivers/STM32F1xx_HAL_Driver/Src/stm32f1xx_hal_tim.c ****   /* Set the Output Compare Polarity */
4869:Drivers/STM32F1xx_HAL_Driver/Src/stm32f1xx_hal_tim.c ****   tmpccer |= (OC_Config->OCPolarity << 12U);
 10737              		.loc 1 4869 0
 10738 0058 3B68     		ldr	r3, [r7]
 10739 005a 9B68     		ldr	r3, [r3, #8]
 10740 005c 1B03     		lsls	r3, r3, #12
 10741 005e FA68     		ldr	r2, [r7, #12]
 10742 0060 1343     		orrs	r3, r3, r2
 10743 0062 FB60     		str	r3, [r7, #12]
4870:Drivers/STM32F1xx_HAL_Driver/Src/stm32f1xx_hal_tim.c **** 
4871:Drivers/STM32F1xx_HAL_Driver/Src/stm32f1xx_hal_tim.c ****   if(IS_TIM_BREAK_INSTANCE(TIMx))
 10744              		.loc 1 4871 0
 10745 0064 7B68     		ldr	r3, [r7, #4]
 10746 0066 0F4A     		ldr	r2, .L569
 10747 0068 9342     		cmp	r3, r2
 10748 006a 09D1     		bne	.L568
4872:Drivers/STM32F1xx_HAL_Driver/Src/stm32f1xx_hal_tim.c ****   {
4873:Drivers/STM32F1xx_HAL_Driver/Src/stm32f1xx_hal_tim.c ****     assert_param(IS_TIM_OCIDLE_STATE(OC_Config->OCIdleState));
4874:Drivers/STM32F1xx_HAL_Driver/Src/stm32f1xx_hal_tim.c **** 
4875:Drivers/STM32F1xx_HAL_Driver/Src/stm32f1xx_hal_tim.c ****    /* Reset the Output Compare IDLE State */
4876:Drivers/STM32F1xx_HAL_Driver/Src/stm32f1xx_hal_tim.c ****     tmpcr2 &= ~TIM_CR2_OIS4;
 10749              		.loc 1 4876 0
 10750 006c 7B69     		ldr	r3, [r7, #20]
 10751 006e 23F48043 		bic	r3, r3, #16384
 10752 0072 7B61     		str	r3, [r7, #20]
4877:Drivers/STM32F1xx_HAL_Driver/Src/stm32f1xx_hal_tim.c ****     /* Set the Output Idle state */
4878:Drivers/STM32F1xx_HAL_Driver/Src/stm32f1xx_hal_tim.c ****     tmpcr2 |= (OC_Config->OCIdleState << 6);
 10753              		.loc 1 4878 0
 10754 0074 3B68     		ldr	r3, [r7]
 10755 0076 5B69     		ldr	r3, [r3, #20]
 10756 0078 9B01     		lsls	r3, r3, #6
 10757 007a 7A69     		ldr	r2, [r7, #20]
 10758 007c 1343     		orrs	r3, r3, r2
 10759 007e 7B61     		str	r3, [r7, #20]
ARM GAS  /tmp/cc5HGhWi.s 			page 275


 10760              	.L568:
4879:Drivers/STM32F1xx_HAL_Driver/Src/stm32f1xx_hal_tim.c ****   }
4880:Drivers/STM32F1xx_HAL_Driver/Src/stm32f1xx_hal_tim.c **** 
4881:Drivers/STM32F1xx_HAL_Driver/Src/stm32f1xx_hal_tim.c ****   /* Write to TIMx CR2 */
4882:Drivers/STM32F1xx_HAL_Driver/Src/stm32f1xx_hal_tim.c ****   TIMx->CR2 = tmpcr2;
 10761              		.loc 1 4882 0
 10762 0080 7B68     		ldr	r3, [r7, #4]
 10763 0082 7A69     		ldr	r2, [r7, #20]
 10764 0084 5A60     		str	r2, [r3, #4]
4883:Drivers/STM32F1xx_HAL_Driver/Src/stm32f1xx_hal_tim.c **** 
4884:Drivers/STM32F1xx_HAL_Driver/Src/stm32f1xx_hal_tim.c ****   /* Write to TIMx CCMR2 */
4885:Drivers/STM32F1xx_HAL_Driver/Src/stm32f1xx_hal_tim.c ****   TIMx->CCMR2 = tmpccmrx;
 10765              		.loc 1 4885 0
 10766 0086 7B68     		ldr	r3, [r7, #4]
 10767 0088 3A69     		ldr	r2, [r7, #16]
 10768 008a DA61     		str	r2, [r3, #28]
4886:Drivers/STM32F1xx_HAL_Driver/Src/stm32f1xx_hal_tim.c **** 
4887:Drivers/STM32F1xx_HAL_Driver/Src/stm32f1xx_hal_tim.c ****   /* Set the Capture Compare Register value */
4888:Drivers/STM32F1xx_HAL_Driver/Src/stm32f1xx_hal_tim.c ****   TIMx->CCR4 = OC_Config->Pulse;
 10769              		.loc 1 4888 0
 10770 008c 3B68     		ldr	r3, [r7]
 10771 008e 5A68     		ldr	r2, [r3, #4]
 10772 0090 7B68     		ldr	r3, [r7, #4]
 10773 0092 1A64     		str	r2, [r3, #64]
4889:Drivers/STM32F1xx_HAL_Driver/Src/stm32f1xx_hal_tim.c **** 
4890:Drivers/STM32F1xx_HAL_Driver/Src/stm32f1xx_hal_tim.c ****   /* Write to TIMx CCER */
4891:Drivers/STM32F1xx_HAL_Driver/Src/stm32f1xx_hal_tim.c ****   TIMx->CCER = tmpccer;
 10774              		.loc 1 4891 0
 10775 0094 7B68     		ldr	r3, [r7, #4]
 10776 0096 FA68     		ldr	r2, [r7, #12]
 10777 0098 1A62     		str	r2, [r3, #32]
4892:Drivers/STM32F1xx_HAL_Driver/Src/stm32f1xx_hal_tim.c **** }
 10778              		.loc 1 4892 0
 10779 009a 00BF     		nop
 10780 009c 1C37     		adds	r7, r7, #28
 10781              	.LCFI514:
 10782              		.cfi_def_cfa_offset 4
 10783 009e BD46     		mov	sp, r7
 10784              	.LCFI515:
 10785              		.cfi_def_cfa_register 13
 10786              		@ sp needed
 10787 00a0 80BC     		pop	{r7}
 10788              	.LCFI516:
 10789              		.cfi_restore 7
 10790              		.cfi_def_cfa_offset 0
 10791 00a2 7047     		bx	lr
 10792              	.L570:
 10793              		.align	2
 10794              	.L569:
 10795 00a4 002C0140 		.word	1073818624
 10796              		.cfi_endproc
 10797              	.LFE161:
 10799              		.section	.text.TIM_SlaveTimer_SetConfig,"ax",%progbits
 10800              		.align	1
 10801              		.syntax unified
 10802              		.thumb
 10803              		.thumb_func
ARM GAS  /tmp/cc5HGhWi.s 			page 276


 10804              		.fpu softvfp
 10806              	TIM_SlaveTimer_SetConfig:
 10807              	.LFB162:
4893:Drivers/STM32F1xx_HAL_Driver/Src/stm32f1xx_hal_tim.c **** 
4894:Drivers/STM32F1xx_HAL_Driver/Src/stm32f1xx_hal_tim.c **** 
4895:Drivers/STM32F1xx_HAL_Driver/Src/stm32f1xx_hal_tim.c **** /**
4896:Drivers/STM32F1xx_HAL_Driver/Src/stm32f1xx_hal_tim.c ****   * @brief  Time Slave configuration
4897:Drivers/STM32F1xx_HAL_Driver/Src/stm32f1xx_hal_tim.c ****   * @param  htim: pointer to a TIM_HandleTypeDef structure that contains
4898:Drivers/STM32F1xx_HAL_Driver/Src/stm32f1xx_hal_tim.c ****   *                the configuration information for TIM module.
4899:Drivers/STM32F1xx_HAL_Driver/Src/stm32f1xx_hal_tim.c ****   * @param  sSlaveConfig: The slave configuration structure
4900:Drivers/STM32F1xx_HAL_Driver/Src/stm32f1xx_hal_tim.c ****   * @retval None
4901:Drivers/STM32F1xx_HAL_Driver/Src/stm32f1xx_hal_tim.c ****   */
4902:Drivers/STM32F1xx_HAL_Driver/Src/stm32f1xx_hal_tim.c **** static void TIM_SlaveTimer_SetConfig(TIM_HandleTypeDef *htim,
4903:Drivers/STM32F1xx_HAL_Driver/Src/stm32f1xx_hal_tim.c ****                               TIM_SlaveConfigTypeDef * sSlaveConfig)
4904:Drivers/STM32F1xx_HAL_Driver/Src/stm32f1xx_hal_tim.c **** {
 10808              		.loc 1 4904 0
 10809              		.cfi_startproc
 10810              		@ args = 0, pretend = 0, frame = 24
 10811              		@ frame_needed = 1, uses_anonymous_args = 0
 10812 0000 80B5     		push	{r7, lr}
 10813              	.LCFI517:
 10814              		.cfi_def_cfa_offset 8
 10815              		.cfi_offset 7, -8
 10816              		.cfi_offset 14, -4
 10817 0002 86B0     		sub	sp, sp, #24
 10818              	.LCFI518:
 10819              		.cfi_def_cfa_offset 32
 10820 0004 00AF     		add	r7, sp, #0
 10821              	.LCFI519:
 10822              		.cfi_def_cfa_register 7
 10823 0006 7860     		str	r0, [r7, #4]
 10824 0008 3960     		str	r1, [r7]
4905:Drivers/STM32F1xx_HAL_Driver/Src/stm32f1xx_hal_tim.c ****   uint32_t tmpsmcr = 0U;
 10825              		.loc 1 4905 0
 10826 000a 0023     		movs	r3, #0
 10827 000c 7B61     		str	r3, [r7, #20]
4906:Drivers/STM32F1xx_HAL_Driver/Src/stm32f1xx_hal_tim.c ****   uint32_t tmpccmr1 = 0U;
 10828              		.loc 1 4906 0
 10829 000e 0023     		movs	r3, #0
 10830 0010 3B61     		str	r3, [r7, #16]
4907:Drivers/STM32F1xx_HAL_Driver/Src/stm32f1xx_hal_tim.c ****   uint32_t tmpccer = 0U;
 10831              		.loc 1 4907 0
 10832 0012 0023     		movs	r3, #0
 10833 0014 FB60     		str	r3, [r7, #12]
4908:Drivers/STM32F1xx_HAL_Driver/Src/stm32f1xx_hal_tim.c **** 
4909:Drivers/STM32F1xx_HAL_Driver/Src/stm32f1xx_hal_tim.c ****   /* Get the TIMx SMCR register value */
4910:Drivers/STM32F1xx_HAL_Driver/Src/stm32f1xx_hal_tim.c ****   tmpsmcr = htim->Instance->SMCR;
 10834              		.loc 1 4910 0
 10835 0016 7B68     		ldr	r3, [r7, #4]
 10836 0018 1B68     		ldr	r3, [r3]
 10837 001a 9B68     		ldr	r3, [r3, #8]
 10838 001c 7B61     		str	r3, [r7, #20]
4911:Drivers/STM32F1xx_HAL_Driver/Src/stm32f1xx_hal_tim.c **** 
4912:Drivers/STM32F1xx_HAL_Driver/Src/stm32f1xx_hal_tim.c ****   /* Reset the Trigger Selection Bits */
4913:Drivers/STM32F1xx_HAL_Driver/Src/stm32f1xx_hal_tim.c ****   tmpsmcr &= ~TIM_SMCR_TS;
 10839              		.loc 1 4913 0
 10840 001e 7B69     		ldr	r3, [r7, #20]
ARM GAS  /tmp/cc5HGhWi.s 			page 277


 10841 0020 23F07003 		bic	r3, r3, #112
 10842 0024 7B61     		str	r3, [r7, #20]
4914:Drivers/STM32F1xx_HAL_Driver/Src/stm32f1xx_hal_tim.c ****   /* Set the Input Trigger source */
4915:Drivers/STM32F1xx_HAL_Driver/Src/stm32f1xx_hal_tim.c ****   tmpsmcr |= sSlaveConfig->InputTrigger;
 10843              		.loc 1 4915 0
 10844 0026 3B68     		ldr	r3, [r7]
 10845 0028 5B68     		ldr	r3, [r3, #4]
 10846 002a 7A69     		ldr	r2, [r7, #20]
 10847 002c 1343     		orrs	r3, r3, r2
 10848 002e 7B61     		str	r3, [r7, #20]
4916:Drivers/STM32F1xx_HAL_Driver/Src/stm32f1xx_hal_tim.c **** 
4917:Drivers/STM32F1xx_HAL_Driver/Src/stm32f1xx_hal_tim.c ****   /* Reset the slave mode Bits */
4918:Drivers/STM32F1xx_HAL_Driver/Src/stm32f1xx_hal_tim.c ****   tmpsmcr &= ~TIM_SMCR_SMS;
 10849              		.loc 1 4918 0
 10850 0030 7B69     		ldr	r3, [r7, #20]
 10851 0032 23F00703 		bic	r3, r3, #7
 10852 0036 7B61     		str	r3, [r7, #20]
4919:Drivers/STM32F1xx_HAL_Driver/Src/stm32f1xx_hal_tim.c ****   /* Set the slave mode */
4920:Drivers/STM32F1xx_HAL_Driver/Src/stm32f1xx_hal_tim.c ****   tmpsmcr |= sSlaveConfig->SlaveMode;
 10853              		.loc 1 4920 0
 10854 0038 3B68     		ldr	r3, [r7]
 10855 003a 1B68     		ldr	r3, [r3]
 10856 003c 7A69     		ldr	r2, [r7, #20]
 10857 003e 1343     		orrs	r3, r3, r2
 10858 0040 7B61     		str	r3, [r7, #20]
4921:Drivers/STM32F1xx_HAL_Driver/Src/stm32f1xx_hal_tim.c **** 
4922:Drivers/STM32F1xx_HAL_Driver/Src/stm32f1xx_hal_tim.c ****   /* Write to TIMx SMCR */
4923:Drivers/STM32F1xx_HAL_Driver/Src/stm32f1xx_hal_tim.c ****   htim->Instance->SMCR = tmpsmcr;
 10859              		.loc 1 4923 0
 10860 0042 7B68     		ldr	r3, [r7, #4]
 10861 0044 1B68     		ldr	r3, [r3]
 10862 0046 7A69     		ldr	r2, [r7, #20]
 10863 0048 9A60     		str	r2, [r3, #8]
4924:Drivers/STM32F1xx_HAL_Driver/Src/stm32f1xx_hal_tim.c **** 
4925:Drivers/STM32F1xx_HAL_Driver/Src/stm32f1xx_hal_tim.c ****   /* Configure the trigger prescaler, filter, and polarity */
4926:Drivers/STM32F1xx_HAL_Driver/Src/stm32f1xx_hal_tim.c ****   switch (sSlaveConfig->InputTrigger)
 10864              		.loc 1 4926 0
 10865 004a 3B68     		ldr	r3, [r7]
 10866 004c 5B68     		ldr	r3, [r3, #4]
 10867 004e 302B     		cmp	r3, #48
 10868 0050 56D0     		beq	.L584
 10869 0052 302B     		cmp	r3, #48
 10870 0054 06D8     		bhi	.L574
 10871 0056 102B     		cmp	r3, #16
 10872 0058 54D0     		beq	.L585
 10873 005a 202B     		cmp	r3, #32
 10874 005c 54D0     		beq	.L586
 10875 005e 002B     		cmp	r3, #0
 10876 0060 54D0     		beq	.L587
4927:Drivers/STM32F1xx_HAL_Driver/Src/stm32f1xx_hal_tim.c ****   {
4928:Drivers/STM32F1xx_HAL_Driver/Src/stm32f1xx_hal_tim.c ****   case TIM_TS_ETRF:
4929:Drivers/STM32F1xx_HAL_Driver/Src/stm32f1xx_hal_tim.c ****     {
4930:Drivers/STM32F1xx_HAL_Driver/Src/stm32f1xx_hal_tim.c ****       /* Check the parameters */
4931:Drivers/STM32F1xx_HAL_Driver/Src/stm32f1xx_hal_tim.c ****       assert_param(IS_TIM_CLOCKSOURCE_ETRMODE1_INSTANCE(htim->Instance));
4932:Drivers/STM32F1xx_HAL_Driver/Src/stm32f1xx_hal_tim.c ****       assert_param(IS_TIM_TRIGGERPRESCALER(sSlaveConfig->TriggerPrescaler));
4933:Drivers/STM32F1xx_HAL_Driver/Src/stm32f1xx_hal_tim.c ****       assert_param(IS_TIM_TRIGGERPOLARITY(sSlaveConfig->TriggerPolarity));
4934:Drivers/STM32F1xx_HAL_Driver/Src/stm32f1xx_hal_tim.c ****       assert_param(IS_TIM_TRIGGERFILTER(sSlaveConfig->TriggerFilter));
ARM GAS  /tmp/cc5HGhWi.s 			page 278


4935:Drivers/STM32F1xx_HAL_Driver/Src/stm32f1xx_hal_tim.c ****       /* Configure the ETR Trigger source */
4936:Drivers/STM32F1xx_HAL_Driver/Src/stm32f1xx_hal_tim.c ****       TIM_ETR_SetConfig(htim->Instance,
4937:Drivers/STM32F1xx_HAL_Driver/Src/stm32f1xx_hal_tim.c ****                         sSlaveConfig->TriggerPrescaler,
4938:Drivers/STM32F1xx_HAL_Driver/Src/stm32f1xx_hal_tim.c ****                         sSlaveConfig->TriggerPolarity,
4939:Drivers/STM32F1xx_HAL_Driver/Src/stm32f1xx_hal_tim.c ****                         sSlaveConfig->TriggerFilter);
4940:Drivers/STM32F1xx_HAL_Driver/Src/stm32f1xx_hal_tim.c ****     }
4941:Drivers/STM32F1xx_HAL_Driver/Src/stm32f1xx_hal_tim.c ****     break;
4942:Drivers/STM32F1xx_HAL_Driver/Src/stm32f1xx_hal_tim.c **** 
4943:Drivers/STM32F1xx_HAL_Driver/Src/stm32f1xx_hal_tim.c ****   case TIM_TS_TI1F_ED:
4944:Drivers/STM32F1xx_HAL_Driver/Src/stm32f1xx_hal_tim.c ****     {
4945:Drivers/STM32F1xx_HAL_Driver/Src/stm32f1xx_hal_tim.c ****       /* Check the parameters */
4946:Drivers/STM32F1xx_HAL_Driver/Src/stm32f1xx_hal_tim.c ****       assert_param(IS_TIM_CC1_INSTANCE(htim->Instance));
4947:Drivers/STM32F1xx_HAL_Driver/Src/stm32f1xx_hal_tim.c ****       assert_param(IS_TIM_TRIGGERFILTER(sSlaveConfig->TriggerFilter));
4948:Drivers/STM32F1xx_HAL_Driver/Src/stm32f1xx_hal_tim.c **** 
4949:Drivers/STM32F1xx_HAL_Driver/Src/stm32f1xx_hal_tim.c ****       /* Disable the Channel 1: Reset the CC1E Bit */
4950:Drivers/STM32F1xx_HAL_Driver/Src/stm32f1xx_hal_tim.c ****       tmpccer = htim->Instance->CCER;
4951:Drivers/STM32F1xx_HAL_Driver/Src/stm32f1xx_hal_tim.c ****       htim->Instance->CCER &= ~TIM_CCER_CC1E;
4952:Drivers/STM32F1xx_HAL_Driver/Src/stm32f1xx_hal_tim.c ****       tmpccmr1 = htim->Instance->CCMR1;
4953:Drivers/STM32F1xx_HAL_Driver/Src/stm32f1xx_hal_tim.c **** 
4954:Drivers/STM32F1xx_HAL_Driver/Src/stm32f1xx_hal_tim.c ****       /* Set the filter */
4955:Drivers/STM32F1xx_HAL_Driver/Src/stm32f1xx_hal_tim.c ****       tmpccmr1 &= ~TIM_CCMR1_IC1F;
4956:Drivers/STM32F1xx_HAL_Driver/Src/stm32f1xx_hal_tim.c ****       tmpccmr1 |= ((sSlaveConfig->TriggerFilter) << 4U);
4957:Drivers/STM32F1xx_HAL_Driver/Src/stm32f1xx_hal_tim.c **** 
4958:Drivers/STM32F1xx_HAL_Driver/Src/stm32f1xx_hal_tim.c ****       /* Write to TIMx CCMR1 and CCER registers */
4959:Drivers/STM32F1xx_HAL_Driver/Src/stm32f1xx_hal_tim.c ****       htim->Instance->CCMR1 = tmpccmr1;
4960:Drivers/STM32F1xx_HAL_Driver/Src/stm32f1xx_hal_tim.c ****       htim->Instance->CCER = tmpccer;
4961:Drivers/STM32F1xx_HAL_Driver/Src/stm32f1xx_hal_tim.c **** 
4962:Drivers/STM32F1xx_HAL_Driver/Src/stm32f1xx_hal_tim.c ****     }
4963:Drivers/STM32F1xx_HAL_Driver/Src/stm32f1xx_hal_tim.c ****     break;
4964:Drivers/STM32F1xx_HAL_Driver/Src/stm32f1xx_hal_tim.c **** 
4965:Drivers/STM32F1xx_HAL_Driver/Src/stm32f1xx_hal_tim.c ****   case TIM_TS_TI1FP1:
4966:Drivers/STM32F1xx_HAL_Driver/Src/stm32f1xx_hal_tim.c ****     {
4967:Drivers/STM32F1xx_HAL_Driver/Src/stm32f1xx_hal_tim.c ****       /* Check the parameters */
4968:Drivers/STM32F1xx_HAL_Driver/Src/stm32f1xx_hal_tim.c ****       assert_param(IS_TIM_CC1_INSTANCE(htim->Instance));
4969:Drivers/STM32F1xx_HAL_Driver/Src/stm32f1xx_hal_tim.c ****       assert_param(IS_TIM_TRIGGERPOLARITY(sSlaveConfig->TriggerPolarity));
4970:Drivers/STM32F1xx_HAL_Driver/Src/stm32f1xx_hal_tim.c ****       assert_param(IS_TIM_TRIGGERFILTER(sSlaveConfig->TriggerFilter));
4971:Drivers/STM32F1xx_HAL_Driver/Src/stm32f1xx_hal_tim.c **** 
4972:Drivers/STM32F1xx_HAL_Driver/Src/stm32f1xx_hal_tim.c ****       /* Configure TI1 Filter and Polarity */
4973:Drivers/STM32F1xx_HAL_Driver/Src/stm32f1xx_hal_tim.c ****       TIM_TI1_ConfigInputStage(htim->Instance,
4974:Drivers/STM32F1xx_HAL_Driver/Src/stm32f1xx_hal_tim.c ****                                sSlaveConfig->TriggerPolarity,
4975:Drivers/STM32F1xx_HAL_Driver/Src/stm32f1xx_hal_tim.c ****                                sSlaveConfig->TriggerFilter);
4976:Drivers/STM32F1xx_HAL_Driver/Src/stm32f1xx_hal_tim.c ****     }
4977:Drivers/STM32F1xx_HAL_Driver/Src/stm32f1xx_hal_tim.c ****     break;
4978:Drivers/STM32F1xx_HAL_Driver/Src/stm32f1xx_hal_tim.c **** 
4979:Drivers/STM32F1xx_HAL_Driver/Src/stm32f1xx_hal_tim.c ****   case TIM_TS_TI2FP2:
4980:Drivers/STM32F1xx_HAL_Driver/Src/stm32f1xx_hal_tim.c ****     {
4981:Drivers/STM32F1xx_HAL_Driver/Src/stm32f1xx_hal_tim.c ****       /* Check the parameters */
4982:Drivers/STM32F1xx_HAL_Driver/Src/stm32f1xx_hal_tim.c ****       assert_param(IS_TIM_CC2_INSTANCE(htim->Instance));
4983:Drivers/STM32F1xx_HAL_Driver/Src/stm32f1xx_hal_tim.c ****       assert_param(IS_TIM_TRIGGERPOLARITY(sSlaveConfig->TriggerPolarity));
4984:Drivers/STM32F1xx_HAL_Driver/Src/stm32f1xx_hal_tim.c ****       assert_param(IS_TIM_TRIGGERFILTER(sSlaveConfig->TriggerFilter));
4985:Drivers/STM32F1xx_HAL_Driver/Src/stm32f1xx_hal_tim.c **** 
4986:Drivers/STM32F1xx_HAL_Driver/Src/stm32f1xx_hal_tim.c ****       /* Configure TI2 Filter and Polarity */
4987:Drivers/STM32F1xx_HAL_Driver/Src/stm32f1xx_hal_tim.c ****       TIM_TI2_ConfigInputStage(htim->Instance,
4988:Drivers/STM32F1xx_HAL_Driver/Src/stm32f1xx_hal_tim.c ****                                 sSlaveConfig->TriggerPolarity,
4989:Drivers/STM32F1xx_HAL_Driver/Src/stm32f1xx_hal_tim.c ****                                 sSlaveConfig->TriggerFilter);
4990:Drivers/STM32F1xx_HAL_Driver/Src/stm32f1xx_hal_tim.c ****     }
4991:Drivers/STM32F1xx_HAL_Driver/Src/stm32f1xx_hal_tim.c ****     break;
ARM GAS  /tmp/cc5HGhWi.s 			page 279


4992:Drivers/STM32F1xx_HAL_Driver/Src/stm32f1xx_hal_tim.c **** 
4993:Drivers/STM32F1xx_HAL_Driver/Src/stm32f1xx_hal_tim.c ****   case TIM_TS_ITR0:
4994:Drivers/STM32F1xx_HAL_Driver/Src/stm32f1xx_hal_tim.c ****     {
4995:Drivers/STM32F1xx_HAL_Driver/Src/stm32f1xx_hal_tim.c ****       /* Check the parameter */
4996:Drivers/STM32F1xx_HAL_Driver/Src/stm32f1xx_hal_tim.c ****       assert_param(IS_TIM_CC2_INSTANCE(htim->Instance));
4997:Drivers/STM32F1xx_HAL_Driver/Src/stm32f1xx_hal_tim.c ****     }
4998:Drivers/STM32F1xx_HAL_Driver/Src/stm32f1xx_hal_tim.c ****     break;
4999:Drivers/STM32F1xx_HAL_Driver/Src/stm32f1xx_hal_tim.c **** 
5000:Drivers/STM32F1xx_HAL_Driver/Src/stm32f1xx_hal_tim.c ****   case TIM_TS_ITR1:
5001:Drivers/STM32F1xx_HAL_Driver/Src/stm32f1xx_hal_tim.c ****     {
5002:Drivers/STM32F1xx_HAL_Driver/Src/stm32f1xx_hal_tim.c ****       /* Check the parameter */
5003:Drivers/STM32F1xx_HAL_Driver/Src/stm32f1xx_hal_tim.c ****       assert_param(IS_TIM_CC2_INSTANCE(htim->Instance));
5004:Drivers/STM32F1xx_HAL_Driver/Src/stm32f1xx_hal_tim.c ****     }
5005:Drivers/STM32F1xx_HAL_Driver/Src/stm32f1xx_hal_tim.c ****     break;
5006:Drivers/STM32F1xx_HAL_Driver/Src/stm32f1xx_hal_tim.c **** 
5007:Drivers/STM32F1xx_HAL_Driver/Src/stm32f1xx_hal_tim.c ****   case TIM_TS_ITR2:
5008:Drivers/STM32F1xx_HAL_Driver/Src/stm32f1xx_hal_tim.c ****     {
5009:Drivers/STM32F1xx_HAL_Driver/Src/stm32f1xx_hal_tim.c ****       /* Check the parameter */
5010:Drivers/STM32F1xx_HAL_Driver/Src/stm32f1xx_hal_tim.c ****       assert_param(IS_TIM_CC2_INSTANCE(htim->Instance));
5011:Drivers/STM32F1xx_HAL_Driver/Src/stm32f1xx_hal_tim.c ****     }
5012:Drivers/STM32F1xx_HAL_Driver/Src/stm32f1xx_hal_tim.c ****     break;
5013:Drivers/STM32F1xx_HAL_Driver/Src/stm32f1xx_hal_tim.c **** 
5014:Drivers/STM32F1xx_HAL_Driver/Src/stm32f1xx_hal_tim.c ****   case TIM_TS_ITR3:
5015:Drivers/STM32F1xx_HAL_Driver/Src/stm32f1xx_hal_tim.c ****     {
5016:Drivers/STM32F1xx_HAL_Driver/Src/stm32f1xx_hal_tim.c ****       /* Check the parameter */
5017:Drivers/STM32F1xx_HAL_Driver/Src/stm32f1xx_hal_tim.c ****       assert_param(IS_TIM_CC2_INSTANCE(htim->Instance));
5018:Drivers/STM32F1xx_HAL_Driver/Src/stm32f1xx_hal_tim.c ****     }
5019:Drivers/STM32F1xx_HAL_Driver/Src/stm32f1xx_hal_tim.c ****     break;
5020:Drivers/STM32F1xx_HAL_Driver/Src/stm32f1xx_hal_tim.c **** 
5021:Drivers/STM32F1xx_HAL_Driver/Src/stm32f1xx_hal_tim.c ****   default:
5022:Drivers/STM32F1xx_HAL_Driver/Src/stm32f1xx_hal_tim.c ****     break;
 10877              		.loc 1 5022 0
 10878 0062 54E0     		b	.L583
 10879              	.L574:
4926:Drivers/STM32F1xx_HAL_Driver/Src/stm32f1xx_hal_tim.c ****   {
 10880              		.loc 1 4926 0
 10881 0064 502B     		cmp	r3, #80
 10882 0066 37D0     		beq	.L578
 10883 0068 502B     		cmp	r3, #80
 10884 006a 02D8     		bhi	.L579
 10885 006c 402B     		cmp	r3, #64
 10886 006e 10D0     		beq	.L580
 10887              		.loc 1 5022 0
 10888 0070 4DE0     		b	.L583
 10889              	.L579:
4926:Drivers/STM32F1xx_HAL_Driver/Src/stm32f1xx_hal_tim.c ****   {
 10890              		.loc 1 4926 0
 10891 0072 602B     		cmp	r3, #96
 10892 0074 3AD0     		beq	.L581
 10893 0076 702B     		cmp	r3, #112
 10894 0078 00D0     		beq	.L582
 10895              		.loc 1 5022 0
 10896 007a 48E0     		b	.L583
 10897              	.L582:
4936:Drivers/STM32F1xx_HAL_Driver/Src/stm32f1xx_hal_tim.c ****                         sSlaveConfig->TriggerPrescaler,
 10898              		.loc 1 4936 0
 10899 007c 7B68     		ldr	r3, [r7, #4]
ARM GAS  /tmp/cc5HGhWi.s 			page 280


 10900 007e 1868     		ldr	r0, [r3]
 10901 0080 3B68     		ldr	r3, [r7]
 10902 0082 D968     		ldr	r1, [r3, #12]
 10903 0084 3B68     		ldr	r3, [r7]
 10904 0086 9A68     		ldr	r2, [r3, #8]
 10905 0088 3B68     		ldr	r3, [r7]
 10906 008a 1B69     		ldr	r3, [r3, #16]
 10907 008c FFF7FEFF 		bl	TIM_ETR_SetConfig
4941:Drivers/STM32F1xx_HAL_Driver/Src/stm32f1xx_hal_tim.c **** 
 10908              		.loc 1 4941 0
 10909 0090 3DE0     		b	.L583
 10910              	.L580:
4950:Drivers/STM32F1xx_HAL_Driver/Src/stm32f1xx_hal_tim.c ****       htim->Instance->CCER &= ~TIM_CCER_CC1E;
 10911              		.loc 1 4950 0
 10912 0092 7B68     		ldr	r3, [r7, #4]
 10913 0094 1B68     		ldr	r3, [r3]
 10914 0096 1B6A     		ldr	r3, [r3, #32]
 10915 0098 FB60     		str	r3, [r7, #12]
4951:Drivers/STM32F1xx_HAL_Driver/Src/stm32f1xx_hal_tim.c ****       tmpccmr1 = htim->Instance->CCMR1;
 10916              		.loc 1 4951 0
 10917 009a 7B68     		ldr	r3, [r7, #4]
 10918 009c 1B68     		ldr	r3, [r3]
 10919 009e 1A6A     		ldr	r2, [r3, #32]
 10920 00a0 7B68     		ldr	r3, [r7, #4]
 10921 00a2 1B68     		ldr	r3, [r3]
 10922 00a4 22F00102 		bic	r2, r2, #1
 10923 00a8 1A62     		str	r2, [r3, #32]
4952:Drivers/STM32F1xx_HAL_Driver/Src/stm32f1xx_hal_tim.c **** 
 10924              		.loc 1 4952 0
 10925 00aa 7B68     		ldr	r3, [r7, #4]
 10926 00ac 1B68     		ldr	r3, [r3]
 10927 00ae 9B69     		ldr	r3, [r3, #24]
 10928 00b0 3B61     		str	r3, [r7, #16]
4955:Drivers/STM32F1xx_HAL_Driver/Src/stm32f1xx_hal_tim.c ****       tmpccmr1 |= ((sSlaveConfig->TriggerFilter) << 4U);
 10929              		.loc 1 4955 0
 10930 00b2 3B69     		ldr	r3, [r7, #16]
 10931 00b4 23F0F003 		bic	r3, r3, #240
 10932 00b8 3B61     		str	r3, [r7, #16]
4956:Drivers/STM32F1xx_HAL_Driver/Src/stm32f1xx_hal_tim.c **** 
 10933              		.loc 1 4956 0
 10934 00ba 3B68     		ldr	r3, [r7]
 10935 00bc 1B69     		ldr	r3, [r3, #16]
 10936 00be 1B01     		lsls	r3, r3, #4
 10937 00c0 3A69     		ldr	r2, [r7, #16]
 10938 00c2 1343     		orrs	r3, r3, r2
 10939 00c4 3B61     		str	r3, [r7, #16]
4959:Drivers/STM32F1xx_HAL_Driver/Src/stm32f1xx_hal_tim.c ****       htim->Instance->CCER = tmpccer;
 10940              		.loc 1 4959 0
 10941 00c6 7B68     		ldr	r3, [r7, #4]
 10942 00c8 1B68     		ldr	r3, [r3]
 10943 00ca 3A69     		ldr	r2, [r7, #16]
 10944 00cc 9A61     		str	r2, [r3, #24]
4960:Drivers/STM32F1xx_HAL_Driver/Src/stm32f1xx_hal_tim.c **** 
 10945              		.loc 1 4960 0
 10946 00ce 7B68     		ldr	r3, [r7, #4]
 10947 00d0 1B68     		ldr	r3, [r3]
 10948 00d2 FA68     		ldr	r2, [r7, #12]
ARM GAS  /tmp/cc5HGhWi.s 			page 281


 10949 00d4 1A62     		str	r2, [r3, #32]
4963:Drivers/STM32F1xx_HAL_Driver/Src/stm32f1xx_hal_tim.c **** 
 10950              		.loc 1 4963 0
 10951 00d6 1AE0     		b	.L583
 10952              	.L578:
4973:Drivers/STM32F1xx_HAL_Driver/Src/stm32f1xx_hal_tim.c ****                                sSlaveConfig->TriggerPolarity,
 10953              		.loc 1 4973 0
 10954 00d8 7B68     		ldr	r3, [r7, #4]
 10955 00da 1868     		ldr	r0, [r3]
 10956 00dc 3B68     		ldr	r3, [r7]
 10957 00de 9968     		ldr	r1, [r3, #8]
 10958 00e0 3B68     		ldr	r3, [r7]
 10959 00e2 1B69     		ldr	r3, [r3, #16]
 10960 00e4 1A46     		mov	r2, r3
 10961 00e6 FFF7FEFF 		bl	TIM_TI1_ConfigInputStage
4977:Drivers/STM32F1xx_HAL_Driver/Src/stm32f1xx_hal_tim.c **** 
 10962              		.loc 1 4977 0
 10963 00ea 10E0     		b	.L583
 10964              	.L581:
4987:Drivers/STM32F1xx_HAL_Driver/Src/stm32f1xx_hal_tim.c ****                                 sSlaveConfig->TriggerPolarity,
 10965              		.loc 1 4987 0
 10966 00ec 7B68     		ldr	r3, [r7, #4]
 10967 00ee 1868     		ldr	r0, [r3]
 10968 00f0 3B68     		ldr	r3, [r7]
 10969 00f2 9968     		ldr	r1, [r3, #8]
 10970 00f4 3B68     		ldr	r3, [r7]
 10971 00f6 1B69     		ldr	r3, [r3, #16]
 10972 00f8 1A46     		mov	r2, r3
 10973 00fa FFF7FEFF 		bl	TIM_TI2_ConfigInputStage
4991:Drivers/STM32F1xx_HAL_Driver/Src/stm32f1xx_hal_tim.c **** 
 10974              		.loc 1 4991 0
 10975 00fe 06E0     		b	.L583
 10976              	.L584:
5019:Drivers/STM32F1xx_HAL_Driver/Src/stm32f1xx_hal_tim.c **** 
 10977              		.loc 1 5019 0
 10978 0100 00BF     		nop
 10979 0102 04E0     		b	.L583
 10980              	.L585:
5005:Drivers/STM32F1xx_HAL_Driver/Src/stm32f1xx_hal_tim.c **** 
 10981              		.loc 1 5005 0
 10982 0104 00BF     		nop
 10983 0106 02E0     		b	.L583
 10984              	.L586:
5012:Drivers/STM32F1xx_HAL_Driver/Src/stm32f1xx_hal_tim.c **** 
 10985              		.loc 1 5012 0
 10986 0108 00BF     		nop
 10987 010a 00E0     		b	.L583
 10988              	.L587:
4998:Drivers/STM32F1xx_HAL_Driver/Src/stm32f1xx_hal_tim.c **** 
 10989              		.loc 1 4998 0
 10990 010c 00BF     		nop
 10991              	.L583:
5023:Drivers/STM32F1xx_HAL_Driver/Src/stm32f1xx_hal_tim.c ****   }
5024:Drivers/STM32F1xx_HAL_Driver/Src/stm32f1xx_hal_tim.c **** }
 10992              		.loc 1 5024 0
 10993 010e 00BF     		nop
 10994 0110 1837     		adds	r7, r7, #24
ARM GAS  /tmp/cc5HGhWi.s 			page 282


 10995              	.LCFI520:
 10996              		.cfi_def_cfa_offset 8
 10997 0112 BD46     		mov	sp, r7
 10998              	.LCFI521:
 10999              		.cfi_def_cfa_register 13
 11000              		@ sp needed
 11001 0114 80BD     		pop	{r7, pc}
 11002              		.cfi_endproc
 11003              	.LFE162:
 11005              		.section	.text.TIM_TI1_SetConfig,"ax",%progbits
 11006              		.align	1
 11007              		.global	TIM_TI1_SetConfig
 11008              		.syntax unified
 11009              		.thumb
 11010              		.thumb_func
 11011              		.fpu softvfp
 11013              	TIM_TI1_SetConfig:
 11014              	.LFB163:
5025:Drivers/STM32F1xx_HAL_Driver/Src/stm32f1xx_hal_tim.c **** 
5026:Drivers/STM32F1xx_HAL_Driver/Src/stm32f1xx_hal_tim.c **** /**
5027:Drivers/STM32F1xx_HAL_Driver/Src/stm32f1xx_hal_tim.c ****   * @brief  Configure the TI1 as Input.
5028:Drivers/STM32F1xx_HAL_Driver/Src/stm32f1xx_hal_tim.c ****   * @param  TIMx  to select the TIM peripheral.
5029:Drivers/STM32F1xx_HAL_Driver/Src/stm32f1xx_hal_tim.c ****   * @param  TIM_ICPolarity : The Input Polarity.
5030:Drivers/STM32F1xx_HAL_Driver/Src/stm32f1xx_hal_tim.c ****   *          This parameter can be one of the following values:
5031:Drivers/STM32F1xx_HAL_Driver/Src/stm32f1xx_hal_tim.c ****   *            @arg TIM_ICPOLARITY_RISING
5032:Drivers/STM32F1xx_HAL_Driver/Src/stm32f1xx_hal_tim.c ****   *            @arg TIM_ICPOLARITY_FALLING
5033:Drivers/STM32F1xx_HAL_Driver/Src/stm32f1xx_hal_tim.c ****   * @param  TIM_ICSelection : specifies the input to be used.
5034:Drivers/STM32F1xx_HAL_Driver/Src/stm32f1xx_hal_tim.c ****   *          This parameter can be one of the following values:
5035:Drivers/STM32F1xx_HAL_Driver/Src/stm32f1xx_hal_tim.c ****   *            @arg TIM_ICSELECTION_DIRECTTI:    TIM Input 1 is selected to be connected to IC1.
5036:Drivers/STM32F1xx_HAL_Driver/Src/stm32f1xx_hal_tim.c ****   *            @arg TIM_ICSELECTION_INDIRECTTI:  TIM Input 1 is selected to be connected to IC2.
5037:Drivers/STM32F1xx_HAL_Driver/Src/stm32f1xx_hal_tim.c ****   *            @arg TIM_ICSELECTION_TRC:         TIM Input 1 is selected to be connected to TRC.
5038:Drivers/STM32F1xx_HAL_Driver/Src/stm32f1xx_hal_tim.c ****   * @param  TIM_ICFilter : Specifies the Input Capture Filter.
5039:Drivers/STM32F1xx_HAL_Driver/Src/stm32f1xx_hal_tim.c ****   *          This parameter must be a value between 0x00 and 0x0F.
5040:Drivers/STM32F1xx_HAL_Driver/Src/stm32f1xx_hal_tim.c ****   * @retval None
5041:Drivers/STM32F1xx_HAL_Driver/Src/stm32f1xx_hal_tim.c ****   * @note TIM_ICFilter and TIM_ICPolarity are not used in INDIRECT mode as TI2FP1 
5042:Drivers/STM32F1xx_HAL_Driver/Src/stm32f1xx_hal_tim.c ****   *       (on channel2 path) is used as the input signal. Therefore CCMR1 must be 
5043:Drivers/STM32F1xx_HAL_Driver/Src/stm32f1xx_hal_tim.c ****   *        protected against un-initialized filter and polarity values.
5044:Drivers/STM32F1xx_HAL_Driver/Src/stm32f1xx_hal_tim.c ****   */
5045:Drivers/STM32F1xx_HAL_Driver/Src/stm32f1xx_hal_tim.c **** void TIM_TI1_SetConfig(TIM_TypeDef *TIMx, uint32_t TIM_ICPolarity, uint32_t TIM_ICSelection,
5046:Drivers/STM32F1xx_HAL_Driver/Src/stm32f1xx_hal_tim.c ****                        uint32_t TIM_ICFilter)
5047:Drivers/STM32F1xx_HAL_Driver/Src/stm32f1xx_hal_tim.c **** {
 11015              		.loc 1 5047 0
 11016              		.cfi_startproc
 11017              		@ args = 0, pretend = 0, frame = 24
 11018              		@ frame_needed = 1, uses_anonymous_args = 0
 11019              		@ link register save eliminated.
 11020 0000 80B4     		push	{r7}
 11021              	.LCFI522:
 11022              		.cfi_def_cfa_offset 4
 11023              		.cfi_offset 7, -4
 11024 0002 87B0     		sub	sp, sp, #28
 11025              	.LCFI523:
 11026              		.cfi_def_cfa_offset 32
 11027 0004 00AF     		add	r7, sp, #0
 11028              	.LCFI524:
 11029              		.cfi_def_cfa_register 7
 11030 0006 F860     		str	r0, [r7, #12]
ARM GAS  /tmp/cc5HGhWi.s 			page 283


 11031 0008 B960     		str	r1, [r7, #8]
 11032 000a 7A60     		str	r2, [r7, #4]
 11033 000c 3B60     		str	r3, [r7]
5048:Drivers/STM32F1xx_HAL_Driver/Src/stm32f1xx_hal_tim.c ****   uint32_t tmpccmr1 = 0U;
 11034              		.loc 1 5048 0
 11035 000e 0023     		movs	r3, #0
 11036 0010 7B61     		str	r3, [r7, #20]
5049:Drivers/STM32F1xx_HAL_Driver/Src/stm32f1xx_hal_tim.c ****   uint32_t tmpccer = 0U;
 11037              		.loc 1 5049 0
 11038 0012 0023     		movs	r3, #0
 11039 0014 3B61     		str	r3, [r7, #16]
5050:Drivers/STM32F1xx_HAL_Driver/Src/stm32f1xx_hal_tim.c **** 
5051:Drivers/STM32F1xx_HAL_Driver/Src/stm32f1xx_hal_tim.c ****   /* Disable the Channel 1: Reset the CC1E Bit */
5052:Drivers/STM32F1xx_HAL_Driver/Src/stm32f1xx_hal_tim.c ****   TIMx->CCER &= ~TIM_CCER_CC1E;
 11040              		.loc 1 5052 0
 11041 0016 FB68     		ldr	r3, [r7, #12]
 11042 0018 1B6A     		ldr	r3, [r3, #32]
 11043 001a 23F00102 		bic	r2, r3, #1
 11044 001e FB68     		ldr	r3, [r7, #12]
 11045 0020 1A62     		str	r2, [r3, #32]
5053:Drivers/STM32F1xx_HAL_Driver/Src/stm32f1xx_hal_tim.c ****   tmpccmr1 = TIMx->CCMR1;
 11046              		.loc 1 5053 0
 11047 0022 FB68     		ldr	r3, [r7, #12]
 11048 0024 9B69     		ldr	r3, [r3, #24]
 11049 0026 7B61     		str	r3, [r7, #20]
5054:Drivers/STM32F1xx_HAL_Driver/Src/stm32f1xx_hal_tim.c ****   tmpccer = TIMx->CCER;
 11050              		.loc 1 5054 0
 11051 0028 FB68     		ldr	r3, [r7, #12]
 11052 002a 1B6A     		ldr	r3, [r3, #32]
 11053 002c 3B61     		str	r3, [r7, #16]
5055:Drivers/STM32F1xx_HAL_Driver/Src/stm32f1xx_hal_tim.c **** 
5056:Drivers/STM32F1xx_HAL_Driver/Src/stm32f1xx_hal_tim.c ****   /* Select the Input */
5057:Drivers/STM32F1xx_HAL_Driver/Src/stm32f1xx_hal_tim.c ****   if(IS_TIM_CC2_INSTANCE(TIMx) != RESET)
 11054              		.loc 1 5057 0
 11055 002e FB68     		ldr	r3, [r7, #12]
 11056 0030 1F4A     		ldr	r2, .L594
 11057 0032 9342     		cmp	r3, r2
 11058 0034 0BD0     		beq	.L589
 11059              		.loc 1 5057 0 is_stmt 0 discriminator 2
 11060 0036 FB68     		ldr	r3, [r7, #12]
 11061 0038 B3F1804F 		cmp	r3, #1073741824
 11062 003c 07D0     		beq	.L589
 11063              		.loc 1 5057 0 discriminator 4
 11064 003e FB68     		ldr	r3, [r7, #12]
 11065 0040 1C4A     		ldr	r2, .L594+4
 11066 0042 9342     		cmp	r3, r2
 11067 0044 03D0     		beq	.L589
 11068              		.loc 1 5057 0 discriminator 6
 11069 0046 FB68     		ldr	r3, [r7, #12]
 11070 0048 1B4A     		ldr	r2, .L594+8
 11071 004a 9342     		cmp	r3, r2
 11072 004c 01D1     		bne	.L590
 11073              	.L589:
 11074              		.loc 1 5057 0 discriminator 7
 11075 004e 0123     		movs	r3, #1
 11076 0050 00E0     		b	.L591
 11077              	.L590:
ARM GAS  /tmp/cc5HGhWi.s 			page 284


 11078              		.loc 1 5057 0 discriminator 8
 11079 0052 0023     		movs	r3, #0
 11080              	.L591:
 11081              		.loc 1 5057 0 discriminator 10
 11082 0054 002B     		cmp	r3, #0
 11083 0056 08D0     		beq	.L592
5058:Drivers/STM32F1xx_HAL_Driver/Src/stm32f1xx_hal_tim.c ****   {
5059:Drivers/STM32F1xx_HAL_Driver/Src/stm32f1xx_hal_tim.c ****     tmpccmr1 &= ~TIM_CCMR1_CC1S;
 11084              		.loc 1 5059 0 is_stmt 1
 11085 0058 7B69     		ldr	r3, [r7, #20]
 11086 005a 23F00303 		bic	r3, r3, #3
 11087 005e 7B61     		str	r3, [r7, #20]
5060:Drivers/STM32F1xx_HAL_Driver/Src/stm32f1xx_hal_tim.c ****     tmpccmr1 |= TIM_ICSelection;
 11088              		.loc 1 5060 0
 11089 0060 7A69     		ldr	r2, [r7, #20]
 11090 0062 7B68     		ldr	r3, [r7, #4]
 11091 0064 1343     		orrs	r3, r3, r2
 11092 0066 7B61     		str	r3, [r7, #20]
 11093 0068 03E0     		b	.L593
 11094              	.L592:
5061:Drivers/STM32F1xx_HAL_Driver/Src/stm32f1xx_hal_tim.c ****   }
5062:Drivers/STM32F1xx_HAL_Driver/Src/stm32f1xx_hal_tim.c ****   else
5063:Drivers/STM32F1xx_HAL_Driver/Src/stm32f1xx_hal_tim.c ****   {
5064:Drivers/STM32F1xx_HAL_Driver/Src/stm32f1xx_hal_tim.c ****     tmpccmr1 |= TIM_CCMR1_CC1S_0;
 11095              		.loc 1 5064 0
 11096 006a 7B69     		ldr	r3, [r7, #20]
 11097 006c 43F00103 		orr	r3, r3, #1
 11098 0070 7B61     		str	r3, [r7, #20]
 11099              	.L593:
5065:Drivers/STM32F1xx_HAL_Driver/Src/stm32f1xx_hal_tim.c ****   }
5066:Drivers/STM32F1xx_HAL_Driver/Src/stm32f1xx_hal_tim.c **** 
5067:Drivers/STM32F1xx_HAL_Driver/Src/stm32f1xx_hal_tim.c ****   /* Set the filter */
5068:Drivers/STM32F1xx_HAL_Driver/Src/stm32f1xx_hal_tim.c ****   tmpccmr1 &= ~TIM_CCMR1_IC1F;
 11100              		.loc 1 5068 0
 11101 0072 7B69     		ldr	r3, [r7, #20]
 11102 0074 23F0F003 		bic	r3, r3, #240
 11103 0078 7B61     		str	r3, [r7, #20]
5069:Drivers/STM32F1xx_HAL_Driver/Src/stm32f1xx_hal_tim.c ****   tmpccmr1 |= ((TIM_ICFilter << 4U) & TIM_CCMR1_IC1F);
 11104              		.loc 1 5069 0
 11105 007a 3B68     		ldr	r3, [r7]
 11106 007c 1B01     		lsls	r3, r3, #4
 11107 007e DBB2     		uxtb	r3, r3
 11108 0080 7A69     		ldr	r2, [r7, #20]
 11109 0082 1343     		orrs	r3, r3, r2
 11110 0084 7B61     		str	r3, [r7, #20]
5070:Drivers/STM32F1xx_HAL_Driver/Src/stm32f1xx_hal_tim.c **** 
5071:Drivers/STM32F1xx_HAL_Driver/Src/stm32f1xx_hal_tim.c ****   /* Select the Polarity and set the CC1E Bit */
5072:Drivers/STM32F1xx_HAL_Driver/Src/stm32f1xx_hal_tim.c ****   tmpccer &= ~(TIM_CCER_CC1P | TIM_CCER_CC1NP);
 11111              		.loc 1 5072 0
 11112 0086 3B69     		ldr	r3, [r7, #16]
 11113 0088 23F00A03 		bic	r3, r3, #10
 11114 008c 3B61     		str	r3, [r7, #16]
5073:Drivers/STM32F1xx_HAL_Driver/Src/stm32f1xx_hal_tim.c ****   tmpccer |= (TIM_ICPolarity & (TIM_CCER_CC1P | TIM_CCER_CC1NP));
 11115              		.loc 1 5073 0
 11116 008e BB68     		ldr	r3, [r7, #8]
 11117 0090 03F00A03 		and	r3, r3, #10
 11118 0094 3A69     		ldr	r2, [r7, #16]
ARM GAS  /tmp/cc5HGhWi.s 			page 285


 11119 0096 1343     		orrs	r3, r3, r2
 11120 0098 3B61     		str	r3, [r7, #16]
5074:Drivers/STM32F1xx_HAL_Driver/Src/stm32f1xx_hal_tim.c **** 
5075:Drivers/STM32F1xx_HAL_Driver/Src/stm32f1xx_hal_tim.c ****   /* Write to TIMx CCMR1 and CCER registers */
5076:Drivers/STM32F1xx_HAL_Driver/Src/stm32f1xx_hal_tim.c ****   TIMx->CCMR1 = tmpccmr1;
 11121              		.loc 1 5076 0
 11122 009a FB68     		ldr	r3, [r7, #12]
 11123 009c 7A69     		ldr	r2, [r7, #20]
 11124 009e 9A61     		str	r2, [r3, #24]
5077:Drivers/STM32F1xx_HAL_Driver/Src/stm32f1xx_hal_tim.c ****   TIMx->CCER = tmpccer;
 11125              		.loc 1 5077 0
 11126 00a0 FB68     		ldr	r3, [r7, #12]
 11127 00a2 3A69     		ldr	r2, [r7, #16]
 11128 00a4 1A62     		str	r2, [r3, #32]
5078:Drivers/STM32F1xx_HAL_Driver/Src/stm32f1xx_hal_tim.c **** }
 11129              		.loc 1 5078 0
 11130 00a6 00BF     		nop
 11131 00a8 1C37     		adds	r7, r7, #28
 11132              	.LCFI525:
 11133              		.cfi_def_cfa_offset 4
 11134 00aa BD46     		mov	sp, r7
 11135              	.LCFI526:
 11136              		.cfi_def_cfa_register 13
 11137              		@ sp needed
 11138 00ac 80BC     		pop	{r7}
 11139              	.LCFI527:
 11140              		.cfi_restore 7
 11141              		.cfi_def_cfa_offset 0
 11142 00ae 7047     		bx	lr
 11143              	.L595:
 11144              		.align	2
 11145              	.L594:
 11146 00b0 002C0140 		.word	1073818624
 11147 00b4 00040040 		.word	1073742848
 11148 00b8 00080040 		.word	1073743872
 11149              		.cfi_endproc
 11150              	.LFE163:
 11152              		.section	.text.TIM_TI1_ConfigInputStage,"ax",%progbits
 11153              		.align	1
 11154              		.syntax unified
 11155              		.thumb
 11156              		.thumb_func
 11157              		.fpu softvfp
 11159              	TIM_TI1_ConfigInputStage:
 11160              	.LFB164:
5079:Drivers/STM32F1xx_HAL_Driver/Src/stm32f1xx_hal_tim.c **** 
5080:Drivers/STM32F1xx_HAL_Driver/Src/stm32f1xx_hal_tim.c **** /**
5081:Drivers/STM32F1xx_HAL_Driver/Src/stm32f1xx_hal_tim.c ****   * @brief  Configure the Polarity and Filter for TI1.
5082:Drivers/STM32F1xx_HAL_Driver/Src/stm32f1xx_hal_tim.c ****   * @param  TIMx  to select the TIM peripheral.
5083:Drivers/STM32F1xx_HAL_Driver/Src/stm32f1xx_hal_tim.c ****   * @param  TIM_ICPolarity : The Input Polarity.
5084:Drivers/STM32F1xx_HAL_Driver/Src/stm32f1xx_hal_tim.c ****   *          This parameter can be one of the following values:
5085:Drivers/STM32F1xx_HAL_Driver/Src/stm32f1xx_hal_tim.c ****   *            @arg TIM_ICPOLARITY_RISING   
5086:Drivers/STM32F1xx_HAL_Driver/Src/stm32f1xx_hal_tim.c ****   *            @arg TIM_ICPOLARITY_FALLING
5087:Drivers/STM32F1xx_HAL_Driver/Src/stm32f1xx_hal_tim.c ****   * @param  TIM_ICFilter : Specifies the Input Capture Filter.
5088:Drivers/STM32F1xx_HAL_Driver/Src/stm32f1xx_hal_tim.c ****   *          This parameter must be a value between 0x00 and 0x0F.
5089:Drivers/STM32F1xx_HAL_Driver/Src/stm32f1xx_hal_tim.c ****   * @retval None
5090:Drivers/STM32F1xx_HAL_Driver/Src/stm32f1xx_hal_tim.c ****   */
ARM GAS  /tmp/cc5HGhWi.s 			page 286


5091:Drivers/STM32F1xx_HAL_Driver/Src/stm32f1xx_hal_tim.c **** static void TIM_TI1_ConfigInputStage(TIM_TypeDef *TIMx, uint32_t TIM_ICPolarity, uint32_t TIM_ICFil
5092:Drivers/STM32F1xx_HAL_Driver/Src/stm32f1xx_hal_tim.c **** {
 11161              		.loc 1 5092 0
 11162              		.cfi_startproc
 11163              		@ args = 0, pretend = 0, frame = 24
 11164              		@ frame_needed = 1, uses_anonymous_args = 0
 11165              		@ link register save eliminated.
 11166 0000 80B4     		push	{r7}
 11167              	.LCFI528:
 11168              		.cfi_def_cfa_offset 4
 11169              		.cfi_offset 7, -4
 11170 0002 87B0     		sub	sp, sp, #28
 11171              	.LCFI529:
 11172              		.cfi_def_cfa_offset 32
 11173 0004 00AF     		add	r7, sp, #0
 11174              	.LCFI530:
 11175              		.cfi_def_cfa_register 7
 11176 0006 F860     		str	r0, [r7, #12]
 11177 0008 B960     		str	r1, [r7, #8]
 11178 000a 7A60     		str	r2, [r7, #4]
5093:Drivers/STM32F1xx_HAL_Driver/Src/stm32f1xx_hal_tim.c ****   uint32_t tmpccmr1 = 0U;
 11179              		.loc 1 5093 0
 11180 000c 0023     		movs	r3, #0
 11181 000e 7B61     		str	r3, [r7, #20]
5094:Drivers/STM32F1xx_HAL_Driver/Src/stm32f1xx_hal_tim.c ****   uint32_t tmpccer = 0U;
 11182              		.loc 1 5094 0
 11183 0010 0023     		movs	r3, #0
 11184 0012 3B61     		str	r3, [r7, #16]
5095:Drivers/STM32F1xx_HAL_Driver/Src/stm32f1xx_hal_tim.c **** 
5096:Drivers/STM32F1xx_HAL_Driver/Src/stm32f1xx_hal_tim.c ****   /* Disable the Channel 1: Reset the CC1E Bit */
5097:Drivers/STM32F1xx_HAL_Driver/Src/stm32f1xx_hal_tim.c ****   tmpccer = TIMx->CCER;
 11185              		.loc 1 5097 0
 11186 0014 FB68     		ldr	r3, [r7, #12]
 11187 0016 1B6A     		ldr	r3, [r3, #32]
 11188 0018 3B61     		str	r3, [r7, #16]
5098:Drivers/STM32F1xx_HAL_Driver/Src/stm32f1xx_hal_tim.c ****   TIMx->CCER &= ~TIM_CCER_CC1E;
 11189              		.loc 1 5098 0
 11190 001a FB68     		ldr	r3, [r7, #12]
 11191 001c 1B6A     		ldr	r3, [r3, #32]
 11192 001e 23F00102 		bic	r2, r3, #1
 11193 0022 FB68     		ldr	r3, [r7, #12]
 11194 0024 1A62     		str	r2, [r3, #32]
5099:Drivers/STM32F1xx_HAL_Driver/Src/stm32f1xx_hal_tim.c ****   tmpccmr1 = TIMx->CCMR1;
 11195              		.loc 1 5099 0
 11196 0026 FB68     		ldr	r3, [r7, #12]
 11197 0028 9B69     		ldr	r3, [r3, #24]
 11198 002a 7B61     		str	r3, [r7, #20]
5100:Drivers/STM32F1xx_HAL_Driver/Src/stm32f1xx_hal_tim.c **** 
5101:Drivers/STM32F1xx_HAL_Driver/Src/stm32f1xx_hal_tim.c ****   /* Set the filter */
5102:Drivers/STM32F1xx_HAL_Driver/Src/stm32f1xx_hal_tim.c ****   tmpccmr1 &= ~TIM_CCMR1_IC1F;
 11199              		.loc 1 5102 0
 11200 002c 7B69     		ldr	r3, [r7, #20]
 11201 002e 23F0F003 		bic	r3, r3, #240
 11202 0032 7B61     		str	r3, [r7, #20]
5103:Drivers/STM32F1xx_HAL_Driver/Src/stm32f1xx_hal_tim.c ****   tmpccmr1 |= (TIM_ICFilter << 4U);
 11203              		.loc 1 5103 0
 11204 0034 7B68     		ldr	r3, [r7, #4]
ARM GAS  /tmp/cc5HGhWi.s 			page 287


 11205 0036 1B01     		lsls	r3, r3, #4
 11206 0038 7A69     		ldr	r2, [r7, #20]
 11207 003a 1343     		orrs	r3, r3, r2
 11208 003c 7B61     		str	r3, [r7, #20]
5104:Drivers/STM32F1xx_HAL_Driver/Src/stm32f1xx_hal_tim.c **** 
5105:Drivers/STM32F1xx_HAL_Driver/Src/stm32f1xx_hal_tim.c ****   /* Select the Polarity and set the CC1E Bit */
5106:Drivers/STM32F1xx_HAL_Driver/Src/stm32f1xx_hal_tim.c ****   tmpccer &= ~(TIM_CCER_CC1P | TIM_CCER_CC1NP);
 11209              		.loc 1 5106 0
 11210 003e 3B69     		ldr	r3, [r7, #16]
 11211 0040 23F00A03 		bic	r3, r3, #10
 11212 0044 3B61     		str	r3, [r7, #16]
5107:Drivers/STM32F1xx_HAL_Driver/Src/stm32f1xx_hal_tim.c ****   tmpccer |= TIM_ICPolarity;
 11213              		.loc 1 5107 0
 11214 0046 3A69     		ldr	r2, [r7, #16]
 11215 0048 BB68     		ldr	r3, [r7, #8]
 11216 004a 1343     		orrs	r3, r3, r2
 11217 004c 3B61     		str	r3, [r7, #16]
5108:Drivers/STM32F1xx_HAL_Driver/Src/stm32f1xx_hal_tim.c **** 
5109:Drivers/STM32F1xx_HAL_Driver/Src/stm32f1xx_hal_tim.c ****   /* Write to TIMx CCMR1 and CCER registers */
5110:Drivers/STM32F1xx_HAL_Driver/Src/stm32f1xx_hal_tim.c ****   TIMx->CCMR1 = tmpccmr1;
 11218              		.loc 1 5110 0
 11219 004e FB68     		ldr	r3, [r7, #12]
 11220 0050 7A69     		ldr	r2, [r7, #20]
 11221 0052 9A61     		str	r2, [r3, #24]
5111:Drivers/STM32F1xx_HAL_Driver/Src/stm32f1xx_hal_tim.c ****   TIMx->CCER = tmpccer;
 11222              		.loc 1 5111 0
 11223 0054 FB68     		ldr	r3, [r7, #12]
 11224 0056 3A69     		ldr	r2, [r7, #16]
 11225 0058 1A62     		str	r2, [r3, #32]
5112:Drivers/STM32F1xx_HAL_Driver/Src/stm32f1xx_hal_tim.c **** }
 11226              		.loc 1 5112 0
 11227 005a 00BF     		nop
 11228 005c 1C37     		adds	r7, r7, #28
 11229              	.LCFI531:
 11230              		.cfi_def_cfa_offset 4
 11231 005e BD46     		mov	sp, r7
 11232              	.LCFI532:
 11233              		.cfi_def_cfa_register 13
 11234              		@ sp needed
 11235 0060 80BC     		pop	{r7}
 11236              	.LCFI533:
 11237              		.cfi_restore 7
 11238              		.cfi_def_cfa_offset 0
 11239 0062 7047     		bx	lr
 11240              		.cfi_endproc
 11241              	.LFE164:
 11243              		.section	.text.TIM_TI2_SetConfig,"ax",%progbits
 11244              		.align	1
 11245              		.syntax unified
 11246              		.thumb
 11247              		.thumb_func
 11248              		.fpu softvfp
 11250              	TIM_TI2_SetConfig:
 11251              	.LFB165:
5113:Drivers/STM32F1xx_HAL_Driver/Src/stm32f1xx_hal_tim.c **** 
5114:Drivers/STM32F1xx_HAL_Driver/Src/stm32f1xx_hal_tim.c **** /**
5115:Drivers/STM32F1xx_HAL_Driver/Src/stm32f1xx_hal_tim.c ****   * @brief  Configure the TI2 as Input.
ARM GAS  /tmp/cc5HGhWi.s 			page 288


5116:Drivers/STM32F1xx_HAL_Driver/Src/stm32f1xx_hal_tim.c ****   * @param  TIMx  to select the TIM peripheral
5117:Drivers/STM32F1xx_HAL_Driver/Src/stm32f1xx_hal_tim.c ****   * @param  TIM_ICPolarity : The Input Polarity.
5118:Drivers/STM32F1xx_HAL_Driver/Src/stm32f1xx_hal_tim.c ****   *          This parameter can be one of the following values:
5119:Drivers/STM32F1xx_HAL_Driver/Src/stm32f1xx_hal_tim.c ****   *            @arg TIM_ICPOLARITY_RISING   
5120:Drivers/STM32F1xx_HAL_Driver/Src/stm32f1xx_hal_tim.c ****   *            @arg TIM_ICPOLARITY_FALLING
5121:Drivers/STM32F1xx_HAL_Driver/Src/stm32f1xx_hal_tim.c ****   * @param  TIM_ICSelection : specifies the input to be used.
5122:Drivers/STM32F1xx_HAL_Driver/Src/stm32f1xx_hal_tim.c ****   *          This parameter can be one of the following values:
5123:Drivers/STM32F1xx_HAL_Driver/Src/stm32f1xx_hal_tim.c ****   *            @arg TIM_ICSELECTION_DIRECTTI:   TIM Input 2 is selected to be connected to IC2.
5124:Drivers/STM32F1xx_HAL_Driver/Src/stm32f1xx_hal_tim.c ****   *            @arg TIM_ICSELECTION_INDIRECTTI: TIM Input 2 is selected to be connected to IC1.
5125:Drivers/STM32F1xx_HAL_Driver/Src/stm32f1xx_hal_tim.c ****   *            @arg TIM_ICSELECTION_TRC:        TIM Input 2 is selected to be connected to TRC.
5126:Drivers/STM32F1xx_HAL_Driver/Src/stm32f1xx_hal_tim.c ****   * @param  TIM_ICFilter : Specifies the Input Capture Filter.
5127:Drivers/STM32F1xx_HAL_Driver/Src/stm32f1xx_hal_tim.c ****   *          This parameter must be a value between 0x00 and 0x0F.
5128:Drivers/STM32F1xx_HAL_Driver/Src/stm32f1xx_hal_tim.c ****   * @retval None
5129:Drivers/STM32F1xx_HAL_Driver/Src/stm32f1xx_hal_tim.c ****   * @note TIM_ICFilter and TIM_ICPolarity are not used in INDIRECT mode as TI1FP2 
5130:Drivers/STM32F1xx_HAL_Driver/Src/stm32f1xx_hal_tim.c ****   *       (on channel1 path) is used as the input signal. Therefore CCMR1 must be 
5131:Drivers/STM32F1xx_HAL_Driver/Src/stm32f1xx_hal_tim.c ****   *        protected against un-initialized filter and polarity values.
5132:Drivers/STM32F1xx_HAL_Driver/Src/stm32f1xx_hal_tim.c ****   */
5133:Drivers/STM32F1xx_HAL_Driver/Src/stm32f1xx_hal_tim.c **** static void TIM_TI2_SetConfig(TIM_TypeDef *TIMx, uint32_t TIM_ICPolarity, uint32_t TIM_ICSelection,
5134:Drivers/STM32F1xx_HAL_Driver/Src/stm32f1xx_hal_tim.c ****                        uint32_t TIM_ICFilter)
5135:Drivers/STM32F1xx_HAL_Driver/Src/stm32f1xx_hal_tim.c **** {
 11252              		.loc 1 5135 0
 11253              		.cfi_startproc
 11254              		@ args = 0, pretend = 0, frame = 24
 11255              		@ frame_needed = 1, uses_anonymous_args = 0
 11256              		@ link register save eliminated.
 11257 0000 80B4     		push	{r7}
 11258              	.LCFI534:
 11259              		.cfi_def_cfa_offset 4
 11260              		.cfi_offset 7, -4
 11261 0002 87B0     		sub	sp, sp, #28
 11262              	.LCFI535:
 11263              		.cfi_def_cfa_offset 32
 11264 0004 00AF     		add	r7, sp, #0
 11265              	.LCFI536:
 11266              		.cfi_def_cfa_register 7
 11267 0006 F860     		str	r0, [r7, #12]
 11268 0008 B960     		str	r1, [r7, #8]
 11269 000a 7A60     		str	r2, [r7, #4]
 11270 000c 3B60     		str	r3, [r7]
5136:Drivers/STM32F1xx_HAL_Driver/Src/stm32f1xx_hal_tim.c ****   uint32_t tmpccmr1 = 0U;
 11271              		.loc 1 5136 0
 11272 000e 0023     		movs	r3, #0
 11273 0010 7B61     		str	r3, [r7, #20]
5137:Drivers/STM32F1xx_HAL_Driver/Src/stm32f1xx_hal_tim.c ****   uint32_t tmpccer = 0U;
 11274              		.loc 1 5137 0
 11275 0012 0023     		movs	r3, #0
 11276 0014 3B61     		str	r3, [r7, #16]
5138:Drivers/STM32F1xx_HAL_Driver/Src/stm32f1xx_hal_tim.c **** 
5139:Drivers/STM32F1xx_HAL_Driver/Src/stm32f1xx_hal_tim.c ****   /* Disable the Channel 2: Reset the CC2E Bit */
5140:Drivers/STM32F1xx_HAL_Driver/Src/stm32f1xx_hal_tim.c ****   TIMx->CCER &= ~TIM_CCER_CC2E;
 11277              		.loc 1 5140 0
 11278 0016 FB68     		ldr	r3, [r7, #12]
 11279 0018 1B6A     		ldr	r3, [r3, #32]
 11280 001a 23F01002 		bic	r2, r3, #16
 11281 001e FB68     		ldr	r3, [r7, #12]
 11282 0020 1A62     		str	r2, [r3, #32]
5141:Drivers/STM32F1xx_HAL_Driver/Src/stm32f1xx_hal_tim.c ****   tmpccmr1 = TIMx->CCMR1;
ARM GAS  /tmp/cc5HGhWi.s 			page 289


 11283              		.loc 1 5141 0
 11284 0022 FB68     		ldr	r3, [r7, #12]
 11285 0024 9B69     		ldr	r3, [r3, #24]
 11286 0026 7B61     		str	r3, [r7, #20]
5142:Drivers/STM32F1xx_HAL_Driver/Src/stm32f1xx_hal_tim.c ****   tmpccer = TIMx->CCER;
 11287              		.loc 1 5142 0
 11288 0028 FB68     		ldr	r3, [r7, #12]
 11289 002a 1B6A     		ldr	r3, [r3, #32]
 11290 002c 3B61     		str	r3, [r7, #16]
5143:Drivers/STM32F1xx_HAL_Driver/Src/stm32f1xx_hal_tim.c **** 
5144:Drivers/STM32F1xx_HAL_Driver/Src/stm32f1xx_hal_tim.c ****   /* Select the Input */
5145:Drivers/STM32F1xx_HAL_Driver/Src/stm32f1xx_hal_tim.c ****   tmpccmr1 &= ~TIM_CCMR1_CC2S;
 11291              		.loc 1 5145 0
 11292 002e 7B69     		ldr	r3, [r7, #20]
 11293 0030 23F44073 		bic	r3, r3, #768
 11294 0034 7B61     		str	r3, [r7, #20]
5146:Drivers/STM32F1xx_HAL_Driver/Src/stm32f1xx_hal_tim.c ****   tmpccmr1 |= (TIM_ICSelection << 8U);
 11295              		.loc 1 5146 0
 11296 0036 7B68     		ldr	r3, [r7, #4]
 11297 0038 1B02     		lsls	r3, r3, #8
 11298 003a 7A69     		ldr	r2, [r7, #20]
 11299 003c 1343     		orrs	r3, r3, r2
 11300 003e 7B61     		str	r3, [r7, #20]
5147:Drivers/STM32F1xx_HAL_Driver/Src/stm32f1xx_hal_tim.c **** 
5148:Drivers/STM32F1xx_HAL_Driver/Src/stm32f1xx_hal_tim.c ****   /* Set the filter */
5149:Drivers/STM32F1xx_HAL_Driver/Src/stm32f1xx_hal_tim.c ****   tmpccmr1 &= ~TIM_CCMR1_IC2F;
 11301              		.loc 1 5149 0
 11302 0040 7B69     		ldr	r3, [r7, #20]
 11303 0042 23F47043 		bic	r3, r3, #61440
 11304 0046 7B61     		str	r3, [r7, #20]
5150:Drivers/STM32F1xx_HAL_Driver/Src/stm32f1xx_hal_tim.c ****   tmpccmr1 |= ((TIM_ICFilter << 12U) & TIM_CCMR1_IC2F);
 11305              		.loc 1 5150 0
 11306 0048 3B68     		ldr	r3, [r7]
 11307 004a 1B03     		lsls	r3, r3, #12
 11308 004c 9BB2     		uxth	r3, r3
 11309 004e 7A69     		ldr	r2, [r7, #20]
 11310 0050 1343     		orrs	r3, r3, r2
 11311 0052 7B61     		str	r3, [r7, #20]
5151:Drivers/STM32F1xx_HAL_Driver/Src/stm32f1xx_hal_tim.c **** 
5152:Drivers/STM32F1xx_HAL_Driver/Src/stm32f1xx_hal_tim.c ****   /* Select the Polarity and set the CC2E Bit */
5153:Drivers/STM32F1xx_HAL_Driver/Src/stm32f1xx_hal_tim.c ****   tmpccer &= ~(TIM_CCER_CC2P | TIM_CCER_CC2NP);
 11312              		.loc 1 5153 0
 11313 0054 3B69     		ldr	r3, [r7, #16]
 11314 0056 23F0A003 		bic	r3, r3, #160
 11315 005a 3B61     		str	r3, [r7, #16]
5154:Drivers/STM32F1xx_HAL_Driver/Src/stm32f1xx_hal_tim.c ****   tmpccer |= ((TIM_ICPolarity << 4U) & (TIM_CCER_CC2P | TIM_CCER_CC2NP));
 11316              		.loc 1 5154 0
 11317 005c BB68     		ldr	r3, [r7, #8]
 11318 005e 1B01     		lsls	r3, r3, #4
 11319 0060 03F0A003 		and	r3, r3, #160
 11320 0064 3A69     		ldr	r2, [r7, #16]
 11321 0066 1343     		orrs	r3, r3, r2
 11322 0068 3B61     		str	r3, [r7, #16]
5155:Drivers/STM32F1xx_HAL_Driver/Src/stm32f1xx_hal_tim.c **** 
5156:Drivers/STM32F1xx_HAL_Driver/Src/stm32f1xx_hal_tim.c ****   /* Write to TIMx CCMR1 and CCER registers */
5157:Drivers/STM32F1xx_HAL_Driver/Src/stm32f1xx_hal_tim.c ****   TIMx->CCMR1 = tmpccmr1 ;
 11323              		.loc 1 5157 0
ARM GAS  /tmp/cc5HGhWi.s 			page 290


 11324 006a FB68     		ldr	r3, [r7, #12]
 11325 006c 7A69     		ldr	r2, [r7, #20]
 11326 006e 9A61     		str	r2, [r3, #24]
5158:Drivers/STM32F1xx_HAL_Driver/Src/stm32f1xx_hal_tim.c ****   TIMx->CCER = tmpccer;
 11327              		.loc 1 5158 0
 11328 0070 FB68     		ldr	r3, [r7, #12]
 11329 0072 3A69     		ldr	r2, [r7, #16]
 11330 0074 1A62     		str	r2, [r3, #32]
5159:Drivers/STM32F1xx_HAL_Driver/Src/stm32f1xx_hal_tim.c **** }
 11331              		.loc 1 5159 0
 11332 0076 00BF     		nop
 11333 0078 1C37     		adds	r7, r7, #28
 11334              	.LCFI537:
 11335              		.cfi_def_cfa_offset 4
 11336 007a BD46     		mov	sp, r7
 11337              	.LCFI538:
 11338              		.cfi_def_cfa_register 13
 11339              		@ sp needed
 11340 007c 80BC     		pop	{r7}
 11341              	.LCFI539:
 11342              		.cfi_restore 7
 11343              		.cfi_def_cfa_offset 0
 11344 007e 7047     		bx	lr
 11345              		.cfi_endproc
 11346              	.LFE165:
 11348              		.section	.text.TIM_TI2_ConfigInputStage,"ax",%progbits
 11349              		.align	1
 11350              		.syntax unified
 11351              		.thumb
 11352              		.thumb_func
 11353              		.fpu softvfp
 11355              	TIM_TI2_ConfigInputStage:
 11356              	.LFB166:
5160:Drivers/STM32F1xx_HAL_Driver/Src/stm32f1xx_hal_tim.c **** 
5161:Drivers/STM32F1xx_HAL_Driver/Src/stm32f1xx_hal_tim.c **** /**
5162:Drivers/STM32F1xx_HAL_Driver/Src/stm32f1xx_hal_tim.c ****   * @brief  Configure the Polarity and Filter for TI2.
5163:Drivers/STM32F1xx_HAL_Driver/Src/stm32f1xx_hal_tim.c ****   * @param  TIMx  to select the TIM peripheral.
5164:Drivers/STM32F1xx_HAL_Driver/Src/stm32f1xx_hal_tim.c ****   * @param  TIM_ICPolarity : The Input Polarity.
5165:Drivers/STM32F1xx_HAL_Driver/Src/stm32f1xx_hal_tim.c ****   *          This parameter can be one of the following values:
5166:Drivers/STM32F1xx_HAL_Driver/Src/stm32f1xx_hal_tim.c ****   *            @arg TIM_ICPOLARITY_RISING  
5167:Drivers/STM32F1xx_HAL_Driver/Src/stm32f1xx_hal_tim.c ****   *            @arg TIM_ICPOLARITY_FALLING
5168:Drivers/STM32F1xx_HAL_Driver/Src/stm32f1xx_hal_tim.c ****   * @param  TIM_ICFilter : Specifies the Input Capture Filter.
5169:Drivers/STM32F1xx_HAL_Driver/Src/stm32f1xx_hal_tim.c ****   *          This parameter must be a value between 0x00 and 0x0F.
5170:Drivers/STM32F1xx_HAL_Driver/Src/stm32f1xx_hal_tim.c ****   * @retval None
5171:Drivers/STM32F1xx_HAL_Driver/Src/stm32f1xx_hal_tim.c ****   */
5172:Drivers/STM32F1xx_HAL_Driver/Src/stm32f1xx_hal_tim.c **** static void TIM_TI2_ConfigInputStage(TIM_TypeDef *TIMx, uint32_t TIM_ICPolarity, uint32_t TIM_ICFil
5173:Drivers/STM32F1xx_HAL_Driver/Src/stm32f1xx_hal_tim.c **** {
 11357              		.loc 1 5173 0
 11358              		.cfi_startproc
 11359              		@ args = 0, pretend = 0, frame = 24
 11360              		@ frame_needed = 1, uses_anonymous_args = 0
 11361              		@ link register save eliminated.
 11362 0000 80B4     		push	{r7}
 11363              	.LCFI540:
 11364              		.cfi_def_cfa_offset 4
 11365              		.cfi_offset 7, -4
 11366 0002 87B0     		sub	sp, sp, #28
ARM GAS  /tmp/cc5HGhWi.s 			page 291


 11367              	.LCFI541:
 11368              		.cfi_def_cfa_offset 32
 11369 0004 00AF     		add	r7, sp, #0
 11370              	.LCFI542:
 11371              		.cfi_def_cfa_register 7
 11372 0006 F860     		str	r0, [r7, #12]
 11373 0008 B960     		str	r1, [r7, #8]
 11374 000a 7A60     		str	r2, [r7, #4]
5174:Drivers/STM32F1xx_HAL_Driver/Src/stm32f1xx_hal_tim.c ****   uint32_t tmpccmr1 = 0U;
 11375              		.loc 1 5174 0
 11376 000c 0023     		movs	r3, #0
 11377 000e 7B61     		str	r3, [r7, #20]
5175:Drivers/STM32F1xx_HAL_Driver/Src/stm32f1xx_hal_tim.c ****   uint32_t tmpccer = 0U;
 11378              		.loc 1 5175 0
 11379 0010 0023     		movs	r3, #0
 11380 0012 3B61     		str	r3, [r7, #16]
5176:Drivers/STM32F1xx_HAL_Driver/Src/stm32f1xx_hal_tim.c **** 
5177:Drivers/STM32F1xx_HAL_Driver/Src/stm32f1xx_hal_tim.c ****   /* Disable the Channel 2: Reset the CC2E Bit */
5178:Drivers/STM32F1xx_HAL_Driver/Src/stm32f1xx_hal_tim.c ****   TIMx->CCER &= ~TIM_CCER_CC2E;
 11381              		.loc 1 5178 0
 11382 0014 FB68     		ldr	r3, [r7, #12]
 11383 0016 1B6A     		ldr	r3, [r3, #32]
 11384 0018 23F01002 		bic	r2, r3, #16
 11385 001c FB68     		ldr	r3, [r7, #12]
 11386 001e 1A62     		str	r2, [r3, #32]
5179:Drivers/STM32F1xx_HAL_Driver/Src/stm32f1xx_hal_tim.c ****   tmpccmr1 = TIMx->CCMR1;
 11387              		.loc 1 5179 0
 11388 0020 FB68     		ldr	r3, [r7, #12]
 11389 0022 9B69     		ldr	r3, [r3, #24]
 11390 0024 7B61     		str	r3, [r7, #20]
5180:Drivers/STM32F1xx_HAL_Driver/Src/stm32f1xx_hal_tim.c ****   tmpccer = TIMx->CCER;
 11391              		.loc 1 5180 0
 11392 0026 FB68     		ldr	r3, [r7, #12]
 11393 0028 1B6A     		ldr	r3, [r3, #32]
 11394 002a 3B61     		str	r3, [r7, #16]
5181:Drivers/STM32F1xx_HAL_Driver/Src/stm32f1xx_hal_tim.c **** 
5182:Drivers/STM32F1xx_HAL_Driver/Src/stm32f1xx_hal_tim.c ****   /* Set the filter */
5183:Drivers/STM32F1xx_HAL_Driver/Src/stm32f1xx_hal_tim.c ****   tmpccmr1 &= ~TIM_CCMR1_IC2F;
 11395              		.loc 1 5183 0
 11396 002c 7B69     		ldr	r3, [r7, #20]
 11397 002e 23F47043 		bic	r3, r3, #61440
 11398 0032 7B61     		str	r3, [r7, #20]
5184:Drivers/STM32F1xx_HAL_Driver/Src/stm32f1xx_hal_tim.c ****   tmpccmr1 |= (TIM_ICFilter << 12U);
 11399              		.loc 1 5184 0
 11400 0034 7B68     		ldr	r3, [r7, #4]
 11401 0036 1B03     		lsls	r3, r3, #12
 11402 0038 7A69     		ldr	r2, [r7, #20]
 11403 003a 1343     		orrs	r3, r3, r2
 11404 003c 7B61     		str	r3, [r7, #20]
5185:Drivers/STM32F1xx_HAL_Driver/Src/stm32f1xx_hal_tim.c **** 
5186:Drivers/STM32F1xx_HAL_Driver/Src/stm32f1xx_hal_tim.c ****   /* Select the Polarity and set the CC2E Bit */
5187:Drivers/STM32F1xx_HAL_Driver/Src/stm32f1xx_hal_tim.c ****   tmpccer &= ~(TIM_CCER_CC2P | TIM_CCER_CC2NP);
 11405              		.loc 1 5187 0
 11406 003e 3B69     		ldr	r3, [r7, #16]
 11407 0040 23F0A003 		bic	r3, r3, #160
 11408 0044 3B61     		str	r3, [r7, #16]
5188:Drivers/STM32F1xx_HAL_Driver/Src/stm32f1xx_hal_tim.c ****   tmpccer |= (TIM_ICPolarity << 4U);
ARM GAS  /tmp/cc5HGhWi.s 			page 292


 11409              		.loc 1 5188 0
 11410 0046 BB68     		ldr	r3, [r7, #8]
 11411 0048 1B01     		lsls	r3, r3, #4
 11412 004a 3A69     		ldr	r2, [r7, #16]
 11413 004c 1343     		orrs	r3, r3, r2
 11414 004e 3B61     		str	r3, [r7, #16]
5189:Drivers/STM32F1xx_HAL_Driver/Src/stm32f1xx_hal_tim.c **** 
5190:Drivers/STM32F1xx_HAL_Driver/Src/stm32f1xx_hal_tim.c ****   /* Write to TIMx CCMR1 and CCER registers */
5191:Drivers/STM32F1xx_HAL_Driver/Src/stm32f1xx_hal_tim.c ****   TIMx->CCMR1 = tmpccmr1 ;
 11415              		.loc 1 5191 0
 11416 0050 FB68     		ldr	r3, [r7, #12]
 11417 0052 7A69     		ldr	r2, [r7, #20]
 11418 0054 9A61     		str	r2, [r3, #24]
5192:Drivers/STM32F1xx_HAL_Driver/Src/stm32f1xx_hal_tim.c ****   TIMx->CCER = tmpccer;
 11419              		.loc 1 5192 0
 11420 0056 FB68     		ldr	r3, [r7, #12]
 11421 0058 3A69     		ldr	r2, [r7, #16]
 11422 005a 1A62     		str	r2, [r3, #32]
5193:Drivers/STM32F1xx_HAL_Driver/Src/stm32f1xx_hal_tim.c **** }
 11423              		.loc 1 5193 0
 11424 005c 00BF     		nop
 11425 005e 1C37     		adds	r7, r7, #28
 11426              	.LCFI543:
 11427              		.cfi_def_cfa_offset 4
 11428 0060 BD46     		mov	sp, r7
 11429              	.LCFI544:
 11430              		.cfi_def_cfa_register 13
 11431              		@ sp needed
 11432 0062 80BC     		pop	{r7}
 11433              	.LCFI545:
 11434              		.cfi_restore 7
 11435              		.cfi_def_cfa_offset 0
 11436 0064 7047     		bx	lr
 11437              		.cfi_endproc
 11438              	.LFE166:
 11440              		.section	.text.TIM_TI3_SetConfig,"ax",%progbits
 11441              		.align	1
 11442              		.syntax unified
 11443              		.thumb
 11444              		.thumb_func
 11445              		.fpu softvfp
 11447              	TIM_TI3_SetConfig:
 11448              	.LFB167:
5194:Drivers/STM32F1xx_HAL_Driver/Src/stm32f1xx_hal_tim.c **** 
5195:Drivers/STM32F1xx_HAL_Driver/Src/stm32f1xx_hal_tim.c **** /**
5196:Drivers/STM32F1xx_HAL_Driver/Src/stm32f1xx_hal_tim.c ****   * @brief  Configure the TI3 as Input.
5197:Drivers/STM32F1xx_HAL_Driver/Src/stm32f1xx_hal_tim.c ****   * @param  TIMx  to select the TIM peripheral
5198:Drivers/STM32F1xx_HAL_Driver/Src/stm32f1xx_hal_tim.c ****   * @param  TIM_ICPolarity : The Input Polarity.
5199:Drivers/STM32F1xx_HAL_Driver/Src/stm32f1xx_hal_tim.c ****   *          This parameter can be one of the following values:
5200:Drivers/STM32F1xx_HAL_Driver/Src/stm32f1xx_hal_tim.c ****   *            @arg TIM_ICPOLARITY_RISING  
5201:Drivers/STM32F1xx_HAL_Driver/Src/stm32f1xx_hal_tim.c ****   *            @arg TIM_ICPOLARITY_FALLING
5202:Drivers/STM32F1xx_HAL_Driver/Src/stm32f1xx_hal_tim.c ****   * @param  TIM_ICSelection : specifies the input to be used.
5203:Drivers/STM32F1xx_HAL_Driver/Src/stm32f1xx_hal_tim.c ****   *          This parameter can be one of the following values:
5204:Drivers/STM32F1xx_HAL_Driver/Src/stm32f1xx_hal_tim.c ****   *            @arg TIM_ICSELECTION_DIRECTTI:   TIM Input 3 is selected to be connected to IC3.
5205:Drivers/STM32F1xx_HAL_Driver/Src/stm32f1xx_hal_tim.c ****   *            @arg TIM_ICSELECTION_INDIRECTTI: TIM Input 3 is selected to be connected to IC4.
5206:Drivers/STM32F1xx_HAL_Driver/Src/stm32f1xx_hal_tim.c ****   *            @arg TIM_ICSELECTION_TRC:        TIM Input 3 is selected to be connected to TRC.
5207:Drivers/STM32F1xx_HAL_Driver/Src/stm32f1xx_hal_tim.c ****   * @param  TIM_ICFilter : Specifies the Input Capture Filter.
ARM GAS  /tmp/cc5HGhWi.s 			page 293


5208:Drivers/STM32F1xx_HAL_Driver/Src/stm32f1xx_hal_tim.c ****   *          This parameter must be a value between 0x00 and 0x0F.
5209:Drivers/STM32F1xx_HAL_Driver/Src/stm32f1xx_hal_tim.c ****   * @retval None
5210:Drivers/STM32F1xx_HAL_Driver/Src/stm32f1xx_hal_tim.c ****   * @note TIM_ICFilter and TIM_ICPolarity are not used in INDIRECT mode as TI3FP4 
5211:Drivers/STM32F1xx_HAL_Driver/Src/stm32f1xx_hal_tim.c ****   *       (on channel1 path) is used as the input signal. Therefore CCMR2 must be 
5212:Drivers/STM32F1xx_HAL_Driver/Src/stm32f1xx_hal_tim.c ****   *        protected against un-initialized filter and polarity values.
5213:Drivers/STM32F1xx_HAL_Driver/Src/stm32f1xx_hal_tim.c ****   */
5214:Drivers/STM32F1xx_HAL_Driver/Src/stm32f1xx_hal_tim.c **** static void TIM_TI3_SetConfig(TIM_TypeDef *TIMx, uint32_t TIM_ICPolarity, uint32_t TIM_ICSelection,
5215:Drivers/STM32F1xx_HAL_Driver/Src/stm32f1xx_hal_tim.c ****                        uint32_t TIM_ICFilter)
5216:Drivers/STM32F1xx_HAL_Driver/Src/stm32f1xx_hal_tim.c **** {
 11449              		.loc 1 5216 0
 11450              		.cfi_startproc
 11451              		@ args = 0, pretend = 0, frame = 24
 11452              		@ frame_needed = 1, uses_anonymous_args = 0
 11453              		@ link register save eliminated.
 11454 0000 80B4     		push	{r7}
 11455              	.LCFI546:
 11456              		.cfi_def_cfa_offset 4
 11457              		.cfi_offset 7, -4
 11458 0002 87B0     		sub	sp, sp, #28
 11459              	.LCFI547:
 11460              		.cfi_def_cfa_offset 32
 11461 0004 00AF     		add	r7, sp, #0
 11462              	.LCFI548:
 11463              		.cfi_def_cfa_register 7
 11464 0006 F860     		str	r0, [r7, #12]
 11465 0008 B960     		str	r1, [r7, #8]
 11466 000a 7A60     		str	r2, [r7, #4]
 11467 000c 3B60     		str	r3, [r7]
5217:Drivers/STM32F1xx_HAL_Driver/Src/stm32f1xx_hal_tim.c ****   uint32_t tmpccmr2 = 0U;
 11468              		.loc 1 5217 0
 11469 000e 0023     		movs	r3, #0
 11470 0010 7B61     		str	r3, [r7, #20]
5218:Drivers/STM32F1xx_HAL_Driver/Src/stm32f1xx_hal_tim.c ****   uint32_t tmpccer = 0U;
 11471              		.loc 1 5218 0
 11472 0012 0023     		movs	r3, #0
 11473 0014 3B61     		str	r3, [r7, #16]
5219:Drivers/STM32F1xx_HAL_Driver/Src/stm32f1xx_hal_tim.c **** 
5220:Drivers/STM32F1xx_HAL_Driver/Src/stm32f1xx_hal_tim.c ****   /* Disable the Channel 3: Reset the CC3E Bit */
5221:Drivers/STM32F1xx_HAL_Driver/Src/stm32f1xx_hal_tim.c ****   TIMx->CCER &= ~TIM_CCER_CC3E;
 11474              		.loc 1 5221 0
 11475 0016 FB68     		ldr	r3, [r7, #12]
 11476 0018 1B6A     		ldr	r3, [r3, #32]
 11477 001a 23F48072 		bic	r2, r3, #256
 11478 001e FB68     		ldr	r3, [r7, #12]
 11479 0020 1A62     		str	r2, [r3, #32]
5222:Drivers/STM32F1xx_HAL_Driver/Src/stm32f1xx_hal_tim.c ****   tmpccmr2 = TIMx->CCMR2;
 11480              		.loc 1 5222 0
 11481 0022 FB68     		ldr	r3, [r7, #12]
 11482 0024 DB69     		ldr	r3, [r3, #28]
 11483 0026 7B61     		str	r3, [r7, #20]
5223:Drivers/STM32F1xx_HAL_Driver/Src/stm32f1xx_hal_tim.c ****   tmpccer = TIMx->CCER;
 11484              		.loc 1 5223 0
 11485 0028 FB68     		ldr	r3, [r7, #12]
 11486 002a 1B6A     		ldr	r3, [r3, #32]
 11487 002c 3B61     		str	r3, [r7, #16]
5224:Drivers/STM32F1xx_HAL_Driver/Src/stm32f1xx_hal_tim.c **** 
5225:Drivers/STM32F1xx_HAL_Driver/Src/stm32f1xx_hal_tim.c ****   /* Select the Input */
ARM GAS  /tmp/cc5HGhWi.s 			page 294


5226:Drivers/STM32F1xx_HAL_Driver/Src/stm32f1xx_hal_tim.c ****   tmpccmr2 &= ~TIM_CCMR2_CC3S;
 11488              		.loc 1 5226 0
 11489 002e 7B69     		ldr	r3, [r7, #20]
 11490 0030 23F00303 		bic	r3, r3, #3
 11491 0034 7B61     		str	r3, [r7, #20]
5227:Drivers/STM32F1xx_HAL_Driver/Src/stm32f1xx_hal_tim.c ****   tmpccmr2 |= TIM_ICSelection;
 11492              		.loc 1 5227 0
 11493 0036 7A69     		ldr	r2, [r7, #20]
 11494 0038 7B68     		ldr	r3, [r7, #4]
 11495 003a 1343     		orrs	r3, r3, r2
 11496 003c 7B61     		str	r3, [r7, #20]
5228:Drivers/STM32F1xx_HAL_Driver/Src/stm32f1xx_hal_tim.c **** 
5229:Drivers/STM32F1xx_HAL_Driver/Src/stm32f1xx_hal_tim.c ****   /* Set the filter */
5230:Drivers/STM32F1xx_HAL_Driver/Src/stm32f1xx_hal_tim.c ****   tmpccmr2 &= ~TIM_CCMR2_IC3F;
 11497              		.loc 1 5230 0
 11498 003e 7B69     		ldr	r3, [r7, #20]
 11499 0040 23F0F003 		bic	r3, r3, #240
 11500 0044 7B61     		str	r3, [r7, #20]
5231:Drivers/STM32F1xx_HAL_Driver/Src/stm32f1xx_hal_tim.c ****   tmpccmr2 |= ((TIM_ICFilter << 4U) & TIM_CCMR2_IC3F);
 11501              		.loc 1 5231 0
 11502 0046 3B68     		ldr	r3, [r7]
 11503 0048 1B01     		lsls	r3, r3, #4
 11504 004a DBB2     		uxtb	r3, r3
 11505 004c 7A69     		ldr	r2, [r7, #20]
 11506 004e 1343     		orrs	r3, r3, r2
 11507 0050 7B61     		str	r3, [r7, #20]
5232:Drivers/STM32F1xx_HAL_Driver/Src/stm32f1xx_hal_tim.c **** 
5233:Drivers/STM32F1xx_HAL_Driver/Src/stm32f1xx_hal_tim.c ****   /* Select the Polarity and set the CC3E Bit */
5234:Drivers/STM32F1xx_HAL_Driver/Src/stm32f1xx_hal_tim.c ****   tmpccer &= ~(TIM_CCER_CC3P | TIM_CCER_CC3NP);
 11508              		.loc 1 5234 0
 11509 0052 3B69     		ldr	r3, [r7, #16]
 11510 0054 23F42063 		bic	r3, r3, #2560
 11511 0058 3B61     		str	r3, [r7, #16]
5235:Drivers/STM32F1xx_HAL_Driver/Src/stm32f1xx_hal_tim.c ****   tmpccer |= ((TIM_ICPolarity << 8U) & (TIM_CCER_CC3P | TIM_CCER_CC3NP));
 11512              		.loc 1 5235 0
 11513 005a BB68     		ldr	r3, [r7, #8]
 11514 005c 1B02     		lsls	r3, r3, #8
 11515 005e 03F42063 		and	r3, r3, #2560
 11516 0062 3A69     		ldr	r2, [r7, #16]
 11517 0064 1343     		orrs	r3, r3, r2
 11518 0066 3B61     		str	r3, [r7, #16]
5236:Drivers/STM32F1xx_HAL_Driver/Src/stm32f1xx_hal_tim.c **** 
5237:Drivers/STM32F1xx_HAL_Driver/Src/stm32f1xx_hal_tim.c ****   /* Write to TIMx CCMR2 and CCER registers */
5238:Drivers/STM32F1xx_HAL_Driver/Src/stm32f1xx_hal_tim.c ****   TIMx->CCMR2 = tmpccmr2;
 11519              		.loc 1 5238 0
 11520 0068 FB68     		ldr	r3, [r7, #12]
 11521 006a 7A69     		ldr	r2, [r7, #20]
 11522 006c DA61     		str	r2, [r3, #28]
5239:Drivers/STM32F1xx_HAL_Driver/Src/stm32f1xx_hal_tim.c ****   TIMx->CCER = tmpccer;
 11523              		.loc 1 5239 0
 11524 006e FB68     		ldr	r3, [r7, #12]
 11525 0070 3A69     		ldr	r2, [r7, #16]
 11526 0072 1A62     		str	r2, [r3, #32]
5240:Drivers/STM32F1xx_HAL_Driver/Src/stm32f1xx_hal_tim.c **** }
 11527              		.loc 1 5240 0
 11528 0074 00BF     		nop
 11529 0076 1C37     		adds	r7, r7, #28
ARM GAS  /tmp/cc5HGhWi.s 			page 295


 11530              	.LCFI549:
 11531              		.cfi_def_cfa_offset 4
 11532 0078 BD46     		mov	sp, r7
 11533              	.LCFI550:
 11534              		.cfi_def_cfa_register 13
 11535              		@ sp needed
 11536 007a 80BC     		pop	{r7}
 11537              	.LCFI551:
 11538              		.cfi_restore 7
 11539              		.cfi_def_cfa_offset 0
 11540 007c 7047     		bx	lr
 11541              		.cfi_endproc
 11542              	.LFE167:
 11544              		.section	.text.TIM_TI4_SetConfig,"ax",%progbits
 11545              		.align	1
 11546              		.syntax unified
 11547              		.thumb
 11548              		.thumb_func
 11549              		.fpu softvfp
 11551              	TIM_TI4_SetConfig:
 11552              	.LFB168:
5241:Drivers/STM32F1xx_HAL_Driver/Src/stm32f1xx_hal_tim.c **** 
5242:Drivers/STM32F1xx_HAL_Driver/Src/stm32f1xx_hal_tim.c **** /**
5243:Drivers/STM32F1xx_HAL_Driver/Src/stm32f1xx_hal_tim.c ****   * @brief  Configure the TI4 as Input.
5244:Drivers/STM32F1xx_HAL_Driver/Src/stm32f1xx_hal_tim.c ****   * @param  TIMx to select the TIM peripheral
5245:Drivers/STM32F1xx_HAL_Driver/Src/stm32f1xx_hal_tim.c ****   * @param  TIM_ICPolarity : The Input Polarity.
5246:Drivers/STM32F1xx_HAL_Driver/Src/stm32f1xx_hal_tim.c ****   *          This parameter can be one of the following values:
5247:Drivers/STM32F1xx_HAL_Driver/Src/stm32f1xx_hal_tim.c ****   *            @arg TIM_ICPOLARITY_RISING  
5248:Drivers/STM32F1xx_HAL_Driver/Src/stm32f1xx_hal_tim.c ****   *            @arg TIM_ICPOLARITY_FALLING
5249:Drivers/STM32F1xx_HAL_Driver/Src/stm32f1xx_hal_tim.c ****   * @param  TIM_ICSelection : specifies the input to be used.
5250:Drivers/STM32F1xx_HAL_Driver/Src/stm32f1xx_hal_tim.c ****   *          This parameter can be one of the following values:
5251:Drivers/STM32F1xx_HAL_Driver/Src/stm32f1xx_hal_tim.c ****   *            @arg TIM_ICSELECTION_DIRECTTI:   TIM Input 4 is selected to be connected to IC4.
5252:Drivers/STM32F1xx_HAL_Driver/Src/stm32f1xx_hal_tim.c ****   *            @arg TIM_ICSELECTION_INDIRECTTI: TIM Input 4 is selected to be connected to IC3.
5253:Drivers/STM32F1xx_HAL_Driver/Src/stm32f1xx_hal_tim.c ****   *            @arg TIM_ICSELECTION_TRC:        TIM Input 4 is selected to be connected to TRC.
5254:Drivers/STM32F1xx_HAL_Driver/Src/stm32f1xx_hal_tim.c ****   * @param  TIM_ICFilter : Specifies the Input Capture Filter.
5255:Drivers/STM32F1xx_HAL_Driver/Src/stm32f1xx_hal_tim.c ****   *          This parameter must be a value between 0x00 and 0x0F.
5256:Drivers/STM32F1xx_HAL_Driver/Src/stm32f1xx_hal_tim.c ****   * @note TIM_ICFilter and TIM_ICPolarity are not used in INDIRECT mode as TI4FP3 
5257:Drivers/STM32F1xx_HAL_Driver/Src/stm32f1xx_hal_tim.c ****   *       (on channel1 path) is used as the input signal. Therefore CCMR2 must be 
5258:Drivers/STM32F1xx_HAL_Driver/Src/stm32f1xx_hal_tim.c ****   *        protected against un-initialized filter and polarity values.
5259:Drivers/STM32F1xx_HAL_Driver/Src/stm32f1xx_hal_tim.c ****   * @retval None
5260:Drivers/STM32F1xx_HAL_Driver/Src/stm32f1xx_hal_tim.c ****   */
5261:Drivers/STM32F1xx_HAL_Driver/Src/stm32f1xx_hal_tim.c **** static void TIM_TI4_SetConfig(TIM_TypeDef *TIMx, uint32_t TIM_ICPolarity, uint32_t TIM_ICSelection,
5262:Drivers/STM32F1xx_HAL_Driver/Src/stm32f1xx_hal_tim.c ****                        uint32_t TIM_ICFilter)
5263:Drivers/STM32F1xx_HAL_Driver/Src/stm32f1xx_hal_tim.c **** {
 11553              		.loc 1 5263 0
 11554              		.cfi_startproc
 11555              		@ args = 0, pretend = 0, frame = 24
 11556              		@ frame_needed = 1, uses_anonymous_args = 0
 11557              		@ link register save eliminated.
 11558 0000 80B4     		push	{r7}
 11559              	.LCFI552:
 11560              		.cfi_def_cfa_offset 4
 11561              		.cfi_offset 7, -4
 11562 0002 87B0     		sub	sp, sp, #28
 11563              	.LCFI553:
 11564              		.cfi_def_cfa_offset 32
 11565 0004 00AF     		add	r7, sp, #0
ARM GAS  /tmp/cc5HGhWi.s 			page 296


 11566              	.LCFI554:
 11567              		.cfi_def_cfa_register 7
 11568 0006 F860     		str	r0, [r7, #12]
 11569 0008 B960     		str	r1, [r7, #8]
 11570 000a 7A60     		str	r2, [r7, #4]
 11571 000c 3B60     		str	r3, [r7]
5264:Drivers/STM32F1xx_HAL_Driver/Src/stm32f1xx_hal_tim.c ****   uint32_t tmpccmr2 = 0U;
 11572              		.loc 1 5264 0
 11573 000e 0023     		movs	r3, #0
 11574 0010 7B61     		str	r3, [r7, #20]
5265:Drivers/STM32F1xx_HAL_Driver/Src/stm32f1xx_hal_tim.c ****   uint32_t tmpccer = 0U;
 11575              		.loc 1 5265 0
 11576 0012 0023     		movs	r3, #0
 11577 0014 3B61     		str	r3, [r7, #16]
5266:Drivers/STM32F1xx_HAL_Driver/Src/stm32f1xx_hal_tim.c **** 
5267:Drivers/STM32F1xx_HAL_Driver/Src/stm32f1xx_hal_tim.c ****   /* Disable the Channel 4: Reset the CC4E Bit */
5268:Drivers/STM32F1xx_HAL_Driver/Src/stm32f1xx_hal_tim.c ****   TIMx->CCER &= ~TIM_CCER_CC4E;
 11578              		.loc 1 5268 0
 11579 0016 FB68     		ldr	r3, [r7, #12]
 11580 0018 1B6A     		ldr	r3, [r3, #32]
 11581 001a 23F48052 		bic	r2, r3, #4096
 11582 001e FB68     		ldr	r3, [r7, #12]
 11583 0020 1A62     		str	r2, [r3, #32]
5269:Drivers/STM32F1xx_HAL_Driver/Src/stm32f1xx_hal_tim.c ****   tmpccmr2 = TIMx->CCMR2;
 11584              		.loc 1 5269 0
 11585 0022 FB68     		ldr	r3, [r7, #12]
 11586 0024 DB69     		ldr	r3, [r3, #28]
 11587 0026 7B61     		str	r3, [r7, #20]
5270:Drivers/STM32F1xx_HAL_Driver/Src/stm32f1xx_hal_tim.c ****   tmpccer = TIMx->CCER;
 11588              		.loc 1 5270 0
 11589 0028 FB68     		ldr	r3, [r7, #12]
 11590 002a 1B6A     		ldr	r3, [r3, #32]
 11591 002c 3B61     		str	r3, [r7, #16]
5271:Drivers/STM32F1xx_HAL_Driver/Src/stm32f1xx_hal_tim.c **** 
5272:Drivers/STM32F1xx_HAL_Driver/Src/stm32f1xx_hal_tim.c ****   /* Select the Input */
5273:Drivers/STM32F1xx_HAL_Driver/Src/stm32f1xx_hal_tim.c ****   tmpccmr2 &= ~TIM_CCMR2_CC4S;
 11592              		.loc 1 5273 0
 11593 002e 7B69     		ldr	r3, [r7, #20]
 11594 0030 23F44073 		bic	r3, r3, #768
 11595 0034 7B61     		str	r3, [r7, #20]
5274:Drivers/STM32F1xx_HAL_Driver/Src/stm32f1xx_hal_tim.c ****   tmpccmr2 |= (TIM_ICSelection << 8U);
 11596              		.loc 1 5274 0
 11597 0036 7B68     		ldr	r3, [r7, #4]
 11598 0038 1B02     		lsls	r3, r3, #8
 11599 003a 7A69     		ldr	r2, [r7, #20]
 11600 003c 1343     		orrs	r3, r3, r2
 11601 003e 7B61     		str	r3, [r7, #20]
5275:Drivers/STM32F1xx_HAL_Driver/Src/stm32f1xx_hal_tim.c **** 
5276:Drivers/STM32F1xx_HAL_Driver/Src/stm32f1xx_hal_tim.c ****   /* Set the filter */
5277:Drivers/STM32F1xx_HAL_Driver/Src/stm32f1xx_hal_tim.c ****   tmpccmr2 &= ~TIM_CCMR2_IC4F;
 11602              		.loc 1 5277 0
 11603 0040 7B69     		ldr	r3, [r7, #20]
 11604 0042 23F47043 		bic	r3, r3, #61440
 11605 0046 7B61     		str	r3, [r7, #20]
5278:Drivers/STM32F1xx_HAL_Driver/Src/stm32f1xx_hal_tim.c ****   tmpccmr2 |= ((TIM_ICFilter << 12U) & TIM_CCMR2_IC4F);
 11606              		.loc 1 5278 0
 11607 0048 3B68     		ldr	r3, [r7]
ARM GAS  /tmp/cc5HGhWi.s 			page 297


 11608 004a 1B03     		lsls	r3, r3, #12
 11609 004c 9BB2     		uxth	r3, r3
 11610 004e 7A69     		ldr	r2, [r7, #20]
 11611 0050 1343     		orrs	r3, r3, r2
 11612 0052 7B61     		str	r3, [r7, #20]
5279:Drivers/STM32F1xx_HAL_Driver/Src/stm32f1xx_hal_tim.c **** 
5280:Drivers/STM32F1xx_HAL_Driver/Src/stm32f1xx_hal_tim.c ****   /* Select the Polarity and set the CC4E Bit */
5281:Drivers/STM32F1xx_HAL_Driver/Src/stm32f1xx_hal_tim.c ****   tmpccer &= ~TIM_CCER_CC4P;
 11613              		.loc 1 5281 0
 11614 0054 3B69     		ldr	r3, [r7, #16]
 11615 0056 23F40053 		bic	r3, r3, #8192
 11616 005a 3B61     		str	r3, [r7, #16]
5282:Drivers/STM32F1xx_HAL_Driver/Src/stm32f1xx_hal_tim.c ****   tmpccer |= ((TIM_ICPolarity << 12U) & TIM_CCER_CC4P);
 11617              		.loc 1 5282 0
 11618 005c BB68     		ldr	r3, [r7, #8]
 11619 005e 1B03     		lsls	r3, r3, #12
 11620 0060 03F40053 		and	r3, r3, #8192
 11621 0064 3A69     		ldr	r2, [r7, #16]
 11622 0066 1343     		orrs	r3, r3, r2
 11623 0068 3B61     		str	r3, [r7, #16]
5283:Drivers/STM32F1xx_HAL_Driver/Src/stm32f1xx_hal_tim.c **** 
5284:Drivers/STM32F1xx_HAL_Driver/Src/stm32f1xx_hal_tim.c ****   /* Write to TIMx CCMR2 and CCER registers */
5285:Drivers/STM32F1xx_HAL_Driver/Src/stm32f1xx_hal_tim.c ****   TIMx->CCMR2 = tmpccmr2;
 11624              		.loc 1 5285 0
 11625 006a FB68     		ldr	r3, [r7, #12]
 11626 006c 7A69     		ldr	r2, [r7, #20]
 11627 006e DA61     		str	r2, [r3, #28]
5286:Drivers/STM32F1xx_HAL_Driver/Src/stm32f1xx_hal_tim.c ****   TIMx->CCER = tmpccer ;
 11628              		.loc 1 5286 0
 11629 0070 FB68     		ldr	r3, [r7, #12]
 11630 0072 3A69     		ldr	r2, [r7, #16]
 11631 0074 1A62     		str	r2, [r3, #32]
5287:Drivers/STM32F1xx_HAL_Driver/Src/stm32f1xx_hal_tim.c **** }
 11632              		.loc 1 5287 0
 11633 0076 00BF     		nop
 11634 0078 1C37     		adds	r7, r7, #28
 11635              	.LCFI555:
 11636              		.cfi_def_cfa_offset 4
 11637 007a BD46     		mov	sp, r7
 11638              	.LCFI556:
 11639              		.cfi_def_cfa_register 13
 11640              		@ sp needed
 11641 007c 80BC     		pop	{r7}
 11642              	.LCFI557:
 11643              		.cfi_restore 7
 11644              		.cfi_def_cfa_offset 0
 11645 007e 7047     		bx	lr
 11646              		.cfi_endproc
 11647              	.LFE168:
 11649              		.section	.text.TIM_ITRx_SetConfig,"ax",%progbits
 11650              		.align	1
 11651              		.syntax unified
 11652              		.thumb
 11653              		.thumb_func
 11654              		.fpu softvfp
 11656              	TIM_ITRx_SetConfig:
 11657              	.LFB169:
ARM GAS  /tmp/cc5HGhWi.s 			page 298


5288:Drivers/STM32F1xx_HAL_Driver/Src/stm32f1xx_hal_tim.c **** 
5289:Drivers/STM32F1xx_HAL_Driver/Src/stm32f1xx_hal_tim.c **** /**
5290:Drivers/STM32F1xx_HAL_Driver/Src/stm32f1xx_hal_tim.c ****   * @brief  Selects the Input Trigger source
5291:Drivers/STM32F1xx_HAL_Driver/Src/stm32f1xx_hal_tim.c ****   * @param  TIMx  to select the TIM peripheral
5292:Drivers/STM32F1xx_HAL_Driver/Src/stm32f1xx_hal_tim.c ****   * @param  InputTriggerSource : The Input Trigger source.
5293:Drivers/STM32F1xx_HAL_Driver/Src/stm32f1xx_hal_tim.c ****   *          This parameter can be one of the following values:
5294:Drivers/STM32F1xx_HAL_Driver/Src/stm32f1xx_hal_tim.c ****   *            @arg TIM_TS_ITR0 : Internal Trigger 0
5295:Drivers/STM32F1xx_HAL_Driver/Src/stm32f1xx_hal_tim.c ****   *            @arg TIM_TS_ITR1 : Internal Trigger 1
5296:Drivers/STM32F1xx_HAL_Driver/Src/stm32f1xx_hal_tim.c ****   *            @arg TIM_TS_ITR2 : Internal Trigger 2
5297:Drivers/STM32F1xx_HAL_Driver/Src/stm32f1xx_hal_tim.c ****   *            @arg TIM_TS_ITR3 : Internal Trigger 3
5298:Drivers/STM32F1xx_HAL_Driver/Src/stm32f1xx_hal_tim.c ****   *            @arg TIM_TS_TI1F_ED : TI1 Edge Detector
5299:Drivers/STM32F1xx_HAL_Driver/Src/stm32f1xx_hal_tim.c ****   *            @arg TIM_TS_TI1FP1 : Filtered Timer Input 1
5300:Drivers/STM32F1xx_HAL_Driver/Src/stm32f1xx_hal_tim.c ****   *            @arg TIM_TS_TI2FP2 : Filtered Timer Input 2
5301:Drivers/STM32F1xx_HAL_Driver/Src/stm32f1xx_hal_tim.c ****   *            @arg TIM_TS_ETRF : External Trigger input
5302:Drivers/STM32F1xx_HAL_Driver/Src/stm32f1xx_hal_tim.c ****   * @retval None
5303:Drivers/STM32F1xx_HAL_Driver/Src/stm32f1xx_hal_tim.c ****   */
5304:Drivers/STM32F1xx_HAL_Driver/Src/stm32f1xx_hal_tim.c **** static void TIM_ITRx_SetConfig(TIM_TypeDef *TIMx, uint16_t InputTriggerSource)
5305:Drivers/STM32F1xx_HAL_Driver/Src/stm32f1xx_hal_tim.c **** {
 11658              		.loc 1 5305 0
 11659              		.cfi_startproc
 11660              		@ args = 0, pretend = 0, frame = 16
 11661              		@ frame_needed = 1, uses_anonymous_args = 0
 11662              		@ link register save eliminated.
 11663 0000 80B4     		push	{r7}
 11664              	.LCFI558:
 11665              		.cfi_def_cfa_offset 4
 11666              		.cfi_offset 7, -4
 11667 0002 85B0     		sub	sp, sp, #20
 11668              	.LCFI559:
 11669              		.cfi_def_cfa_offset 24
 11670 0004 00AF     		add	r7, sp, #0
 11671              	.LCFI560:
 11672              		.cfi_def_cfa_register 7
 11673 0006 7860     		str	r0, [r7, #4]
 11674 0008 0B46     		mov	r3, r1
 11675 000a 7B80     		strh	r3, [r7, #2]	@ movhi
5306:Drivers/STM32F1xx_HAL_Driver/Src/stm32f1xx_hal_tim.c ****   uint32_t tmpsmcr = 0U;
 11676              		.loc 1 5306 0
 11677 000c 0023     		movs	r3, #0
 11678 000e FB60     		str	r3, [r7, #12]
5307:Drivers/STM32F1xx_HAL_Driver/Src/stm32f1xx_hal_tim.c **** 
5308:Drivers/STM32F1xx_HAL_Driver/Src/stm32f1xx_hal_tim.c ****    /* Get the TIMx SMCR register value */
5309:Drivers/STM32F1xx_HAL_Driver/Src/stm32f1xx_hal_tim.c ****    tmpsmcr = TIMx->SMCR;
 11679              		.loc 1 5309 0
 11680 0010 7B68     		ldr	r3, [r7, #4]
 11681 0012 9B68     		ldr	r3, [r3, #8]
 11682 0014 FB60     		str	r3, [r7, #12]
5310:Drivers/STM32F1xx_HAL_Driver/Src/stm32f1xx_hal_tim.c ****    /* Reset the TS Bits */
5311:Drivers/STM32F1xx_HAL_Driver/Src/stm32f1xx_hal_tim.c ****    tmpsmcr &= ~TIM_SMCR_TS;
 11683              		.loc 1 5311 0
 11684 0016 FB68     		ldr	r3, [r7, #12]
 11685 0018 23F07003 		bic	r3, r3, #112
 11686 001c FB60     		str	r3, [r7, #12]
5312:Drivers/STM32F1xx_HAL_Driver/Src/stm32f1xx_hal_tim.c ****    /* Set the Input Trigger source and the slave mode*/
5313:Drivers/STM32F1xx_HAL_Driver/Src/stm32f1xx_hal_tim.c ****    tmpsmcr |= InputTriggerSource | TIM_SLAVEMODE_EXTERNAL1;
 11687              		.loc 1 5313 0
 11688 001e 7B88     		ldrh	r3, [r7, #2]	@ movhi
ARM GAS  /tmp/cc5HGhWi.s 			page 299


 11689 0020 43F00703 		orr	r3, r3, #7
 11690 0024 9BB2     		uxth	r3, r3
 11691 0026 1A46     		mov	r2, r3
 11692 0028 FB68     		ldr	r3, [r7, #12]
 11693 002a 1343     		orrs	r3, r3, r2
 11694 002c FB60     		str	r3, [r7, #12]
5314:Drivers/STM32F1xx_HAL_Driver/Src/stm32f1xx_hal_tim.c ****    /* Write to TIMx SMCR */
5315:Drivers/STM32F1xx_HAL_Driver/Src/stm32f1xx_hal_tim.c ****    TIMx->SMCR = tmpsmcr;
 11695              		.loc 1 5315 0
 11696 002e 7B68     		ldr	r3, [r7, #4]
 11697 0030 FA68     		ldr	r2, [r7, #12]
 11698 0032 9A60     		str	r2, [r3, #8]
5316:Drivers/STM32F1xx_HAL_Driver/Src/stm32f1xx_hal_tim.c **** }
 11699              		.loc 1 5316 0
 11700 0034 00BF     		nop
 11701 0036 1437     		adds	r7, r7, #20
 11702              	.LCFI561:
 11703              		.cfi_def_cfa_offset 4
 11704 0038 BD46     		mov	sp, r7
 11705              	.LCFI562:
 11706              		.cfi_def_cfa_register 13
 11707              		@ sp needed
 11708 003a 80BC     		pop	{r7}
 11709              	.LCFI563:
 11710              		.cfi_restore 7
 11711              		.cfi_def_cfa_offset 0
 11712 003c 7047     		bx	lr
 11713              		.cfi_endproc
 11714              	.LFE169:
 11716              		.section	.text.TIM_ETR_SetConfig,"ax",%progbits
 11717              		.align	1
 11718              		.syntax unified
 11719              		.thumb
 11720              		.thumb_func
 11721              		.fpu softvfp
 11723              	TIM_ETR_SetConfig:
 11724              	.LFB170:
5317:Drivers/STM32F1xx_HAL_Driver/Src/stm32f1xx_hal_tim.c **** /**
5318:Drivers/STM32F1xx_HAL_Driver/Src/stm32f1xx_hal_tim.c ****   * @brief  Configures the TIMx External Trigger (ETR).
5319:Drivers/STM32F1xx_HAL_Driver/Src/stm32f1xx_hal_tim.c ****   * @param  TIMx  to select the TIM peripheral
5320:Drivers/STM32F1xx_HAL_Driver/Src/stm32f1xx_hal_tim.c ****   * @param  TIM_ExtTRGPrescaler : The external Trigger Prescaler.
5321:Drivers/STM32F1xx_HAL_Driver/Src/stm32f1xx_hal_tim.c ****   *          This parameter can be one of the following values:
5322:Drivers/STM32F1xx_HAL_Driver/Src/stm32f1xx_hal_tim.c ****   *            @arg TIM_ETRPRESCALER_DIV1: ETRP Prescaler OFF.
5323:Drivers/STM32F1xx_HAL_Driver/Src/stm32f1xx_hal_tim.c ****   *            @arg TIM_ETRPRESCALER_DIV2: ETRP frequency divided by 2.
5324:Drivers/STM32F1xx_HAL_Driver/Src/stm32f1xx_hal_tim.c ****   *            @arg TIM_ETRPRESCALER_DIV4: ETRP frequency divided by 4.
5325:Drivers/STM32F1xx_HAL_Driver/Src/stm32f1xx_hal_tim.c ****   *            @arg TIM_ETRPRESCALER_DIV8: ETRP frequency divided by 8.
5326:Drivers/STM32F1xx_HAL_Driver/Src/stm32f1xx_hal_tim.c ****   * @param  TIM_ExtTRGPolarity : The external Trigger Polarity.
5327:Drivers/STM32F1xx_HAL_Driver/Src/stm32f1xx_hal_tim.c ****   *          This parameter can be one of the following values:
5328:Drivers/STM32F1xx_HAL_Driver/Src/stm32f1xx_hal_tim.c ****   *            @arg TIM_ETRPOLARITY_INVERTED: active low or falling edge active.
5329:Drivers/STM32F1xx_HAL_Driver/Src/stm32f1xx_hal_tim.c ****   *            @arg TIM_ETRPOLARITY_NONINVERTED: active high or rising edge active.
5330:Drivers/STM32F1xx_HAL_Driver/Src/stm32f1xx_hal_tim.c ****   * @param  ExtTRGFilter : External Trigger Filter.
5331:Drivers/STM32F1xx_HAL_Driver/Src/stm32f1xx_hal_tim.c ****   *          This parameter must be a value between 0x00 and 0x0F
5332:Drivers/STM32F1xx_HAL_Driver/Src/stm32f1xx_hal_tim.c ****   * @retval None
5333:Drivers/STM32F1xx_HAL_Driver/Src/stm32f1xx_hal_tim.c ****   */
5334:Drivers/STM32F1xx_HAL_Driver/Src/stm32f1xx_hal_tim.c **** static void TIM_ETR_SetConfig(TIM_TypeDef* TIMx, uint32_t TIM_ExtTRGPrescaler,
5335:Drivers/STM32F1xx_HAL_Driver/Src/stm32f1xx_hal_tim.c ****                        uint32_t TIM_ExtTRGPolarity, uint32_t ExtTRGFilter)
5336:Drivers/STM32F1xx_HAL_Driver/Src/stm32f1xx_hal_tim.c **** {
ARM GAS  /tmp/cc5HGhWi.s 			page 300


 11725              		.loc 1 5336 0
 11726              		.cfi_startproc
 11727              		@ args = 0, pretend = 0, frame = 24
 11728              		@ frame_needed = 1, uses_anonymous_args = 0
 11729              		@ link register save eliminated.
 11730 0000 80B4     		push	{r7}
 11731              	.LCFI564:
 11732              		.cfi_def_cfa_offset 4
 11733              		.cfi_offset 7, -4
 11734 0002 87B0     		sub	sp, sp, #28
 11735              	.LCFI565:
 11736              		.cfi_def_cfa_offset 32
 11737 0004 00AF     		add	r7, sp, #0
 11738              	.LCFI566:
 11739              		.cfi_def_cfa_register 7
 11740 0006 F860     		str	r0, [r7, #12]
 11741 0008 B960     		str	r1, [r7, #8]
 11742 000a 7A60     		str	r2, [r7, #4]
 11743 000c 3B60     		str	r3, [r7]
5337:Drivers/STM32F1xx_HAL_Driver/Src/stm32f1xx_hal_tim.c ****   uint32_t tmpsmcr = 0U;
 11744              		.loc 1 5337 0
 11745 000e 0023     		movs	r3, #0
 11746 0010 7B61     		str	r3, [r7, #20]
5338:Drivers/STM32F1xx_HAL_Driver/Src/stm32f1xx_hal_tim.c **** 
5339:Drivers/STM32F1xx_HAL_Driver/Src/stm32f1xx_hal_tim.c ****   tmpsmcr = TIMx->SMCR;
 11747              		.loc 1 5339 0
 11748 0012 FB68     		ldr	r3, [r7, #12]
 11749 0014 9B68     		ldr	r3, [r3, #8]
 11750 0016 7B61     		str	r3, [r7, #20]
5340:Drivers/STM32F1xx_HAL_Driver/Src/stm32f1xx_hal_tim.c **** 
5341:Drivers/STM32F1xx_HAL_Driver/Src/stm32f1xx_hal_tim.c ****   /* Reset the ETR Bits */
5342:Drivers/STM32F1xx_HAL_Driver/Src/stm32f1xx_hal_tim.c ****   tmpsmcr &= ~(TIM_SMCR_ETF | TIM_SMCR_ETPS | TIM_SMCR_ECE | TIM_SMCR_ETP);
 11751              		.loc 1 5342 0
 11752 0018 7B69     		ldr	r3, [r7, #20]
 11753 001a 23F47F43 		bic	r3, r3, #65280
 11754 001e 7B61     		str	r3, [r7, #20]
5343:Drivers/STM32F1xx_HAL_Driver/Src/stm32f1xx_hal_tim.c **** 
5344:Drivers/STM32F1xx_HAL_Driver/Src/stm32f1xx_hal_tim.c ****   /* Set the Prescaler, the Filter value and the Polarity */
5345:Drivers/STM32F1xx_HAL_Driver/Src/stm32f1xx_hal_tim.c ****   tmpsmcr |= (uint32_t)(TIM_ExtTRGPrescaler | (TIM_ExtTRGPolarity | (ExtTRGFilter << 8U)));
 11755              		.loc 1 5345 0
 11756 0020 3B68     		ldr	r3, [r7]
 11757 0022 1A02     		lsls	r2, r3, #8
 11758 0024 7B68     		ldr	r3, [r7, #4]
 11759 0026 1A43     		orrs	r2, r2, r3
 11760 0028 BB68     		ldr	r3, [r7, #8]
 11761 002a 1343     		orrs	r3, r3, r2
 11762 002c 7A69     		ldr	r2, [r7, #20]
 11763 002e 1343     		orrs	r3, r3, r2
 11764 0030 7B61     		str	r3, [r7, #20]
5346:Drivers/STM32F1xx_HAL_Driver/Src/stm32f1xx_hal_tim.c **** 
5347:Drivers/STM32F1xx_HAL_Driver/Src/stm32f1xx_hal_tim.c ****   /* Write to TIMx SMCR */
5348:Drivers/STM32F1xx_HAL_Driver/Src/stm32f1xx_hal_tim.c ****   TIMx->SMCR = tmpsmcr;
 11765              		.loc 1 5348 0
 11766 0032 FB68     		ldr	r3, [r7, #12]
 11767 0034 7A69     		ldr	r2, [r7, #20]
 11768 0036 9A60     		str	r2, [r3, #8]
5349:Drivers/STM32F1xx_HAL_Driver/Src/stm32f1xx_hal_tim.c **** }
ARM GAS  /tmp/cc5HGhWi.s 			page 301


 11769              		.loc 1 5349 0
 11770 0038 00BF     		nop
 11771 003a 1C37     		adds	r7, r7, #28
 11772              	.LCFI567:
 11773              		.cfi_def_cfa_offset 4
 11774 003c BD46     		mov	sp, r7
 11775              	.LCFI568:
 11776              		.cfi_def_cfa_register 13
 11777              		@ sp needed
 11778 003e 80BC     		pop	{r7}
 11779              	.LCFI569:
 11780              		.cfi_restore 7
 11781              		.cfi_def_cfa_offset 0
 11782 0040 7047     		bx	lr
 11783              		.cfi_endproc
 11784              	.LFE170:
 11786              		.section	.text.TIM_CCxChannelCmd,"ax",%progbits
 11787              		.align	1
 11788              		.global	TIM_CCxChannelCmd
 11789              		.syntax unified
 11790              		.thumb
 11791              		.thumb_func
 11792              		.fpu softvfp
 11794              	TIM_CCxChannelCmd:
 11795              	.LFB171:
5350:Drivers/STM32F1xx_HAL_Driver/Src/stm32f1xx_hal_tim.c **** 
5351:Drivers/STM32F1xx_HAL_Driver/Src/stm32f1xx_hal_tim.c **** /**
5352:Drivers/STM32F1xx_HAL_Driver/Src/stm32f1xx_hal_tim.c ****   * @brief  Enables or disables the TIM Capture Compare Channel x.
5353:Drivers/STM32F1xx_HAL_Driver/Src/stm32f1xx_hal_tim.c ****   * @param  TIMx  to select the TIM peripheral
5354:Drivers/STM32F1xx_HAL_Driver/Src/stm32f1xx_hal_tim.c ****   * @param  Channel : specifies the TIM Channel
5355:Drivers/STM32F1xx_HAL_Driver/Src/stm32f1xx_hal_tim.c ****   *          This parameter can be one of the following values:
5356:Drivers/STM32F1xx_HAL_Driver/Src/stm32f1xx_hal_tim.c ****   *            @arg TIM_CHANNEL_1: TIM Channel 1
5357:Drivers/STM32F1xx_HAL_Driver/Src/stm32f1xx_hal_tim.c ****   *            @arg TIM_CHANNEL_2: TIM Channel 2
5358:Drivers/STM32F1xx_HAL_Driver/Src/stm32f1xx_hal_tim.c ****   *            @arg TIM_CHANNEL_3: TIM Channel 3
5359:Drivers/STM32F1xx_HAL_Driver/Src/stm32f1xx_hal_tim.c ****   *            @arg TIM_CHANNEL_4: TIM Channel 4
5360:Drivers/STM32F1xx_HAL_Driver/Src/stm32f1xx_hal_tim.c ****   * @param  ChannelState : specifies the TIM Channel CCxE bit new state.
5361:Drivers/STM32F1xx_HAL_Driver/Src/stm32f1xx_hal_tim.c ****   *          This parameter can be: TIM_CCx_ENABLE or TIM_CCx_Disable.
5362:Drivers/STM32F1xx_HAL_Driver/Src/stm32f1xx_hal_tim.c ****   * @retval None
5363:Drivers/STM32F1xx_HAL_Driver/Src/stm32f1xx_hal_tim.c ****   */
5364:Drivers/STM32F1xx_HAL_Driver/Src/stm32f1xx_hal_tim.c **** void TIM_CCxChannelCmd(TIM_TypeDef* TIMx, uint32_t Channel, uint32_t ChannelState)
5365:Drivers/STM32F1xx_HAL_Driver/Src/stm32f1xx_hal_tim.c **** {
 11796              		.loc 1 5365 0
 11797              		.cfi_startproc
 11798              		@ args = 0, pretend = 0, frame = 24
 11799              		@ frame_needed = 1, uses_anonymous_args = 0
 11800              		@ link register save eliminated.
 11801 0000 80B4     		push	{r7}
 11802              	.LCFI570:
 11803              		.cfi_def_cfa_offset 4
 11804              		.cfi_offset 7, -4
 11805 0002 87B0     		sub	sp, sp, #28
 11806              	.LCFI571:
 11807              		.cfi_def_cfa_offset 32
 11808 0004 00AF     		add	r7, sp, #0
 11809              	.LCFI572:
 11810              		.cfi_def_cfa_register 7
 11811 0006 F860     		str	r0, [r7, #12]
ARM GAS  /tmp/cc5HGhWi.s 			page 302


 11812 0008 B960     		str	r1, [r7, #8]
 11813 000a 7A60     		str	r2, [r7, #4]
5366:Drivers/STM32F1xx_HAL_Driver/Src/stm32f1xx_hal_tim.c ****   uint32_t tmp = 0U;
 11814              		.loc 1 5366 0
 11815 000c 0023     		movs	r3, #0
 11816 000e 7B61     		str	r3, [r7, #20]
5367:Drivers/STM32F1xx_HAL_Driver/Src/stm32f1xx_hal_tim.c **** 
5368:Drivers/STM32F1xx_HAL_Driver/Src/stm32f1xx_hal_tim.c ****   /* Check the parameters */
5369:Drivers/STM32F1xx_HAL_Driver/Src/stm32f1xx_hal_tim.c ****   assert_param(IS_TIM_CC1_INSTANCE(TIMx));
5370:Drivers/STM32F1xx_HAL_Driver/Src/stm32f1xx_hal_tim.c ****   assert_param(IS_TIM_CHANNELS(Channel));
5371:Drivers/STM32F1xx_HAL_Driver/Src/stm32f1xx_hal_tim.c **** 
5372:Drivers/STM32F1xx_HAL_Driver/Src/stm32f1xx_hal_tim.c ****   tmp = TIM_CCER_CC1E << Channel;
 11817              		.loc 1 5372 0
 11818 0010 0122     		movs	r2, #1
 11819 0012 BB68     		ldr	r3, [r7, #8]
 11820 0014 02FA03F3 		lsl	r3, r2, r3
 11821 0018 7B61     		str	r3, [r7, #20]
5373:Drivers/STM32F1xx_HAL_Driver/Src/stm32f1xx_hal_tim.c **** 
5374:Drivers/STM32F1xx_HAL_Driver/Src/stm32f1xx_hal_tim.c ****   /* Reset the CCxE Bit */
5375:Drivers/STM32F1xx_HAL_Driver/Src/stm32f1xx_hal_tim.c ****   TIMx->CCER &= ~tmp;
 11822              		.loc 1 5375 0
 11823 001a FB68     		ldr	r3, [r7, #12]
 11824 001c 1A6A     		ldr	r2, [r3, #32]
 11825 001e 7B69     		ldr	r3, [r7, #20]
 11826 0020 DB43     		mvns	r3, r3
 11827 0022 1A40     		ands	r2, r2, r3
 11828 0024 FB68     		ldr	r3, [r7, #12]
 11829 0026 1A62     		str	r2, [r3, #32]
5376:Drivers/STM32F1xx_HAL_Driver/Src/stm32f1xx_hal_tim.c **** 
5377:Drivers/STM32F1xx_HAL_Driver/Src/stm32f1xx_hal_tim.c ****   /* Set or reset the CCxE Bit */
5378:Drivers/STM32F1xx_HAL_Driver/Src/stm32f1xx_hal_tim.c ****   TIMx->CCER |=  (uint32_t)(ChannelState << Channel);
 11830              		.loc 1 5378 0
 11831 0028 FB68     		ldr	r3, [r7, #12]
 11832 002a 1A6A     		ldr	r2, [r3, #32]
 11833 002c 7968     		ldr	r1, [r7, #4]
 11834 002e BB68     		ldr	r3, [r7, #8]
 11835 0030 01FA03F3 		lsl	r3, r1, r3
 11836 0034 1A43     		orrs	r2, r2, r3
 11837 0036 FB68     		ldr	r3, [r7, #12]
 11838 0038 1A62     		str	r2, [r3, #32]
5379:Drivers/STM32F1xx_HAL_Driver/Src/stm32f1xx_hal_tim.c **** }
 11839              		.loc 1 5379 0
 11840 003a 00BF     		nop
 11841 003c 1C37     		adds	r7, r7, #28
 11842              	.LCFI573:
 11843              		.cfi_def_cfa_offset 4
 11844 003e BD46     		mov	sp, r7
 11845              	.LCFI574:
 11846              		.cfi_def_cfa_register 13
 11847              		@ sp needed
 11848 0040 80BC     		pop	{r7}
 11849              	.LCFI575:
 11850              		.cfi_restore 7
 11851              		.cfi_def_cfa_offset 0
 11852 0042 7047     		bx	lr
 11853              		.cfi_endproc
 11854              	.LFE171:
ARM GAS  /tmp/cc5HGhWi.s 			page 303


 11856              		.text
 11857              	.Letext0:
 11858              		.file 2 "/usr/include/newlib/machine/_default_types.h"
 11859              		.file 3 "/usr/include/newlib/sys/_stdint.h"
 11860              		.file 4 "Drivers/CMSIS/Include/core_cm3.h"
 11861              		.file 5 "Drivers/CMSIS/Device/ST/STM32F1xx/Include/system_stm32f1xx.h"
 11862              		.file 6 "Drivers/CMSIS/Device/ST/STM32F1xx/Include/stm32f103xb.h"
 11863              		.file 7 "/usr/include/newlib/sys/lock.h"
 11864              		.file 8 "/usr/include/newlib/sys/_types.h"
 11865              		.file 9 "/usr/lib/gcc/arm-none-eabi/7.3.1/include/stddef.h"
 11866              		.file 10 "/usr/include/newlib/sys/reent.h"
 11867              		.file 11 "Drivers/CMSIS/Device/ST/STM32F1xx/Include/stm32f1xx.h"
 11868              		.file 12 "Drivers/STM32F1xx_HAL_Driver/Inc/stm32f1xx_hal_def.h"
 11869              		.file 13 "Drivers/STM32F1xx_HAL_Driver/Inc/stm32f1xx_hal_dma.h"
 11870              		.file 14 "Drivers/STM32F1xx_HAL_Driver/Inc/stm32f1xx_hal_tim.h"
ARM GAS  /tmp/cc5HGhWi.s 			page 304


DEFINED SYMBOLS
                            *ABS*:0000000000000000 stm32f1xx_hal_tim.c
     /tmp/cc5HGhWi.s:16     .text.HAL_TIM_Base_Init:0000000000000000 $t
     /tmp/cc5HGhWi.s:23     .text.HAL_TIM_Base_Init:0000000000000000 HAL_TIM_Base_Init
     /tmp/cc5HGhWi.s:185    .text.HAL_TIM_Base_MspInit:0000000000000000 HAL_TIM_Base_MspInit
     /tmp/cc5HGhWi.s:10022  .text.TIM_Base_SetConfig:0000000000000000 TIM_Base_SetConfig
     /tmp/cc5HGhWi.s:97     .text.HAL_TIM_Base_DeInit:0000000000000000 $t
     /tmp/cc5HGhWi.s:104    .text.HAL_TIM_Base_DeInit:0000000000000000 HAL_TIM_Base_DeInit
     /tmp/cc5HGhWi.s:228    .text.HAL_TIM_Base_MspDeInit:0000000000000000 HAL_TIM_Base_MspDeInit
     /tmp/cc5HGhWi.s:178    .text.HAL_TIM_Base_MspInit:0000000000000000 $t
     /tmp/cc5HGhWi.s:221    .text.HAL_TIM_Base_MspDeInit:0000000000000000 $t
     /tmp/cc5HGhWi.s:264    .text.HAL_TIM_Base_Start:0000000000000000 $t
     /tmp/cc5HGhWi.s:271    .text.HAL_TIM_Base_Start:0000000000000000 HAL_TIM_Base_Start
     /tmp/cc5HGhWi.s:325    .text.HAL_TIM_Base_Stop:0000000000000000 $t
     /tmp/cc5HGhWi.s:332    .text.HAL_TIM_Base_Stop:0000000000000000 HAL_TIM_Base_Stop
     /tmp/cc5HGhWi.s:403    .text.HAL_TIM_Base_Start_IT:0000000000000000 $t
     /tmp/cc5HGhWi.s:410    .text.HAL_TIM_Base_Start_IT:0000000000000000 HAL_TIM_Base_Start_IT
     /tmp/cc5HGhWi.s:464    .text.HAL_TIM_Base_Stop_IT:0000000000000000 $t
     /tmp/cc5HGhWi.s:471    .text.HAL_TIM_Base_Stop_IT:0000000000000000 HAL_TIM_Base_Stop_IT
     /tmp/cc5HGhWi.s:542    .text.HAL_TIM_Base_Start_DMA:0000000000000000 $t
     /tmp/cc5HGhWi.s:549    .text.HAL_TIM_Base_Start_DMA:0000000000000000 HAL_TIM_Base_Start_DMA
     /tmp/cc5HGhWi.s:655    .text.HAL_TIM_Base_Start_DMA:0000000000000090 $d
     /tmp/cc5HGhWi.s:9923   .text.TIM_DMAPeriodElapsedCplt:0000000000000000 TIM_DMAPeriodElapsedCplt
     /tmp/cc5HGhWi.s:9672   .text.TIM_DMAError:0000000000000000 TIM_DMAError
     /tmp/cc5HGhWi.s:661    .text.HAL_TIM_Base_Stop_DMA:0000000000000000 $t
     /tmp/cc5HGhWi.s:668    .text.HAL_TIM_Base_Stop_DMA:0000000000000000 HAL_TIM_Base_Stop_DMA
     /tmp/cc5HGhWi.s:743    .text.HAL_TIM_OC_Init:0000000000000000 $t
     /tmp/cc5HGhWi.s:750    .text.HAL_TIM_OC_Init:0000000000000000 HAL_TIM_OC_Init
     /tmp/cc5HGhWi.s:911    .text.HAL_TIM_OC_MspInit:0000000000000000 HAL_TIM_OC_MspInit
     /tmp/cc5HGhWi.s:823    .text.HAL_TIM_OC_DeInit:0000000000000000 $t
     /tmp/cc5HGhWi.s:830    .text.HAL_TIM_OC_DeInit:0000000000000000 HAL_TIM_OC_DeInit
     /tmp/cc5HGhWi.s:954    .text.HAL_TIM_OC_MspDeInit:0000000000000000 HAL_TIM_OC_MspDeInit
     /tmp/cc5HGhWi.s:904    .text.HAL_TIM_OC_MspInit:0000000000000000 $t
     /tmp/cc5HGhWi.s:947    .text.HAL_TIM_OC_MspDeInit:0000000000000000 $t
     /tmp/cc5HGhWi.s:990    .text.HAL_TIM_OC_Start:0000000000000000 $t
     /tmp/cc5HGhWi.s:997    .text.HAL_TIM_OC_Start:0000000000000000 HAL_TIM_OC_Start
     /tmp/cc5HGhWi.s:11794  .text.TIM_CCxChannelCmd:0000000000000000 TIM_CCxChannelCmd
     /tmp/cc5HGhWi.s:1061   .text.HAL_TIM_OC_Start:000000000000004c $d
     /tmp/cc5HGhWi.s:1066   .text.HAL_TIM_OC_Stop:0000000000000000 $t
     /tmp/cc5HGhWi.s:1073   .text.HAL_TIM_OC_Stop:0000000000000000 HAL_TIM_OC_Stop
     /tmp/cc5HGhWi.s:1170   .text.HAL_TIM_OC_Stop:000000000000008c $d
     /tmp/cc5HGhWi.s:1175   .text.HAL_TIM_OC_Start_IT:0000000000000000 $t
     /tmp/cc5HGhWi.s:1182   .text.HAL_TIM_OC_Start_IT:0000000000000000 HAL_TIM_OC_Start_IT
     /tmp/cc5HGhWi.s:1209   .text.HAL_TIM_OC_Start_IT:0000000000000018 $d
     /tmp/cc5HGhWi.s:1222   .text.HAL_TIM_OC_Start_IT:000000000000004c $t
     /tmp/cc5HGhWi.s:1316   .text.HAL_TIM_OC_Start_IT:00000000000000d8 $d
     /tmp/cc5HGhWi.s:1321   .text.HAL_TIM_OC_Stop_IT:0000000000000000 $t
     /tmp/cc5HGhWi.s:1328   .text.HAL_TIM_OC_Stop_IT:0000000000000000 HAL_TIM_OC_Stop_IT
     /tmp/cc5HGhWi.s:1355   .text.HAL_TIM_OC_Stop_IT:0000000000000018 $d
     /tmp/cc5HGhWi.s:1368   .text.HAL_TIM_OC_Stop_IT:000000000000004c $t
     /tmp/cc5HGhWi.s:1495   .text.HAL_TIM_OC_Stop_IT:0000000000000118 $d
     /tmp/cc5HGhWi.s:1500   .text.HAL_TIM_OC_Start_DMA:0000000000000000 $t
     /tmp/cc5HGhWi.s:1507   .text.HAL_TIM_OC_Start_DMA:0000000000000000 HAL_TIM_OC_Start_DMA
     /tmp/cc5HGhWi.s:1569   .text.HAL_TIM_OC_Start_DMA:0000000000000050 $d
     /tmp/cc5HGhWi.s:1582   .text.HAL_TIM_OC_Start_DMA:0000000000000084 $t
     /tmp/cc5HGhWi.s:1757   .text.HAL_TIM_OC_Start_DMA:00000000000001a0 $d
     /tmp/cc5HGhWi.s:9722   .text.TIM_DMADelayPulseCplt:0000000000000000 TIM_DMADelayPulseCplt
ARM GAS  /tmp/cc5HGhWi.s 			page 305


     /tmp/cc5HGhWi.s:1764   .text.HAL_TIM_OC_Stop_DMA:0000000000000000 $t
     /tmp/cc5HGhWi.s:1771   .text.HAL_TIM_OC_Stop_DMA:0000000000000000 HAL_TIM_OC_Stop_DMA
     /tmp/cc5HGhWi.s:1798   .text.HAL_TIM_OC_Stop_DMA:0000000000000018 $d
     /tmp/cc5HGhWi.s:1811   .text.HAL_TIM_OC_Stop_DMA:000000000000004c $t
     /tmp/cc5HGhWi.s:1942   .text.HAL_TIM_OC_Stop_DMA:0000000000000120 $d
     /tmp/cc5HGhWi.s:1947   .text.HAL_TIM_PWM_Init:0000000000000000 $t
     /tmp/cc5HGhWi.s:1954   .text.HAL_TIM_PWM_Init:0000000000000000 HAL_TIM_PWM_Init
     /tmp/cc5HGhWi.s:2115   .text.HAL_TIM_PWM_MspInit:0000000000000000 HAL_TIM_PWM_MspInit
     /tmp/cc5HGhWi.s:2027   .text.HAL_TIM_PWM_DeInit:0000000000000000 $t
     /tmp/cc5HGhWi.s:2034   .text.HAL_TIM_PWM_DeInit:0000000000000000 HAL_TIM_PWM_DeInit
     /tmp/cc5HGhWi.s:2158   .text.HAL_TIM_PWM_MspDeInit:0000000000000000 HAL_TIM_PWM_MspDeInit
     /tmp/cc5HGhWi.s:2108   .text.HAL_TIM_PWM_MspInit:0000000000000000 $t
     /tmp/cc5HGhWi.s:2151   .text.HAL_TIM_PWM_MspDeInit:0000000000000000 $t
     /tmp/cc5HGhWi.s:2194   .text.HAL_TIM_PWM_Start:0000000000000000 $t
     /tmp/cc5HGhWi.s:2201   .text.HAL_TIM_PWM_Start:0000000000000000 HAL_TIM_PWM_Start
     /tmp/cc5HGhWi.s:2265   .text.HAL_TIM_PWM_Start:000000000000004c $d
     /tmp/cc5HGhWi.s:2270   .text.HAL_TIM_PWM_Stop:0000000000000000 $t
     /tmp/cc5HGhWi.s:2277   .text.HAL_TIM_PWM_Stop:0000000000000000 HAL_TIM_PWM_Stop
     /tmp/cc5HGhWi.s:2378   .text.HAL_TIM_PWM_Stop:0000000000000094 $d
     /tmp/cc5HGhWi.s:2383   .text.HAL_TIM_PWM_Start_IT:0000000000000000 $t
     /tmp/cc5HGhWi.s:2390   .text.HAL_TIM_PWM_Start_IT:0000000000000000 HAL_TIM_PWM_Start_IT
     /tmp/cc5HGhWi.s:2417   .text.HAL_TIM_PWM_Start_IT:0000000000000018 $d
     /tmp/cc5HGhWi.s:2430   .text.HAL_TIM_PWM_Start_IT:000000000000004c $t
     /tmp/cc5HGhWi.s:2524   .text.HAL_TIM_PWM_Start_IT:00000000000000d8 $d
     /tmp/cc5HGhWi.s:2529   .text.HAL_TIM_PWM_Stop_IT:0000000000000000 $t
     /tmp/cc5HGhWi.s:2536   .text.HAL_TIM_PWM_Stop_IT:0000000000000000 HAL_TIM_PWM_Stop_IT
     /tmp/cc5HGhWi.s:2563   .text.HAL_TIM_PWM_Stop_IT:0000000000000018 $d
     /tmp/cc5HGhWi.s:2576   .text.HAL_TIM_PWM_Stop_IT:000000000000004c $t
     /tmp/cc5HGhWi.s:2703   .text.HAL_TIM_PWM_Stop_IT:0000000000000118 $d
     /tmp/cc5HGhWi.s:2708   .text.HAL_TIM_PWM_Start_DMA:0000000000000000 $t
     /tmp/cc5HGhWi.s:2715   .text.HAL_TIM_PWM_Start_DMA:0000000000000000 HAL_TIM_PWM_Start_DMA
     /tmp/cc5HGhWi.s:2777   .text.HAL_TIM_PWM_Start_DMA:0000000000000050 $d
     /tmp/cc5HGhWi.s:2790   .text.HAL_TIM_PWM_Start_DMA:0000000000000084 $t
     /tmp/cc5HGhWi.s:2965   .text.HAL_TIM_PWM_Start_DMA:00000000000001a0 $d
     /tmp/cc5HGhWi.s:2972   .text.HAL_TIM_PWM_Stop_DMA:0000000000000000 $t
     /tmp/cc5HGhWi.s:2979   .text.HAL_TIM_PWM_Stop_DMA:0000000000000000 HAL_TIM_PWM_Stop_DMA
     /tmp/cc5HGhWi.s:3006   .text.HAL_TIM_PWM_Stop_DMA:0000000000000018 $d
     /tmp/cc5HGhWi.s:3019   .text.HAL_TIM_PWM_Stop_DMA:000000000000004c $t
     /tmp/cc5HGhWi.s:3150   .text.HAL_TIM_PWM_Stop_DMA:0000000000000120 $d
     /tmp/cc5HGhWi.s:3155   .text.HAL_TIM_IC_Init:0000000000000000 $t
     /tmp/cc5HGhWi.s:3162   .text.HAL_TIM_IC_Init:0000000000000000 HAL_TIM_IC_Init
     /tmp/cc5HGhWi.s:3323   .text.HAL_TIM_IC_MspInit:0000000000000000 HAL_TIM_IC_MspInit
     /tmp/cc5HGhWi.s:3235   .text.HAL_TIM_IC_DeInit:0000000000000000 $t
     /tmp/cc5HGhWi.s:3242   .text.HAL_TIM_IC_DeInit:0000000000000000 HAL_TIM_IC_DeInit
     /tmp/cc5HGhWi.s:3366   .text.HAL_TIM_IC_MspDeInit:0000000000000000 HAL_TIM_IC_MspDeInit
     /tmp/cc5HGhWi.s:3316   .text.HAL_TIM_IC_MspInit:0000000000000000 $t
     /tmp/cc5HGhWi.s:3359   .text.HAL_TIM_IC_MspDeInit:0000000000000000 $t
     /tmp/cc5HGhWi.s:3402   .text.HAL_TIM_IC_Start:0000000000000000 $t
     /tmp/cc5HGhWi.s:3409   .text.HAL_TIM_IC_Start:0000000000000000 HAL_TIM_IC_Start
     /tmp/cc5HGhWi.s:3459   .text.HAL_TIM_IC_Stop:0000000000000000 $t
     /tmp/cc5HGhWi.s:3466   .text.HAL_TIM_IC_Stop:0000000000000000 HAL_TIM_IC_Stop
     /tmp/cc5HGhWi.s:3533   .text.HAL_TIM_IC_Start_IT:0000000000000000 $t
     /tmp/cc5HGhWi.s:3540   .text.HAL_TIM_IC_Start_IT:0000000000000000 HAL_TIM_IC_Start_IT
     /tmp/cc5HGhWi.s:3567   .text.HAL_TIM_IC_Start_IT:0000000000000018 $d
     /tmp/cc5HGhWi.s:3580   .text.HAL_TIM_IC_Start_IT:000000000000004c $t
     /tmp/cc5HGhWi.s:3660   .text.HAL_TIM_IC_Stop_IT:0000000000000000 $t
     /tmp/cc5HGhWi.s:3667   .text.HAL_TIM_IC_Stop_IT:0000000000000000 HAL_TIM_IC_Stop_IT
ARM GAS  /tmp/cc5HGhWi.s 			page 306


     /tmp/cc5HGhWi.s:3694   .text.HAL_TIM_IC_Stop_IT:0000000000000018 $d
     /tmp/cc5HGhWi.s:3707   .text.HAL_TIM_IC_Stop_IT:000000000000004c $t
     /tmp/cc5HGhWi.s:3804   .text.HAL_TIM_IC_Start_DMA:0000000000000000 $t
     /tmp/cc5HGhWi.s:3811   .text.HAL_TIM_IC_Start_DMA:0000000000000000 HAL_TIM_IC_Start_DMA
     /tmp/cc5HGhWi.s:3873   .text.HAL_TIM_IC_Start_DMA:0000000000000050 $d
     /tmp/cc5HGhWi.s:3886   .text.HAL_TIM_IC_Start_DMA:0000000000000084 $t
     /tmp/cc5HGhWi.s:4046   .text.HAL_TIM_IC_Start_DMA:0000000000000188 $d
     /tmp/cc5HGhWi.s:9823   .text.TIM_DMACaptureCplt:0000000000000000 TIM_DMACaptureCplt
     /tmp/cc5HGhWi.s:4052   .text.HAL_TIM_IC_Stop_DMA:0000000000000000 $t
     /tmp/cc5HGhWi.s:4059   .text.HAL_TIM_IC_Stop_DMA:0000000000000000 HAL_TIM_IC_Stop_DMA
     /tmp/cc5HGhWi.s:4086   .text.HAL_TIM_IC_Stop_DMA:0000000000000018 $d
     /tmp/cc5HGhWi.s:4099   .text.HAL_TIM_IC_Stop_DMA:000000000000004c $t
     /tmp/cc5HGhWi.s:4200   .text.HAL_TIM_OnePulse_Init:0000000000000000 $t
     /tmp/cc5HGhWi.s:4207   .text.HAL_TIM_OnePulse_Init:0000000000000000 HAL_TIM_OnePulse_Init
     /tmp/cc5HGhWi.s:4386   .text.HAL_TIM_OnePulse_MspInit:0000000000000000 HAL_TIM_OnePulse_MspInit
     /tmp/cc5HGhWi.s:4298   .text.HAL_TIM_OnePulse_DeInit:0000000000000000 $t
     /tmp/cc5HGhWi.s:4305   .text.HAL_TIM_OnePulse_DeInit:0000000000000000 HAL_TIM_OnePulse_DeInit
     /tmp/cc5HGhWi.s:4429   .text.HAL_TIM_OnePulse_MspDeInit:0000000000000000 HAL_TIM_OnePulse_MspDeInit
     /tmp/cc5HGhWi.s:4379   .text.HAL_TIM_OnePulse_MspInit:0000000000000000 $t
     /tmp/cc5HGhWi.s:4422   .text.HAL_TIM_OnePulse_MspDeInit:0000000000000000 $t
     /tmp/cc5HGhWi.s:4465   .text.HAL_TIM_OnePulse_Start:0000000000000000 $t
     /tmp/cc5HGhWi.s:4472   .text.HAL_TIM_OnePulse_Start:0000000000000000 HAL_TIM_OnePulse_Start
     /tmp/cc5HGhWi.s:4535   .text.HAL_TIM_OnePulse_Start:000000000000004c $d
     /tmp/cc5HGhWi.s:4540   .text.HAL_TIM_OnePulse_Stop:0000000000000000 $t
     /tmp/cc5HGhWi.s:4547   .text.HAL_TIM_OnePulse_Stop:0000000000000000 HAL_TIM_OnePulse_Stop
     /tmp/cc5HGhWi.s:4651   .text.HAL_TIM_OnePulse_Stop:000000000000009c $d
     /tmp/cc5HGhWi.s:4656   .text.HAL_TIM_OnePulse_Start_IT:0000000000000000 $t
     /tmp/cc5HGhWi.s:4663   .text.HAL_TIM_OnePulse_Start_IT:0000000000000000 HAL_TIM_OnePulse_Start_IT
     /tmp/cc5HGhWi.s:4742   .text.HAL_TIM_OnePulse_Start_IT:000000000000006c $d
     /tmp/cc5HGhWi.s:4747   .text.HAL_TIM_OnePulse_Stop_IT:0000000000000000 $t
     /tmp/cc5HGhWi.s:4754   .text.HAL_TIM_OnePulse_Stop_IT:0000000000000000 HAL_TIM_OnePulse_Stop_IT
     /tmp/cc5HGhWi.s:4874   .text.HAL_TIM_OnePulse_Stop_IT:00000000000000bc $d
     /tmp/cc5HGhWi.s:4879   .text.HAL_TIM_Encoder_Init:0000000000000000 $t
     /tmp/cc5HGhWi.s:4886   .text.HAL_TIM_Encoder_Init:0000000000000000 HAL_TIM_Encoder_Init
     /tmp/cc5HGhWi.s:5165   .text.HAL_TIM_Encoder_MspInit:0000000000000000 HAL_TIM_Encoder_MspInit
     /tmp/cc5HGhWi.s:5077   .text.HAL_TIM_Encoder_DeInit:0000000000000000 $t
     /tmp/cc5HGhWi.s:5084   .text.HAL_TIM_Encoder_DeInit:0000000000000000 HAL_TIM_Encoder_DeInit
     /tmp/cc5HGhWi.s:5208   .text.HAL_TIM_Encoder_MspDeInit:0000000000000000 HAL_TIM_Encoder_MspDeInit
     /tmp/cc5HGhWi.s:5158   .text.HAL_TIM_Encoder_MspInit:0000000000000000 $t
     /tmp/cc5HGhWi.s:5201   .text.HAL_TIM_Encoder_MspDeInit:0000000000000000 $t
     /tmp/cc5HGhWi.s:5244   .text.HAL_TIM_Encoder_Start:0000000000000000 $t
     /tmp/cc5HGhWi.s:5251   .text.HAL_TIM_Encoder_Start:0000000000000000 HAL_TIM_Encoder_Start
     /tmp/cc5HGhWi.s:5339   .text.HAL_TIM_Encoder_Stop:0000000000000000 $t
     /tmp/cc5HGhWi.s:5346   .text.HAL_TIM_Encoder_Stop:0000000000000000 HAL_TIM_Encoder_Stop
     /tmp/cc5HGhWi.s:5451   .text.HAL_TIM_Encoder_Start_IT:0000000000000000 $t
     /tmp/cc5HGhWi.s:5458   .text.HAL_TIM_Encoder_Start_IT:0000000000000000 HAL_TIM_Encoder_Start_IT
     /tmp/cc5HGhWi.s:5578   .text.HAL_TIM_Encoder_Stop_IT:0000000000000000 $t
     /tmp/cc5HGhWi.s:5585   .text.HAL_TIM_Encoder_Stop_IT:0000000000000000 HAL_TIM_Encoder_Stop_IT
     /tmp/cc5HGhWi.s:5722   .text.HAL_TIM_Encoder_Start_DMA:0000000000000000 $t
     /tmp/cc5HGhWi.s:5729   .text.HAL_TIM_Encoder_Start_DMA:0000000000000000 HAL_TIM_Encoder_Start_DMA
     /tmp/cc5HGhWi.s:5988   .text.HAL_TIM_Encoder_Start_DMA:00000000000001a0 $d
     /tmp/cc5HGhWi.s:5994   .text.HAL_TIM_Encoder_Stop_DMA:0000000000000000 $t
     /tmp/cc5HGhWi.s:6001   .text.HAL_TIM_Encoder_Stop_DMA:0000000000000000 HAL_TIM_Encoder_Stop_DMA
     /tmp/cc5HGhWi.s:6138   .text.HAL_TIM_IRQHandler:0000000000000000 $t
     /tmp/cc5HGhWi.s:6145   .text.HAL_TIM_IRQHandler:0000000000000000 HAL_TIM_IRQHandler
     /tmp/cc5HGhWi.s:9218   .text.HAL_TIM_IC_CaptureCallback:0000000000000000 HAL_TIM_IC_CaptureCallback
     /tmp/cc5HGhWi.s:9175   .text.HAL_TIM_OC_DelayElapsedCallback:0000000000000000 HAL_TIM_OC_DelayElapsedCallback
ARM GAS  /tmp/cc5HGhWi.s 			page 307


     /tmp/cc5HGhWi.s:9261   .text.HAL_TIM_PWM_PulseFinishedCallback:0000000000000000 HAL_TIM_PWM_PulseFinishedCallback
     /tmp/cc5HGhWi.s:9132   .text.HAL_TIM_PeriodElapsedCallback:0000000000000000 HAL_TIM_PeriodElapsedCallback
     /tmp/cc5HGhWi.s:9304   .text.HAL_TIM_TriggerCallback:0000000000000000 HAL_TIM_TriggerCallback
     /tmp/cc5HGhWi.s:6457   .text.HAL_TIM_OC_ConfigChannel:0000000000000000 $t
     /tmp/cc5HGhWi.s:6464   .text.HAL_TIM_OC_ConfigChannel:0000000000000000 HAL_TIM_OC_ConfigChannel
     /tmp/cc5HGhWi.s:6509   .text.HAL_TIM_OC_ConfigChannel:0000000000000038 $d
     /tmp/cc5HGhWi.s:6522   .text.HAL_TIM_OC_ConfigChannel:000000000000006c $t
     /tmp/cc5HGhWi.s:10179  .text.TIM_OC1_SetConfig:0000000000000000 TIM_OC1_SetConfig
     /tmp/cc5HGhWi.s:10341  .text.TIM_OC2_SetConfig:0000000000000000 TIM_OC2_SetConfig
     /tmp/cc5HGhWi.s:10507  .text.TIM_OC3_SetConfig:0000000000000000 TIM_OC3_SetConfig
     /tmp/cc5HGhWi.s:10672  .text.TIM_OC4_SetConfig:0000000000000000 TIM_OC4_SetConfig
     /tmp/cc5HGhWi.s:6588   .text.HAL_TIM_IC_ConfigChannel:0000000000000000 $t
     /tmp/cc5HGhWi.s:6595   .text.HAL_TIM_IC_ConfigChannel:0000000000000000 HAL_TIM_IC_ConfigChannel
     /tmp/cc5HGhWi.s:11013  .text.TIM_TI1_SetConfig:0000000000000000 TIM_TI1_SetConfig
     /tmp/cc5HGhWi.s:11250  .text.TIM_TI2_SetConfig:0000000000000000 TIM_TI2_SetConfig
     /tmp/cc5HGhWi.s:11447  .text.TIM_TI3_SetConfig:0000000000000000 TIM_TI3_SetConfig
     /tmp/cc5HGhWi.s:11551  .text.TIM_TI4_SetConfig:0000000000000000 TIM_TI4_SetConfig
     /tmp/cc5HGhWi.s:6790   .text.HAL_TIM_PWM_ConfigChannel:0000000000000000 $t
     /tmp/cc5HGhWi.s:6797   .text.HAL_TIM_PWM_ConfigChannel:0000000000000000 HAL_TIM_PWM_ConfigChannel
     /tmp/cc5HGhWi.s:6842   .text.HAL_TIM_PWM_ConfigChannel:0000000000000038 $d
     /tmp/cc5HGhWi.s:6855   .text.HAL_TIM_PWM_ConfigChannel:000000000000006c $t
     /tmp/cc5HGhWi.s:7027   .text.HAL_TIM_OnePulse_ConfigChannel:0000000000000000 $t
     /tmp/cc5HGhWi.s:7034   .text.HAL_TIM_OnePulse_ConfigChannel:0000000000000000 HAL_TIM_OnePulse_ConfigChannel
     /tmp/cc5HGhWi.s:7274   .text.HAL_TIM_DMABurst_WriteStart:0000000000000000 $t
     /tmp/cc5HGhWi.s:7281   .text.HAL_TIM_DMABurst_WriteStart:0000000000000000 HAL_TIM_DMABurst_WriteStart
     /tmp/cc5HGhWi.s:7571   .text.HAL_TIM_DMABurst_WriteStart:00000000000001d0 $d
     /tmp/cc5HGhWi.s:9972   .text.TIM_DMATriggerCplt:0000000000000000 TIM_DMATriggerCplt
     /tmp/cc5HGhWi.s:7580   .text.HAL_TIM_DMABurst_WriteStop:0000000000000000 $t
     /tmp/cc5HGhWi.s:7587   .text.HAL_TIM_DMABurst_WriteStop:0000000000000000 HAL_TIM_DMABurst_WriteStop
     /tmp/cc5HGhWi.s:7713   .text.HAL_TIM_DMABurst_ReadStart:0000000000000000 $t
     /tmp/cc5HGhWi.s:7720   .text.HAL_TIM_DMABurst_ReadStart:0000000000000000 HAL_TIM_DMABurst_ReadStart
     /tmp/cc5HGhWi.s:8010   .text.HAL_TIM_DMABurst_ReadStart:00000000000001d0 $d
     /tmp/cc5HGhWi.s:8019   .text.HAL_TIM_DMABurst_ReadStop:0000000000000000 $t
     /tmp/cc5HGhWi.s:8026   .text.HAL_TIM_DMABurst_ReadStop:0000000000000000 HAL_TIM_DMABurst_ReadStop
     /tmp/cc5HGhWi.s:8152   .text.HAL_TIM_GenerateEvent:0000000000000000 $t
     /tmp/cc5HGhWi.s:8159   .text.HAL_TIM_GenerateEvent:0000000000000000 HAL_TIM_GenerateEvent
     /tmp/cc5HGhWi.s:8229   .text.HAL_TIM_ConfigOCrefClear:0000000000000000 $t
     /tmp/cc5HGhWi.s:8236   .text.HAL_TIM_ConfigOCrefClear:0000000000000000 HAL_TIM_ConfigOCrefClear
     /tmp/cc5HGhWi.s:11723  .text.TIM_ETR_SetConfig:0000000000000000 TIM_ETR_SetConfig
     /tmp/cc5HGhWi.s:8319   .text.HAL_TIM_ConfigOCrefClear:0000000000000070 $d
     /tmp/cc5HGhWi.s:8332   .text.HAL_TIM_ConfigOCrefClear:00000000000000a4 $t
     /tmp/cc5HGhWi.s:8470   .text.HAL_TIM_ConfigClockSource:0000000000000000 $t
     /tmp/cc5HGhWi.s:8477   .text.HAL_TIM_ConfigClockSource:0000000000000000 HAL_TIM_ConfigClockSource
     /tmp/cc5HGhWi.s:11159  .text.TIM_TI1_ConfigInputStage:0000000000000000 TIM_TI1_ConfigInputStage
     /tmp/cc5HGhWi.s:11656  .text.TIM_ITRx_SetConfig:0000000000000000 TIM_ITRx_SetConfig
     /tmp/cc5HGhWi.s:11355  .text.TIM_TI2_ConfigInputStage:0000000000000000 TIM_TI2_ConfigInputStage
     /tmp/cc5HGhWi.s:8756   .text.HAL_TIM_ConfigTI1Input:0000000000000000 $t
     /tmp/cc5HGhWi.s:8763   .text.HAL_TIM_ConfigTI1Input:0000000000000000 HAL_TIM_ConfigTI1Input
     /tmp/cc5HGhWi.s:8824   .text.HAL_TIM_SlaveConfigSynchronization:0000000000000000 $t
     /tmp/cc5HGhWi.s:8831   .text.HAL_TIM_SlaveConfigSynchronization:0000000000000000 HAL_TIM_SlaveConfigSynchronization
     /tmp/cc5HGhWi.s:10806  .text.TIM_SlaveTimer_SetConfig:0000000000000000 TIM_SlaveTimer_SetConfig
     /tmp/cc5HGhWi.s:8912   .text.HAL_TIM_SlaveConfigSynchronization_IT:0000000000000000 $t
     /tmp/cc5HGhWi.s:8919   .text.HAL_TIM_SlaveConfigSynchronization_IT:0000000000000000 HAL_TIM_SlaveConfigSynchronization_IT
     /tmp/cc5HGhWi.s:9000   .text.HAL_TIM_ReadCapturedValue:0000000000000000 $t
     /tmp/cc5HGhWi.s:9007   .text.HAL_TIM_ReadCapturedValue:0000000000000000 HAL_TIM_ReadCapturedValue
     /tmp/cc5HGhWi.s:9050   .text.HAL_TIM_ReadCapturedValue:0000000000000030 $d
     /tmp/cc5HGhWi.s:9063   .text.HAL_TIM_ReadCapturedValue:0000000000000064 $t
ARM GAS  /tmp/cc5HGhWi.s 			page 308


     /tmp/cc5HGhWi.s:9125   .text.HAL_TIM_PeriodElapsedCallback:0000000000000000 $t
     /tmp/cc5HGhWi.s:9168   .text.HAL_TIM_OC_DelayElapsedCallback:0000000000000000 $t
     /tmp/cc5HGhWi.s:9211   .text.HAL_TIM_IC_CaptureCallback:0000000000000000 $t
     /tmp/cc5HGhWi.s:9254   .text.HAL_TIM_PWM_PulseFinishedCallback:0000000000000000 $t
     /tmp/cc5HGhWi.s:9297   .text.HAL_TIM_TriggerCallback:0000000000000000 $t
     /tmp/cc5HGhWi.s:9340   .text.HAL_TIM_ErrorCallback:0000000000000000 $t
     /tmp/cc5HGhWi.s:9347   .text.HAL_TIM_ErrorCallback:0000000000000000 HAL_TIM_ErrorCallback
     /tmp/cc5HGhWi.s:9383   .text.HAL_TIM_Base_GetState:0000000000000000 $t
     /tmp/cc5HGhWi.s:9390   .text.HAL_TIM_Base_GetState:0000000000000000 HAL_TIM_Base_GetState
     /tmp/cc5HGhWi.s:9430   .text.HAL_TIM_OC_GetState:0000000000000000 $t
     /tmp/cc5HGhWi.s:9437   .text.HAL_TIM_OC_GetState:0000000000000000 HAL_TIM_OC_GetState
     /tmp/cc5HGhWi.s:9477   .text.HAL_TIM_PWM_GetState:0000000000000000 $t
     /tmp/cc5HGhWi.s:9484   .text.HAL_TIM_PWM_GetState:0000000000000000 HAL_TIM_PWM_GetState
     /tmp/cc5HGhWi.s:9524   .text.HAL_TIM_IC_GetState:0000000000000000 $t
     /tmp/cc5HGhWi.s:9531   .text.HAL_TIM_IC_GetState:0000000000000000 HAL_TIM_IC_GetState
     /tmp/cc5HGhWi.s:9571   .text.HAL_TIM_OnePulse_GetState:0000000000000000 $t
     /tmp/cc5HGhWi.s:9578   .text.HAL_TIM_OnePulse_GetState:0000000000000000 HAL_TIM_OnePulse_GetState
     /tmp/cc5HGhWi.s:9618   .text.HAL_TIM_Encoder_GetState:0000000000000000 $t
     /tmp/cc5HGhWi.s:9625   .text.HAL_TIM_Encoder_GetState:0000000000000000 HAL_TIM_Encoder_GetState
     /tmp/cc5HGhWi.s:9665   .text.TIM_DMAError:0000000000000000 $t
     /tmp/cc5HGhWi.s:9715   .text.TIM_DMADelayPulseCplt:0000000000000000 $t
     /tmp/cc5HGhWi.s:9816   .text.TIM_DMACaptureCplt:0000000000000000 $t
     /tmp/cc5HGhWi.s:9917   .text.TIM_DMAPeriodElapsedCplt:0000000000000000 $t
     /tmp/cc5HGhWi.s:9966   .text.TIM_DMATriggerCplt:0000000000000000 $t
     /tmp/cc5HGhWi.s:10015  .text.TIM_Base_SetConfig:0000000000000000 $t
     /tmp/cc5HGhWi.s:10166  .text.TIM_Base_SetConfig:00000000000000c0 $d
     /tmp/cc5HGhWi.s:10173  .text.TIM_OC1_SetConfig:0000000000000000 $t
     /tmp/cc5HGhWi.s:10329  .text.TIM_OC1_SetConfig:00000000000000d4 $d
     /tmp/cc5HGhWi.s:10334  .text.TIM_OC2_SetConfig:0000000000000000 $t
     /tmp/cc5HGhWi.s:10496  .text.TIM_OC2_SetConfig:00000000000000dc $d
     /tmp/cc5HGhWi.s:10501  .text.TIM_OC3_SetConfig:0000000000000000 $t
     /tmp/cc5HGhWi.s:10661  .text.TIM_OC3_SetConfig:00000000000000dc $d
     /tmp/cc5HGhWi.s:10666  .text.TIM_OC4_SetConfig:0000000000000000 $t
     /tmp/cc5HGhWi.s:10795  .text.TIM_OC4_SetConfig:00000000000000a4 $d
     /tmp/cc5HGhWi.s:10800  .text.TIM_SlaveTimer_SetConfig:0000000000000000 $t
     /tmp/cc5HGhWi.s:11006  .text.TIM_TI1_SetConfig:0000000000000000 $t
     /tmp/cc5HGhWi.s:11146  .text.TIM_TI1_SetConfig:00000000000000b0 $d
     /tmp/cc5HGhWi.s:11153  .text.TIM_TI1_ConfigInputStage:0000000000000000 $t
     /tmp/cc5HGhWi.s:11244  .text.TIM_TI2_SetConfig:0000000000000000 $t
     /tmp/cc5HGhWi.s:11349  .text.TIM_TI2_ConfigInputStage:0000000000000000 $t
     /tmp/cc5HGhWi.s:11441  .text.TIM_TI3_SetConfig:0000000000000000 $t
     /tmp/cc5HGhWi.s:11545  .text.TIM_TI4_SetConfig:0000000000000000 $t
     /tmp/cc5HGhWi.s:11650  .text.TIM_ITRx_SetConfig:0000000000000000 $t
     /tmp/cc5HGhWi.s:11717  .text.TIM_ETR_SetConfig:0000000000000000 $t
     /tmp/cc5HGhWi.s:11787  .text.TIM_CCxChannelCmd:0000000000000000 $t

UNDEFINED SYMBOLS
HAL_DMA_Start_IT
HAL_TIMEx_BreakCallback
HAL_TIMEx_CommutationCallback
TIMEx_DMACommutationCplt
HAL_DMA_Abort
