ARM GAS  /tmp/ccg5Oeuq.s 			page 1


   1              		.cpu cortex-m3
   2              		.eabi_attribute 20, 1
   3              		.eabi_attribute 21, 1
   4              		.eabi_attribute 23, 3
   5              		.eabi_attribute 24, 1
   6              		.eabi_attribute 25, 1
   7              		.eabi_attribute 26, 1
   8              		.eabi_attribute 30, 6
   9              		.eabi_attribute 34, 1
  10              		.eabi_attribute 18, 4
  11              		.file	"stm32f1xx_ll_spi.c"
  12              		.text
  13              	.Ltext0:
  14              		.cfi_sections	.debug_frame
  15              		.section	.text.LL_SPI_IsEnabled,"ax",%progbits
  16              		.align	1
  17              		.syntax unified
  18              		.thumb
  19              		.thumb_func
  20              		.fpu softvfp
  22              	LL_SPI_IsEnabled:
  23              	.LFB68:
  24              		.file 1 "Drivers/STM32F1xx_HAL_Driver/Inc/stm32f1xx_ll_spi.h"
   1:Drivers/STM32F1xx_HAL_Driver/Inc/stm32f1xx_ll_spi.h **** /**
   2:Drivers/STM32F1xx_HAL_Driver/Inc/stm32f1xx_ll_spi.h ****   ******************************************************************************
   3:Drivers/STM32F1xx_HAL_Driver/Inc/stm32f1xx_ll_spi.h ****   * @file    stm32f1xx_ll_spi.h
   4:Drivers/STM32F1xx_HAL_Driver/Inc/stm32f1xx_ll_spi.h ****   * @author  MCD Application Team
   5:Drivers/STM32F1xx_HAL_Driver/Inc/stm32f1xx_ll_spi.h ****   * @version V1.1.1
   6:Drivers/STM32F1xx_HAL_Driver/Inc/stm32f1xx_ll_spi.h ****   * @date    12-May-2017
   7:Drivers/STM32F1xx_HAL_Driver/Inc/stm32f1xx_ll_spi.h ****   * @brief   Header file of SPI LL module.
   8:Drivers/STM32F1xx_HAL_Driver/Inc/stm32f1xx_ll_spi.h ****   ******************************************************************************
   9:Drivers/STM32F1xx_HAL_Driver/Inc/stm32f1xx_ll_spi.h ****   * @attention
  10:Drivers/STM32F1xx_HAL_Driver/Inc/stm32f1xx_ll_spi.h ****   *
  11:Drivers/STM32F1xx_HAL_Driver/Inc/stm32f1xx_ll_spi.h ****   * <h2><center>&copy; COPYRIGHT(c) 2016 STMicroelectronics</center></h2>
  12:Drivers/STM32F1xx_HAL_Driver/Inc/stm32f1xx_ll_spi.h ****   *
  13:Drivers/STM32F1xx_HAL_Driver/Inc/stm32f1xx_ll_spi.h ****   * Redistribution and use in source and binary forms, with or without modification,
  14:Drivers/STM32F1xx_HAL_Driver/Inc/stm32f1xx_ll_spi.h ****   * are permitted provided that the following conditions are met:
  15:Drivers/STM32F1xx_HAL_Driver/Inc/stm32f1xx_ll_spi.h ****   *   1. Redistributions of source code must retain the above copyright notice,
  16:Drivers/STM32F1xx_HAL_Driver/Inc/stm32f1xx_ll_spi.h ****   *      this list of conditions and the following disclaimer.
  17:Drivers/STM32F1xx_HAL_Driver/Inc/stm32f1xx_ll_spi.h ****   *   2. Redistributions in binary form must reproduce the above copyright notice,
  18:Drivers/STM32F1xx_HAL_Driver/Inc/stm32f1xx_ll_spi.h ****   *      this list of conditions and the following disclaimer in the documentation
  19:Drivers/STM32F1xx_HAL_Driver/Inc/stm32f1xx_ll_spi.h ****   *      and/or other materials provided with the distribution.
  20:Drivers/STM32F1xx_HAL_Driver/Inc/stm32f1xx_ll_spi.h ****   *   3. Neither the name of STMicroelectronics nor the names of its contributors
  21:Drivers/STM32F1xx_HAL_Driver/Inc/stm32f1xx_ll_spi.h ****   *      may be used to endorse or promote products derived from this software
  22:Drivers/STM32F1xx_HAL_Driver/Inc/stm32f1xx_ll_spi.h ****   *      without specific prior written permission.
  23:Drivers/STM32F1xx_HAL_Driver/Inc/stm32f1xx_ll_spi.h ****   *
  24:Drivers/STM32F1xx_HAL_Driver/Inc/stm32f1xx_ll_spi.h ****   * THIS SOFTWARE IS PROVIDED BY THE COPYRIGHT HOLDERS AND CONTRIBUTORS "AS IS"
  25:Drivers/STM32F1xx_HAL_Driver/Inc/stm32f1xx_ll_spi.h ****   * AND ANY EXPRESS OR IMPLIED WARRANTIES, INCLUDING, BUT NOT LIMITED TO, THE
  26:Drivers/STM32F1xx_HAL_Driver/Inc/stm32f1xx_ll_spi.h ****   * IMPLIED WARRANTIES OF MERCHANTABILITY AND FITNESS FOR A PARTICULAR PURPOSE ARE
  27:Drivers/STM32F1xx_HAL_Driver/Inc/stm32f1xx_ll_spi.h ****   * DISCLAIMED. IN NO EVENT SHALL THE COPYRIGHT HOLDER OR CONTRIBUTORS BE LIABLE
  28:Drivers/STM32F1xx_HAL_Driver/Inc/stm32f1xx_ll_spi.h ****   * FOR ANY DIRECT, INDIRECT, INCIDENTAL, SPECIAL, EXEMPLARY, OR CONSEQUENTIAL
  29:Drivers/STM32F1xx_HAL_Driver/Inc/stm32f1xx_ll_spi.h ****   * DAMAGES (INCLUDING, BUT NOT LIMITED TO, PROCUREMENT OF SUBSTITUTE GOODS OR
  30:Drivers/STM32F1xx_HAL_Driver/Inc/stm32f1xx_ll_spi.h ****   * SERVICES; LOSS OF USE, DATA, OR PROFITS; OR BUSINESS INTERRUPTION) HOWEVER
  31:Drivers/STM32F1xx_HAL_Driver/Inc/stm32f1xx_ll_spi.h ****   * CAUSED AND ON ANY THEORY OF LIABILITY, WHETHER IN CONTRACT, STRICT LIABILITY,
  32:Drivers/STM32F1xx_HAL_Driver/Inc/stm32f1xx_ll_spi.h ****   * OR TORT (INCLUDING NEGLIGENCE OR OTHERWISE) ARISING IN ANY WAY OUT OF THE USE
  33:Drivers/STM32F1xx_HAL_Driver/Inc/stm32f1xx_ll_spi.h ****   * OF THIS SOFTWARE, EVEN IF ADVISED OF THE POSSIBILITY OF SUCH DAMAGE.
  34:Drivers/STM32F1xx_HAL_Driver/Inc/stm32f1xx_ll_spi.h ****   *
ARM GAS  /tmp/ccg5Oeuq.s 			page 2


  35:Drivers/STM32F1xx_HAL_Driver/Inc/stm32f1xx_ll_spi.h ****   ******************************************************************************
  36:Drivers/STM32F1xx_HAL_Driver/Inc/stm32f1xx_ll_spi.h ****   */
  37:Drivers/STM32F1xx_HAL_Driver/Inc/stm32f1xx_ll_spi.h **** 
  38:Drivers/STM32F1xx_HAL_Driver/Inc/stm32f1xx_ll_spi.h **** /* Define to prevent recursive inclusion -------------------------------------*/
  39:Drivers/STM32F1xx_HAL_Driver/Inc/stm32f1xx_ll_spi.h **** #ifndef __STM32F1xx_LL_SPI_H
  40:Drivers/STM32F1xx_HAL_Driver/Inc/stm32f1xx_ll_spi.h **** #define __STM32F1xx_LL_SPI_H
  41:Drivers/STM32F1xx_HAL_Driver/Inc/stm32f1xx_ll_spi.h **** 
  42:Drivers/STM32F1xx_HAL_Driver/Inc/stm32f1xx_ll_spi.h **** #ifdef __cplusplus
  43:Drivers/STM32F1xx_HAL_Driver/Inc/stm32f1xx_ll_spi.h **** extern "C" {
  44:Drivers/STM32F1xx_HAL_Driver/Inc/stm32f1xx_ll_spi.h **** #endif
  45:Drivers/STM32F1xx_HAL_Driver/Inc/stm32f1xx_ll_spi.h **** 
  46:Drivers/STM32F1xx_HAL_Driver/Inc/stm32f1xx_ll_spi.h **** /* Includes ------------------------------------------------------------------*/
  47:Drivers/STM32F1xx_HAL_Driver/Inc/stm32f1xx_ll_spi.h **** #include "stm32f1xx.h"
  48:Drivers/STM32F1xx_HAL_Driver/Inc/stm32f1xx_ll_spi.h **** 
  49:Drivers/STM32F1xx_HAL_Driver/Inc/stm32f1xx_ll_spi.h **** /** @addtogroup STM32F1xx_LL_Driver
  50:Drivers/STM32F1xx_HAL_Driver/Inc/stm32f1xx_ll_spi.h ****   * @{
  51:Drivers/STM32F1xx_HAL_Driver/Inc/stm32f1xx_ll_spi.h ****   */
  52:Drivers/STM32F1xx_HAL_Driver/Inc/stm32f1xx_ll_spi.h **** 
  53:Drivers/STM32F1xx_HAL_Driver/Inc/stm32f1xx_ll_spi.h **** #if defined (SPI1) || defined (SPI2) || defined (SPI3)
  54:Drivers/STM32F1xx_HAL_Driver/Inc/stm32f1xx_ll_spi.h **** 
  55:Drivers/STM32F1xx_HAL_Driver/Inc/stm32f1xx_ll_spi.h **** /** @defgroup SPI_LL SPI
  56:Drivers/STM32F1xx_HAL_Driver/Inc/stm32f1xx_ll_spi.h ****   * @{
  57:Drivers/STM32F1xx_HAL_Driver/Inc/stm32f1xx_ll_spi.h ****   */
  58:Drivers/STM32F1xx_HAL_Driver/Inc/stm32f1xx_ll_spi.h **** 
  59:Drivers/STM32F1xx_HAL_Driver/Inc/stm32f1xx_ll_spi.h **** /* Private types -------------------------------------------------------------*/
  60:Drivers/STM32F1xx_HAL_Driver/Inc/stm32f1xx_ll_spi.h **** /* Private variables ---------------------------------------------------------*/
  61:Drivers/STM32F1xx_HAL_Driver/Inc/stm32f1xx_ll_spi.h **** /* Private macros ------------------------------------------------------------*/
  62:Drivers/STM32F1xx_HAL_Driver/Inc/stm32f1xx_ll_spi.h **** 
  63:Drivers/STM32F1xx_HAL_Driver/Inc/stm32f1xx_ll_spi.h **** /* Exported types ------------------------------------------------------------*/
  64:Drivers/STM32F1xx_HAL_Driver/Inc/stm32f1xx_ll_spi.h **** #if defined(USE_FULL_LL_DRIVER)
  65:Drivers/STM32F1xx_HAL_Driver/Inc/stm32f1xx_ll_spi.h **** /** @defgroup SPI_LL_ES_INIT SPI Exported Init structure
  66:Drivers/STM32F1xx_HAL_Driver/Inc/stm32f1xx_ll_spi.h ****   * @{
  67:Drivers/STM32F1xx_HAL_Driver/Inc/stm32f1xx_ll_spi.h ****   */
  68:Drivers/STM32F1xx_HAL_Driver/Inc/stm32f1xx_ll_spi.h **** 
  69:Drivers/STM32F1xx_HAL_Driver/Inc/stm32f1xx_ll_spi.h **** /**
  70:Drivers/STM32F1xx_HAL_Driver/Inc/stm32f1xx_ll_spi.h ****   * @brief  SPI Init structures definition
  71:Drivers/STM32F1xx_HAL_Driver/Inc/stm32f1xx_ll_spi.h ****   */
  72:Drivers/STM32F1xx_HAL_Driver/Inc/stm32f1xx_ll_spi.h **** typedef struct
  73:Drivers/STM32F1xx_HAL_Driver/Inc/stm32f1xx_ll_spi.h **** {
  74:Drivers/STM32F1xx_HAL_Driver/Inc/stm32f1xx_ll_spi.h ****   uint32_t TransferDirection;       /*!< Specifies the SPI unidirectional or bidirectional data mod
  75:Drivers/STM32F1xx_HAL_Driver/Inc/stm32f1xx_ll_spi.h ****                                          This parameter can be a value of @ref SPI_LL_EC_TRANSFER_M
  76:Drivers/STM32F1xx_HAL_Driver/Inc/stm32f1xx_ll_spi.h **** 
  77:Drivers/STM32F1xx_HAL_Driver/Inc/stm32f1xx_ll_spi.h ****                                          This feature can be modified afterwards using unitary func
  78:Drivers/STM32F1xx_HAL_Driver/Inc/stm32f1xx_ll_spi.h **** 
  79:Drivers/STM32F1xx_HAL_Driver/Inc/stm32f1xx_ll_spi.h ****   uint32_t Mode;                    /*!< Specifies the SPI mode (Master/Slave).
  80:Drivers/STM32F1xx_HAL_Driver/Inc/stm32f1xx_ll_spi.h ****                                          This parameter can be a value of @ref SPI_LL_EC_MODE.
  81:Drivers/STM32F1xx_HAL_Driver/Inc/stm32f1xx_ll_spi.h **** 
  82:Drivers/STM32F1xx_HAL_Driver/Inc/stm32f1xx_ll_spi.h ****                                          This feature can be modified afterwards using unitary func
  83:Drivers/STM32F1xx_HAL_Driver/Inc/stm32f1xx_ll_spi.h **** 
  84:Drivers/STM32F1xx_HAL_Driver/Inc/stm32f1xx_ll_spi.h ****   uint32_t DataWidth;               /*!< Specifies the SPI data width.
  85:Drivers/STM32F1xx_HAL_Driver/Inc/stm32f1xx_ll_spi.h ****                                          This parameter can be a value of @ref SPI_LL_EC_DATAWIDTH.
  86:Drivers/STM32F1xx_HAL_Driver/Inc/stm32f1xx_ll_spi.h **** 
  87:Drivers/STM32F1xx_HAL_Driver/Inc/stm32f1xx_ll_spi.h ****                                          This feature can be modified afterwards using unitary func
  88:Drivers/STM32F1xx_HAL_Driver/Inc/stm32f1xx_ll_spi.h **** 
  89:Drivers/STM32F1xx_HAL_Driver/Inc/stm32f1xx_ll_spi.h ****   uint32_t ClockPolarity;           /*!< Specifies the serial clock steady state.
  90:Drivers/STM32F1xx_HAL_Driver/Inc/stm32f1xx_ll_spi.h ****                                          This parameter can be a value of @ref SPI_LL_EC_POLARITY.
  91:Drivers/STM32F1xx_HAL_Driver/Inc/stm32f1xx_ll_spi.h **** 
ARM GAS  /tmp/ccg5Oeuq.s 			page 3


  92:Drivers/STM32F1xx_HAL_Driver/Inc/stm32f1xx_ll_spi.h ****                                          This feature can be modified afterwards using unitary func
  93:Drivers/STM32F1xx_HAL_Driver/Inc/stm32f1xx_ll_spi.h **** 
  94:Drivers/STM32F1xx_HAL_Driver/Inc/stm32f1xx_ll_spi.h ****   uint32_t ClockPhase;              /*!< Specifies the clock active edge for the bit capture.
  95:Drivers/STM32F1xx_HAL_Driver/Inc/stm32f1xx_ll_spi.h ****                                          This parameter can be a value of @ref SPI_LL_EC_PHASE.
  96:Drivers/STM32F1xx_HAL_Driver/Inc/stm32f1xx_ll_spi.h **** 
  97:Drivers/STM32F1xx_HAL_Driver/Inc/stm32f1xx_ll_spi.h ****                                          This feature can be modified afterwards using unitary func
  98:Drivers/STM32F1xx_HAL_Driver/Inc/stm32f1xx_ll_spi.h **** 
  99:Drivers/STM32F1xx_HAL_Driver/Inc/stm32f1xx_ll_spi.h ****   uint32_t NSS;                     /*!< Specifies whether the NSS signal is managed by hardware (N
 100:Drivers/STM32F1xx_HAL_Driver/Inc/stm32f1xx_ll_spi.h ****                                          This parameter can be a value of @ref SPI_LL_EC_NSS_MODE.
 101:Drivers/STM32F1xx_HAL_Driver/Inc/stm32f1xx_ll_spi.h **** 
 102:Drivers/STM32F1xx_HAL_Driver/Inc/stm32f1xx_ll_spi.h ****                                          This feature can be modified afterwards using unitary func
 103:Drivers/STM32F1xx_HAL_Driver/Inc/stm32f1xx_ll_spi.h **** 
 104:Drivers/STM32F1xx_HAL_Driver/Inc/stm32f1xx_ll_spi.h ****   uint32_t BaudRate;                /*!< Specifies the BaudRate prescaler value which will be used 
 105:Drivers/STM32F1xx_HAL_Driver/Inc/stm32f1xx_ll_spi.h ****                                          This parameter can be a value of @ref SPI_LL_EC_BAUDRATEPR
 106:Drivers/STM32F1xx_HAL_Driver/Inc/stm32f1xx_ll_spi.h ****                                          @note The communication clock is derived from the master c
 107:Drivers/STM32F1xx_HAL_Driver/Inc/stm32f1xx_ll_spi.h **** 
 108:Drivers/STM32F1xx_HAL_Driver/Inc/stm32f1xx_ll_spi.h ****                                          This feature can be modified afterwards using unitary func
 109:Drivers/STM32F1xx_HAL_Driver/Inc/stm32f1xx_ll_spi.h **** 
 110:Drivers/STM32F1xx_HAL_Driver/Inc/stm32f1xx_ll_spi.h ****   uint32_t BitOrder;                /*!< Specifies whether data transfers start from MSB or LSB bit
 111:Drivers/STM32F1xx_HAL_Driver/Inc/stm32f1xx_ll_spi.h ****                                          This parameter can be a value of @ref SPI_LL_EC_BIT_ORDER.
 112:Drivers/STM32F1xx_HAL_Driver/Inc/stm32f1xx_ll_spi.h **** 
 113:Drivers/STM32F1xx_HAL_Driver/Inc/stm32f1xx_ll_spi.h ****                                          This feature can be modified afterwards using unitary func
 114:Drivers/STM32F1xx_HAL_Driver/Inc/stm32f1xx_ll_spi.h **** 
 115:Drivers/STM32F1xx_HAL_Driver/Inc/stm32f1xx_ll_spi.h ****   uint32_t CRCCalculation;          /*!< Specifies if the CRC calculation is enabled or not.
 116:Drivers/STM32F1xx_HAL_Driver/Inc/stm32f1xx_ll_spi.h ****                                          This parameter can be a value of @ref SPI_LL_EC_CRC_CALCUL
 117:Drivers/STM32F1xx_HAL_Driver/Inc/stm32f1xx_ll_spi.h **** 
 118:Drivers/STM32F1xx_HAL_Driver/Inc/stm32f1xx_ll_spi.h ****                                          This feature can be modified afterwards using unitary func
 119:Drivers/STM32F1xx_HAL_Driver/Inc/stm32f1xx_ll_spi.h **** 
 120:Drivers/STM32F1xx_HAL_Driver/Inc/stm32f1xx_ll_spi.h ****   uint32_t CRCPoly;                 /*!< Specifies the polynomial used for the CRC calculation.
 121:Drivers/STM32F1xx_HAL_Driver/Inc/stm32f1xx_ll_spi.h ****                                          This parameter must be a number between Min_Data = 0x00 an
 122:Drivers/STM32F1xx_HAL_Driver/Inc/stm32f1xx_ll_spi.h **** 
 123:Drivers/STM32F1xx_HAL_Driver/Inc/stm32f1xx_ll_spi.h ****                                          This feature can be modified afterwards using unitary func
 124:Drivers/STM32F1xx_HAL_Driver/Inc/stm32f1xx_ll_spi.h **** 
 125:Drivers/STM32F1xx_HAL_Driver/Inc/stm32f1xx_ll_spi.h **** } LL_SPI_InitTypeDef;
 126:Drivers/STM32F1xx_HAL_Driver/Inc/stm32f1xx_ll_spi.h **** 
 127:Drivers/STM32F1xx_HAL_Driver/Inc/stm32f1xx_ll_spi.h **** /**
 128:Drivers/STM32F1xx_HAL_Driver/Inc/stm32f1xx_ll_spi.h ****   * @}
 129:Drivers/STM32F1xx_HAL_Driver/Inc/stm32f1xx_ll_spi.h ****   */
 130:Drivers/STM32F1xx_HAL_Driver/Inc/stm32f1xx_ll_spi.h **** #endif /* USE_FULL_LL_DRIVER */
 131:Drivers/STM32F1xx_HAL_Driver/Inc/stm32f1xx_ll_spi.h **** 
 132:Drivers/STM32F1xx_HAL_Driver/Inc/stm32f1xx_ll_spi.h **** /* Exported constants --------------------------------------------------------*/
 133:Drivers/STM32F1xx_HAL_Driver/Inc/stm32f1xx_ll_spi.h **** /** @defgroup SPI_LL_Exported_Constants SPI Exported Constants
 134:Drivers/STM32F1xx_HAL_Driver/Inc/stm32f1xx_ll_spi.h ****   * @{
 135:Drivers/STM32F1xx_HAL_Driver/Inc/stm32f1xx_ll_spi.h ****   */
 136:Drivers/STM32F1xx_HAL_Driver/Inc/stm32f1xx_ll_spi.h **** 
 137:Drivers/STM32F1xx_HAL_Driver/Inc/stm32f1xx_ll_spi.h **** /** @defgroup SPI_LL_EC_GET_FLAG Get Flags Defines
 138:Drivers/STM32F1xx_HAL_Driver/Inc/stm32f1xx_ll_spi.h ****   * @brief    Flags defines which can be used with LL_SPI_ReadReg function
 139:Drivers/STM32F1xx_HAL_Driver/Inc/stm32f1xx_ll_spi.h ****   * @{
 140:Drivers/STM32F1xx_HAL_Driver/Inc/stm32f1xx_ll_spi.h ****   */
 141:Drivers/STM32F1xx_HAL_Driver/Inc/stm32f1xx_ll_spi.h **** #define LL_SPI_SR_RXNE                     SPI_SR_RXNE               /*!< Rx buffer not empty flag 
 142:Drivers/STM32F1xx_HAL_Driver/Inc/stm32f1xx_ll_spi.h **** #define LL_SPI_SR_TXE                      SPI_SR_TXE                /*!< Tx buffer empty flag     
 143:Drivers/STM32F1xx_HAL_Driver/Inc/stm32f1xx_ll_spi.h **** #define LL_SPI_SR_BSY                      SPI_SR_BSY                /*!< Busy flag                
 144:Drivers/STM32F1xx_HAL_Driver/Inc/stm32f1xx_ll_spi.h **** #define LL_SPI_SR_CRCERR                   SPI_SR_CRCERR             /*!< CRC error flag           
 145:Drivers/STM32F1xx_HAL_Driver/Inc/stm32f1xx_ll_spi.h **** #define LL_SPI_SR_MODF                     SPI_SR_MODF               /*!< Mode fault flag          
 146:Drivers/STM32F1xx_HAL_Driver/Inc/stm32f1xx_ll_spi.h **** #define LL_SPI_SR_OVR                      SPI_SR_OVR                /*!< Overrun flag             
 147:Drivers/STM32F1xx_HAL_Driver/Inc/stm32f1xx_ll_spi.h **** #define LL_SPI_SR_FRE                      SPI_SR_FRE                /*!< TI mode frame format erro
 148:Drivers/STM32F1xx_HAL_Driver/Inc/stm32f1xx_ll_spi.h **** /**
ARM GAS  /tmp/ccg5Oeuq.s 			page 4


 149:Drivers/STM32F1xx_HAL_Driver/Inc/stm32f1xx_ll_spi.h ****   * @}
 150:Drivers/STM32F1xx_HAL_Driver/Inc/stm32f1xx_ll_spi.h ****   */
 151:Drivers/STM32F1xx_HAL_Driver/Inc/stm32f1xx_ll_spi.h **** 
 152:Drivers/STM32F1xx_HAL_Driver/Inc/stm32f1xx_ll_spi.h **** /** @defgroup SPI_LL_EC_IT IT Defines
 153:Drivers/STM32F1xx_HAL_Driver/Inc/stm32f1xx_ll_spi.h ****   * @brief    IT defines which can be used with LL_SPI_ReadReg and  LL_SPI_WriteReg functions
 154:Drivers/STM32F1xx_HAL_Driver/Inc/stm32f1xx_ll_spi.h ****   * @{
 155:Drivers/STM32F1xx_HAL_Driver/Inc/stm32f1xx_ll_spi.h ****   */
 156:Drivers/STM32F1xx_HAL_Driver/Inc/stm32f1xx_ll_spi.h **** #define LL_SPI_CR2_RXNEIE                  SPI_CR2_RXNEIE            /*!< Rx buffer not empty inter
 157:Drivers/STM32F1xx_HAL_Driver/Inc/stm32f1xx_ll_spi.h **** #define LL_SPI_CR2_TXEIE                   SPI_CR2_TXEIE             /*!< Tx buffer empty interrupt
 158:Drivers/STM32F1xx_HAL_Driver/Inc/stm32f1xx_ll_spi.h **** #define LL_SPI_CR2_ERRIE                   SPI_CR2_ERRIE             /*!< Error interrupt enable   
 159:Drivers/STM32F1xx_HAL_Driver/Inc/stm32f1xx_ll_spi.h **** /**
 160:Drivers/STM32F1xx_HAL_Driver/Inc/stm32f1xx_ll_spi.h ****   * @}
 161:Drivers/STM32F1xx_HAL_Driver/Inc/stm32f1xx_ll_spi.h ****   */
 162:Drivers/STM32F1xx_HAL_Driver/Inc/stm32f1xx_ll_spi.h **** 
 163:Drivers/STM32F1xx_HAL_Driver/Inc/stm32f1xx_ll_spi.h **** /** @defgroup SPI_LL_EC_MODE Operation Mode
 164:Drivers/STM32F1xx_HAL_Driver/Inc/stm32f1xx_ll_spi.h ****   * @{
 165:Drivers/STM32F1xx_HAL_Driver/Inc/stm32f1xx_ll_spi.h ****   */
 166:Drivers/STM32F1xx_HAL_Driver/Inc/stm32f1xx_ll_spi.h **** #define LL_SPI_MODE_MASTER                 (SPI_CR1_MSTR | SPI_CR1_SSI)    /*!< Master configuratio
 167:Drivers/STM32F1xx_HAL_Driver/Inc/stm32f1xx_ll_spi.h **** #define LL_SPI_MODE_SLAVE                  0x00000000U                    /*!< Slave configuration 
 168:Drivers/STM32F1xx_HAL_Driver/Inc/stm32f1xx_ll_spi.h **** /**
 169:Drivers/STM32F1xx_HAL_Driver/Inc/stm32f1xx_ll_spi.h ****   * @}
 170:Drivers/STM32F1xx_HAL_Driver/Inc/stm32f1xx_ll_spi.h ****   */
 171:Drivers/STM32F1xx_HAL_Driver/Inc/stm32f1xx_ll_spi.h **** 
 172:Drivers/STM32F1xx_HAL_Driver/Inc/stm32f1xx_ll_spi.h **** 
 173:Drivers/STM32F1xx_HAL_Driver/Inc/stm32f1xx_ll_spi.h **** /** @defgroup SPI_LL_EC_PHASE Clock Phase
 174:Drivers/STM32F1xx_HAL_Driver/Inc/stm32f1xx_ll_spi.h ****   * @{
 175:Drivers/STM32F1xx_HAL_Driver/Inc/stm32f1xx_ll_spi.h ****   */
 176:Drivers/STM32F1xx_HAL_Driver/Inc/stm32f1xx_ll_spi.h **** #define LL_SPI_PHASE_1EDGE                 0x00000000U               /*!< First clock transition is
 177:Drivers/STM32F1xx_HAL_Driver/Inc/stm32f1xx_ll_spi.h **** #define LL_SPI_PHASE_2EDGE                 (SPI_CR1_CPHA)            /*!< Second clock transition i
 178:Drivers/STM32F1xx_HAL_Driver/Inc/stm32f1xx_ll_spi.h **** /**
 179:Drivers/STM32F1xx_HAL_Driver/Inc/stm32f1xx_ll_spi.h ****   * @}
 180:Drivers/STM32F1xx_HAL_Driver/Inc/stm32f1xx_ll_spi.h ****   */
 181:Drivers/STM32F1xx_HAL_Driver/Inc/stm32f1xx_ll_spi.h **** 
 182:Drivers/STM32F1xx_HAL_Driver/Inc/stm32f1xx_ll_spi.h **** /** @defgroup SPI_LL_EC_POLARITY Clock Polarity
 183:Drivers/STM32F1xx_HAL_Driver/Inc/stm32f1xx_ll_spi.h ****   * @{
 184:Drivers/STM32F1xx_HAL_Driver/Inc/stm32f1xx_ll_spi.h ****   */
 185:Drivers/STM32F1xx_HAL_Driver/Inc/stm32f1xx_ll_spi.h **** #define LL_SPI_POLARITY_LOW                0x00000000U               /*!< Clock to 0 when idle */
 186:Drivers/STM32F1xx_HAL_Driver/Inc/stm32f1xx_ll_spi.h **** #define LL_SPI_POLARITY_HIGH               (SPI_CR1_CPOL)            /*!< Clock to 1 when idle */
 187:Drivers/STM32F1xx_HAL_Driver/Inc/stm32f1xx_ll_spi.h **** /**
 188:Drivers/STM32F1xx_HAL_Driver/Inc/stm32f1xx_ll_spi.h ****   * @}
 189:Drivers/STM32F1xx_HAL_Driver/Inc/stm32f1xx_ll_spi.h ****   */
 190:Drivers/STM32F1xx_HAL_Driver/Inc/stm32f1xx_ll_spi.h **** 
 191:Drivers/STM32F1xx_HAL_Driver/Inc/stm32f1xx_ll_spi.h **** /** @defgroup SPI_LL_EC_BAUDRATEPRESCALER Baud Rate Prescaler
 192:Drivers/STM32F1xx_HAL_Driver/Inc/stm32f1xx_ll_spi.h ****   * @{
 193:Drivers/STM32F1xx_HAL_Driver/Inc/stm32f1xx_ll_spi.h ****   */
 194:Drivers/STM32F1xx_HAL_Driver/Inc/stm32f1xx_ll_spi.h **** #define LL_SPI_BAUDRATEPRESCALER_DIV2      0x00000000U                                    /*!< Baud
 195:Drivers/STM32F1xx_HAL_Driver/Inc/stm32f1xx_ll_spi.h **** #define LL_SPI_BAUDRATEPRESCALER_DIV4      (SPI_CR1_BR_0)                                 /*!< Baud
 196:Drivers/STM32F1xx_HAL_Driver/Inc/stm32f1xx_ll_spi.h **** #define LL_SPI_BAUDRATEPRESCALER_DIV8      (SPI_CR1_BR_1)                                 /*!< Baud
 197:Drivers/STM32F1xx_HAL_Driver/Inc/stm32f1xx_ll_spi.h **** #define LL_SPI_BAUDRATEPRESCALER_DIV16     (SPI_CR1_BR_1 | SPI_CR1_BR_0)                  /*!< Baud
 198:Drivers/STM32F1xx_HAL_Driver/Inc/stm32f1xx_ll_spi.h **** #define LL_SPI_BAUDRATEPRESCALER_DIV32     (SPI_CR1_BR_2)                                 /*!< Baud
 199:Drivers/STM32F1xx_HAL_Driver/Inc/stm32f1xx_ll_spi.h **** #define LL_SPI_BAUDRATEPRESCALER_DIV64     (SPI_CR1_BR_2 | SPI_CR1_BR_0)                  /*!< Baud
 200:Drivers/STM32F1xx_HAL_Driver/Inc/stm32f1xx_ll_spi.h **** #define LL_SPI_BAUDRATEPRESCALER_DIV128    (SPI_CR1_BR_2 | SPI_CR1_BR_1)                  /*!< Baud
 201:Drivers/STM32F1xx_HAL_Driver/Inc/stm32f1xx_ll_spi.h **** #define LL_SPI_BAUDRATEPRESCALER_DIV256    (SPI_CR1_BR_2 | SPI_CR1_BR_1 | SPI_CR1_BR_0)   /*!< Baud
 202:Drivers/STM32F1xx_HAL_Driver/Inc/stm32f1xx_ll_spi.h **** /**
 203:Drivers/STM32F1xx_HAL_Driver/Inc/stm32f1xx_ll_spi.h ****   * @}
 204:Drivers/STM32F1xx_HAL_Driver/Inc/stm32f1xx_ll_spi.h ****   */
 205:Drivers/STM32F1xx_HAL_Driver/Inc/stm32f1xx_ll_spi.h **** 
ARM GAS  /tmp/ccg5Oeuq.s 			page 5


 206:Drivers/STM32F1xx_HAL_Driver/Inc/stm32f1xx_ll_spi.h **** /** @defgroup SPI_LL_EC_BIT_ORDER Transmission Bit Order
 207:Drivers/STM32F1xx_HAL_Driver/Inc/stm32f1xx_ll_spi.h ****   * @{
 208:Drivers/STM32F1xx_HAL_Driver/Inc/stm32f1xx_ll_spi.h ****   */
 209:Drivers/STM32F1xx_HAL_Driver/Inc/stm32f1xx_ll_spi.h **** #define LL_SPI_LSB_FIRST                   (SPI_CR1_LSBFIRST)        /*!< Data is transmitted/recei
 210:Drivers/STM32F1xx_HAL_Driver/Inc/stm32f1xx_ll_spi.h **** #define LL_SPI_MSB_FIRST                   0x00000000U               /*!< Data is transmitted/recei
 211:Drivers/STM32F1xx_HAL_Driver/Inc/stm32f1xx_ll_spi.h **** /**
 212:Drivers/STM32F1xx_HAL_Driver/Inc/stm32f1xx_ll_spi.h ****   * @}
 213:Drivers/STM32F1xx_HAL_Driver/Inc/stm32f1xx_ll_spi.h ****   */
 214:Drivers/STM32F1xx_HAL_Driver/Inc/stm32f1xx_ll_spi.h **** 
 215:Drivers/STM32F1xx_HAL_Driver/Inc/stm32f1xx_ll_spi.h **** /** @defgroup SPI_LL_EC_TRANSFER_MODE Transfer Mode
 216:Drivers/STM32F1xx_HAL_Driver/Inc/stm32f1xx_ll_spi.h ****   * @{
 217:Drivers/STM32F1xx_HAL_Driver/Inc/stm32f1xx_ll_spi.h ****   */
 218:Drivers/STM32F1xx_HAL_Driver/Inc/stm32f1xx_ll_spi.h **** #define LL_SPI_FULL_DUPLEX                 0x00000000U                          /*!< Full-Duplex mo
 219:Drivers/STM32F1xx_HAL_Driver/Inc/stm32f1xx_ll_spi.h **** #define LL_SPI_SIMPLEX_RX                  (SPI_CR1_RXONLY)                     /*!< Simplex Rx mod
 220:Drivers/STM32F1xx_HAL_Driver/Inc/stm32f1xx_ll_spi.h **** #define LL_SPI_HALF_DUPLEX_RX              (SPI_CR1_BIDIMODE)                   /*!< Half-Duplex Rx
 221:Drivers/STM32F1xx_HAL_Driver/Inc/stm32f1xx_ll_spi.h **** #define LL_SPI_HALF_DUPLEX_TX              (SPI_CR1_BIDIMODE | SPI_CR1_BIDIOE)  /*!< Half-Duplex Tx
 222:Drivers/STM32F1xx_HAL_Driver/Inc/stm32f1xx_ll_spi.h **** /**
 223:Drivers/STM32F1xx_HAL_Driver/Inc/stm32f1xx_ll_spi.h ****   * @}
 224:Drivers/STM32F1xx_HAL_Driver/Inc/stm32f1xx_ll_spi.h ****   */
 225:Drivers/STM32F1xx_HAL_Driver/Inc/stm32f1xx_ll_spi.h **** 
 226:Drivers/STM32F1xx_HAL_Driver/Inc/stm32f1xx_ll_spi.h **** /** @defgroup SPI_LL_EC_NSS_MODE Slave Select Pin Mode
 227:Drivers/STM32F1xx_HAL_Driver/Inc/stm32f1xx_ll_spi.h ****   * @{
 228:Drivers/STM32F1xx_HAL_Driver/Inc/stm32f1xx_ll_spi.h ****   */
 229:Drivers/STM32F1xx_HAL_Driver/Inc/stm32f1xx_ll_spi.h **** #define LL_SPI_NSS_SOFT                    (SPI_CR1_SSM)                     /*!< NSS managed inter
 230:Drivers/STM32F1xx_HAL_Driver/Inc/stm32f1xx_ll_spi.h **** #define LL_SPI_NSS_HARD_INPUT              0x00000000U                       /*!< NSS pin used in I
 231:Drivers/STM32F1xx_HAL_Driver/Inc/stm32f1xx_ll_spi.h **** #define LL_SPI_NSS_HARD_OUTPUT             (((uint32_t)SPI_CR2_SSOE << 16U)) /*!< NSS pin used in O
 232:Drivers/STM32F1xx_HAL_Driver/Inc/stm32f1xx_ll_spi.h **** /**
 233:Drivers/STM32F1xx_HAL_Driver/Inc/stm32f1xx_ll_spi.h ****   * @}
 234:Drivers/STM32F1xx_HAL_Driver/Inc/stm32f1xx_ll_spi.h ****   */
 235:Drivers/STM32F1xx_HAL_Driver/Inc/stm32f1xx_ll_spi.h **** 
 236:Drivers/STM32F1xx_HAL_Driver/Inc/stm32f1xx_ll_spi.h **** /** @defgroup SPI_LL_EC_DATAWIDTH Datawidth
 237:Drivers/STM32F1xx_HAL_Driver/Inc/stm32f1xx_ll_spi.h ****   * @{
 238:Drivers/STM32F1xx_HAL_Driver/Inc/stm32f1xx_ll_spi.h ****   */
 239:Drivers/STM32F1xx_HAL_Driver/Inc/stm32f1xx_ll_spi.h **** #define LL_SPI_DATAWIDTH_8BIT              0x00000000U                       /*!< Data length for S
 240:Drivers/STM32F1xx_HAL_Driver/Inc/stm32f1xx_ll_spi.h **** #define LL_SPI_DATAWIDTH_16BIT             (SPI_CR1_DFF)                     /*!< Data length for S
 241:Drivers/STM32F1xx_HAL_Driver/Inc/stm32f1xx_ll_spi.h **** /**
 242:Drivers/STM32F1xx_HAL_Driver/Inc/stm32f1xx_ll_spi.h ****   * @}
 243:Drivers/STM32F1xx_HAL_Driver/Inc/stm32f1xx_ll_spi.h ****   */
 244:Drivers/STM32F1xx_HAL_Driver/Inc/stm32f1xx_ll_spi.h **** #if defined(USE_FULL_LL_DRIVER)
 245:Drivers/STM32F1xx_HAL_Driver/Inc/stm32f1xx_ll_spi.h **** 
 246:Drivers/STM32F1xx_HAL_Driver/Inc/stm32f1xx_ll_spi.h **** /** @defgroup SPI_LL_EC_CRC_CALCULATION CRC Calculation
 247:Drivers/STM32F1xx_HAL_Driver/Inc/stm32f1xx_ll_spi.h ****   * @{
 248:Drivers/STM32F1xx_HAL_Driver/Inc/stm32f1xx_ll_spi.h ****   */
 249:Drivers/STM32F1xx_HAL_Driver/Inc/stm32f1xx_ll_spi.h **** #define LL_SPI_CRCCALCULATION_DISABLE      0x00000000U                       /*!< CRC calculation d
 250:Drivers/STM32F1xx_HAL_Driver/Inc/stm32f1xx_ll_spi.h **** #define LL_SPI_CRCCALCULATION_ENABLE       (SPI_CR1_CRCEN)                   /*!< CRC calculation e
 251:Drivers/STM32F1xx_HAL_Driver/Inc/stm32f1xx_ll_spi.h **** /**
 252:Drivers/STM32F1xx_HAL_Driver/Inc/stm32f1xx_ll_spi.h ****   * @}
 253:Drivers/STM32F1xx_HAL_Driver/Inc/stm32f1xx_ll_spi.h ****   */
 254:Drivers/STM32F1xx_HAL_Driver/Inc/stm32f1xx_ll_spi.h **** #endif /* USE_FULL_LL_DRIVER */
 255:Drivers/STM32F1xx_HAL_Driver/Inc/stm32f1xx_ll_spi.h **** 
 256:Drivers/STM32F1xx_HAL_Driver/Inc/stm32f1xx_ll_spi.h **** /**
 257:Drivers/STM32F1xx_HAL_Driver/Inc/stm32f1xx_ll_spi.h ****   * @}
 258:Drivers/STM32F1xx_HAL_Driver/Inc/stm32f1xx_ll_spi.h ****   */
 259:Drivers/STM32F1xx_HAL_Driver/Inc/stm32f1xx_ll_spi.h **** 
 260:Drivers/STM32F1xx_HAL_Driver/Inc/stm32f1xx_ll_spi.h **** /* Exported macro ------------------------------------------------------------*/
 261:Drivers/STM32F1xx_HAL_Driver/Inc/stm32f1xx_ll_spi.h **** /** @defgroup SPI_LL_Exported_Macros SPI Exported Macros
 262:Drivers/STM32F1xx_HAL_Driver/Inc/stm32f1xx_ll_spi.h ****   * @{
ARM GAS  /tmp/ccg5Oeuq.s 			page 6


 263:Drivers/STM32F1xx_HAL_Driver/Inc/stm32f1xx_ll_spi.h ****   */
 264:Drivers/STM32F1xx_HAL_Driver/Inc/stm32f1xx_ll_spi.h **** 
 265:Drivers/STM32F1xx_HAL_Driver/Inc/stm32f1xx_ll_spi.h **** /** @defgroup SPI_LL_EM_WRITE_READ Common Write and read registers Macros
 266:Drivers/STM32F1xx_HAL_Driver/Inc/stm32f1xx_ll_spi.h ****   * @{
 267:Drivers/STM32F1xx_HAL_Driver/Inc/stm32f1xx_ll_spi.h ****   */
 268:Drivers/STM32F1xx_HAL_Driver/Inc/stm32f1xx_ll_spi.h **** 
 269:Drivers/STM32F1xx_HAL_Driver/Inc/stm32f1xx_ll_spi.h **** /**
 270:Drivers/STM32F1xx_HAL_Driver/Inc/stm32f1xx_ll_spi.h ****   * @brief  Write a value in SPI register
 271:Drivers/STM32F1xx_HAL_Driver/Inc/stm32f1xx_ll_spi.h ****   * @param  __INSTANCE__ SPI Instance
 272:Drivers/STM32F1xx_HAL_Driver/Inc/stm32f1xx_ll_spi.h ****   * @param  __REG__ Register to be written
 273:Drivers/STM32F1xx_HAL_Driver/Inc/stm32f1xx_ll_spi.h ****   * @param  __VALUE__ Value to be written in the register
 274:Drivers/STM32F1xx_HAL_Driver/Inc/stm32f1xx_ll_spi.h ****   * @retval None
 275:Drivers/STM32F1xx_HAL_Driver/Inc/stm32f1xx_ll_spi.h ****   */
 276:Drivers/STM32F1xx_HAL_Driver/Inc/stm32f1xx_ll_spi.h **** #define LL_SPI_WriteReg(__INSTANCE__, __REG__, __VALUE__) WRITE_REG(__INSTANCE__->__REG__, (__VALUE
 277:Drivers/STM32F1xx_HAL_Driver/Inc/stm32f1xx_ll_spi.h **** 
 278:Drivers/STM32F1xx_HAL_Driver/Inc/stm32f1xx_ll_spi.h **** /**
 279:Drivers/STM32F1xx_HAL_Driver/Inc/stm32f1xx_ll_spi.h ****   * @brief  Read a value in SPI register
 280:Drivers/STM32F1xx_HAL_Driver/Inc/stm32f1xx_ll_spi.h ****   * @param  __INSTANCE__ SPI Instance
 281:Drivers/STM32F1xx_HAL_Driver/Inc/stm32f1xx_ll_spi.h ****   * @param  __REG__ Register to be read
 282:Drivers/STM32F1xx_HAL_Driver/Inc/stm32f1xx_ll_spi.h ****   * @retval Register value
 283:Drivers/STM32F1xx_HAL_Driver/Inc/stm32f1xx_ll_spi.h ****   */
 284:Drivers/STM32F1xx_HAL_Driver/Inc/stm32f1xx_ll_spi.h **** #define LL_SPI_ReadReg(__INSTANCE__, __REG__) READ_REG(__INSTANCE__->__REG__)
 285:Drivers/STM32F1xx_HAL_Driver/Inc/stm32f1xx_ll_spi.h **** /**
 286:Drivers/STM32F1xx_HAL_Driver/Inc/stm32f1xx_ll_spi.h ****   * @}
 287:Drivers/STM32F1xx_HAL_Driver/Inc/stm32f1xx_ll_spi.h ****   */
 288:Drivers/STM32F1xx_HAL_Driver/Inc/stm32f1xx_ll_spi.h **** 
 289:Drivers/STM32F1xx_HAL_Driver/Inc/stm32f1xx_ll_spi.h **** /**
 290:Drivers/STM32F1xx_HAL_Driver/Inc/stm32f1xx_ll_spi.h ****   * @}
 291:Drivers/STM32F1xx_HAL_Driver/Inc/stm32f1xx_ll_spi.h ****   */
 292:Drivers/STM32F1xx_HAL_Driver/Inc/stm32f1xx_ll_spi.h **** 
 293:Drivers/STM32F1xx_HAL_Driver/Inc/stm32f1xx_ll_spi.h **** /* Exported functions --------------------------------------------------------*/
 294:Drivers/STM32F1xx_HAL_Driver/Inc/stm32f1xx_ll_spi.h **** /** @defgroup SPI_LL_Exported_Functions SPI Exported Functions
 295:Drivers/STM32F1xx_HAL_Driver/Inc/stm32f1xx_ll_spi.h ****   * @{
 296:Drivers/STM32F1xx_HAL_Driver/Inc/stm32f1xx_ll_spi.h ****   */
 297:Drivers/STM32F1xx_HAL_Driver/Inc/stm32f1xx_ll_spi.h **** 
 298:Drivers/STM32F1xx_HAL_Driver/Inc/stm32f1xx_ll_spi.h **** /** @defgroup SPI_LL_EF_Configuration Configuration
 299:Drivers/STM32F1xx_HAL_Driver/Inc/stm32f1xx_ll_spi.h ****   * @{
 300:Drivers/STM32F1xx_HAL_Driver/Inc/stm32f1xx_ll_spi.h ****   */
 301:Drivers/STM32F1xx_HAL_Driver/Inc/stm32f1xx_ll_spi.h **** 
 302:Drivers/STM32F1xx_HAL_Driver/Inc/stm32f1xx_ll_spi.h **** /**
 303:Drivers/STM32F1xx_HAL_Driver/Inc/stm32f1xx_ll_spi.h ****   * @brief  Enable SPI peripheral
 304:Drivers/STM32F1xx_HAL_Driver/Inc/stm32f1xx_ll_spi.h ****   * @rmtoll CR1          SPE           LL_SPI_Enable
 305:Drivers/STM32F1xx_HAL_Driver/Inc/stm32f1xx_ll_spi.h ****   * @param  SPIx SPI Instance
 306:Drivers/STM32F1xx_HAL_Driver/Inc/stm32f1xx_ll_spi.h ****   * @retval None
 307:Drivers/STM32F1xx_HAL_Driver/Inc/stm32f1xx_ll_spi.h ****   */
 308:Drivers/STM32F1xx_HAL_Driver/Inc/stm32f1xx_ll_spi.h **** __STATIC_INLINE void LL_SPI_Enable(SPI_TypeDef *SPIx)
 309:Drivers/STM32F1xx_HAL_Driver/Inc/stm32f1xx_ll_spi.h **** {
 310:Drivers/STM32F1xx_HAL_Driver/Inc/stm32f1xx_ll_spi.h ****   SET_BIT(SPIx->CR1, SPI_CR1_SPE);
 311:Drivers/STM32F1xx_HAL_Driver/Inc/stm32f1xx_ll_spi.h **** }
 312:Drivers/STM32F1xx_HAL_Driver/Inc/stm32f1xx_ll_spi.h **** 
 313:Drivers/STM32F1xx_HAL_Driver/Inc/stm32f1xx_ll_spi.h **** /**
 314:Drivers/STM32F1xx_HAL_Driver/Inc/stm32f1xx_ll_spi.h ****   * @brief  Disable SPI peripheral
 315:Drivers/STM32F1xx_HAL_Driver/Inc/stm32f1xx_ll_spi.h ****   * @note   When disabling the SPI, follow the procedure described in the Reference Manual.
 316:Drivers/STM32F1xx_HAL_Driver/Inc/stm32f1xx_ll_spi.h ****   * @rmtoll CR1          SPE           LL_SPI_Disable
 317:Drivers/STM32F1xx_HAL_Driver/Inc/stm32f1xx_ll_spi.h ****   * @param  SPIx SPI Instance
 318:Drivers/STM32F1xx_HAL_Driver/Inc/stm32f1xx_ll_spi.h ****   * @retval None
 319:Drivers/STM32F1xx_HAL_Driver/Inc/stm32f1xx_ll_spi.h ****   */
ARM GAS  /tmp/ccg5Oeuq.s 			page 7


 320:Drivers/STM32F1xx_HAL_Driver/Inc/stm32f1xx_ll_spi.h **** __STATIC_INLINE void LL_SPI_Disable(SPI_TypeDef *SPIx)
 321:Drivers/STM32F1xx_HAL_Driver/Inc/stm32f1xx_ll_spi.h **** {
 322:Drivers/STM32F1xx_HAL_Driver/Inc/stm32f1xx_ll_spi.h ****   CLEAR_BIT(SPIx->CR1, SPI_CR1_SPE);
 323:Drivers/STM32F1xx_HAL_Driver/Inc/stm32f1xx_ll_spi.h **** }
 324:Drivers/STM32F1xx_HAL_Driver/Inc/stm32f1xx_ll_spi.h **** 
 325:Drivers/STM32F1xx_HAL_Driver/Inc/stm32f1xx_ll_spi.h **** /**
 326:Drivers/STM32F1xx_HAL_Driver/Inc/stm32f1xx_ll_spi.h ****   * @brief  Check if SPI peripheral is enabled
 327:Drivers/STM32F1xx_HAL_Driver/Inc/stm32f1xx_ll_spi.h ****   * @rmtoll CR1          SPE           LL_SPI_IsEnabled
 328:Drivers/STM32F1xx_HAL_Driver/Inc/stm32f1xx_ll_spi.h ****   * @param  SPIx SPI Instance
 329:Drivers/STM32F1xx_HAL_Driver/Inc/stm32f1xx_ll_spi.h ****   * @retval State of bit (1 or 0).
 330:Drivers/STM32F1xx_HAL_Driver/Inc/stm32f1xx_ll_spi.h ****   */
 331:Drivers/STM32F1xx_HAL_Driver/Inc/stm32f1xx_ll_spi.h **** __STATIC_INLINE uint32_t LL_SPI_IsEnabled(SPI_TypeDef *SPIx)
 332:Drivers/STM32F1xx_HAL_Driver/Inc/stm32f1xx_ll_spi.h **** {
  25              		.loc 1 332 0
  26              		.cfi_startproc
  27              		@ args = 0, pretend = 0, frame = 8
  28              		@ frame_needed = 1, uses_anonymous_args = 0
  29              		@ link register save eliminated.
  30 0000 80B4     		push	{r7}
  31              	.LCFI0:
  32              		.cfi_def_cfa_offset 4
  33              		.cfi_offset 7, -4
  34 0002 83B0     		sub	sp, sp, #12
  35              	.LCFI1:
  36              		.cfi_def_cfa_offset 16
  37 0004 00AF     		add	r7, sp, #0
  38              	.LCFI2:
  39              		.cfi_def_cfa_register 7
  40 0006 7860     		str	r0, [r7, #4]
 333:Drivers/STM32F1xx_HAL_Driver/Inc/stm32f1xx_ll_spi.h ****   return (READ_BIT(SPIx->CR1, SPI_CR1_SPE) == (SPI_CR1_SPE));
  41              		.loc 1 333 0
  42 0008 7B68     		ldr	r3, [r7, #4]
  43 000a 1B68     		ldr	r3, [r3]
  44 000c 03F04003 		and	r3, r3, #64
  45 0010 402B     		cmp	r3, #64
  46 0012 0CBF     		ite	eq
  47 0014 0123     		moveq	r3, #1
  48 0016 0023     		movne	r3, #0
  49 0018 DBB2     		uxtb	r3, r3
 334:Drivers/STM32F1xx_HAL_Driver/Inc/stm32f1xx_ll_spi.h **** }
  50              		.loc 1 334 0
  51 001a 1846     		mov	r0, r3
  52 001c 0C37     		adds	r7, r7, #12
  53              	.LCFI3:
  54              		.cfi_def_cfa_offset 4
  55 001e BD46     		mov	sp, r7
  56              	.LCFI4:
  57              		.cfi_def_cfa_register 13
  58              		@ sp needed
  59 0020 80BC     		pop	{r7}
  60              	.LCFI5:
  61              		.cfi_restore 7
  62              		.cfi_def_cfa_offset 0
  63 0022 7047     		bx	lr
  64              		.cfi_endproc
  65              	.LFE68:
  67              		.section	.text.LL_SPI_SetCRCPolynomial,"ax",%progbits
ARM GAS  /tmp/ccg5Oeuq.s 			page 8


  68              		.align	1
  69              		.syntax unified
  70              		.thumb
  71              		.thumb_func
  72              		.fpu softvfp
  74              	LL_SPI_SetCRCPolynomial:
  75              	.LFB87:
 335:Drivers/STM32F1xx_HAL_Driver/Inc/stm32f1xx_ll_spi.h **** 
 336:Drivers/STM32F1xx_HAL_Driver/Inc/stm32f1xx_ll_spi.h **** /**
 337:Drivers/STM32F1xx_HAL_Driver/Inc/stm32f1xx_ll_spi.h ****   * @brief  Set SPI operation mode to Master or Slave
 338:Drivers/STM32F1xx_HAL_Driver/Inc/stm32f1xx_ll_spi.h ****   * @note   This bit should not be changed when communication is ongoing.
 339:Drivers/STM32F1xx_HAL_Driver/Inc/stm32f1xx_ll_spi.h ****   * @rmtoll CR1          MSTR          LL_SPI_SetMode\n
 340:Drivers/STM32F1xx_HAL_Driver/Inc/stm32f1xx_ll_spi.h ****   *         CR1          SSI           LL_SPI_SetMode
 341:Drivers/STM32F1xx_HAL_Driver/Inc/stm32f1xx_ll_spi.h ****   * @param  SPIx SPI Instance
 342:Drivers/STM32F1xx_HAL_Driver/Inc/stm32f1xx_ll_spi.h ****   * @param  Mode This parameter can be one of the following values:
 343:Drivers/STM32F1xx_HAL_Driver/Inc/stm32f1xx_ll_spi.h ****   *         @arg @ref LL_SPI_MODE_MASTER
 344:Drivers/STM32F1xx_HAL_Driver/Inc/stm32f1xx_ll_spi.h ****   *         @arg @ref LL_SPI_MODE_SLAVE
 345:Drivers/STM32F1xx_HAL_Driver/Inc/stm32f1xx_ll_spi.h ****   * @retval None
 346:Drivers/STM32F1xx_HAL_Driver/Inc/stm32f1xx_ll_spi.h ****   */
 347:Drivers/STM32F1xx_HAL_Driver/Inc/stm32f1xx_ll_spi.h **** __STATIC_INLINE void LL_SPI_SetMode(SPI_TypeDef *SPIx, uint32_t Mode)
 348:Drivers/STM32F1xx_HAL_Driver/Inc/stm32f1xx_ll_spi.h **** {
 349:Drivers/STM32F1xx_HAL_Driver/Inc/stm32f1xx_ll_spi.h ****   MODIFY_REG(SPIx->CR1, SPI_CR1_MSTR | SPI_CR1_SSI, Mode);
 350:Drivers/STM32F1xx_HAL_Driver/Inc/stm32f1xx_ll_spi.h **** }
 351:Drivers/STM32F1xx_HAL_Driver/Inc/stm32f1xx_ll_spi.h **** 
 352:Drivers/STM32F1xx_HAL_Driver/Inc/stm32f1xx_ll_spi.h **** /**
 353:Drivers/STM32F1xx_HAL_Driver/Inc/stm32f1xx_ll_spi.h ****   * @brief  Get SPI operation mode (Master or Slave)
 354:Drivers/STM32F1xx_HAL_Driver/Inc/stm32f1xx_ll_spi.h ****   * @rmtoll CR1          MSTR          LL_SPI_GetMode\n
 355:Drivers/STM32F1xx_HAL_Driver/Inc/stm32f1xx_ll_spi.h ****   *         CR1          SSI           LL_SPI_GetMode
 356:Drivers/STM32F1xx_HAL_Driver/Inc/stm32f1xx_ll_spi.h ****   * @param  SPIx SPI Instance
 357:Drivers/STM32F1xx_HAL_Driver/Inc/stm32f1xx_ll_spi.h ****   * @retval Returned value can be one of the following values:
 358:Drivers/STM32F1xx_HAL_Driver/Inc/stm32f1xx_ll_spi.h ****   *         @arg @ref LL_SPI_MODE_MASTER
 359:Drivers/STM32F1xx_HAL_Driver/Inc/stm32f1xx_ll_spi.h ****   *         @arg @ref LL_SPI_MODE_SLAVE
 360:Drivers/STM32F1xx_HAL_Driver/Inc/stm32f1xx_ll_spi.h ****   */
 361:Drivers/STM32F1xx_HAL_Driver/Inc/stm32f1xx_ll_spi.h **** __STATIC_INLINE uint32_t LL_SPI_GetMode(SPI_TypeDef *SPIx)
 362:Drivers/STM32F1xx_HAL_Driver/Inc/stm32f1xx_ll_spi.h **** {
 363:Drivers/STM32F1xx_HAL_Driver/Inc/stm32f1xx_ll_spi.h ****   return (uint32_t)(READ_BIT(SPIx->CR1, SPI_CR1_MSTR | SPI_CR1_SSI));
 364:Drivers/STM32F1xx_HAL_Driver/Inc/stm32f1xx_ll_spi.h **** }
 365:Drivers/STM32F1xx_HAL_Driver/Inc/stm32f1xx_ll_spi.h **** 
 366:Drivers/STM32F1xx_HAL_Driver/Inc/stm32f1xx_ll_spi.h **** 
 367:Drivers/STM32F1xx_HAL_Driver/Inc/stm32f1xx_ll_spi.h **** /**
 368:Drivers/STM32F1xx_HAL_Driver/Inc/stm32f1xx_ll_spi.h ****   * @brief  Set clock phase
 369:Drivers/STM32F1xx_HAL_Driver/Inc/stm32f1xx_ll_spi.h ****   * @note   This bit should not be changed when communication is ongoing.
 370:Drivers/STM32F1xx_HAL_Driver/Inc/stm32f1xx_ll_spi.h ****   *         This bit is not used in SPI TI mode.
 371:Drivers/STM32F1xx_HAL_Driver/Inc/stm32f1xx_ll_spi.h ****   * @rmtoll CR1          CPHA          LL_SPI_SetClockPhase
 372:Drivers/STM32F1xx_HAL_Driver/Inc/stm32f1xx_ll_spi.h ****   * @param  SPIx SPI Instance
 373:Drivers/STM32F1xx_HAL_Driver/Inc/stm32f1xx_ll_spi.h ****   * @param  ClockPhase This parameter can be one of the following values:
 374:Drivers/STM32F1xx_HAL_Driver/Inc/stm32f1xx_ll_spi.h ****   *         @arg @ref LL_SPI_PHASE_1EDGE
 375:Drivers/STM32F1xx_HAL_Driver/Inc/stm32f1xx_ll_spi.h ****   *         @arg @ref LL_SPI_PHASE_2EDGE
 376:Drivers/STM32F1xx_HAL_Driver/Inc/stm32f1xx_ll_spi.h ****   * @retval None
 377:Drivers/STM32F1xx_HAL_Driver/Inc/stm32f1xx_ll_spi.h ****   */
 378:Drivers/STM32F1xx_HAL_Driver/Inc/stm32f1xx_ll_spi.h **** __STATIC_INLINE void LL_SPI_SetClockPhase(SPI_TypeDef *SPIx, uint32_t ClockPhase)
 379:Drivers/STM32F1xx_HAL_Driver/Inc/stm32f1xx_ll_spi.h **** {
 380:Drivers/STM32F1xx_HAL_Driver/Inc/stm32f1xx_ll_spi.h ****   MODIFY_REG(SPIx->CR1, SPI_CR1_CPHA, ClockPhase);
 381:Drivers/STM32F1xx_HAL_Driver/Inc/stm32f1xx_ll_spi.h **** }
 382:Drivers/STM32F1xx_HAL_Driver/Inc/stm32f1xx_ll_spi.h **** 
 383:Drivers/STM32F1xx_HAL_Driver/Inc/stm32f1xx_ll_spi.h **** /**
 384:Drivers/STM32F1xx_HAL_Driver/Inc/stm32f1xx_ll_spi.h ****   * @brief  Get clock phase
ARM GAS  /tmp/ccg5Oeuq.s 			page 9


 385:Drivers/STM32F1xx_HAL_Driver/Inc/stm32f1xx_ll_spi.h ****   * @rmtoll CR1          CPHA          LL_SPI_GetClockPhase
 386:Drivers/STM32F1xx_HAL_Driver/Inc/stm32f1xx_ll_spi.h ****   * @param  SPIx SPI Instance
 387:Drivers/STM32F1xx_HAL_Driver/Inc/stm32f1xx_ll_spi.h ****   * @retval Returned value can be one of the following values:
 388:Drivers/STM32F1xx_HAL_Driver/Inc/stm32f1xx_ll_spi.h ****   *         @arg @ref LL_SPI_PHASE_1EDGE
 389:Drivers/STM32F1xx_HAL_Driver/Inc/stm32f1xx_ll_spi.h ****   *         @arg @ref LL_SPI_PHASE_2EDGE
 390:Drivers/STM32F1xx_HAL_Driver/Inc/stm32f1xx_ll_spi.h ****   */
 391:Drivers/STM32F1xx_HAL_Driver/Inc/stm32f1xx_ll_spi.h **** __STATIC_INLINE uint32_t LL_SPI_GetClockPhase(SPI_TypeDef *SPIx)
 392:Drivers/STM32F1xx_HAL_Driver/Inc/stm32f1xx_ll_spi.h **** {
 393:Drivers/STM32F1xx_HAL_Driver/Inc/stm32f1xx_ll_spi.h ****   return (uint32_t)(READ_BIT(SPIx->CR1, SPI_CR1_CPHA));
 394:Drivers/STM32F1xx_HAL_Driver/Inc/stm32f1xx_ll_spi.h **** }
 395:Drivers/STM32F1xx_HAL_Driver/Inc/stm32f1xx_ll_spi.h **** 
 396:Drivers/STM32F1xx_HAL_Driver/Inc/stm32f1xx_ll_spi.h **** /**
 397:Drivers/STM32F1xx_HAL_Driver/Inc/stm32f1xx_ll_spi.h ****   * @brief  Set clock polarity
 398:Drivers/STM32F1xx_HAL_Driver/Inc/stm32f1xx_ll_spi.h ****   * @note   This bit should not be changed when communication is ongoing.
 399:Drivers/STM32F1xx_HAL_Driver/Inc/stm32f1xx_ll_spi.h ****   *         This bit is not used in SPI TI mode.
 400:Drivers/STM32F1xx_HAL_Driver/Inc/stm32f1xx_ll_spi.h ****   * @rmtoll CR1          CPOL          LL_SPI_SetClockPolarity
 401:Drivers/STM32F1xx_HAL_Driver/Inc/stm32f1xx_ll_spi.h ****   * @param  SPIx SPI Instance
 402:Drivers/STM32F1xx_HAL_Driver/Inc/stm32f1xx_ll_spi.h ****   * @param  ClockPolarity This parameter can be one of the following values:
 403:Drivers/STM32F1xx_HAL_Driver/Inc/stm32f1xx_ll_spi.h ****   *         @arg @ref LL_SPI_POLARITY_LOW
 404:Drivers/STM32F1xx_HAL_Driver/Inc/stm32f1xx_ll_spi.h ****   *         @arg @ref LL_SPI_POLARITY_HIGH
 405:Drivers/STM32F1xx_HAL_Driver/Inc/stm32f1xx_ll_spi.h ****   * @retval None
 406:Drivers/STM32F1xx_HAL_Driver/Inc/stm32f1xx_ll_spi.h ****   */
 407:Drivers/STM32F1xx_HAL_Driver/Inc/stm32f1xx_ll_spi.h **** __STATIC_INLINE void LL_SPI_SetClockPolarity(SPI_TypeDef *SPIx, uint32_t ClockPolarity)
 408:Drivers/STM32F1xx_HAL_Driver/Inc/stm32f1xx_ll_spi.h **** {
 409:Drivers/STM32F1xx_HAL_Driver/Inc/stm32f1xx_ll_spi.h ****   MODIFY_REG(SPIx->CR1, SPI_CR1_CPOL, ClockPolarity);
 410:Drivers/STM32F1xx_HAL_Driver/Inc/stm32f1xx_ll_spi.h **** }
 411:Drivers/STM32F1xx_HAL_Driver/Inc/stm32f1xx_ll_spi.h **** 
 412:Drivers/STM32F1xx_HAL_Driver/Inc/stm32f1xx_ll_spi.h **** /**
 413:Drivers/STM32F1xx_HAL_Driver/Inc/stm32f1xx_ll_spi.h ****   * @brief  Get clock polarity
 414:Drivers/STM32F1xx_HAL_Driver/Inc/stm32f1xx_ll_spi.h ****   * @rmtoll CR1          CPOL          LL_SPI_GetClockPolarity
 415:Drivers/STM32F1xx_HAL_Driver/Inc/stm32f1xx_ll_spi.h ****   * @param  SPIx SPI Instance
 416:Drivers/STM32F1xx_HAL_Driver/Inc/stm32f1xx_ll_spi.h ****   * @retval Returned value can be one of the following values:
 417:Drivers/STM32F1xx_HAL_Driver/Inc/stm32f1xx_ll_spi.h ****   *         @arg @ref LL_SPI_POLARITY_LOW
 418:Drivers/STM32F1xx_HAL_Driver/Inc/stm32f1xx_ll_spi.h ****   *         @arg @ref LL_SPI_POLARITY_HIGH
 419:Drivers/STM32F1xx_HAL_Driver/Inc/stm32f1xx_ll_spi.h ****   */
 420:Drivers/STM32F1xx_HAL_Driver/Inc/stm32f1xx_ll_spi.h **** __STATIC_INLINE uint32_t LL_SPI_GetClockPolarity(SPI_TypeDef *SPIx)
 421:Drivers/STM32F1xx_HAL_Driver/Inc/stm32f1xx_ll_spi.h **** {
 422:Drivers/STM32F1xx_HAL_Driver/Inc/stm32f1xx_ll_spi.h ****   return (uint32_t)(READ_BIT(SPIx->CR1, SPI_CR1_CPOL));
 423:Drivers/STM32F1xx_HAL_Driver/Inc/stm32f1xx_ll_spi.h **** }
 424:Drivers/STM32F1xx_HAL_Driver/Inc/stm32f1xx_ll_spi.h **** 
 425:Drivers/STM32F1xx_HAL_Driver/Inc/stm32f1xx_ll_spi.h **** /**
 426:Drivers/STM32F1xx_HAL_Driver/Inc/stm32f1xx_ll_spi.h ****   * @brief  Set baud rate prescaler
 427:Drivers/STM32F1xx_HAL_Driver/Inc/stm32f1xx_ll_spi.h ****   * @note   These bits should not be changed when communication is ongoing. SPI BaudRate = fPCLK/Pr
 428:Drivers/STM32F1xx_HAL_Driver/Inc/stm32f1xx_ll_spi.h ****   * @rmtoll CR1          BR            LL_SPI_SetBaudRatePrescaler
 429:Drivers/STM32F1xx_HAL_Driver/Inc/stm32f1xx_ll_spi.h ****   * @param  SPIx SPI Instance
 430:Drivers/STM32F1xx_HAL_Driver/Inc/stm32f1xx_ll_spi.h ****   * @param  BaudRate This parameter can be one of the following values:
 431:Drivers/STM32F1xx_HAL_Driver/Inc/stm32f1xx_ll_spi.h ****   *         @arg @ref LL_SPI_BAUDRATEPRESCALER_DIV2
 432:Drivers/STM32F1xx_HAL_Driver/Inc/stm32f1xx_ll_spi.h ****   *         @arg @ref LL_SPI_BAUDRATEPRESCALER_DIV4
 433:Drivers/STM32F1xx_HAL_Driver/Inc/stm32f1xx_ll_spi.h ****   *         @arg @ref LL_SPI_BAUDRATEPRESCALER_DIV8
 434:Drivers/STM32F1xx_HAL_Driver/Inc/stm32f1xx_ll_spi.h ****   *         @arg @ref LL_SPI_BAUDRATEPRESCALER_DIV16
 435:Drivers/STM32F1xx_HAL_Driver/Inc/stm32f1xx_ll_spi.h ****   *         @arg @ref LL_SPI_BAUDRATEPRESCALER_DIV32
 436:Drivers/STM32F1xx_HAL_Driver/Inc/stm32f1xx_ll_spi.h ****   *         @arg @ref LL_SPI_BAUDRATEPRESCALER_DIV64
 437:Drivers/STM32F1xx_HAL_Driver/Inc/stm32f1xx_ll_spi.h ****   *         @arg @ref LL_SPI_BAUDRATEPRESCALER_DIV128
 438:Drivers/STM32F1xx_HAL_Driver/Inc/stm32f1xx_ll_spi.h ****   *         @arg @ref LL_SPI_BAUDRATEPRESCALER_DIV256
 439:Drivers/STM32F1xx_HAL_Driver/Inc/stm32f1xx_ll_spi.h ****   * @retval None
 440:Drivers/STM32F1xx_HAL_Driver/Inc/stm32f1xx_ll_spi.h ****   */
 441:Drivers/STM32F1xx_HAL_Driver/Inc/stm32f1xx_ll_spi.h **** __STATIC_INLINE void LL_SPI_SetBaudRatePrescaler(SPI_TypeDef *SPIx, uint32_t BaudRate)
ARM GAS  /tmp/ccg5Oeuq.s 			page 10


 442:Drivers/STM32F1xx_HAL_Driver/Inc/stm32f1xx_ll_spi.h **** {
 443:Drivers/STM32F1xx_HAL_Driver/Inc/stm32f1xx_ll_spi.h ****   MODIFY_REG(SPIx->CR1, SPI_CR1_BR, BaudRate);
 444:Drivers/STM32F1xx_HAL_Driver/Inc/stm32f1xx_ll_spi.h **** }
 445:Drivers/STM32F1xx_HAL_Driver/Inc/stm32f1xx_ll_spi.h **** 
 446:Drivers/STM32F1xx_HAL_Driver/Inc/stm32f1xx_ll_spi.h **** /**
 447:Drivers/STM32F1xx_HAL_Driver/Inc/stm32f1xx_ll_spi.h ****   * @brief  Get baud rate prescaler
 448:Drivers/STM32F1xx_HAL_Driver/Inc/stm32f1xx_ll_spi.h ****   * @rmtoll CR1          BR            LL_SPI_GetBaudRatePrescaler
 449:Drivers/STM32F1xx_HAL_Driver/Inc/stm32f1xx_ll_spi.h ****   * @param  SPIx SPI Instance
 450:Drivers/STM32F1xx_HAL_Driver/Inc/stm32f1xx_ll_spi.h ****   * @retval Returned value can be one of the following values:
 451:Drivers/STM32F1xx_HAL_Driver/Inc/stm32f1xx_ll_spi.h ****   *         @arg @ref LL_SPI_BAUDRATEPRESCALER_DIV2
 452:Drivers/STM32F1xx_HAL_Driver/Inc/stm32f1xx_ll_spi.h ****   *         @arg @ref LL_SPI_BAUDRATEPRESCALER_DIV4
 453:Drivers/STM32F1xx_HAL_Driver/Inc/stm32f1xx_ll_spi.h ****   *         @arg @ref LL_SPI_BAUDRATEPRESCALER_DIV8
 454:Drivers/STM32F1xx_HAL_Driver/Inc/stm32f1xx_ll_spi.h ****   *         @arg @ref LL_SPI_BAUDRATEPRESCALER_DIV16
 455:Drivers/STM32F1xx_HAL_Driver/Inc/stm32f1xx_ll_spi.h ****   *         @arg @ref LL_SPI_BAUDRATEPRESCALER_DIV32
 456:Drivers/STM32F1xx_HAL_Driver/Inc/stm32f1xx_ll_spi.h ****   *         @arg @ref LL_SPI_BAUDRATEPRESCALER_DIV64
 457:Drivers/STM32F1xx_HAL_Driver/Inc/stm32f1xx_ll_spi.h ****   *         @arg @ref LL_SPI_BAUDRATEPRESCALER_DIV128
 458:Drivers/STM32F1xx_HAL_Driver/Inc/stm32f1xx_ll_spi.h ****   *         @arg @ref LL_SPI_BAUDRATEPRESCALER_DIV256
 459:Drivers/STM32F1xx_HAL_Driver/Inc/stm32f1xx_ll_spi.h ****   */
 460:Drivers/STM32F1xx_HAL_Driver/Inc/stm32f1xx_ll_spi.h **** __STATIC_INLINE uint32_t LL_SPI_GetBaudRatePrescaler(SPI_TypeDef *SPIx)
 461:Drivers/STM32F1xx_HAL_Driver/Inc/stm32f1xx_ll_spi.h **** {
 462:Drivers/STM32F1xx_HAL_Driver/Inc/stm32f1xx_ll_spi.h ****   return (uint32_t)(READ_BIT(SPIx->CR1, SPI_CR1_BR));
 463:Drivers/STM32F1xx_HAL_Driver/Inc/stm32f1xx_ll_spi.h **** }
 464:Drivers/STM32F1xx_HAL_Driver/Inc/stm32f1xx_ll_spi.h **** 
 465:Drivers/STM32F1xx_HAL_Driver/Inc/stm32f1xx_ll_spi.h **** /**
 466:Drivers/STM32F1xx_HAL_Driver/Inc/stm32f1xx_ll_spi.h ****   * @brief  Set transfer bit order
 467:Drivers/STM32F1xx_HAL_Driver/Inc/stm32f1xx_ll_spi.h ****   * @note   This bit should not be changed when communication is ongoing. This bit is not used in S
 468:Drivers/STM32F1xx_HAL_Driver/Inc/stm32f1xx_ll_spi.h ****   * @rmtoll CR1          LSBFIRST      LL_SPI_SetTransferBitOrder
 469:Drivers/STM32F1xx_HAL_Driver/Inc/stm32f1xx_ll_spi.h ****   * @param  SPIx SPI Instance
 470:Drivers/STM32F1xx_HAL_Driver/Inc/stm32f1xx_ll_spi.h ****   * @param  BitOrder This parameter can be one of the following values:
 471:Drivers/STM32F1xx_HAL_Driver/Inc/stm32f1xx_ll_spi.h ****   *         @arg @ref LL_SPI_LSB_FIRST
 472:Drivers/STM32F1xx_HAL_Driver/Inc/stm32f1xx_ll_spi.h ****   *         @arg @ref LL_SPI_MSB_FIRST
 473:Drivers/STM32F1xx_HAL_Driver/Inc/stm32f1xx_ll_spi.h ****   * @retval None
 474:Drivers/STM32F1xx_HAL_Driver/Inc/stm32f1xx_ll_spi.h ****   */
 475:Drivers/STM32F1xx_HAL_Driver/Inc/stm32f1xx_ll_spi.h **** __STATIC_INLINE void LL_SPI_SetTransferBitOrder(SPI_TypeDef *SPIx, uint32_t BitOrder)
 476:Drivers/STM32F1xx_HAL_Driver/Inc/stm32f1xx_ll_spi.h **** {
 477:Drivers/STM32F1xx_HAL_Driver/Inc/stm32f1xx_ll_spi.h ****   MODIFY_REG(SPIx->CR1, SPI_CR1_LSBFIRST, BitOrder);
 478:Drivers/STM32F1xx_HAL_Driver/Inc/stm32f1xx_ll_spi.h **** }
 479:Drivers/STM32F1xx_HAL_Driver/Inc/stm32f1xx_ll_spi.h **** 
 480:Drivers/STM32F1xx_HAL_Driver/Inc/stm32f1xx_ll_spi.h **** /**
 481:Drivers/STM32F1xx_HAL_Driver/Inc/stm32f1xx_ll_spi.h ****   * @brief  Get transfer bit order
 482:Drivers/STM32F1xx_HAL_Driver/Inc/stm32f1xx_ll_spi.h ****   * @rmtoll CR1          LSBFIRST      LL_SPI_GetTransferBitOrder
 483:Drivers/STM32F1xx_HAL_Driver/Inc/stm32f1xx_ll_spi.h ****   * @param  SPIx SPI Instance
 484:Drivers/STM32F1xx_HAL_Driver/Inc/stm32f1xx_ll_spi.h ****   * @retval Returned value can be one of the following values:
 485:Drivers/STM32F1xx_HAL_Driver/Inc/stm32f1xx_ll_spi.h ****   *         @arg @ref LL_SPI_LSB_FIRST
 486:Drivers/STM32F1xx_HAL_Driver/Inc/stm32f1xx_ll_spi.h ****   *         @arg @ref LL_SPI_MSB_FIRST
 487:Drivers/STM32F1xx_HAL_Driver/Inc/stm32f1xx_ll_spi.h ****   */
 488:Drivers/STM32F1xx_HAL_Driver/Inc/stm32f1xx_ll_spi.h **** __STATIC_INLINE uint32_t LL_SPI_GetTransferBitOrder(SPI_TypeDef *SPIx)
 489:Drivers/STM32F1xx_HAL_Driver/Inc/stm32f1xx_ll_spi.h **** {
 490:Drivers/STM32F1xx_HAL_Driver/Inc/stm32f1xx_ll_spi.h ****   return (uint32_t)(READ_BIT(SPIx->CR1, SPI_CR1_LSBFIRST));
 491:Drivers/STM32F1xx_HAL_Driver/Inc/stm32f1xx_ll_spi.h **** }
 492:Drivers/STM32F1xx_HAL_Driver/Inc/stm32f1xx_ll_spi.h **** 
 493:Drivers/STM32F1xx_HAL_Driver/Inc/stm32f1xx_ll_spi.h **** /**
 494:Drivers/STM32F1xx_HAL_Driver/Inc/stm32f1xx_ll_spi.h ****   * @brief  Set transfer direction mode
 495:Drivers/STM32F1xx_HAL_Driver/Inc/stm32f1xx_ll_spi.h ****   * @note   For Half-Duplex mode, Rx Direction is set by default.
 496:Drivers/STM32F1xx_HAL_Driver/Inc/stm32f1xx_ll_spi.h ****   *         In master mode, the MOSI pin is used and in slave mode, the MISO pin is used for Half-D
 497:Drivers/STM32F1xx_HAL_Driver/Inc/stm32f1xx_ll_spi.h ****   * @rmtoll CR1          RXONLY        LL_SPI_SetTransferDirection\n
 498:Drivers/STM32F1xx_HAL_Driver/Inc/stm32f1xx_ll_spi.h ****   *         CR1          BIDIMODE      LL_SPI_SetTransferDirection\n
ARM GAS  /tmp/ccg5Oeuq.s 			page 11


 499:Drivers/STM32F1xx_HAL_Driver/Inc/stm32f1xx_ll_spi.h ****   *         CR1          BIDIOE        LL_SPI_SetTransferDirection
 500:Drivers/STM32F1xx_HAL_Driver/Inc/stm32f1xx_ll_spi.h ****   * @param  SPIx SPI Instance
 501:Drivers/STM32F1xx_HAL_Driver/Inc/stm32f1xx_ll_spi.h ****   * @param  TransferDirection This parameter can be one of the following values:
 502:Drivers/STM32F1xx_HAL_Driver/Inc/stm32f1xx_ll_spi.h ****   *         @arg @ref LL_SPI_FULL_DUPLEX
 503:Drivers/STM32F1xx_HAL_Driver/Inc/stm32f1xx_ll_spi.h ****   *         @arg @ref LL_SPI_SIMPLEX_RX
 504:Drivers/STM32F1xx_HAL_Driver/Inc/stm32f1xx_ll_spi.h ****   *         @arg @ref LL_SPI_HALF_DUPLEX_RX
 505:Drivers/STM32F1xx_HAL_Driver/Inc/stm32f1xx_ll_spi.h ****   *         @arg @ref LL_SPI_HALF_DUPLEX_TX
 506:Drivers/STM32F1xx_HAL_Driver/Inc/stm32f1xx_ll_spi.h ****   * @retval None
 507:Drivers/STM32F1xx_HAL_Driver/Inc/stm32f1xx_ll_spi.h ****   */
 508:Drivers/STM32F1xx_HAL_Driver/Inc/stm32f1xx_ll_spi.h **** __STATIC_INLINE void LL_SPI_SetTransferDirection(SPI_TypeDef *SPIx, uint32_t TransferDirection)
 509:Drivers/STM32F1xx_HAL_Driver/Inc/stm32f1xx_ll_spi.h **** {
 510:Drivers/STM32F1xx_HAL_Driver/Inc/stm32f1xx_ll_spi.h ****   MODIFY_REG(SPIx->CR1, SPI_CR1_RXONLY | SPI_CR1_BIDIMODE | SPI_CR1_BIDIOE, TransferDirection);
 511:Drivers/STM32F1xx_HAL_Driver/Inc/stm32f1xx_ll_spi.h **** }
 512:Drivers/STM32F1xx_HAL_Driver/Inc/stm32f1xx_ll_spi.h **** 
 513:Drivers/STM32F1xx_HAL_Driver/Inc/stm32f1xx_ll_spi.h **** /**
 514:Drivers/STM32F1xx_HAL_Driver/Inc/stm32f1xx_ll_spi.h ****   * @brief  Get transfer direction mode
 515:Drivers/STM32F1xx_HAL_Driver/Inc/stm32f1xx_ll_spi.h ****   * @rmtoll CR1          RXONLY        LL_SPI_GetTransferDirection\n
 516:Drivers/STM32F1xx_HAL_Driver/Inc/stm32f1xx_ll_spi.h ****   *         CR1          BIDIMODE      LL_SPI_GetTransferDirection\n
 517:Drivers/STM32F1xx_HAL_Driver/Inc/stm32f1xx_ll_spi.h ****   *         CR1          BIDIOE        LL_SPI_GetTransferDirection
 518:Drivers/STM32F1xx_HAL_Driver/Inc/stm32f1xx_ll_spi.h ****   * @param  SPIx SPI Instance
 519:Drivers/STM32F1xx_HAL_Driver/Inc/stm32f1xx_ll_spi.h ****   * @retval Returned value can be one of the following values:
 520:Drivers/STM32F1xx_HAL_Driver/Inc/stm32f1xx_ll_spi.h ****   *         @arg @ref LL_SPI_FULL_DUPLEX
 521:Drivers/STM32F1xx_HAL_Driver/Inc/stm32f1xx_ll_spi.h ****   *         @arg @ref LL_SPI_SIMPLEX_RX
 522:Drivers/STM32F1xx_HAL_Driver/Inc/stm32f1xx_ll_spi.h ****   *         @arg @ref LL_SPI_HALF_DUPLEX_RX
 523:Drivers/STM32F1xx_HAL_Driver/Inc/stm32f1xx_ll_spi.h ****   *         @arg @ref LL_SPI_HALF_DUPLEX_TX
 524:Drivers/STM32F1xx_HAL_Driver/Inc/stm32f1xx_ll_spi.h ****   */
 525:Drivers/STM32F1xx_HAL_Driver/Inc/stm32f1xx_ll_spi.h **** __STATIC_INLINE uint32_t LL_SPI_GetTransferDirection(SPI_TypeDef *SPIx)
 526:Drivers/STM32F1xx_HAL_Driver/Inc/stm32f1xx_ll_spi.h **** {
 527:Drivers/STM32F1xx_HAL_Driver/Inc/stm32f1xx_ll_spi.h ****   return (uint32_t)(READ_BIT(SPIx->CR1, SPI_CR1_RXONLY | SPI_CR1_BIDIMODE | SPI_CR1_BIDIOE));
 528:Drivers/STM32F1xx_HAL_Driver/Inc/stm32f1xx_ll_spi.h **** }
 529:Drivers/STM32F1xx_HAL_Driver/Inc/stm32f1xx_ll_spi.h **** 
 530:Drivers/STM32F1xx_HAL_Driver/Inc/stm32f1xx_ll_spi.h **** /**
 531:Drivers/STM32F1xx_HAL_Driver/Inc/stm32f1xx_ll_spi.h ****   * @brief  Set frame data width
 532:Drivers/STM32F1xx_HAL_Driver/Inc/stm32f1xx_ll_spi.h ****   * @rmtoll CR1          DFF           LL_SPI_SetDataWidth
 533:Drivers/STM32F1xx_HAL_Driver/Inc/stm32f1xx_ll_spi.h ****   * @param  SPIx SPI Instance
 534:Drivers/STM32F1xx_HAL_Driver/Inc/stm32f1xx_ll_spi.h ****   * @param  DataWidth This parameter can be one of the following values:
 535:Drivers/STM32F1xx_HAL_Driver/Inc/stm32f1xx_ll_spi.h ****   *         @arg @ref LL_SPI_DATAWIDTH_8BIT
 536:Drivers/STM32F1xx_HAL_Driver/Inc/stm32f1xx_ll_spi.h ****   *         @arg @ref LL_SPI_DATAWIDTH_16BIT
 537:Drivers/STM32F1xx_HAL_Driver/Inc/stm32f1xx_ll_spi.h ****   * @retval None
 538:Drivers/STM32F1xx_HAL_Driver/Inc/stm32f1xx_ll_spi.h ****   */
 539:Drivers/STM32F1xx_HAL_Driver/Inc/stm32f1xx_ll_spi.h **** __STATIC_INLINE void LL_SPI_SetDataWidth(SPI_TypeDef *SPIx, uint32_t DataWidth)
 540:Drivers/STM32F1xx_HAL_Driver/Inc/stm32f1xx_ll_spi.h **** {
 541:Drivers/STM32F1xx_HAL_Driver/Inc/stm32f1xx_ll_spi.h ****   MODIFY_REG(SPIx->CR1, SPI_CR1_DFF, DataWidth);
 542:Drivers/STM32F1xx_HAL_Driver/Inc/stm32f1xx_ll_spi.h **** }
 543:Drivers/STM32F1xx_HAL_Driver/Inc/stm32f1xx_ll_spi.h **** 
 544:Drivers/STM32F1xx_HAL_Driver/Inc/stm32f1xx_ll_spi.h **** /**
 545:Drivers/STM32F1xx_HAL_Driver/Inc/stm32f1xx_ll_spi.h ****   * @brief  Get frame data width
 546:Drivers/STM32F1xx_HAL_Driver/Inc/stm32f1xx_ll_spi.h ****   * @rmtoll CR1          DFF           LL_SPI_GetDataWidth
 547:Drivers/STM32F1xx_HAL_Driver/Inc/stm32f1xx_ll_spi.h ****   * @param  SPIx SPI Instance
 548:Drivers/STM32F1xx_HAL_Driver/Inc/stm32f1xx_ll_spi.h ****   * @retval Returned value can be one of the following values:
 549:Drivers/STM32F1xx_HAL_Driver/Inc/stm32f1xx_ll_spi.h ****   *         @arg @ref LL_SPI_DATAWIDTH_8BIT
 550:Drivers/STM32F1xx_HAL_Driver/Inc/stm32f1xx_ll_spi.h ****   *         @arg @ref LL_SPI_DATAWIDTH_16BIT
 551:Drivers/STM32F1xx_HAL_Driver/Inc/stm32f1xx_ll_spi.h ****   */
 552:Drivers/STM32F1xx_HAL_Driver/Inc/stm32f1xx_ll_spi.h **** __STATIC_INLINE uint32_t LL_SPI_GetDataWidth(SPI_TypeDef *SPIx)
 553:Drivers/STM32F1xx_HAL_Driver/Inc/stm32f1xx_ll_spi.h **** {
 554:Drivers/STM32F1xx_HAL_Driver/Inc/stm32f1xx_ll_spi.h ****   return (uint32_t)(READ_BIT(SPIx->CR1, SPI_CR1_DFF));
 555:Drivers/STM32F1xx_HAL_Driver/Inc/stm32f1xx_ll_spi.h **** }
ARM GAS  /tmp/ccg5Oeuq.s 			page 12


 556:Drivers/STM32F1xx_HAL_Driver/Inc/stm32f1xx_ll_spi.h **** 
 557:Drivers/STM32F1xx_HAL_Driver/Inc/stm32f1xx_ll_spi.h **** /**
 558:Drivers/STM32F1xx_HAL_Driver/Inc/stm32f1xx_ll_spi.h ****   * @}
 559:Drivers/STM32F1xx_HAL_Driver/Inc/stm32f1xx_ll_spi.h ****   */
 560:Drivers/STM32F1xx_HAL_Driver/Inc/stm32f1xx_ll_spi.h **** 
 561:Drivers/STM32F1xx_HAL_Driver/Inc/stm32f1xx_ll_spi.h **** /** @defgroup SPI_LL_EF_CRC_Management CRC Management
 562:Drivers/STM32F1xx_HAL_Driver/Inc/stm32f1xx_ll_spi.h ****   * @{
 563:Drivers/STM32F1xx_HAL_Driver/Inc/stm32f1xx_ll_spi.h ****   */
 564:Drivers/STM32F1xx_HAL_Driver/Inc/stm32f1xx_ll_spi.h **** 
 565:Drivers/STM32F1xx_HAL_Driver/Inc/stm32f1xx_ll_spi.h **** /**
 566:Drivers/STM32F1xx_HAL_Driver/Inc/stm32f1xx_ll_spi.h ****   * @brief  Enable CRC
 567:Drivers/STM32F1xx_HAL_Driver/Inc/stm32f1xx_ll_spi.h ****   * @note   This bit should be written only when SPI is disabled (SPE = 0) for correct operation.
 568:Drivers/STM32F1xx_HAL_Driver/Inc/stm32f1xx_ll_spi.h ****   * @rmtoll CR1          CRCEN         LL_SPI_EnableCRC
 569:Drivers/STM32F1xx_HAL_Driver/Inc/stm32f1xx_ll_spi.h ****   * @param  SPIx SPI Instance
 570:Drivers/STM32F1xx_HAL_Driver/Inc/stm32f1xx_ll_spi.h ****   * @retval None
 571:Drivers/STM32F1xx_HAL_Driver/Inc/stm32f1xx_ll_spi.h ****   */
 572:Drivers/STM32F1xx_HAL_Driver/Inc/stm32f1xx_ll_spi.h **** __STATIC_INLINE void LL_SPI_EnableCRC(SPI_TypeDef *SPIx)
 573:Drivers/STM32F1xx_HAL_Driver/Inc/stm32f1xx_ll_spi.h **** {
 574:Drivers/STM32F1xx_HAL_Driver/Inc/stm32f1xx_ll_spi.h ****   SET_BIT(SPIx->CR1, SPI_CR1_CRCEN);
 575:Drivers/STM32F1xx_HAL_Driver/Inc/stm32f1xx_ll_spi.h **** }
 576:Drivers/STM32F1xx_HAL_Driver/Inc/stm32f1xx_ll_spi.h **** 
 577:Drivers/STM32F1xx_HAL_Driver/Inc/stm32f1xx_ll_spi.h **** /**
 578:Drivers/STM32F1xx_HAL_Driver/Inc/stm32f1xx_ll_spi.h ****   * @brief  Disable CRC
 579:Drivers/STM32F1xx_HAL_Driver/Inc/stm32f1xx_ll_spi.h ****   * @note   This bit should be written only when SPI is disabled (SPE = 0) for correct operation.
 580:Drivers/STM32F1xx_HAL_Driver/Inc/stm32f1xx_ll_spi.h ****   * @rmtoll CR1          CRCEN         LL_SPI_DisableCRC
 581:Drivers/STM32F1xx_HAL_Driver/Inc/stm32f1xx_ll_spi.h ****   * @param  SPIx SPI Instance
 582:Drivers/STM32F1xx_HAL_Driver/Inc/stm32f1xx_ll_spi.h ****   * @retval None
 583:Drivers/STM32F1xx_HAL_Driver/Inc/stm32f1xx_ll_spi.h ****   */
 584:Drivers/STM32F1xx_HAL_Driver/Inc/stm32f1xx_ll_spi.h **** __STATIC_INLINE void LL_SPI_DisableCRC(SPI_TypeDef *SPIx)
 585:Drivers/STM32F1xx_HAL_Driver/Inc/stm32f1xx_ll_spi.h **** {
 586:Drivers/STM32F1xx_HAL_Driver/Inc/stm32f1xx_ll_spi.h ****   CLEAR_BIT(SPIx->CR1, SPI_CR1_CRCEN);
 587:Drivers/STM32F1xx_HAL_Driver/Inc/stm32f1xx_ll_spi.h **** }
 588:Drivers/STM32F1xx_HAL_Driver/Inc/stm32f1xx_ll_spi.h **** 
 589:Drivers/STM32F1xx_HAL_Driver/Inc/stm32f1xx_ll_spi.h **** /**
 590:Drivers/STM32F1xx_HAL_Driver/Inc/stm32f1xx_ll_spi.h ****   * @brief  Check if CRC is enabled
 591:Drivers/STM32F1xx_HAL_Driver/Inc/stm32f1xx_ll_spi.h ****   * @note   This bit should be written only when SPI is disabled (SPE = 0) for correct operation.
 592:Drivers/STM32F1xx_HAL_Driver/Inc/stm32f1xx_ll_spi.h ****   * @rmtoll CR1          CRCEN         LL_SPI_IsEnabledCRC
 593:Drivers/STM32F1xx_HAL_Driver/Inc/stm32f1xx_ll_spi.h ****   * @param  SPIx SPI Instance
 594:Drivers/STM32F1xx_HAL_Driver/Inc/stm32f1xx_ll_spi.h ****   * @retval State of bit (1 or 0).
 595:Drivers/STM32F1xx_HAL_Driver/Inc/stm32f1xx_ll_spi.h ****   */
 596:Drivers/STM32F1xx_HAL_Driver/Inc/stm32f1xx_ll_spi.h **** __STATIC_INLINE uint32_t LL_SPI_IsEnabledCRC(SPI_TypeDef *SPIx)
 597:Drivers/STM32F1xx_HAL_Driver/Inc/stm32f1xx_ll_spi.h **** {
 598:Drivers/STM32F1xx_HAL_Driver/Inc/stm32f1xx_ll_spi.h ****   return (READ_BIT(SPIx->CR1, SPI_CR1_CRCEN) == (SPI_CR1_CRCEN));
 599:Drivers/STM32F1xx_HAL_Driver/Inc/stm32f1xx_ll_spi.h **** }
 600:Drivers/STM32F1xx_HAL_Driver/Inc/stm32f1xx_ll_spi.h **** 
 601:Drivers/STM32F1xx_HAL_Driver/Inc/stm32f1xx_ll_spi.h **** /**
 602:Drivers/STM32F1xx_HAL_Driver/Inc/stm32f1xx_ll_spi.h ****   * @brief  Set CRCNext to transfer CRC on the line
 603:Drivers/STM32F1xx_HAL_Driver/Inc/stm32f1xx_ll_spi.h ****   * @note   This bit has to be written as soon as the last data is written in the SPIx_DR register.
 604:Drivers/STM32F1xx_HAL_Driver/Inc/stm32f1xx_ll_spi.h ****   * @rmtoll CR1          CRCNEXT       LL_SPI_SetCRCNext
 605:Drivers/STM32F1xx_HAL_Driver/Inc/stm32f1xx_ll_spi.h ****   * @param  SPIx SPI Instance
 606:Drivers/STM32F1xx_HAL_Driver/Inc/stm32f1xx_ll_spi.h ****   * @retval None
 607:Drivers/STM32F1xx_HAL_Driver/Inc/stm32f1xx_ll_spi.h ****   */
 608:Drivers/STM32F1xx_HAL_Driver/Inc/stm32f1xx_ll_spi.h **** __STATIC_INLINE void LL_SPI_SetCRCNext(SPI_TypeDef *SPIx)
 609:Drivers/STM32F1xx_HAL_Driver/Inc/stm32f1xx_ll_spi.h **** {
 610:Drivers/STM32F1xx_HAL_Driver/Inc/stm32f1xx_ll_spi.h ****   SET_BIT(SPIx->CR1, SPI_CR1_CRCNEXT);
 611:Drivers/STM32F1xx_HAL_Driver/Inc/stm32f1xx_ll_spi.h **** }
 612:Drivers/STM32F1xx_HAL_Driver/Inc/stm32f1xx_ll_spi.h **** 
ARM GAS  /tmp/ccg5Oeuq.s 			page 13


 613:Drivers/STM32F1xx_HAL_Driver/Inc/stm32f1xx_ll_spi.h **** /**
 614:Drivers/STM32F1xx_HAL_Driver/Inc/stm32f1xx_ll_spi.h ****   * @brief  Set polynomial for CRC calculation
 615:Drivers/STM32F1xx_HAL_Driver/Inc/stm32f1xx_ll_spi.h ****   * @rmtoll CRCPR        CRCPOLY       LL_SPI_SetCRCPolynomial
 616:Drivers/STM32F1xx_HAL_Driver/Inc/stm32f1xx_ll_spi.h ****   * @param  SPIx SPI Instance
 617:Drivers/STM32F1xx_HAL_Driver/Inc/stm32f1xx_ll_spi.h ****   * @param  CRCPoly This parameter must be a number between Min_Data = 0x00 and Max_Data = 0xFFFF
 618:Drivers/STM32F1xx_HAL_Driver/Inc/stm32f1xx_ll_spi.h ****   * @retval None
 619:Drivers/STM32F1xx_HAL_Driver/Inc/stm32f1xx_ll_spi.h ****   */
 620:Drivers/STM32F1xx_HAL_Driver/Inc/stm32f1xx_ll_spi.h **** __STATIC_INLINE void LL_SPI_SetCRCPolynomial(SPI_TypeDef *SPIx, uint32_t CRCPoly)
 621:Drivers/STM32F1xx_HAL_Driver/Inc/stm32f1xx_ll_spi.h **** {
  76              		.loc 1 621 0
  77              		.cfi_startproc
  78              		@ args = 0, pretend = 0, frame = 8
  79              		@ frame_needed = 1, uses_anonymous_args = 0
  80              		@ link register save eliminated.
  81 0000 80B4     		push	{r7}
  82              	.LCFI6:
  83              		.cfi_def_cfa_offset 4
  84              		.cfi_offset 7, -4
  85 0002 83B0     		sub	sp, sp, #12
  86              	.LCFI7:
  87              		.cfi_def_cfa_offset 16
  88 0004 00AF     		add	r7, sp, #0
  89              	.LCFI8:
  90              		.cfi_def_cfa_register 7
  91 0006 7860     		str	r0, [r7, #4]
  92 0008 3960     		str	r1, [r7]
 622:Drivers/STM32F1xx_HAL_Driver/Inc/stm32f1xx_ll_spi.h ****   WRITE_REG(SPIx->CRCPR, (uint16_t)CRCPoly);
  93              		.loc 1 622 0
  94 000a 3B68     		ldr	r3, [r7]
  95 000c 9BB2     		uxth	r3, r3
  96 000e 1A46     		mov	r2, r3
  97 0010 7B68     		ldr	r3, [r7, #4]
  98 0012 1A61     		str	r2, [r3, #16]
 623:Drivers/STM32F1xx_HAL_Driver/Inc/stm32f1xx_ll_spi.h **** }
  99              		.loc 1 623 0
 100 0014 00BF     		nop
 101 0016 0C37     		adds	r7, r7, #12
 102              	.LCFI9:
 103              		.cfi_def_cfa_offset 4
 104 0018 BD46     		mov	sp, r7
 105              	.LCFI10:
 106              		.cfi_def_cfa_register 13
 107              		@ sp needed
 108 001a 80BC     		pop	{r7}
 109              	.LCFI11:
 110              		.cfi_restore 7
 111              		.cfi_def_cfa_offset 0
 112 001c 7047     		bx	lr
 113              		.cfi_endproc
 114              	.LFE87:
 116              		.section	.text.LL_APB1_GRP1_ForceReset,"ax",%progbits
 117              		.align	1
 118              		.syntax unified
 119              		.thumb
 120              		.thumb_func
 121              		.fpu softvfp
 123              	LL_APB1_GRP1_ForceReset:
ARM GAS  /tmp/ccg5Oeuq.s 			page 14


 124              	.LFB128:
 125              		.file 2 "Drivers/STM32F1xx_HAL_Driver/Inc/stm32f1xx_ll_bus.h"
   1:Drivers/STM32F1xx_HAL_Driver/Inc/stm32f1xx_ll_bus.h **** /**
   2:Drivers/STM32F1xx_HAL_Driver/Inc/stm32f1xx_ll_bus.h ****   ******************************************************************************
   3:Drivers/STM32F1xx_HAL_Driver/Inc/stm32f1xx_ll_bus.h ****   * @file    stm32f1xx_ll_bus.h
   4:Drivers/STM32F1xx_HAL_Driver/Inc/stm32f1xx_ll_bus.h ****   * @author  MCD Application Team
   5:Drivers/STM32F1xx_HAL_Driver/Inc/stm32f1xx_ll_bus.h ****   * @version V1.1.1
   6:Drivers/STM32F1xx_HAL_Driver/Inc/stm32f1xx_ll_bus.h ****   * @date    12-May-2017
   7:Drivers/STM32F1xx_HAL_Driver/Inc/stm32f1xx_ll_bus.h ****   * @brief   Header file of BUS LL module.
   8:Drivers/STM32F1xx_HAL_Driver/Inc/stm32f1xx_ll_bus.h **** 
   9:Drivers/STM32F1xx_HAL_Driver/Inc/stm32f1xx_ll_bus.h ****   @verbatim                
  10:Drivers/STM32F1xx_HAL_Driver/Inc/stm32f1xx_ll_bus.h ****                       ##### RCC Limitations #####
  11:Drivers/STM32F1xx_HAL_Driver/Inc/stm32f1xx_ll_bus.h ****   ==============================================================================
  12:Drivers/STM32F1xx_HAL_Driver/Inc/stm32f1xx_ll_bus.h ****     [..]  
  13:Drivers/STM32F1xx_HAL_Driver/Inc/stm32f1xx_ll_bus.h ****       A delay between an RCC peripheral clock enable and the effective peripheral 
  14:Drivers/STM32F1xx_HAL_Driver/Inc/stm32f1xx_ll_bus.h ****       enabling should be taken into account in order to manage the peripheral read/write 
  15:Drivers/STM32F1xx_HAL_Driver/Inc/stm32f1xx_ll_bus.h ****       from/to registers.
  16:Drivers/STM32F1xx_HAL_Driver/Inc/stm32f1xx_ll_bus.h ****       (+) This delay depends on the peripheral mapping.
  17:Drivers/STM32F1xx_HAL_Driver/Inc/stm32f1xx_ll_bus.h ****         (++) AHB & APB peripherals, 1 dummy read is necessary
  18:Drivers/STM32F1xx_HAL_Driver/Inc/stm32f1xx_ll_bus.h **** 
  19:Drivers/STM32F1xx_HAL_Driver/Inc/stm32f1xx_ll_bus.h ****     [..]  
  20:Drivers/STM32F1xx_HAL_Driver/Inc/stm32f1xx_ll_bus.h ****       Workarounds:
  21:Drivers/STM32F1xx_HAL_Driver/Inc/stm32f1xx_ll_bus.h ****       (#) For AHB & APB peripherals, a dummy read to the peripheral register has been
  22:Drivers/STM32F1xx_HAL_Driver/Inc/stm32f1xx_ll_bus.h ****           inserted in each LL_{BUS}_GRP{x}_EnableClock() function.
  23:Drivers/STM32F1xx_HAL_Driver/Inc/stm32f1xx_ll_bus.h **** 
  24:Drivers/STM32F1xx_HAL_Driver/Inc/stm32f1xx_ll_bus.h ****   @endverbatim
  25:Drivers/STM32F1xx_HAL_Driver/Inc/stm32f1xx_ll_bus.h ****   ******************************************************************************
  26:Drivers/STM32F1xx_HAL_Driver/Inc/stm32f1xx_ll_bus.h ****   * @attention
  27:Drivers/STM32F1xx_HAL_Driver/Inc/stm32f1xx_ll_bus.h ****   *
  28:Drivers/STM32F1xx_HAL_Driver/Inc/stm32f1xx_ll_bus.h ****   * <h2><center>&copy; COPYRIGHT(c) 2016 STMicroelectronics</center></h2>
  29:Drivers/STM32F1xx_HAL_Driver/Inc/stm32f1xx_ll_bus.h ****   *
  30:Drivers/STM32F1xx_HAL_Driver/Inc/stm32f1xx_ll_bus.h ****   * Redistribution and use in source and binary forms, with or without modification,
  31:Drivers/STM32F1xx_HAL_Driver/Inc/stm32f1xx_ll_bus.h ****   * are permitted provided that the following conditions are met:
  32:Drivers/STM32F1xx_HAL_Driver/Inc/stm32f1xx_ll_bus.h ****   *   1. Redistributions of source code must retain the above copyright notice,
  33:Drivers/STM32F1xx_HAL_Driver/Inc/stm32f1xx_ll_bus.h ****   *      this list of conditions and the following disclaimer.
  34:Drivers/STM32F1xx_HAL_Driver/Inc/stm32f1xx_ll_bus.h ****   *   2. Redistributions in binary form must reproduce the above copyright notice,
  35:Drivers/STM32F1xx_HAL_Driver/Inc/stm32f1xx_ll_bus.h ****   *      this list of conditions and the following disclaimer in the documentation
  36:Drivers/STM32F1xx_HAL_Driver/Inc/stm32f1xx_ll_bus.h ****   *      and/or other materials provided with the distribution.
  37:Drivers/STM32F1xx_HAL_Driver/Inc/stm32f1xx_ll_bus.h ****   *   3. Neither the name of STMicroelectronics nor the names of its contributors
  38:Drivers/STM32F1xx_HAL_Driver/Inc/stm32f1xx_ll_bus.h ****   *      may be used to endorse or promote products derived from this software
  39:Drivers/STM32F1xx_HAL_Driver/Inc/stm32f1xx_ll_bus.h ****   *      without specific prior written permission.
  40:Drivers/STM32F1xx_HAL_Driver/Inc/stm32f1xx_ll_bus.h ****   *
  41:Drivers/STM32F1xx_HAL_Driver/Inc/stm32f1xx_ll_bus.h ****   * THIS SOFTWARE IS PROVIDED BY THE COPYRIGHT HOLDERS AND CONTRIBUTORS "AS IS"
  42:Drivers/STM32F1xx_HAL_Driver/Inc/stm32f1xx_ll_bus.h ****   * AND ANY EXPRESS OR IMPLIED WARRANTIES, INCLUDING, BUT NOT LIMITED TO, THE
  43:Drivers/STM32F1xx_HAL_Driver/Inc/stm32f1xx_ll_bus.h ****   * IMPLIED WARRANTIES OF MERCHANTABILITY AND FITNESS FOR A PARTICULAR PURPOSE ARE
  44:Drivers/STM32F1xx_HAL_Driver/Inc/stm32f1xx_ll_bus.h ****   * DISCLAIMED. IN NO EVENT SHALL THE COPYRIGHT HOLDER OR CONTRIBUTORS BE LIABLE
  45:Drivers/STM32F1xx_HAL_Driver/Inc/stm32f1xx_ll_bus.h ****   * FOR ANY DIRECT, INDIRECT, INCIDENTAL, SPECIAL, EXEMPLARY, OR CONSEQUENTIAL
  46:Drivers/STM32F1xx_HAL_Driver/Inc/stm32f1xx_ll_bus.h ****   * DAMAGES (INCLUDING, BUT NOT LIMITED TO, PROCUREMENT OF SUBSTITUTE GOODS OR
  47:Drivers/STM32F1xx_HAL_Driver/Inc/stm32f1xx_ll_bus.h ****   * SERVICES; LOSS OF USE, DATA, OR PROFITS; OR BUSINESS INTERRUPTION) HOWEVER
  48:Drivers/STM32F1xx_HAL_Driver/Inc/stm32f1xx_ll_bus.h ****   * CAUSED AND ON ANY THEORY OF LIABILITY, WHETHER IN CONTRACT, STRICT LIABILITY,
  49:Drivers/STM32F1xx_HAL_Driver/Inc/stm32f1xx_ll_bus.h ****   * OR TORT (INCLUDING NEGLIGENCE OR OTHERWISE) ARISING IN ANY WAY OUT OF THE USE
  50:Drivers/STM32F1xx_HAL_Driver/Inc/stm32f1xx_ll_bus.h ****   * OF THIS SOFTWARE, EVEN IF ADVISED OF THE POSSIBILITY OF SUCH DAMAGE.
  51:Drivers/STM32F1xx_HAL_Driver/Inc/stm32f1xx_ll_bus.h ****   *
  52:Drivers/STM32F1xx_HAL_Driver/Inc/stm32f1xx_ll_bus.h ****   ******************************************************************************
  53:Drivers/STM32F1xx_HAL_Driver/Inc/stm32f1xx_ll_bus.h ****   */
  54:Drivers/STM32F1xx_HAL_Driver/Inc/stm32f1xx_ll_bus.h **** 
  55:Drivers/STM32F1xx_HAL_Driver/Inc/stm32f1xx_ll_bus.h **** /* Define to prevent recursive inclusion -------------------------------------*/
ARM GAS  /tmp/ccg5Oeuq.s 			page 15


  56:Drivers/STM32F1xx_HAL_Driver/Inc/stm32f1xx_ll_bus.h **** #ifndef __STM32F1xx_LL_BUS_H
  57:Drivers/STM32F1xx_HAL_Driver/Inc/stm32f1xx_ll_bus.h **** #define __STM32F1xx_LL_BUS_H
  58:Drivers/STM32F1xx_HAL_Driver/Inc/stm32f1xx_ll_bus.h **** 
  59:Drivers/STM32F1xx_HAL_Driver/Inc/stm32f1xx_ll_bus.h **** #ifdef __cplusplus
  60:Drivers/STM32F1xx_HAL_Driver/Inc/stm32f1xx_ll_bus.h **** extern "C" {
  61:Drivers/STM32F1xx_HAL_Driver/Inc/stm32f1xx_ll_bus.h **** #endif
  62:Drivers/STM32F1xx_HAL_Driver/Inc/stm32f1xx_ll_bus.h **** 
  63:Drivers/STM32F1xx_HAL_Driver/Inc/stm32f1xx_ll_bus.h **** /* Includes ------------------------------------------------------------------*/
  64:Drivers/STM32F1xx_HAL_Driver/Inc/stm32f1xx_ll_bus.h **** #include "stm32f1xx.h"
  65:Drivers/STM32F1xx_HAL_Driver/Inc/stm32f1xx_ll_bus.h **** 
  66:Drivers/STM32F1xx_HAL_Driver/Inc/stm32f1xx_ll_bus.h **** /** @addtogroup STM32F1xx_LL_Driver
  67:Drivers/STM32F1xx_HAL_Driver/Inc/stm32f1xx_ll_bus.h ****   * @{
  68:Drivers/STM32F1xx_HAL_Driver/Inc/stm32f1xx_ll_bus.h ****   */
  69:Drivers/STM32F1xx_HAL_Driver/Inc/stm32f1xx_ll_bus.h **** 
  70:Drivers/STM32F1xx_HAL_Driver/Inc/stm32f1xx_ll_bus.h **** #if defined(RCC)
  71:Drivers/STM32F1xx_HAL_Driver/Inc/stm32f1xx_ll_bus.h **** 
  72:Drivers/STM32F1xx_HAL_Driver/Inc/stm32f1xx_ll_bus.h **** /** @defgroup BUS_LL BUS
  73:Drivers/STM32F1xx_HAL_Driver/Inc/stm32f1xx_ll_bus.h ****   * @{
  74:Drivers/STM32F1xx_HAL_Driver/Inc/stm32f1xx_ll_bus.h ****   */
  75:Drivers/STM32F1xx_HAL_Driver/Inc/stm32f1xx_ll_bus.h **** 
  76:Drivers/STM32F1xx_HAL_Driver/Inc/stm32f1xx_ll_bus.h **** /* Private types -------------------------------------------------------------*/
  77:Drivers/STM32F1xx_HAL_Driver/Inc/stm32f1xx_ll_bus.h **** /* Private variables ---------------------------------------------------------*/
  78:Drivers/STM32F1xx_HAL_Driver/Inc/stm32f1xx_ll_bus.h **** 
  79:Drivers/STM32F1xx_HAL_Driver/Inc/stm32f1xx_ll_bus.h **** /* Private constants ---------------------------------------------------------*/
  80:Drivers/STM32F1xx_HAL_Driver/Inc/stm32f1xx_ll_bus.h **** #if defined(RCC_AHBRSTR_OTGFSRST) || defined(RCC_AHBRSTR_ETHMACRST)
  81:Drivers/STM32F1xx_HAL_Driver/Inc/stm32f1xx_ll_bus.h **** #define RCC_AHBRSTR_SUPPORT
  82:Drivers/STM32F1xx_HAL_Driver/Inc/stm32f1xx_ll_bus.h **** #endif /* RCC_AHBRSTR_OTGFSRST || RCC_AHBRSTR_ETHMACRST */
  83:Drivers/STM32F1xx_HAL_Driver/Inc/stm32f1xx_ll_bus.h **** 
  84:Drivers/STM32F1xx_HAL_Driver/Inc/stm32f1xx_ll_bus.h **** /* Private macros ------------------------------------------------------------*/
  85:Drivers/STM32F1xx_HAL_Driver/Inc/stm32f1xx_ll_bus.h **** 
  86:Drivers/STM32F1xx_HAL_Driver/Inc/stm32f1xx_ll_bus.h **** /* Exported types ------------------------------------------------------------*/
  87:Drivers/STM32F1xx_HAL_Driver/Inc/stm32f1xx_ll_bus.h **** /* Exported constants --------------------------------------------------------*/
  88:Drivers/STM32F1xx_HAL_Driver/Inc/stm32f1xx_ll_bus.h **** /** @defgroup BUS_LL_Exported_Constants BUS Exported Constants
  89:Drivers/STM32F1xx_HAL_Driver/Inc/stm32f1xx_ll_bus.h ****   * @{
  90:Drivers/STM32F1xx_HAL_Driver/Inc/stm32f1xx_ll_bus.h ****   */
  91:Drivers/STM32F1xx_HAL_Driver/Inc/stm32f1xx_ll_bus.h **** 
  92:Drivers/STM32F1xx_HAL_Driver/Inc/stm32f1xx_ll_bus.h **** /** @defgroup BUS_LL_EC_AHB1_GRP1_PERIPH  AHB1 GRP1 PERIPH
  93:Drivers/STM32F1xx_HAL_Driver/Inc/stm32f1xx_ll_bus.h ****   * @{
  94:Drivers/STM32F1xx_HAL_Driver/Inc/stm32f1xx_ll_bus.h ****   */
  95:Drivers/STM32F1xx_HAL_Driver/Inc/stm32f1xx_ll_bus.h **** #define LL_AHB1_GRP1_PERIPH_ALL            (uint32_t)0xFFFFFFFFU
  96:Drivers/STM32F1xx_HAL_Driver/Inc/stm32f1xx_ll_bus.h **** #define LL_AHB1_GRP1_PERIPH_CRC            RCC_AHBENR_CRCEN
  97:Drivers/STM32F1xx_HAL_Driver/Inc/stm32f1xx_ll_bus.h **** #define LL_AHB1_GRP1_PERIPH_DMA1           RCC_AHBENR_DMA1EN
  98:Drivers/STM32F1xx_HAL_Driver/Inc/stm32f1xx_ll_bus.h **** #if defined(DMA2)
  99:Drivers/STM32F1xx_HAL_Driver/Inc/stm32f1xx_ll_bus.h **** #define LL_AHB1_GRP1_PERIPH_DMA2           RCC_AHBENR_DMA2EN
 100:Drivers/STM32F1xx_HAL_Driver/Inc/stm32f1xx_ll_bus.h **** #endif /*DMA2*/
 101:Drivers/STM32F1xx_HAL_Driver/Inc/stm32f1xx_ll_bus.h **** #if defined(ETH)
 102:Drivers/STM32F1xx_HAL_Driver/Inc/stm32f1xx_ll_bus.h **** #define LL_AHB1_GRP1_PERIPH_ETHMAC         RCC_AHBENR_ETHMACEN
 103:Drivers/STM32F1xx_HAL_Driver/Inc/stm32f1xx_ll_bus.h **** #define LL_AHB1_GRP1_PERIPH_ETHMACRX       RCC_AHBENR_ETHMACRXEN
 104:Drivers/STM32F1xx_HAL_Driver/Inc/stm32f1xx_ll_bus.h **** #define LL_AHB1_GRP1_PERIPH_ETHMACTX       RCC_AHBENR_ETHMACTXEN
 105:Drivers/STM32F1xx_HAL_Driver/Inc/stm32f1xx_ll_bus.h **** #endif /*ETH*/
 106:Drivers/STM32F1xx_HAL_Driver/Inc/stm32f1xx_ll_bus.h **** #define LL_AHB1_GRP1_PERIPH_FLASH          RCC_AHBENR_FLITFEN
 107:Drivers/STM32F1xx_HAL_Driver/Inc/stm32f1xx_ll_bus.h **** #if defined(FSMC_Bank1)
 108:Drivers/STM32F1xx_HAL_Driver/Inc/stm32f1xx_ll_bus.h **** #define LL_AHB1_GRP1_PERIPH_FSMC           RCC_AHBENR_FSMCEN
 109:Drivers/STM32F1xx_HAL_Driver/Inc/stm32f1xx_ll_bus.h **** #endif /*FSMC_Bank1*/
 110:Drivers/STM32F1xx_HAL_Driver/Inc/stm32f1xx_ll_bus.h **** #if defined(USB_OTG_FS)
 111:Drivers/STM32F1xx_HAL_Driver/Inc/stm32f1xx_ll_bus.h **** #define LL_AHB1_GRP1_PERIPH_OTGFS          RCC_AHBENR_OTGFSEN
 112:Drivers/STM32F1xx_HAL_Driver/Inc/stm32f1xx_ll_bus.h **** #endif /*USB_OTG_FS*/
ARM GAS  /tmp/ccg5Oeuq.s 			page 16


 113:Drivers/STM32F1xx_HAL_Driver/Inc/stm32f1xx_ll_bus.h **** #if defined(SDIO)
 114:Drivers/STM32F1xx_HAL_Driver/Inc/stm32f1xx_ll_bus.h **** #define LL_AHB1_GRP1_PERIPH_SDIO           RCC_AHBENR_SDIOEN
 115:Drivers/STM32F1xx_HAL_Driver/Inc/stm32f1xx_ll_bus.h **** #endif /*SDIO*/
 116:Drivers/STM32F1xx_HAL_Driver/Inc/stm32f1xx_ll_bus.h **** #define LL_AHB1_GRP1_PERIPH_SRAM           RCC_AHBENR_SRAMEN
 117:Drivers/STM32F1xx_HAL_Driver/Inc/stm32f1xx_ll_bus.h **** /**
 118:Drivers/STM32F1xx_HAL_Driver/Inc/stm32f1xx_ll_bus.h ****   * @}
 119:Drivers/STM32F1xx_HAL_Driver/Inc/stm32f1xx_ll_bus.h ****   */
 120:Drivers/STM32F1xx_HAL_Driver/Inc/stm32f1xx_ll_bus.h **** 
 121:Drivers/STM32F1xx_HAL_Driver/Inc/stm32f1xx_ll_bus.h **** /** @defgroup BUS_LL_EC_APB1_GRP1_PERIPH  APB1 GRP1 PERIPH
 122:Drivers/STM32F1xx_HAL_Driver/Inc/stm32f1xx_ll_bus.h ****   * @{
 123:Drivers/STM32F1xx_HAL_Driver/Inc/stm32f1xx_ll_bus.h ****   */
 124:Drivers/STM32F1xx_HAL_Driver/Inc/stm32f1xx_ll_bus.h **** #define LL_APB1_GRP1_PERIPH_ALL            (uint32_t)0xFFFFFFFFU
 125:Drivers/STM32F1xx_HAL_Driver/Inc/stm32f1xx_ll_bus.h **** #define LL_APB1_GRP1_PERIPH_BKP            RCC_APB1ENR_BKPEN
 126:Drivers/STM32F1xx_HAL_Driver/Inc/stm32f1xx_ll_bus.h **** #if defined(CAN1)
 127:Drivers/STM32F1xx_HAL_Driver/Inc/stm32f1xx_ll_bus.h **** #define LL_APB1_GRP1_PERIPH_CAN1           RCC_APB1ENR_CAN1EN
 128:Drivers/STM32F1xx_HAL_Driver/Inc/stm32f1xx_ll_bus.h **** #endif /*CAN1*/
 129:Drivers/STM32F1xx_HAL_Driver/Inc/stm32f1xx_ll_bus.h **** #if defined(CAN2)
 130:Drivers/STM32F1xx_HAL_Driver/Inc/stm32f1xx_ll_bus.h **** #define LL_APB1_GRP1_PERIPH_CAN2           RCC_APB1ENR_CAN2EN
 131:Drivers/STM32F1xx_HAL_Driver/Inc/stm32f1xx_ll_bus.h **** #endif /*CAN2*/
 132:Drivers/STM32F1xx_HAL_Driver/Inc/stm32f1xx_ll_bus.h **** #if defined(CEC)
 133:Drivers/STM32F1xx_HAL_Driver/Inc/stm32f1xx_ll_bus.h **** #define LL_APB1_GRP1_PERIPH_CEC            RCC_APB1ENR_CECEN
 134:Drivers/STM32F1xx_HAL_Driver/Inc/stm32f1xx_ll_bus.h **** #endif /*CEC*/
 135:Drivers/STM32F1xx_HAL_Driver/Inc/stm32f1xx_ll_bus.h **** #if defined(DAC)
 136:Drivers/STM32F1xx_HAL_Driver/Inc/stm32f1xx_ll_bus.h **** #define LL_APB1_GRP1_PERIPH_DAC1           RCC_APB1ENR_DACEN
 137:Drivers/STM32F1xx_HAL_Driver/Inc/stm32f1xx_ll_bus.h **** #endif /*DAC*/
 138:Drivers/STM32F1xx_HAL_Driver/Inc/stm32f1xx_ll_bus.h **** #define LL_APB1_GRP1_PERIPH_I2C1           RCC_APB1ENR_I2C1EN
 139:Drivers/STM32F1xx_HAL_Driver/Inc/stm32f1xx_ll_bus.h **** #if defined(I2C2)
 140:Drivers/STM32F1xx_HAL_Driver/Inc/stm32f1xx_ll_bus.h **** #define LL_APB1_GRP1_PERIPH_I2C2           RCC_APB1ENR_I2C2EN
 141:Drivers/STM32F1xx_HAL_Driver/Inc/stm32f1xx_ll_bus.h **** #endif /*I2C2*/
 142:Drivers/STM32F1xx_HAL_Driver/Inc/stm32f1xx_ll_bus.h **** #define LL_APB1_GRP1_PERIPH_PWR            RCC_APB1ENR_PWREN
 143:Drivers/STM32F1xx_HAL_Driver/Inc/stm32f1xx_ll_bus.h **** #if defined(SPI2)
 144:Drivers/STM32F1xx_HAL_Driver/Inc/stm32f1xx_ll_bus.h **** #define LL_APB1_GRP1_PERIPH_SPI2           RCC_APB1ENR_SPI2EN
 145:Drivers/STM32F1xx_HAL_Driver/Inc/stm32f1xx_ll_bus.h **** #endif /*SPI2*/
 146:Drivers/STM32F1xx_HAL_Driver/Inc/stm32f1xx_ll_bus.h **** #if defined(SPI3)
 147:Drivers/STM32F1xx_HAL_Driver/Inc/stm32f1xx_ll_bus.h **** #define LL_APB1_GRP1_PERIPH_SPI3           RCC_APB1ENR_SPI3EN
 148:Drivers/STM32F1xx_HAL_Driver/Inc/stm32f1xx_ll_bus.h **** #endif /*SPI3*/
 149:Drivers/STM32F1xx_HAL_Driver/Inc/stm32f1xx_ll_bus.h **** #if defined(TIM12)
 150:Drivers/STM32F1xx_HAL_Driver/Inc/stm32f1xx_ll_bus.h **** #define LL_APB1_GRP1_PERIPH_TIM12          RCC_APB1ENR_TIM12EN
 151:Drivers/STM32F1xx_HAL_Driver/Inc/stm32f1xx_ll_bus.h **** #endif /*TIM12*/
 152:Drivers/STM32F1xx_HAL_Driver/Inc/stm32f1xx_ll_bus.h **** #if defined(TIM13)
 153:Drivers/STM32F1xx_HAL_Driver/Inc/stm32f1xx_ll_bus.h **** #define LL_APB1_GRP1_PERIPH_TIM13          RCC_APB1ENR_TIM13EN
 154:Drivers/STM32F1xx_HAL_Driver/Inc/stm32f1xx_ll_bus.h **** #endif /*TIM13*/
 155:Drivers/STM32F1xx_HAL_Driver/Inc/stm32f1xx_ll_bus.h **** #if defined(TIM14)
 156:Drivers/STM32F1xx_HAL_Driver/Inc/stm32f1xx_ll_bus.h **** #define LL_APB1_GRP1_PERIPH_TIM14          RCC_APB1ENR_TIM14EN
 157:Drivers/STM32F1xx_HAL_Driver/Inc/stm32f1xx_ll_bus.h **** #endif /*TIM14*/
 158:Drivers/STM32F1xx_HAL_Driver/Inc/stm32f1xx_ll_bus.h **** #define LL_APB1_GRP1_PERIPH_TIM2           RCC_APB1ENR_TIM2EN
 159:Drivers/STM32F1xx_HAL_Driver/Inc/stm32f1xx_ll_bus.h **** #define LL_APB1_GRP1_PERIPH_TIM3           RCC_APB1ENR_TIM3EN
 160:Drivers/STM32F1xx_HAL_Driver/Inc/stm32f1xx_ll_bus.h **** #if defined(TIM4)
 161:Drivers/STM32F1xx_HAL_Driver/Inc/stm32f1xx_ll_bus.h **** #define LL_APB1_GRP1_PERIPH_TIM4           RCC_APB1ENR_TIM4EN
 162:Drivers/STM32F1xx_HAL_Driver/Inc/stm32f1xx_ll_bus.h **** #endif /*TIM4*/
 163:Drivers/STM32F1xx_HAL_Driver/Inc/stm32f1xx_ll_bus.h **** #if defined(TIM5)
 164:Drivers/STM32F1xx_HAL_Driver/Inc/stm32f1xx_ll_bus.h **** #define LL_APB1_GRP1_PERIPH_TIM5           RCC_APB1ENR_TIM5EN
 165:Drivers/STM32F1xx_HAL_Driver/Inc/stm32f1xx_ll_bus.h **** #endif /*TIM5*/
 166:Drivers/STM32F1xx_HAL_Driver/Inc/stm32f1xx_ll_bus.h **** #if defined(TIM6)
 167:Drivers/STM32F1xx_HAL_Driver/Inc/stm32f1xx_ll_bus.h **** #define LL_APB1_GRP1_PERIPH_TIM6           RCC_APB1ENR_TIM6EN
 168:Drivers/STM32F1xx_HAL_Driver/Inc/stm32f1xx_ll_bus.h **** #endif /*TIM6*/
 169:Drivers/STM32F1xx_HAL_Driver/Inc/stm32f1xx_ll_bus.h **** #if defined(TIM7)
ARM GAS  /tmp/ccg5Oeuq.s 			page 17


 170:Drivers/STM32F1xx_HAL_Driver/Inc/stm32f1xx_ll_bus.h **** #define LL_APB1_GRP1_PERIPH_TIM7           RCC_APB1ENR_TIM7EN
 171:Drivers/STM32F1xx_HAL_Driver/Inc/stm32f1xx_ll_bus.h **** #endif /*TIM7*/
 172:Drivers/STM32F1xx_HAL_Driver/Inc/stm32f1xx_ll_bus.h **** #if defined(UART4)
 173:Drivers/STM32F1xx_HAL_Driver/Inc/stm32f1xx_ll_bus.h **** #define LL_APB1_GRP1_PERIPH_UART4          RCC_APB1ENR_UART4EN
 174:Drivers/STM32F1xx_HAL_Driver/Inc/stm32f1xx_ll_bus.h **** #endif /*UART4*/
 175:Drivers/STM32F1xx_HAL_Driver/Inc/stm32f1xx_ll_bus.h **** #if defined(UART5)
 176:Drivers/STM32F1xx_HAL_Driver/Inc/stm32f1xx_ll_bus.h **** #define LL_APB1_GRP1_PERIPH_UART5          RCC_APB1ENR_UART5EN
 177:Drivers/STM32F1xx_HAL_Driver/Inc/stm32f1xx_ll_bus.h **** #endif /*UART5*/
 178:Drivers/STM32F1xx_HAL_Driver/Inc/stm32f1xx_ll_bus.h **** #define LL_APB1_GRP1_PERIPH_USART2         RCC_APB1ENR_USART2EN
 179:Drivers/STM32F1xx_HAL_Driver/Inc/stm32f1xx_ll_bus.h **** #if defined(USART3)
 180:Drivers/STM32F1xx_HAL_Driver/Inc/stm32f1xx_ll_bus.h **** #define LL_APB1_GRP1_PERIPH_USART3         RCC_APB1ENR_USART3EN
 181:Drivers/STM32F1xx_HAL_Driver/Inc/stm32f1xx_ll_bus.h **** #endif /*USART3*/
 182:Drivers/STM32F1xx_HAL_Driver/Inc/stm32f1xx_ll_bus.h **** #if defined(USB)
 183:Drivers/STM32F1xx_HAL_Driver/Inc/stm32f1xx_ll_bus.h **** #define LL_APB1_GRP1_PERIPH_USB            RCC_APB1ENR_USBEN
 184:Drivers/STM32F1xx_HAL_Driver/Inc/stm32f1xx_ll_bus.h **** #endif /*USB*/
 185:Drivers/STM32F1xx_HAL_Driver/Inc/stm32f1xx_ll_bus.h **** #define LL_APB1_GRP1_PERIPH_WWDG           RCC_APB1ENR_WWDGEN
 186:Drivers/STM32F1xx_HAL_Driver/Inc/stm32f1xx_ll_bus.h **** /**
 187:Drivers/STM32F1xx_HAL_Driver/Inc/stm32f1xx_ll_bus.h ****   * @}
 188:Drivers/STM32F1xx_HAL_Driver/Inc/stm32f1xx_ll_bus.h ****   */
 189:Drivers/STM32F1xx_HAL_Driver/Inc/stm32f1xx_ll_bus.h **** 
 190:Drivers/STM32F1xx_HAL_Driver/Inc/stm32f1xx_ll_bus.h **** /** @defgroup BUS_LL_EC_APB2_GRP1_PERIPH  APB2 GRP1 PERIPH
 191:Drivers/STM32F1xx_HAL_Driver/Inc/stm32f1xx_ll_bus.h ****   * @{
 192:Drivers/STM32F1xx_HAL_Driver/Inc/stm32f1xx_ll_bus.h ****   */
 193:Drivers/STM32F1xx_HAL_Driver/Inc/stm32f1xx_ll_bus.h **** #define LL_APB2_GRP1_PERIPH_ALL            (uint32_t)0xFFFFFFFFU
 194:Drivers/STM32F1xx_HAL_Driver/Inc/stm32f1xx_ll_bus.h **** #define LL_APB2_GRP1_PERIPH_ADC1           RCC_APB2ENR_ADC1EN
 195:Drivers/STM32F1xx_HAL_Driver/Inc/stm32f1xx_ll_bus.h **** #if defined(ADC2)
 196:Drivers/STM32F1xx_HAL_Driver/Inc/stm32f1xx_ll_bus.h **** #define LL_APB2_GRP1_PERIPH_ADC2           RCC_APB2ENR_ADC2EN
 197:Drivers/STM32F1xx_HAL_Driver/Inc/stm32f1xx_ll_bus.h **** #endif /*ADC2*/
 198:Drivers/STM32F1xx_HAL_Driver/Inc/stm32f1xx_ll_bus.h **** #if defined(ADC3)
 199:Drivers/STM32F1xx_HAL_Driver/Inc/stm32f1xx_ll_bus.h **** #define LL_APB2_GRP1_PERIPH_ADC3           RCC_APB2ENR_ADC3EN
 200:Drivers/STM32F1xx_HAL_Driver/Inc/stm32f1xx_ll_bus.h **** #endif /*ADC3*/
 201:Drivers/STM32F1xx_HAL_Driver/Inc/stm32f1xx_ll_bus.h **** #define LL_APB2_GRP1_PERIPH_AFIO           RCC_APB2ENR_AFIOEN
 202:Drivers/STM32F1xx_HAL_Driver/Inc/stm32f1xx_ll_bus.h **** #define LL_APB2_GRP1_PERIPH_GPIOA          RCC_APB2ENR_IOPAEN
 203:Drivers/STM32F1xx_HAL_Driver/Inc/stm32f1xx_ll_bus.h **** #define LL_APB2_GRP1_PERIPH_GPIOB          RCC_APB2ENR_IOPBEN
 204:Drivers/STM32F1xx_HAL_Driver/Inc/stm32f1xx_ll_bus.h **** #define LL_APB2_GRP1_PERIPH_GPIOC          RCC_APB2ENR_IOPCEN
 205:Drivers/STM32F1xx_HAL_Driver/Inc/stm32f1xx_ll_bus.h **** #define LL_APB2_GRP1_PERIPH_GPIOD          RCC_APB2ENR_IOPDEN
 206:Drivers/STM32F1xx_HAL_Driver/Inc/stm32f1xx_ll_bus.h **** #if defined(GPIOE)
 207:Drivers/STM32F1xx_HAL_Driver/Inc/stm32f1xx_ll_bus.h **** #define LL_APB2_GRP1_PERIPH_GPIOE          RCC_APB2ENR_IOPEEN
 208:Drivers/STM32F1xx_HAL_Driver/Inc/stm32f1xx_ll_bus.h **** #endif /*GPIOE*/
 209:Drivers/STM32F1xx_HAL_Driver/Inc/stm32f1xx_ll_bus.h **** #if defined(GPIOF)
 210:Drivers/STM32F1xx_HAL_Driver/Inc/stm32f1xx_ll_bus.h **** #define LL_APB2_GRP1_PERIPH_GPIOF          RCC_APB2ENR_IOPFEN
 211:Drivers/STM32F1xx_HAL_Driver/Inc/stm32f1xx_ll_bus.h **** #endif /*GPIOF*/
 212:Drivers/STM32F1xx_HAL_Driver/Inc/stm32f1xx_ll_bus.h **** #if defined(GPIOG)
 213:Drivers/STM32F1xx_HAL_Driver/Inc/stm32f1xx_ll_bus.h **** #define LL_APB2_GRP1_PERIPH_GPIOG          RCC_APB2ENR_IOPGEN
 214:Drivers/STM32F1xx_HAL_Driver/Inc/stm32f1xx_ll_bus.h **** #endif /*GPIOG*/
 215:Drivers/STM32F1xx_HAL_Driver/Inc/stm32f1xx_ll_bus.h **** #define LL_APB2_GRP1_PERIPH_SPI1           RCC_APB2ENR_SPI1EN
 216:Drivers/STM32F1xx_HAL_Driver/Inc/stm32f1xx_ll_bus.h **** #if defined(TIM10)
 217:Drivers/STM32F1xx_HAL_Driver/Inc/stm32f1xx_ll_bus.h **** #define LL_APB2_GRP1_PERIPH_TIM10          RCC_APB2ENR_TIM10EN
 218:Drivers/STM32F1xx_HAL_Driver/Inc/stm32f1xx_ll_bus.h **** #endif /*TIM10*/
 219:Drivers/STM32F1xx_HAL_Driver/Inc/stm32f1xx_ll_bus.h **** #if defined(TIM11)
 220:Drivers/STM32F1xx_HAL_Driver/Inc/stm32f1xx_ll_bus.h **** #define LL_APB2_GRP1_PERIPH_TIM11          RCC_APB2ENR_TIM11EN
 221:Drivers/STM32F1xx_HAL_Driver/Inc/stm32f1xx_ll_bus.h **** #endif /*TIM11*/
 222:Drivers/STM32F1xx_HAL_Driver/Inc/stm32f1xx_ll_bus.h **** #if defined(TIM15)
 223:Drivers/STM32F1xx_HAL_Driver/Inc/stm32f1xx_ll_bus.h **** #define LL_APB2_GRP1_PERIPH_TIM15          RCC_APB2ENR_TIM15EN
 224:Drivers/STM32F1xx_HAL_Driver/Inc/stm32f1xx_ll_bus.h **** #endif /*TIM15*/
 225:Drivers/STM32F1xx_HAL_Driver/Inc/stm32f1xx_ll_bus.h **** #if defined(TIM16)
 226:Drivers/STM32F1xx_HAL_Driver/Inc/stm32f1xx_ll_bus.h **** #define LL_APB2_GRP1_PERIPH_TIM16          RCC_APB2ENR_TIM16EN
ARM GAS  /tmp/ccg5Oeuq.s 			page 18


 227:Drivers/STM32F1xx_HAL_Driver/Inc/stm32f1xx_ll_bus.h **** #endif /*TIM16*/
 228:Drivers/STM32F1xx_HAL_Driver/Inc/stm32f1xx_ll_bus.h **** #if defined(TIM17)
 229:Drivers/STM32F1xx_HAL_Driver/Inc/stm32f1xx_ll_bus.h **** #define LL_APB2_GRP1_PERIPH_TIM17          RCC_APB2ENR_TIM17EN
 230:Drivers/STM32F1xx_HAL_Driver/Inc/stm32f1xx_ll_bus.h **** #endif /*TIM17*/
 231:Drivers/STM32F1xx_HAL_Driver/Inc/stm32f1xx_ll_bus.h **** #define LL_APB2_GRP1_PERIPH_TIM1           RCC_APB2ENR_TIM1EN
 232:Drivers/STM32F1xx_HAL_Driver/Inc/stm32f1xx_ll_bus.h **** #if defined(TIM8)
 233:Drivers/STM32F1xx_HAL_Driver/Inc/stm32f1xx_ll_bus.h **** #define LL_APB2_GRP1_PERIPH_TIM8           RCC_APB2ENR_TIM8EN
 234:Drivers/STM32F1xx_HAL_Driver/Inc/stm32f1xx_ll_bus.h **** #endif /*TIM8*/
 235:Drivers/STM32F1xx_HAL_Driver/Inc/stm32f1xx_ll_bus.h **** #if defined(TIM9)
 236:Drivers/STM32F1xx_HAL_Driver/Inc/stm32f1xx_ll_bus.h **** #define LL_APB2_GRP1_PERIPH_TIM9           RCC_APB2ENR_TIM9EN
 237:Drivers/STM32F1xx_HAL_Driver/Inc/stm32f1xx_ll_bus.h **** #endif /*TIM9*/
 238:Drivers/STM32F1xx_HAL_Driver/Inc/stm32f1xx_ll_bus.h **** #define LL_APB2_GRP1_PERIPH_USART1         RCC_APB2ENR_USART1EN
 239:Drivers/STM32F1xx_HAL_Driver/Inc/stm32f1xx_ll_bus.h **** /**
 240:Drivers/STM32F1xx_HAL_Driver/Inc/stm32f1xx_ll_bus.h ****   * @}
 241:Drivers/STM32F1xx_HAL_Driver/Inc/stm32f1xx_ll_bus.h ****   */
 242:Drivers/STM32F1xx_HAL_Driver/Inc/stm32f1xx_ll_bus.h **** 
 243:Drivers/STM32F1xx_HAL_Driver/Inc/stm32f1xx_ll_bus.h **** /**
 244:Drivers/STM32F1xx_HAL_Driver/Inc/stm32f1xx_ll_bus.h ****   * @}
 245:Drivers/STM32F1xx_HAL_Driver/Inc/stm32f1xx_ll_bus.h ****   */
 246:Drivers/STM32F1xx_HAL_Driver/Inc/stm32f1xx_ll_bus.h **** 
 247:Drivers/STM32F1xx_HAL_Driver/Inc/stm32f1xx_ll_bus.h **** /* Exported macro ------------------------------------------------------------*/
 248:Drivers/STM32F1xx_HAL_Driver/Inc/stm32f1xx_ll_bus.h **** 
 249:Drivers/STM32F1xx_HAL_Driver/Inc/stm32f1xx_ll_bus.h **** /* Exported functions --------------------------------------------------------*/
 250:Drivers/STM32F1xx_HAL_Driver/Inc/stm32f1xx_ll_bus.h **** /** @defgroup BUS_LL_Exported_Functions BUS Exported Functions
 251:Drivers/STM32F1xx_HAL_Driver/Inc/stm32f1xx_ll_bus.h ****   * @{
 252:Drivers/STM32F1xx_HAL_Driver/Inc/stm32f1xx_ll_bus.h ****   */
 253:Drivers/STM32F1xx_HAL_Driver/Inc/stm32f1xx_ll_bus.h **** 
 254:Drivers/STM32F1xx_HAL_Driver/Inc/stm32f1xx_ll_bus.h **** /** @defgroup BUS_LL_EF_AHB1 AHB1
 255:Drivers/STM32F1xx_HAL_Driver/Inc/stm32f1xx_ll_bus.h ****   * @{
 256:Drivers/STM32F1xx_HAL_Driver/Inc/stm32f1xx_ll_bus.h ****   */
 257:Drivers/STM32F1xx_HAL_Driver/Inc/stm32f1xx_ll_bus.h **** 
 258:Drivers/STM32F1xx_HAL_Driver/Inc/stm32f1xx_ll_bus.h **** /**
 259:Drivers/STM32F1xx_HAL_Driver/Inc/stm32f1xx_ll_bus.h ****   * @brief  Enable AHB1 peripherals clock.
 260:Drivers/STM32F1xx_HAL_Driver/Inc/stm32f1xx_ll_bus.h ****   * @rmtoll AHBENR       CRCEN         LL_AHB1_GRP1_EnableClock\n
 261:Drivers/STM32F1xx_HAL_Driver/Inc/stm32f1xx_ll_bus.h ****   *         AHBENR       DMA1EN        LL_AHB1_GRP1_EnableClock\n
 262:Drivers/STM32F1xx_HAL_Driver/Inc/stm32f1xx_ll_bus.h ****   *         AHBENR       DMA2EN        LL_AHB1_GRP1_EnableClock\n
 263:Drivers/STM32F1xx_HAL_Driver/Inc/stm32f1xx_ll_bus.h ****   *         AHBENR       ETHMACEN      LL_AHB1_GRP1_EnableClock\n
 264:Drivers/STM32F1xx_HAL_Driver/Inc/stm32f1xx_ll_bus.h ****   *         AHBENR       ETHMACRXEN    LL_AHB1_GRP1_EnableClock\n
 265:Drivers/STM32F1xx_HAL_Driver/Inc/stm32f1xx_ll_bus.h ****   *         AHBENR       ETHMACTXEN    LL_AHB1_GRP1_EnableClock\n
 266:Drivers/STM32F1xx_HAL_Driver/Inc/stm32f1xx_ll_bus.h ****   *         AHBENR       FLITFEN       LL_AHB1_GRP1_EnableClock\n
 267:Drivers/STM32F1xx_HAL_Driver/Inc/stm32f1xx_ll_bus.h ****   *         AHBENR       FSMCEN        LL_AHB1_GRP1_EnableClock\n
 268:Drivers/STM32F1xx_HAL_Driver/Inc/stm32f1xx_ll_bus.h ****   *         AHBENR       OTGFSEN       LL_AHB1_GRP1_EnableClock\n
 269:Drivers/STM32F1xx_HAL_Driver/Inc/stm32f1xx_ll_bus.h ****   *         AHBENR       SDIOEN        LL_AHB1_GRP1_EnableClock\n
 270:Drivers/STM32F1xx_HAL_Driver/Inc/stm32f1xx_ll_bus.h ****   *         AHBENR       SRAMEN        LL_AHB1_GRP1_EnableClock
 271:Drivers/STM32F1xx_HAL_Driver/Inc/stm32f1xx_ll_bus.h ****   * @param  Periphs This parameter can be a combination of the following values:
 272:Drivers/STM32F1xx_HAL_Driver/Inc/stm32f1xx_ll_bus.h ****   *         @arg @ref LL_AHB1_GRP1_PERIPH_CRC
 273:Drivers/STM32F1xx_HAL_Driver/Inc/stm32f1xx_ll_bus.h ****   *         @arg @ref LL_AHB1_GRP1_PERIPH_DMA1
 274:Drivers/STM32F1xx_HAL_Driver/Inc/stm32f1xx_ll_bus.h ****   *         @arg @ref LL_AHB1_GRP1_PERIPH_DMA2 (*)
 275:Drivers/STM32F1xx_HAL_Driver/Inc/stm32f1xx_ll_bus.h ****   *         @arg @ref LL_AHB1_GRP1_PERIPH_ETHMAC (*)
 276:Drivers/STM32F1xx_HAL_Driver/Inc/stm32f1xx_ll_bus.h ****   *         @arg @ref LL_AHB1_GRP1_PERIPH_ETHMACRX (*)
 277:Drivers/STM32F1xx_HAL_Driver/Inc/stm32f1xx_ll_bus.h ****   *         @arg @ref LL_AHB1_GRP1_PERIPH_ETHMACTX (*)
 278:Drivers/STM32F1xx_HAL_Driver/Inc/stm32f1xx_ll_bus.h ****   *         @arg @ref LL_AHB1_GRP1_PERIPH_FLASH
 279:Drivers/STM32F1xx_HAL_Driver/Inc/stm32f1xx_ll_bus.h ****   *         @arg @ref LL_AHB1_GRP1_PERIPH_FSMC (*)
 280:Drivers/STM32F1xx_HAL_Driver/Inc/stm32f1xx_ll_bus.h ****   *         @arg @ref LL_AHB1_GRP1_PERIPH_OTGFS (*)
 281:Drivers/STM32F1xx_HAL_Driver/Inc/stm32f1xx_ll_bus.h ****   *         @arg @ref LL_AHB1_GRP1_PERIPH_SDIO (*)
 282:Drivers/STM32F1xx_HAL_Driver/Inc/stm32f1xx_ll_bus.h ****   *         @arg @ref LL_AHB1_GRP1_PERIPH_SRAM
 283:Drivers/STM32F1xx_HAL_Driver/Inc/stm32f1xx_ll_bus.h ****   *
ARM GAS  /tmp/ccg5Oeuq.s 			page 19


 284:Drivers/STM32F1xx_HAL_Driver/Inc/stm32f1xx_ll_bus.h ****   *         (*) value not defined in all devices.
 285:Drivers/STM32F1xx_HAL_Driver/Inc/stm32f1xx_ll_bus.h ****   * @retval None
 286:Drivers/STM32F1xx_HAL_Driver/Inc/stm32f1xx_ll_bus.h **** */
 287:Drivers/STM32F1xx_HAL_Driver/Inc/stm32f1xx_ll_bus.h **** __STATIC_INLINE void LL_AHB1_GRP1_EnableClock(uint32_t Periphs)
 288:Drivers/STM32F1xx_HAL_Driver/Inc/stm32f1xx_ll_bus.h **** {
 289:Drivers/STM32F1xx_HAL_Driver/Inc/stm32f1xx_ll_bus.h ****   __IO uint32_t tmpreg;
 290:Drivers/STM32F1xx_HAL_Driver/Inc/stm32f1xx_ll_bus.h ****   SET_BIT(RCC->AHBENR, Periphs);
 291:Drivers/STM32F1xx_HAL_Driver/Inc/stm32f1xx_ll_bus.h ****   /* Delay after an RCC peripheral clock enabling */
 292:Drivers/STM32F1xx_HAL_Driver/Inc/stm32f1xx_ll_bus.h ****   tmpreg = READ_BIT(RCC->AHBENR, Periphs);
 293:Drivers/STM32F1xx_HAL_Driver/Inc/stm32f1xx_ll_bus.h ****   (void)tmpreg;
 294:Drivers/STM32F1xx_HAL_Driver/Inc/stm32f1xx_ll_bus.h **** }
 295:Drivers/STM32F1xx_HAL_Driver/Inc/stm32f1xx_ll_bus.h **** 
 296:Drivers/STM32F1xx_HAL_Driver/Inc/stm32f1xx_ll_bus.h **** /**
 297:Drivers/STM32F1xx_HAL_Driver/Inc/stm32f1xx_ll_bus.h ****   * @brief  Check if AHB1 peripheral clock is enabled or not
 298:Drivers/STM32F1xx_HAL_Driver/Inc/stm32f1xx_ll_bus.h ****   * @rmtoll AHBENR       CRCEN         LL_AHB1_GRP1_IsEnabledClock\n
 299:Drivers/STM32F1xx_HAL_Driver/Inc/stm32f1xx_ll_bus.h ****   *         AHBENR       DMA1EN        LL_AHB1_GRP1_IsEnabledClock\n
 300:Drivers/STM32F1xx_HAL_Driver/Inc/stm32f1xx_ll_bus.h ****   *         AHBENR       DMA2EN        LL_AHB1_GRP1_IsEnabledClock\n
 301:Drivers/STM32F1xx_HAL_Driver/Inc/stm32f1xx_ll_bus.h ****   *         AHBENR       ETHMACEN      LL_AHB1_GRP1_IsEnabledClock\n
 302:Drivers/STM32F1xx_HAL_Driver/Inc/stm32f1xx_ll_bus.h ****   *         AHBENR       ETHMACRXEN    LL_AHB1_GRP1_IsEnabledClock\n
 303:Drivers/STM32F1xx_HAL_Driver/Inc/stm32f1xx_ll_bus.h ****   *         AHBENR       ETHMACTXEN    LL_AHB1_GRP1_IsEnabledClock\n
 304:Drivers/STM32F1xx_HAL_Driver/Inc/stm32f1xx_ll_bus.h ****   *         AHBENR       FLITFEN       LL_AHB1_GRP1_IsEnabledClock\n
 305:Drivers/STM32F1xx_HAL_Driver/Inc/stm32f1xx_ll_bus.h ****   *         AHBENR       FSMCEN        LL_AHB1_GRP1_IsEnabledClock\n
 306:Drivers/STM32F1xx_HAL_Driver/Inc/stm32f1xx_ll_bus.h ****   *         AHBENR       OTGFSEN       LL_AHB1_GRP1_IsEnabledClock\n
 307:Drivers/STM32F1xx_HAL_Driver/Inc/stm32f1xx_ll_bus.h ****   *         AHBENR       SDIOEN        LL_AHB1_GRP1_IsEnabledClock\n
 308:Drivers/STM32F1xx_HAL_Driver/Inc/stm32f1xx_ll_bus.h ****   *         AHBENR       SRAMEN        LL_AHB1_GRP1_IsEnabledClock
 309:Drivers/STM32F1xx_HAL_Driver/Inc/stm32f1xx_ll_bus.h ****   * @param  Periphs This parameter can be a combination of the following values:
 310:Drivers/STM32F1xx_HAL_Driver/Inc/stm32f1xx_ll_bus.h ****   *         @arg @ref LL_AHB1_GRP1_PERIPH_CRC
 311:Drivers/STM32F1xx_HAL_Driver/Inc/stm32f1xx_ll_bus.h ****   *         @arg @ref LL_AHB1_GRP1_PERIPH_DMA1
 312:Drivers/STM32F1xx_HAL_Driver/Inc/stm32f1xx_ll_bus.h ****   *         @arg @ref LL_AHB1_GRP1_PERIPH_DMA2 (*)
 313:Drivers/STM32F1xx_HAL_Driver/Inc/stm32f1xx_ll_bus.h ****   *         @arg @ref LL_AHB1_GRP1_PERIPH_ETHMAC (*)
 314:Drivers/STM32F1xx_HAL_Driver/Inc/stm32f1xx_ll_bus.h ****   *         @arg @ref LL_AHB1_GRP1_PERIPH_ETHMACRX (*)
 315:Drivers/STM32F1xx_HAL_Driver/Inc/stm32f1xx_ll_bus.h ****   *         @arg @ref LL_AHB1_GRP1_PERIPH_ETHMACTX (*)
 316:Drivers/STM32F1xx_HAL_Driver/Inc/stm32f1xx_ll_bus.h ****   *         @arg @ref LL_AHB1_GRP1_PERIPH_FLASH
 317:Drivers/STM32F1xx_HAL_Driver/Inc/stm32f1xx_ll_bus.h ****   *         @arg @ref LL_AHB1_GRP1_PERIPH_FSMC (*)
 318:Drivers/STM32F1xx_HAL_Driver/Inc/stm32f1xx_ll_bus.h ****   *         @arg @ref LL_AHB1_GRP1_PERIPH_OTGFS (*)
 319:Drivers/STM32F1xx_HAL_Driver/Inc/stm32f1xx_ll_bus.h ****   *         @arg @ref LL_AHB1_GRP1_PERIPH_SDIO (*)
 320:Drivers/STM32F1xx_HAL_Driver/Inc/stm32f1xx_ll_bus.h ****   *         @arg @ref LL_AHB1_GRP1_PERIPH_SRAM
 321:Drivers/STM32F1xx_HAL_Driver/Inc/stm32f1xx_ll_bus.h ****   *
 322:Drivers/STM32F1xx_HAL_Driver/Inc/stm32f1xx_ll_bus.h ****   *         (*) value not defined in all devices.
 323:Drivers/STM32F1xx_HAL_Driver/Inc/stm32f1xx_ll_bus.h ****   * @retval State of Periphs (1 or 0).
 324:Drivers/STM32F1xx_HAL_Driver/Inc/stm32f1xx_ll_bus.h **** */
 325:Drivers/STM32F1xx_HAL_Driver/Inc/stm32f1xx_ll_bus.h **** __STATIC_INLINE uint32_t LL_AHB1_GRP1_IsEnabledClock(uint32_t Periphs)
 326:Drivers/STM32F1xx_HAL_Driver/Inc/stm32f1xx_ll_bus.h **** {
 327:Drivers/STM32F1xx_HAL_Driver/Inc/stm32f1xx_ll_bus.h ****   return (READ_BIT(RCC->AHBENR, Periphs) == Periphs);
 328:Drivers/STM32F1xx_HAL_Driver/Inc/stm32f1xx_ll_bus.h **** }
 329:Drivers/STM32F1xx_HAL_Driver/Inc/stm32f1xx_ll_bus.h **** 
 330:Drivers/STM32F1xx_HAL_Driver/Inc/stm32f1xx_ll_bus.h **** /**
 331:Drivers/STM32F1xx_HAL_Driver/Inc/stm32f1xx_ll_bus.h ****   * @brief  Disable AHB1 peripherals clock.
 332:Drivers/STM32F1xx_HAL_Driver/Inc/stm32f1xx_ll_bus.h ****   * @rmtoll AHBENR       CRCEN         LL_AHB1_GRP1_DisableClock\n
 333:Drivers/STM32F1xx_HAL_Driver/Inc/stm32f1xx_ll_bus.h ****   *         AHBENR       DMA1EN        LL_AHB1_GRP1_DisableClock\n
 334:Drivers/STM32F1xx_HAL_Driver/Inc/stm32f1xx_ll_bus.h ****   *         AHBENR       DMA2EN        LL_AHB1_GRP1_DisableClock\n
 335:Drivers/STM32F1xx_HAL_Driver/Inc/stm32f1xx_ll_bus.h ****   *         AHBENR       ETHMACEN      LL_AHB1_GRP1_DisableClock\n
 336:Drivers/STM32F1xx_HAL_Driver/Inc/stm32f1xx_ll_bus.h ****   *         AHBENR       ETHMACRXEN    LL_AHB1_GRP1_DisableClock\n
 337:Drivers/STM32F1xx_HAL_Driver/Inc/stm32f1xx_ll_bus.h ****   *         AHBENR       ETHMACTXEN    LL_AHB1_GRP1_DisableClock\n
 338:Drivers/STM32F1xx_HAL_Driver/Inc/stm32f1xx_ll_bus.h ****   *         AHBENR       FLITFEN       LL_AHB1_GRP1_DisableClock\n
 339:Drivers/STM32F1xx_HAL_Driver/Inc/stm32f1xx_ll_bus.h ****   *         AHBENR       FSMCEN        LL_AHB1_GRP1_DisableClock\n
 340:Drivers/STM32F1xx_HAL_Driver/Inc/stm32f1xx_ll_bus.h ****   *         AHBENR       OTGFSEN       LL_AHB1_GRP1_DisableClock\n
ARM GAS  /tmp/ccg5Oeuq.s 			page 20


 341:Drivers/STM32F1xx_HAL_Driver/Inc/stm32f1xx_ll_bus.h ****   *         AHBENR       SDIOEN        LL_AHB1_GRP1_DisableClock\n
 342:Drivers/STM32F1xx_HAL_Driver/Inc/stm32f1xx_ll_bus.h ****   *         AHBENR       SRAMEN        LL_AHB1_GRP1_DisableClock
 343:Drivers/STM32F1xx_HAL_Driver/Inc/stm32f1xx_ll_bus.h ****   * @param  Periphs This parameter can be a combination of the following values:
 344:Drivers/STM32F1xx_HAL_Driver/Inc/stm32f1xx_ll_bus.h ****   *         @arg @ref LL_AHB1_GRP1_PERIPH_CRC
 345:Drivers/STM32F1xx_HAL_Driver/Inc/stm32f1xx_ll_bus.h ****   *         @arg @ref LL_AHB1_GRP1_PERIPH_DMA1
 346:Drivers/STM32F1xx_HAL_Driver/Inc/stm32f1xx_ll_bus.h ****   *         @arg @ref LL_AHB1_GRP1_PERIPH_DMA2 (*)
 347:Drivers/STM32F1xx_HAL_Driver/Inc/stm32f1xx_ll_bus.h ****   *         @arg @ref LL_AHB1_GRP1_PERIPH_ETHMAC (*)
 348:Drivers/STM32F1xx_HAL_Driver/Inc/stm32f1xx_ll_bus.h ****   *         @arg @ref LL_AHB1_GRP1_PERIPH_ETHMACRX (*)
 349:Drivers/STM32F1xx_HAL_Driver/Inc/stm32f1xx_ll_bus.h ****   *         @arg @ref LL_AHB1_GRP1_PERIPH_ETHMACTX (*)
 350:Drivers/STM32F1xx_HAL_Driver/Inc/stm32f1xx_ll_bus.h ****   *         @arg @ref LL_AHB1_GRP1_PERIPH_FLASH
 351:Drivers/STM32F1xx_HAL_Driver/Inc/stm32f1xx_ll_bus.h ****   *         @arg @ref LL_AHB1_GRP1_PERIPH_FSMC (*)
 352:Drivers/STM32F1xx_HAL_Driver/Inc/stm32f1xx_ll_bus.h ****   *         @arg @ref LL_AHB1_GRP1_PERIPH_OTGFS (*)
 353:Drivers/STM32F1xx_HAL_Driver/Inc/stm32f1xx_ll_bus.h ****   *         @arg @ref LL_AHB1_GRP1_PERIPH_SDIO (*)
 354:Drivers/STM32F1xx_HAL_Driver/Inc/stm32f1xx_ll_bus.h ****   *         @arg @ref LL_AHB1_GRP1_PERIPH_SRAM
 355:Drivers/STM32F1xx_HAL_Driver/Inc/stm32f1xx_ll_bus.h ****   *
 356:Drivers/STM32F1xx_HAL_Driver/Inc/stm32f1xx_ll_bus.h ****   *         (*) value not defined in all devices.
 357:Drivers/STM32F1xx_HAL_Driver/Inc/stm32f1xx_ll_bus.h ****   * @retval None
 358:Drivers/STM32F1xx_HAL_Driver/Inc/stm32f1xx_ll_bus.h **** */
 359:Drivers/STM32F1xx_HAL_Driver/Inc/stm32f1xx_ll_bus.h **** __STATIC_INLINE void LL_AHB1_GRP1_DisableClock(uint32_t Periphs)
 360:Drivers/STM32F1xx_HAL_Driver/Inc/stm32f1xx_ll_bus.h **** {
 361:Drivers/STM32F1xx_HAL_Driver/Inc/stm32f1xx_ll_bus.h ****   CLEAR_BIT(RCC->AHBENR, Periphs);
 362:Drivers/STM32F1xx_HAL_Driver/Inc/stm32f1xx_ll_bus.h **** }
 363:Drivers/STM32F1xx_HAL_Driver/Inc/stm32f1xx_ll_bus.h **** 
 364:Drivers/STM32F1xx_HAL_Driver/Inc/stm32f1xx_ll_bus.h **** #if defined(RCC_AHBRSTR_SUPPORT)
 365:Drivers/STM32F1xx_HAL_Driver/Inc/stm32f1xx_ll_bus.h **** /**
 366:Drivers/STM32F1xx_HAL_Driver/Inc/stm32f1xx_ll_bus.h ****   * @brief  Force AHB1 peripherals reset.
 367:Drivers/STM32F1xx_HAL_Driver/Inc/stm32f1xx_ll_bus.h ****   * @rmtoll AHBRSTR      ETHMACRST     LL_AHB1_GRP1_ForceReset\n
 368:Drivers/STM32F1xx_HAL_Driver/Inc/stm32f1xx_ll_bus.h ****   *         AHBRSTR      OTGFSRST      LL_AHB1_GRP1_ForceReset
 369:Drivers/STM32F1xx_HAL_Driver/Inc/stm32f1xx_ll_bus.h ****   * @param  Periphs This parameter can be a combination of the following values:
 370:Drivers/STM32F1xx_HAL_Driver/Inc/stm32f1xx_ll_bus.h ****   *         @arg @ref LL_AHB1_GRP1_PERIPH_ALL
 371:Drivers/STM32F1xx_HAL_Driver/Inc/stm32f1xx_ll_bus.h ****   *         @arg @ref LL_AHB1_GRP1_PERIPH_ETHMAC (*)
 372:Drivers/STM32F1xx_HAL_Driver/Inc/stm32f1xx_ll_bus.h ****   *         @arg @ref LL_AHB1_GRP1_PERIPH_OTGFS (*)
 373:Drivers/STM32F1xx_HAL_Driver/Inc/stm32f1xx_ll_bus.h ****   *
 374:Drivers/STM32F1xx_HAL_Driver/Inc/stm32f1xx_ll_bus.h ****   *         (*) value not defined in all devices.
 375:Drivers/STM32F1xx_HAL_Driver/Inc/stm32f1xx_ll_bus.h ****   * @retval None
 376:Drivers/STM32F1xx_HAL_Driver/Inc/stm32f1xx_ll_bus.h **** */
 377:Drivers/STM32F1xx_HAL_Driver/Inc/stm32f1xx_ll_bus.h **** __STATIC_INLINE void LL_AHB1_GRP1_ForceReset(uint32_t Periphs)
 378:Drivers/STM32F1xx_HAL_Driver/Inc/stm32f1xx_ll_bus.h **** {
 379:Drivers/STM32F1xx_HAL_Driver/Inc/stm32f1xx_ll_bus.h ****   SET_BIT(RCC->AHBRSTR, Periphs);
 380:Drivers/STM32F1xx_HAL_Driver/Inc/stm32f1xx_ll_bus.h **** }
 381:Drivers/STM32F1xx_HAL_Driver/Inc/stm32f1xx_ll_bus.h **** 
 382:Drivers/STM32F1xx_HAL_Driver/Inc/stm32f1xx_ll_bus.h **** /**
 383:Drivers/STM32F1xx_HAL_Driver/Inc/stm32f1xx_ll_bus.h ****   * @brief  Release AHB1 peripherals reset.
 384:Drivers/STM32F1xx_HAL_Driver/Inc/stm32f1xx_ll_bus.h ****   * @rmtoll AHBRSTR      ETHMACRST     LL_AHB1_GRP1_ReleaseReset\n
 385:Drivers/STM32F1xx_HAL_Driver/Inc/stm32f1xx_ll_bus.h ****   *         AHBRSTR      OTGFSRST      LL_AHB1_GRP1_ReleaseReset
 386:Drivers/STM32F1xx_HAL_Driver/Inc/stm32f1xx_ll_bus.h ****   * @param  Periphs This parameter can be a combination of the following values:
 387:Drivers/STM32F1xx_HAL_Driver/Inc/stm32f1xx_ll_bus.h ****   *         @arg @ref LL_AHB1_GRP1_PERIPH_ALL
 388:Drivers/STM32F1xx_HAL_Driver/Inc/stm32f1xx_ll_bus.h ****   *         @arg @ref LL_AHB1_GRP1_PERIPH_ETHMAC (*)
 389:Drivers/STM32F1xx_HAL_Driver/Inc/stm32f1xx_ll_bus.h ****   *         @arg @ref LL_AHB1_GRP1_PERIPH_OTGFS (*)
 390:Drivers/STM32F1xx_HAL_Driver/Inc/stm32f1xx_ll_bus.h ****   *
 391:Drivers/STM32F1xx_HAL_Driver/Inc/stm32f1xx_ll_bus.h ****   *         (*) value not defined in all devices.
 392:Drivers/STM32F1xx_HAL_Driver/Inc/stm32f1xx_ll_bus.h ****   * @retval None
 393:Drivers/STM32F1xx_HAL_Driver/Inc/stm32f1xx_ll_bus.h **** */
 394:Drivers/STM32F1xx_HAL_Driver/Inc/stm32f1xx_ll_bus.h **** __STATIC_INLINE void LL_AHB1_GRP1_ReleaseReset(uint32_t Periphs)
 395:Drivers/STM32F1xx_HAL_Driver/Inc/stm32f1xx_ll_bus.h **** {
 396:Drivers/STM32F1xx_HAL_Driver/Inc/stm32f1xx_ll_bus.h ****   CLEAR_BIT(RCC->AHBRSTR, Periphs);
 397:Drivers/STM32F1xx_HAL_Driver/Inc/stm32f1xx_ll_bus.h **** }
ARM GAS  /tmp/ccg5Oeuq.s 			page 21


 398:Drivers/STM32F1xx_HAL_Driver/Inc/stm32f1xx_ll_bus.h **** #endif /* RCC_AHBRSTR_SUPPORT */
 399:Drivers/STM32F1xx_HAL_Driver/Inc/stm32f1xx_ll_bus.h **** 
 400:Drivers/STM32F1xx_HAL_Driver/Inc/stm32f1xx_ll_bus.h **** /**
 401:Drivers/STM32F1xx_HAL_Driver/Inc/stm32f1xx_ll_bus.h ****   * @}
 402:Drivers/STM32F1xx_HAL_Driver/Inc/stm32f1xx_ll_bus.h ****   */
 403:Drivers/STM32F1xx_HAL_Driver/Inc/stm32f1xx_ll_bus.h **** 
 404:Drivers/STM32F1xx_HAL_Driver/Inc/stm32f1xx_ll_bus.h **** /** @defgroup BUS_LL_EF_APB1 APB1
 405:Drivers/STM32F1xx_HAL_Driver/Inc/stm32f1xx_ll_bus.h ****   * @{
 406:Drivers/STM32F1xx_HAL_Driver/Inc/stm32f1xx_ll_bus.h ****   */
 407:Drivers/STM32F1xx_HAL_Driver/Inc/stm32f1xx_ll_bus.h **** 
 408:Drivers/STM32F1xx_HAL_Driver/Inc/stm32f1xx_ll_bus.h **** /**
 409:Drivers/STM32F1xx_HAL_Driver/Inc/stm32f1xx_ll_bus.h ****   * @brief  Enable APB1 peripherals clock.
 410:Drivers/STM32F1xx_HAL_Driver/Inc/stm32f1xx_ll_bus.h ****   * @rmtoll APB1ENR      BKPEN         LL_APB1_GRP1_EnableClock\n
 411:Drivers/STM32F1xx_HAL_Driver/Inc/stm32f1xx_ll_bus.h ****   *         APB1ENR      CAN1EN        LL_APB1_GRP1_EnableClock\n
 412:Drivers/STM32F1xx_HAL_Driver/Inc/stm32f1xx_ll_bus.h ****   *         APB1ENR      CAN2EN        LL_APB1_GRP1_EnableClock\n
 413:Drivers/STM32F1xx_HAL_Driver/Inc/stm32f1xx_ll_bus.h ****   *         APB1ENR      CECEN         LL_APB1_GRP1_EnableClock\n
 414:Drivers/STM32F1xx_HAL_Driver/Inc/stm32f1xx_ll_bus.h ****   *         APB1ENR      DACEN         LL_APB1_GRP1_EnableClock\n
 415:Drivers/STM32F1xx_HAL_Driver/Inc/stm32f1xx_ll_bus.h ****   *         APB1ENR      I2C1EN        LL_APB1_GRP1_EnableClock\n
 416:Drivers/STM32F1xx_HAL_Driver/Inc/stm32f1xx_ll_bus.h ****   *         APB1ENR      I2C2EN        LL_APB1_GRP1_EnableClock\n
 417:Drivers/STM32F1xx_HAL_Driver/Inc/stm32f1xx_ll_bus.h ****   *         APB1ENR      PWREN         LL_APB1_GRP1_EnableClock\n
 418:Drivers/STM32F1xx_HAL_Driver/Inc/stm32f1xx_ll_bus.h ****   *         APB1ENR      SPI2EN        LL_APB1_GRP1_EnableClock\n
 419:Drivers/STM32F1xx_HAL_Driver/Inc/stm32f1xx_ll_bus.h ****   *         APB1ENR      SPI3EN        LL_APB1_GRP1_EnableClock\n
 420:Drivers/STM32F1xx_HAL_Driver/Inc/stm32f1xx_ll_bus.h ****   *         APB1ENR      TIM12EN       LL_APB1_GRP1_EnableClock\n
 421:Drivers/STM32F1xx_HAL_Driver/Inc/stm32f1xx_ll_bus.h ****   *         APB1ENR      TIM13EN       LL_APB1_GRP1_EnableClock\n
 422:Drivers/STM32F1xx_HAL_Driver/Inc/stm32f1xx_ll_bus.h ****   *         APB1ENR      TIM14EN       LL_APB1_GRP1_EnableClock\n
 423:Drivers/STM32F1xx_HAL_Driver/Inc/stm32f1xx_ll_bus.h ****   *         APB1ENR      TIM2EN        LL_APB1_GRP1_EnableClock\n
 424:Drivers/STM32F1xx_HAL_Driver/Inc/stm32f1xx_ll_bus.h ****   *         APB1ENR      TIM3EN        LL_APB1_GRP1_EnableClock\n
 425:Drivers/STM32F1xx_HAL_Driver/Inc/stm32f1xx_ll_bus.h ****   *         APB1ENR      TIM4EN        LL_APB1_GRP1_EnableClock\n
 426:Drivers/STM32F1xx_HAL_Driver/Inc/stm32f1xx_ll_bus.h ****   *         APB1ENR      TIM5EN        LL_APB1_GRP1_EnableClock\n
 427:Drivers/STM32F1xx_HAL_Driver/Inc/stm32f1xx_ll_bus.h ****   *         APB1ENR      TIM6EN        LL_APB1_GRP1_EnableClock\n
 428:Drivers/STM32F1xx_HAL_Driver/Inc/stm32f1xx_ll_bus.h ****   *         APB1ENR      TIM7EN        LL_APB1_GRP1_EnableClock\n
 429:Drivers/STM32F1xx_HAL_Driver/Inc/stm32f1xx_ll_bus.h ****   *         APB1ENR      UART4EN       LL_APB1_GRP1_EnableClock\n
 430:Drivers/STM32F1xx_HAL_Driver/Inc/stm32f1xx_ll_bus.h ****   *         APB1ENR      UART5EN       LL_APB1_GRP1_EnableClock\n
 431:Drivers/STM32F1xx_HAL_Driver/Inc/stm32f1xx_ll_bus.h ****   *         APB1ENR      USART2EN      LL_APB1_GRP1_EnableClock\n
 432:Drivers/STM32F1xx_HAL_Driver/Inc/stm32f1xx_ll_bus.h ****   *         APB1ENR      USART3EN      LL_APB1_GRP1_EnableClock\n
 433:Drivers/STM32F1xx_HAL_Driver/Inc/stm32f1xx_ll_bus.h ****   *         APB1ENR      USBEN         LL_APB1_GRP1_EnableClock\n
 434:Drivers/STM32F1xx_HAL_Driver/Inc/stm32f1xx_ll_bus.h ****   *         APB1ENR      WWDGEN        LL_APB1_GRP1_EnableClock
 435:Drivers/STM32F1xx_HAL_Driver/Inc/stm32f1xx_ll_bus.h ****   * @param  Periphs This parameter can be a combination of the following values:
 436:Drivers/STM32F1xx_HAL_Driver/Inc/stm32f1xx_ll_bus.h ****   *         @arg @ref LL_APB1_GRP1_PERIPH_BKP
 437:Drivers/STM32F1xx_HAL_Driver/Inc/stm32f1xx_ll_bus.h ****   *         @arg @ref LL_APB1_GRP1_PERIPH_CAN1 (*)
 438:Drivers/STM32F1xx_HAL_Driver/Inc/stm32f1xx_ll_bus.h ****   *         @arg @ref LL_APB1_GRP1_PERIPH_CAN2 (*)
 439:Drivers/STM32F1xx_HAL_Driver/Inc/stm32f1xx_ll_bus.h ****   *         @arg @ref LL_APB1_GRP1_PERIPH_CEC (*)
 440:Drivers/STM32F1xx_HAL_Driver/Inc/stm32f1xx_ll_bus.h ****   *         @arg @ref LL_APB1_GRP1_PERIPH_DAC1 (*)
 441:Drivers/STM32F1xx_HAL_Driver/Inc/stm32f1xx_ll_bus.h ****   *         @arg @ref LL_APB1_GRP1_PERIPH_I2C1
 442:Drivers/STM32F1xx_HAL_Driver/Inc/stm32f1xx_ll_bus.h ****   *         @arg @ref LL_APB1_GRP1_PERIPH_I2C2 (*)
 443:Drivers/STM32F1xx_HAL_Driver/Inc/stm32f1xx_ll_bus.h ****   *         @arg @ref LL_APB1_GRP1_PERIPH_PWR
 444:Drivers/STM32F1xx_HAL_Driver/Inc/stm32f1xx_ll_bus.h ****   *         @arg @ref LL_APB1_GRP1_PERIPH_SPI2 (*)
 445:Drivers/STM32F1xx_HAL_Driver/Inc/stm32f1xx_ll_bus.h ****   *         @arg @ref LL_APB1_GRP1_PERIPH_SPI3 (*)
 446:Drivers/STM32F1xx_HAL_Driver/Inc/stm32f1xx_ll_bus.h ****   *         @arg @ref LL_APB1_GRP1_PERIPH_TIM12 (*)
 447:Drivers/STM32F1xx_HAL_Driver/Inc/stm32f1xx_ll_bus.h ****   *         @arg @ref LL_APB1_GRP1_PERIPH_TIM13 (*)
 448:Drivers/STM32F1xx_HAL_Driver/Inc/stm32f1xx_ll_bus.h ****   *         @arg @ref LL_APB1_GRP1_PERIPH_TIM14 (*)
 449:Drivers/STM32F1xx_HAL_Driver/Inc/stm32f1xx_ll_bus.h ****   *         @arg @ref LL_APB1_GRP1_PERIPH_TIM2
 450:Drivers/STM32F1xx_HAL_Driver/Inc/stm32f1xx_ll_bus.h ****   *         @arg @ref LL_APB1_GRP1_PERIPH_TIM3
 451:Drivers/STM32F1xx_HAL_Driver/Inc/stm32f1xx_ll_bus.h ****   *         @arg @ref LL_APB1_GRP1_PERIPH_TIM4 (*)
 452:Drivers/STM32F1xx_HAL_Driver/Inc/stm32f1xx_ll_bus.h ****   *         @arg @ref LL_APB1_GRP1_PERIPH_TIM5 (*)
 453:Drivers/STM32F1xx_HAL_Driver/Inc/stm32f1xx_ll_bus.h ****   *         @arg @ref LL_APB1_GRP1_PERIPH_TIM6 (*)
 454:Drivers/STM32F1xx_HAL_Driver/Inc/stm32f1xx_ll_bus.h ****   *         @arg @ref LL_APB1_GRP1_PERIPH_TIM7 (*)
ARM GAS  /tmp/ccg5Oeuq.s 			page 22


 455:Drivers/STM32F1xx_HAL_Driver/Inc/stm32f1xx_ll_bus.h ****   *         @arg @ref LL_APB1_GRP1_PERIPH_UART4 (*)
 456:Drivers/STM32F1xx_HAL_Driver/Inc/stm32f1xx_ll_bus.h ****   *         @arg @ref LL_APB1_GRP1_PERIPH_UART5 (*)
 457:Drivers/STM32F1xx_HAL_Driver/Inc/stm32f1xx_ll_bus.h ****   *         @arg @ref LL_APB1_GRP1_PERIPH_USART2
 458:Drivers/STM32F1xx_HAL_Driver/Inc/stm32f1xx_ll_bus.h ****   *         @arg @ref LL_APB1_GRP1_PERIPH_USART3 (*)
 459:Drivers/STM32F1xx_HAL_Driver/Inc/stm32f1xx_ll_bus.h ****   *         @arg @ref LL_APB1_GRP1_PERIPH_USB (*)
 460:Drivers/STM32F1xx_HAL_Driver/Inc/stm32f1xx_ll_bus.h ****   *         @arg @ref LL_APB1_GRP1_PERIPH_WWDG
 461:Drivers/STM32F1xx_HAL_Driver/Inc/stm32f1xx_ll_bus.h ****   *
 462:Drivers/STM32F1xx_HAL_Driver/Inc/stm32f1xx_ll_bus.h ****   *         (*) value not defined in all devices.
 463:Drivers/STM32F1xx_HAL_Driver/Inc/stm32f1xx_ll_bus.h ****   * @retval None
 464:Drivers/STM32F1xx_HAL_Driver/Inc/stm32f1xx_ll_bus.h **** */
 465:Drivers/STM32F1xx_HAL_Driver/Inc/stm32f1xx_ll_bus.h **** __STATIC_INLINE void LL_APB1_GRP1_EnableClock(uint32_t Periphs)
 466:Drivers/STM32F1xx_HAL_Driver/Inc/stm32f1xx_ll_bus.h **** {
 467:Drivers/STM32F1xx_HAL_Driver/Inc/stm32f1xx_ll_bus.h ****   __IO uint32_t tmpreg;
 468:Drivers/STM32F1xx_HAL_Driver/Inc/stm32f1xx_ll_bus.h ****   SET_BIT(RCC->APB1ENR, Periphs);
 469:Drivers/STM32F1xx_HAL_Driver/Inc/stm32f1xx_ll_bus.h ****   /* Delay after an RCC peripheral clock enabling */
 470:Drivers/STM32F1xx_HAL_Driver/Inc/stm32f1xx_ll_bus.h ****   tmpreg = READ_BIT(RCC->APB1ENR, Periphs);
 471:Drivers/STM32F1xx_HAL_Driver/Inc/stm32f1xx_ll_bus.h ****   (void)tmpreg;
 472:Drivers/STM32F1xx_HAL_Driver/Inc/stm32f1xx_ll_bus.h **** }
 473:Drivers/STM32F1xx_HAL_Driver/Inc/stm32f1xx_ll_bus.h **** 
 474:Drivers/STM32F1xx_HAL_Driver/Inc/stm32f1xx_ll_bus.h **** /**
 475:Drivers/STM32F1xx_HAL_Driver/Inc/stm32f1xx_ll_bus.h ****   * @brief  Check if APB1 peripheral clock is enabled or not
 476:Drivers/STM32F1xx_HAL_Driver/Inc/stm32f1xx_ll_bus.h ****   * @rmtoll APB1ENR      BKPEN         LL_APB1_GRP1_IsEnabledClock\n
 477:Drivers/STM32F1xx_HAL_Driver/Inc/stm32f1xx_ll_bus.h ****   *         APB1ENR      CAN1EN        LL_APB1_GRP1_IsEnabledClock\n
 478:Drivers/STM32F1xx_HAL_Driver/Inc/stm32f1xx_ll_bus.h ****   *         APB1ENR      CAN2EN        LL_APB1_GRP1_IsEnabledClock\n
 479:Drivers/STM32F1xx_HAL_Driver/Inc/stm32f1xx_ll_bus.h ****   *         APB1ENR      CECEN         LL_APB1_GRP1_IsEnabledClock\n
 480:Drivers/STM32F1xx_HAL_Driver/Inc/stm32f1xx_ll_bus.h ****   *         APB1ENR      DACEN         LL_APB1_GRP1_IsEnabledClock\n
 481:Drivers/STM32F1xx_HAL_Driver/Inc/stm32f1xx_ll_bus.h ****   *         APB1ENR      I2C1EN        LL_APB1_GRP1_IsEnabledClock\n
 482:Drivers/STM32F1xx_HAL_Driver/Inc/stm32f1xx_ll_bus.h ****   *         APB1ENR      I2C2EN        LL_APB1_GRP1_IsEnabledClock\n
 483:Drivers/STM32F1xx_HAL_Driver/Inc/stm32f1xx_ll_bus.h ****   *         APB1ENR      PWREN         LL_APB1_GRP1_IsEnabledClock\n
 484:Drivers/STM32F1xx_HAL_Driver/Inc/stm32f1xx_ll_bus.h ****   *         APB1ENR      SPI2EN        LL_APB1_GRP1_IsEnabledClock\n
 485:Drivers/STM32F1xx_HAL_Driver/Inc/stm32f1xx_ll_bus.h ****   *         APB1ENR      SPI3EN        LL_APB1_GRP1_IsEnabledClock\n
 486:Drivers/STM32F1xx_HAL_Driver/Inc/stm32f1xx_ll_bus.h ****   *         APB1ENR      TIM12EN       LL_APB1_GRP1_IsEnabledClock\n
 487:Drivers/STM32F1xx_HAL_Driver/Inc/stm32f1xx_ll_bus.h ****   *         APB1ENR      TIM13EN       LL_APB1_GRP1_IsEnabledClock\n
 488:Drivers/STM32F1xx_HAL_Driver/Inc/stm32f1xx_ll_bus.h ****   *         APB1ENR      TIM14EN       LL_APB1_GRP1_IsEnabledClock\n
 489:Drivers/STM32F1xx_HAL_Driver/Inc/stm32f1xx_ll_bus.h ****   *         APB1ENR      TIM2EN        LL_APB1_GRP1_IsEnabledClock\n
 490:Drivers/STM32F1xx_HAL_Driver/Inc/stm32f1xx_ll_bus.h ****   *         APB1ENR      TIM3EN        LL_APB1_GRP1_IsEnabledClock\n
 491:Drivers/STM32F1xx_HAL_Driver/Inc/stm32f1xx_ll_bus.h ****   *         APB1ENR      TIM4EN        LL_APB1_GRP1_IsEnabledClock\n
 492:Drivers/STM32F1xx_HAL_Driver/Inc/stm32f1xx_ll_bus.h ****   *         APB1ENR      TIM5EN        LL_APB1_GRP1_IsEnabledClock\n
 493:Drivers/STM32F1xx_HAL_Driver/Inc/stm32f1xx_ll_bus.h ****   *         APB1ENR      TIM6EN        LL_APB1_GRP1_IsEnabledClock\n
 494:Drivers/STM32F1xx_HAL_Driver/Inc/stm32f1xx_ll_bus.h ****   *         APB1ENR      TIM7EN        LL_APB1_GRP1_IsEnabledClock\n
 495:Drivers/STM32F1xx_HAL_Driver/Inc/stm32f1xx_ll_bus.h ****   *         APB1ENR      UART4EN       LL_APB1_GRP1_IsEnabledClock\n
 496:Drivers/STM32F1xx_HAL_Driver/Inc/stm32f1xx_ll_bus.h ****   *         APB1ENR      UART5EN       LL_APB1_GRP1_IsEnabledClock\n
 497:Drivers/STM32F1xx_HAL_Driver/Inc/stm32f1xx_ll_bus.h ****   *         APB1ENR      USART2EN      LL_APB1_GRP1_IsEnabledClock\n
 498:Drivers/STM32F1xx_HAL_Driver/Inc/stm32f1xx_ll_bus.h ****   *         APB1ENR      USART3EN      LL_APB1_GRP1_IsEnabledClock\n
 499:Drivers/STM32F1xx_HAL_Driver/Inc/stm32f1xx_ll_bus.h ****   *         APB1ENR      USBEN         LL_APB1_GRP1_IsEnabledClock\n
 500:Drivers/STM32F1xx_HAL_Driver/Inc/stm32f1xx_ll_bus.h ****   *         APB1ENR      WWDGEN        LL_APB1_GRP1_IsEnabledClock
 501:Drivers/STM32F1xx_HAL_Driver/Inc/stm32f1xx_ll_bus.h ****   * @param  Periphs This parameter can be a combination of the following values:
 502:Drivers/STM32F1xx_HAL_Driver/Inc/stm32f1xx_ll_bus.h ****   *         @arg @ref LL_APB1_GRP1_PERIPH_BKP
 503:Drivers/STM32F1xx_HAL_Driver/Inc/stm32f1xx_ll_bus.h ****   *         @arg @ref LL_APB1_GRP1_PERIPH_CAN1 (*)
 504:Drivers/STM32F1xx_HAL_Driver/Inc/stm32f1xx_ll_bus.h ****   *         @arg @ref LL_APB1_GRP1_PERIPH_CAN2 (*)
 505:Drivers/STM32F1xx_HAL_Driver/Inc/stm32f1xx_ll_bus.h ****   *         @arg @ref LL_APB1_GRP1_PERIPH_CEC (*)
 506:Drivers/STM32F1xx_HAL_Driver/Inc/stm32f1xx_ll_bus.h ****   *         @arg @ref LL_APB1_GRP1_PERIPH_DAC1 (*)
 507:Drivers/STM32F1xx_HAL_Driver/Inc/stm32f1xx_ll_bus.h ****   *         @arg @ref LL_APB1_GRP1_PERIPH_I2C1
 508:Drivers/STM32F1xx_HAL_Driver/Inc/stm32f1xx_ll_bus.h ****   *         @arg @ref LL_APB1_GRP1_PERIPH_I2C2 (*)
 509:Drivers/STM32F1xx_HAL_Driver/Inc/stm32f1xx_ll_bus.h ****   *         @arg @ref LL_APB1_GRP1_PERIPH_PWR
 510:Drivers/STM32F1xx_HAL_Driver/Inc/stm32f1xx_ll_bus.h ****   *         @arg @ref LL_APB1_GRP1_PERIPH_SPI2 (*)
 511:Drivers/STM32F1xx_HAL_Driver/Inc/stm32f1xx_ll_bus.h ****   *         @arg @ref LL_APB1_GRP1_PERIPH_SPI3 (*)
ARM GAS  /tmp/ccg5Oeuq.s 			page 23


 512:Drivers/STM32F1xx_HAL_Driver/Inc/stm32f1xx_ll_bus.h ****   *         @arg @ref LL_APB1_GRP1_PERIPH_TIM12 (*)
 513:Drivers/STM32F1xx_HAL_Driver/Inc/stm32f1xx_ll_bus.h ****   *         @arg @ref LL_APB1_GRP1_PERIPH_TIM13 (*)
 514:Drivers/STM32F1xx_HAL_Driver/Inc/stm32f1xx_ll_bus.h ****   *         @arg @ref LL_APB1_GRP1_PERIPH_TIM14 (*)
 515:Drivers/STM32F1xx_HAL_Driver/Inc/stm32f1xx_ll_bus.h ****   *         @arg @ref LL_APB1_GRP1_PERIPH_TIM2
 516:Drivers/STM32F1xx_HAL_Driver/Inc/stm32f1xx_ll_bus.h ****   *         @arg @ref LL_APB1_GRP1_PERIPH_TIM3
 517:Drivers/STM32F1xx_HAL_Driver/Inc/stm32f1xx_ll_bus.h ****   *         @arg @ref LL_APB1_GRP1_PERIPH_TIM4 (*)
 518:Drivers/STM32F1xx_HAL_Driver/Inc/stm32f1xx_ll_bus.h ****   *         @arg @ref LL_APB1_GRP1_PERIPH_TIM5 (*)
 519:Drivers/STM32F1xx_HAL_Driver/Inc/stm32f1xx_ll_bus.h ****   *         @arg @ref LL_APB1_GRP1_PERIPH_TIM6 (*)
 520:Drivers/STM32F1xx_HAL_Driver/Inc/stm32f1xx_ll_bus.h ****   *         @arg @ref LL_APB1_GRP1_PERIPH_TIM7 (*)
 521:Drivers/STM32F1xx_HAL_Driver/Inc/stm32f1xx_ll_bus.h ****   *         @arg @ref LL_APB1_GRP1_PERIPH_UART4 (*)
 522:Drivers/STM32F1xx_HAL_Driver/Inc/stm32f1xx_ll_bus.h ****   *         @arg @ref LL_APB1_GRP1_PERIPH_UART5 (*)
 523:Drivers/STM32F1xx_HAL_Driver/Inc/stm32f1xx_ll_bus.h ****   *         @arg @ref LL_APB1_GRP1_PERIPH_USART2
 524:Drivers/STM32F1xx_HAL_Driver/Inc/stm32f1xx_ll_bus.h ****   *         @arg @ref LL_APB1_GRP1_PERIPH_USART3 (*)
 525:Drivers/STM32F1xx_HAL_Driver/Inc/stm32f1xx_ll_bus.h ****   *         @arg @ref LL_APB1_GRP1_PERIPH_USB (*)
 526:Drivers/STM32F1xx_HAL_Driver/Inc/stm32f1xx_ll_bus.h ****   *         @arg @ref LL_APB1_GRP1_PERIPH_WWDG
 527:Drivers/STM32F1xx_HAL_Driver/Inc/stm32f1xx_ll_bus.h ****   *
 528:Drivers/STM32F1xx_HAL_Driver/Inc/stm32f1xx_ll_bus.h ****   *         (*) value not defined in all devices.
 529:Drivers/STM32F1xx_HAL_Driver/Inc/stm32f1xx_ll_bus.h ****   * @retval State of Periphs (1 or 0).
 530:Drivers/STM32F1xx_HAL_Driver/Inc/stm32f1xx_ll_bus.h **** */
 531:Drivers/STM32F1xx_HAL_Driver/Inc/stm32f1xx_ll_bus.h **** __STATIC_INLINE uint32_t LL_APB1_GRP1_IsEnabledClock(uint32_t Periphs)
 532:Drivers/STM32F1xx_HAL_Driver/Inc/stm32f1xx_ll_bus.h **** {
 533:Drivers/STM32F1xx_HAL_Driver/Inc/stm32f1xx_ll_bus.h ****   return (READ_BIT(RCC->APB1ENR, Periphs) == Periphs);
 534:Drivers/STM32F1xx_HAL_Driver/Inc/stm32f1xx_ll_bus.h **** }
 535:Drivers/STM32F1xx_HAL_Driver/Inc/stm32f1xx_ll_bus.h **** 
 536:Drivers/STM32F1xx_HAL_Driver/Inc/stm32f1xx_ll_bus.h **** /**
 537:Drivers/STM32F1xx_HAL_Driver/Inc/stm32f1xx_ll_bus.h ****   * @brief  Disable APB1 peripherals clock.
 538:Drivers/STM32F1xx_HAL_Driver/Inc/stm32f1xx_ll_bus.h ****   * @rmtoll APB1ENR      BKPEN         LL_APB1_GRP1_DisableClock\n
 539:Drivers/STM32F1xx_HAL_Driver/Inc/stm32f1xx_ll_bus.h ****   *         APB1ENR      CAN1EN        LL_APB1_GRP1_DisableClock\n
 540:Drivers/STM32F1xx_HAL_Driver/Inc/stm32f1xx_ll_bus.h ****   *         APB1ENR      CAN2EN        LL_APB1_GRP1_DisableClock\n
 541:Drivers/STM32F1xx_HAL_Driver/Inc/stm32f1xx_ll_bus.h ****   *         APB1ENR      CECEN         LL_APB1_GRP1_DisableClock\n
 542:Drivers/STM32F1xx_HAL_Driver/Inc/stm32f1xx_ll_bus.h ****   *         APB1ENR      DACEN         LL_APB1_GRP1_DisableClock\n
 543:Drivers/STM32F1xx_HAL_Driver/Inc/stm32f1xx_ll_bus.h ****   *         APB1ENR      I2C1EN        LL_APB1_GRP1_DisableClock\n
 544:Drivers/STM32F1xx_HAL_Driver/Inc/stm32f1xx_ll_bus.h ****   *         APB1ENR      I2C2EN        LL_APB1_GRP1_DisableClock\n
 545:Drivers/STM32F1xx_HAL_Driver/Inc/stm32f1xx_ll_bus.h ****   *         APB1ENR      PWREN         LL_APB1_GRP1_DisableClock\n
 546:Drivers/STM32F1xx_HAL_Driver/Inc/stm32f1xx_ll_bus.h ****   *         APB1ENR      SPI2EN        LL_APB1_GRP1_DisableClock\n
 547:Drivers/STM32F1xx_HAL_Driver/Inc/stm32f1xx_ll_bus.h ****   *         APB1ENR      SPI3EN        LL_APB1_GRP1_DisableClock\n
 548:Drivers/STM32F1xx_HAL_Driver/Inc/stm32f1xx_ll_bus.h ****   *         APB1ENR      TIM12EN       LL_APB1_GRP1_DisableClock\n
 549:Drivers/STM32F1xx_HAL_Driver/Inc/stm32f1xx_ll_bus.h ****   *         APB1ENR      TIM13EN       LL_APB1_GRP1_DisableClock\n
 550:Drivers/STM32F1xx_HAL_Driver/Inc/stm32f1xx_ll_bus.h ****   *         APB1ENR      TIM14EN       LL_APB1_GRP1_DisableClock\n
 551:Drivers/STM32F1xx_HAL_Driver/Inc/stm32f1xx_ll_bus.h ****   *         APB1ENR      TIM2EN        LL_APB1_GRP1_DisableClock\n
 552:Drivers/STM32F1xx_HAL_Driver/Inc/stm32f1xx_ll_bus.h ****   *         APB1ENR      TIM3EN        LL_APB1_GRP1_DisableClock\n
 553:Drivers/STM32F1xx_HAL_Driver/Inc/stm32f1xx_ll_bus.h ****   *         APB1ENR      TIM4EN        LL_APB1_GRP1_DisableClock\n
 554:Drivers/STM32F1xx_HAL_Driver/Inc/stm32f1xx_ll_bus.h ****   *         APB1ENR      TIM5EN        LL_APB1_GRP1_DisableClock\n
 555:Drivers/STM32F1xx_HAL_Driver/Inc/stm32f1xx_ll_bus.h ****   *         APB1ENR      TIM6EN        LL_APB1_GRP1_DisableClock\n
 556:Drivers/STM32F1xx_HAL_Driver/Inc/stm32f1xx_ll_bus.h ****   *         APB1ENR      TIM7EN        LL_APB1_GRP1_DisableClock\n
 557:Drivers/STM32F1xx_HAL_Driver/Inc/stm32f1xx_ll_bus.h ****   *         APB1ENR      UART4EN       LL_APB1_GRP1_DisableClock\n
 558:Drivers/STM32F1xx_HAL_Driver/Inc/stm32f1xx_ll_bus.h ****   *         APB1ENR      UART5EN       LL_APB1_GRP1_DisableClock\n
 559:Drivers/STM32F1xx_HAL_Driver/Inc/stm32f1xx_ll_bus.h ****   *         APB1ENR      USART2EN      LL_APB1_GRP1_DisableClock\n
 560:Drivers/STM32F1xx_HAL_Driver/Inc/stm32f1xx_ll_bus.h ****   *         APB1ENR      USART3EN      LL_APB1_GRP1_DisableClock\n
 561:Drivers/STM32F1xx_HAL_Driver/Inc/stm32f1xx_ll_bus.h ****   *         APB1ENR      USBEN         LL_APB1_GRP1_DisableClock\n
 562:Drivers/STM32F1xx_HAL_Driver/Inc/stm32f1xx_ll_bus.h ****   *         APB1ENR      WWDGEN        LL_APB1_GRP1_DisableClock
 563:Drivers/STM32F1xx_HAL_Driver/Inc/stm32f1xx_ll_bus.h ****   * @param  Periphs This parameter can be a combination of the following values:
 564:Drivers/STM32F1xx_HAL_Driver/Inc/stm32f1xx_ll_bus.h ****   *         @arg @ref LL_APB1_GRP1_PERIPH_BKP
 565:Drivers/STM32F1xx_HAL_Driver/Inc/stm32f1xx_ll_bus.h ****   *         @arg @ref LL_APB1_GRP1_PERIPH_CAN1 (*)
 566:Drivers/STM32F1xx_HAL_Driver/Inc/stm32f1xx_ll_bus.h ****   *         @arg @ref LL_APB1_GRP1_PERIPH_CAN2 (*)
 567:Drivers/STM32F1xx_HAL_Driver/Inc/stm32f1xx_ll_bus.h ****   *         @arg @ref LL_APB1_GRP1_PERIPH_CEC (*)
 568:Drivers/STM32F1xx_HAL_Driver/Inc/stm32f1xx_ll_bus.h ****   *         @arg @ref LL_APB1_GRP1_PERIPH_DAC1 (*)
ARM GAS  /tmp/ccg5Oeuq.s 			page 24


 569:Drivers/STM32F1xx_HAL_Driver/Inc/stm32f1xx_ll_bus.h ****   *         @arg @ref LL_APB1_GRP1_PERIPH_I2C1
 570:Drivers/STM32F1xx_HAL_Driver/Inc/stm32f1xx_ll_bus.h ****   *         @arg @ref LL_APB1_GRP1_PERIPH_I2C2 (*)
 571:Drivers/STM32F1xx_HAL_Driver/Inc/stm32f1xx_ll_bus.h ****   *         @arg @ref LL_APB1_GRP1_PERIPH_PWR
 572:Drivers/STM32F1xx_HAL_Driver/Inc/stm32f1xx_ll_bus.h ****   *         @arg @ref LL_APB1_GRP1_PERIPH_SPI2 (*)
 573:Drivers/STM32F1xx_HAL_Driver/Inc/stm32f1xx_ll_bus.h ****   *         @arg @ref LL_APB1_GRP1_PERIPH_SPI3 (*)
 574:Drivers/STM32F1xx_HAL_Driver/Inc/stm32f1xx_ll_bus.h ****   *         @arg @ref LL_APB1_GRP1_PERIPH_TIM12 (*)
 575:Drivers/STM32F1xx_HAL_Driver/Inc/stm32f1xx_ll_bus.h ****   *         @arg @ref LL_APB1_GRP1_PERIPH_TIM13 (*)
 576:Drivers/STM32F1xx_HAL_Driver/Inc/stm32f1xx_ll_bus.h ****   *         @arg @ref LL_APB1_GRP1_PERIPH_TIM14 (*)
 577:Drivers/STM32F1xx_HAL_Driver/Inc/stm32f1xx_ll_bus.h ****   *         @arg @ref LL_APB1_GRP1_PERIPH_TIM2
 578:Drivers/STM32F1xx_HAL_Driver/Inc/stm32f1xx_ll_bus.h ****   *         @arg @ref LL_APB1_GRP1_PERIPH_TIM3
 579:Drivers/STM32F1xx_HAL_Driver/Inc/stm32f1xx_ll_bus.h ****   *         @arg @ref LL_APB1_GRP1_PERIPH_TIM4 (*)
 580:Drivers/STM32F1xx_HAL_Driver/Inc/stm32f1xx_ll_bus.h ****   *         @arg @ref LL_APB1_GRP1_PERIPH_TIM5 (*)
 581:Drivers/STM32F1xx_HAL_Driver/Inc/stm32f1xx_ll_bus.h ****   *         @arg @ref LL_APB1_GRP1_PERIPH_TIM6 (*)
 582:Drivers/STM32F1xx_HAL_Driver/Inc/stm32f1xx_ll_bus.h ****   *         @arg @ref LL_APB1_GRP1_PERIPH_TIM7 (*)
 583:Drivers/STM32F1xx_HAL_Driver/Inc/stm32f1xx_ll_bus.h ****   *         @arg @ref LL_APB1_GRP1_PERIPH_UART4 (*)
 584:Drivers/STM32F1xx_HAL_Driver/Inc/stm32f1xx_ll_bus.h ****   *         @arg @ref LL_APB1_GRP1_PERIPH_UART5 (*)
 585:Drivers/STM32F1xx_HAL_Driver/Inc/stm32f1xx_ll_bus.h ****   *         @arg @ref LL_APB1_GRP1_PERIPH_USART2
 586:Drivers/STM32F1xx_HAL_Driver/Inc/stm32f1xx_ll_bus.h ****   *         @arg @ref LL_APB1_GRP1_PERIPH_USART3 (*)
 587:Drivers/STM32F1xx_HAL_Driver/Inc/stm32f1xx_ll_bus.h ****   *         @arg @ref LL_APB1_GRP1_PERIPH_USB (*)
 588:Drivers/STM32F1xx_HAL_Driver/Inc/stm32f1xx_ll_bus.h ****   *         @arg @ref LL_APB1_GRP1_PERIPH_WWDG
 589:Drivers/STM32F1xx_HAL_Driver/Inc/stm32f1xx_ll_bus.h ****   *
 590:Drivers/STM32F1xx_HAL_Driver/Inc/stm32f1xx_ll_bus.h ****   *         (*) value not defined in all devices.
 591:Drivers/STM32F1xx_HAL_Driver/Inc/stm32f1xx_ll_bus.h ****   * @retval None
 592:Drivers/STM32F1xx_HAL_Driver/Inc/stm32f1xx_ll_bus.h **** */
 593:Drivers/STM32F1xx_HAL_Driver/Inc/stm32f1xx_ll_bus.h **** __STATIC_INLINE void LL_APB1_GRP1_DisableClock(uint32_t Periphs)
 594:Drivers/STM32F1xx_HAL_Driver/Inc/stm32f1xx_ll_bus.h **** {
 595:Drivers/STM32F1xx_HAL_Driver/Inc/stm32f1xx_ll_bus.h ****   CLEAR_BIT(RCC->APB1ENR, Periphs);
 596:Drivers/STM32F1xx_HAL_Driver/Inc/stm32f1xx_ll_bus.h **** }
 597:Drivers/STM32F1xx_HAL_Driver/Inc/stm32f1xx_ll_bus.h **** 
 598:Drivers/STM32F1xx_HAL_Driver/Inc/stm32f1xx_ll_bus.h **** /**
 599:Drivers/STM32F1xx_HAL_Driver/Inc/stm32f1xx_ll_bus.h ****   * @brief  Force APB1 peripherals reset.
 600:Drivers/STM32F1xx_HAL_Driver/Inc/stm32f1xx_ll_bus.h ****   * @rmtoll APB1RSTR     BKPRST        LL_APB1_GRP1_ForceReset\n
 601:Drivers/STM32F1xx_HAL_Driver/Inc/stm32f1xx_ll_bus.h ****   *         APB1RSTR     CAN1RST       LL_APB1_GRP1_ForceReset\n
 602:Drivers/STM32F1xx_HAL_Driver/Inc/stm32f1xx_ll_bus.h ****   *         APB1RSTR     CAN2RST       LL_APB1_GRP1_ForceReset\n
 603:Drivers/STM32F1xx_HAL_Driver/Inc/stm32f1xx_ll_bus.h ****   *         APB1RSTR     CECRST        LL_APB1_GRP1_ForceReset\n
 604:Drivers/STM32F1xx_HAL_Driver/Inc/stm32f1xx_ll_bus.h ****   *         APB1RSTR     DACRST        LL_APB1_GRP1_ForceReset\n
 605:Drivers/STM32F1xx_HAL_Driver/Inc/stm32f1xx_ll_bus.h ****   *         APB1RSTR     I2C1RST       LL_APB1_GRP1_ForceReset\n
 606:Drivers/STM32F1xx_HAL_Driver/Inc/stm32f1xx_ll_bus.h ****   *         APB1RSTR     I2C2RST       LL_APB1_GRP1_ForceReset\n
 607:Drivers/STM32F1xx_HAL_Driver/Inc/stm32f1xx_ll_bus.h ****   *         APB1RSTR     PWRRST        LL_APB1_GRP1_ForceReset\n
 608:Drivers/STM32F1xx_HAL_Driver/Inc/stm32f1xx_ll_bus.h ****   *         APB1RSTR     SPI2RST       LL_APB1_GRP1_ForceReset\n
 609:Drivers/STM32F1xx_HAL_Driver/Inc/stm32f1xx_ll_bus.h ****   *         APB1RSTR     SPI3RST       LL_APB1_GRP1_ForceReset\n
 610:Drivers/STM32F1xx_HAL_Driver/Inc/stm32f1xx_ll_bus.h ****   *         APB1RSTR     TIM12RST      LL_APB1_GRP1_ForceReset\n
 611:Drivers/STM32F1xx_HAL_Driver/Inc/stm32f1xx_ll_bus.h ****   *         APB1RSTR     TIM13RST      LL_APB1_GRP1_ForceReset\n
 612:Drivers/STM32F1xx_HAL_Driver/Inc/stm32f1xx_ll_bus.h ****   *         APB1RSTR     TIM14RST      LL_APB1_GRP1_ForceReset\n
 613:Drivers/STM32F1xx_HAL_Driver/Inc/stm32f1xx_ll_bus.h ****   *         APB1RSTR     TIM2RST       LL_APB1_GRP1_ForceReset\n
 614:Drivers/STM32F1xx_HAL_Driver/Inc/stm32f1xx_ll_bus.h ****   *         APB1RSTR     TIM3RST       LL_APB1_GRP1_ForceReset\n
 615:Drivers/STM32F1xx_HAL_Driver/Inc/stm32f1xx_ll_bus.h ****   *         APB1RSTR     TIM4RST       LL_APB1_GRP1_ForceReset\n
 616:Drivers/STM32F1xx_HAL_Driver/Inc/stm32f1xx_ll_bus.h ****   *         APB1RSTR     TIM5RST       LL_APB1_GRP1_ForceReset\n
 617:Drivers/STM32F1xx_HAL_Driver/Inc/stm32f1xx_ll_bus.h ****   *         APB1RSTR     TIM6RST       LL_APB1_GRP1_ForceReset\n
 618:Drivers/STM32F1xx_HAL_Driver/Inc/stm32f1xx_ll_bus.h ****   *         APB1RSTR     TIM7RST       LL_APB1_GRP1_ForceReset\n
 619:Drivers/STM32F1xx_HAL_Driver/Inc/stm32f1xx_ll_bus.h ****   *         APB1RSTR     UART4RST      LL_APB1_GRP1_ForceReset\n
 620:Drivers/STM32F1xx_HAL_Driver/Inc/stm32f1xx_ll_bus.h ****   *         APB1RSTR     UART5RST      LL_APB1_GRP1_ForceReset\n
 621:Drivers/STM32F1xx_HAL_Driver/Inc/stm32f1xx_ll_bus.h ****   *         APB1RSTR     USART2RST     LL_APB1_GRP1_ForceReset\n
 622:Drivers/STM32F1xx_HAL_Driver/Inc/stm32f1xx_ll_bus.h ****   *         APB1RSTR     USART3RST     LL_APB1_GRP1_ForceReset\n
 623:Drivers/STM32F1xx_HAL_Driver/Inc/stm32f1xx_ll_bus.h ****   *         APB1RSTR     USBRST        LL_APB1_GRP1_ForceReset\n
 624:Drivers/STM32F1xx_HAL_Driver/Inc/stm32f1xx_ll_bus.h ****   *         APB1RSTR     WWDGRST       LL_APB1_GRP1_ForceReset
 625:Drivers/STM32F1xx_HAL_Driver/Inc/stm32f1xx_ll_bus.h ****   * @param  Periphs This parameter can be a combination of the following values:
ARM GAS  /tmp/ccg5Oeuq.s 			page 25


 626:Drivers/STM32F1xx_HAL_Driver/Inc/stm32f1xx_ll_bus.h ****   *         @arg @ref LL_APB1_GRP1_PERIPH_ALL
 627:Drivers/STM32F1xx_HAL_Driver/Inc/stm32f1xx_ll_bus.h ****   *         @arg @ref LL_APB1_GRP1_PERIPH_BKP
 628:Drivers/STM32F1xx_HAL_Driver/Inc/stm32f1xx_ll_bus.h ****   *         @arg @ref LL_APB1_GRP1_PERIPH_CAN1 (*)
 629:Drivers/STM32F1xx_HAL_Driver/Inc/stm32f1xx_ll_bus.h ****   *         @arg @ref LL_APB1_GRP1_PERIPH_CAN2 (*)
 630:Drivers/STM32F1xx_HAL_Driver/Inc/stm32f1xx_ll_bus.h ****   *         @arg @ref LL_APB1_GRP1_PERIPH_CEC (*)
 631:Drivers/STM32F1xx_HAL_Driver/Inc/stm32f1xx_ll_bus.h ****   *         @arg @ref LL_APB1_GRP1_PERIPH_DAC1 (*)
 632:Drivers/STM32F1xx_HAL_Driver/Inc/stm32f1xx_ll_bus.h ****   *         @arg @ref LL_APB1_GRP1_PERIPH_I2C1
 633:Drivers/STM32F1xx_HAL_Driver/Inc/stm32f1xx_ll_bus.h ****   *         @arg @ref LL_APB1_GRP1_PERIPH_I2C2 (*)
 634:Drivers/STM32F1xx_HAL_Driver/Inc/stm32f1xx_ll_bus.h ****   *         @arg @ref LL_APB1_GRP1_PERIPH_PWR
 635:Drivers/STM32F1xx_HAL_Driver/Inc/stm32f1xx_ll_bus.h ****   *         @arg @ref LL_APB1_GRP1_PERIPH_SPI2 (*)
 636:Drivers/STM32F1xx_HAL_Driver/Inc/stm32f1xx_ll_bus.h ****   *         @arg @ref LL_APB1_GRP1_PERIPH_SPI3 (*)
 637:Drivers/STM32F1xx_HAL_Driver/Inc/stm32f1xx_ll_bus.h ****   *         @arg @ref LL_APB1_GRP1_PERIPH_TIM12 (*)
 638:Drivers/STM32F1xx_HAL_Driver/Inc/stm32f1xx_ll_bus.h ****   *         @arg @ref LL_APB1_GRP1_PERIPH_TIM13 (*)
 639:Drivers/STM32F1xx_HAL_Driver/Inc/stm32f1xx_ll_bus.h ****   *         @arg @ref LL_APB1_GRP1_PERIPH_TIM14 (*)
 640:Drivers/STM32F1xx_HAL_Driver/Inc/stm32f1xx_ll_bus.h ****   *         @arg @ref LL_APB1_GRP1_PERIPH_TIM2
 641:Drivers/STM32F1xx_HAL_Driver/Inc/stm32f1xx_ll_bus.h ****   *         @arg @ref LL_APB1_GRP1_PERIPH_TIM3
 642:Drivers/STM32F1xx_HAL_Driver/Inc/stm32f1xx_ll_bus.h ****   *         @arg @ref LL_APB1_GRP1_PERIPH_TIM4 (*)
 643:Drivers/STM32F1xx_HAL_Driver/Inc/stm32f1xx_ll_bus.h ****   *         @arg @ref LL_APB1_GRP1_PERIPH_TIM5 (*)
 644:Drivers/STM32F1xx_HAL_Driver/Inc/stm32f1xx_ll_bus.h ****   *         @arg @ref LL_APB1_GRP1_PERIPH_TIM6 (*)
 645:Drivers/STM32F1xx_HAL_Driver/Inc/stm32f1xx_ll_bus.h ****   *         @arg @ref LL_APB1_GRP1_PERIPH_TIM7 (*)
 646:Drivers/STM32F1xx_HAL_Driver/Inc/stm32f1xx_ll_bus.h ****   *         @arg @ref LL_APB1_GRP1_PERIPH_UART4 (*)
 647:Drivers/STM32F1xx_HAL_Driver/Inc/stm32f1xx_ll_bus.h ****   *         @arg @ref LL_APB1_GRP1_PERIPH_UART5 (*)
 648:Drivers/STM32F1xx_HAL_Driver/Inc/stm32f1xx_ll_bus.h ****   *         @arg @ref LL_APB1_GRP1_PERIPH_USART2
 649:Drivers/STM32F1xx_HAL_Driver/Inc/stm32f1xx_ll_bus.h ****   *         @arg @ref LL_APB1_GRP1_PERIPH_USART3 (*)
 650:Drivers/STM32F1xx_HAL_Driver/Inc/stm32f1xx_ll_bus.h ****   *         @arg @ref LL_APB1_GRP1_PERIPH_USB (*)
 651:Drivers/STM32F1xx_HAL_Driver/Inc/stm32f1xx_ll_bus.h ****   *         @arg @ref LL_APB1_GRP1_PERIPH_WWDG
 652:Drivers/STM32F1xx_HAL_Driver/Inc/stm32f1xx_ll_bus.h ****   *
 653:Drivers/STM32F1xx_HAL_Driver/Inc/stm32f1xx_ll_bus.h ****   *         (*) value not defined in all devices.
 654:Drivers/STM32F1xx_HAL_Driver/Inc/stm32f1xx_ll_bus.h ****   * @retval None
 655:Drivers/STM32F1xx_HAL_Driver/Inc/stm32f1xx_ll_bus.h **** */
 656:Drivers/STM32F1xx_HAL_Driver/Inc/stm32f1xx_ll_bus.h **** __STATIC_INLINE void LL_APB1_GRP1_ForceReset(uint32_t Periphs)
 657:Drivers/STM32F1xx_HAL_Driver/Inc/stm32f1xx_ll_bus.h **** {
 126              		.loc 2 657 0
 127              		.cfi_startproc
 128              		@ args = 0, pretend = 0, frame = 8
 129              		@ frame_needed = 1, uses_anonymous_args = 0
 130              		@ link register save eliminated.
 131 0000 80B4     		push	{r7}
 132              	.LCFI12:
 133              		.cfi_def_cfa_offset 4
 134              		.cfi_offset 7, -4
 135 0002 83B0     		sub	sp, sp, #12
 136              	.LCFI13:
 137              		.cfi_def_cfa_offset 16
 138 0004 00AF     		add	r7, sp, #0
 139              	.LCFI14:
 140              		.cfi_def_cfa_register 7
 141 0006 7860     		str	r0, [r7, #4]
 658:Drivers/STM32F1xx_HAL_Driver/Inc/stm32f1xx_ll_bus.h ****   SET_BIT(RCC->APB1RSTR, Periphs);
 142              		.loc 2 658 0
 143 0008 054B     		ldr	r3, .L5
 144 000a 1A69     		ldr	r2, [r3, #16]
 145 000c 0449     		ldr	r1, .L5
 146 000e 7B68     		ldr	r3, [r7, #4]
 147 0010 1343     		orrs	r3, r3, r2
 148 0012 0B61     		str	r3, [r1, #16]
 659:Drivers/STM32F1xx_HAL_Driver/Inc/stm32f1xx_ll_bus.h **** }
ARM GAS  /tmp/ccg5Oeuq.s 			page 26


 149              		.loc 2 659 0
 150 0014 00BF     		nop
 151 0016 0C37     		adds	r7, r7, #12
 152              	.LCFI15:
 153              		.cfi_def_cfa_offset 4
 154 0018 BD46     		mov	sp, r7
 155              	.LCFI16:
 156              		.cfi_def_cfa_register 13
 157              		@ sp needed
 158 001a 80BC     		pop	{r7}
 159              	.LCFI17:
 160              		.cfi_restore 7
 161              		.cfi_def_cfa_offset 0
 162 001c 7047     		bx	lr
 163              	.L6:
 164 001e 00BF     		.align	2
 165              	.L5:
 166 0020 00100240 		.word	1073876992
 167              		.cfi_endproc
 168              	.LFE128:
 170              		.section	.text.LL_APB1_GRP1_ReleaseReset,"ax",%progbits
 171              		.align	1
 172              		.syntax unified
 173              		.thumb
 174              		.thumb_func
 175              		.fpu softvfp
 177              	LL_APB1_GRP1_ReleaseReset:
 178              	.LFB129:
 660:Drivers/STM32F1xx_HAL_Driver/Inc/stm32f1xx_ll_bus.h **** 
 661:Drivers/STM32F1xx_HAL_Driver/Inc/stm32f1xx_ll_bus.h **** /**
 662:Drivers/STM32F1xx_HAL_Driver/Inc/stm32f1xx_ll_bus.h ****   * @brief  Release APB1 peripherals reset.
 663:Drivers/STM32F1xx_HAL_Driver/Inc/stm32f1xx_ll_bus.h ****   * @rmtoll APB1RSTR     BKPRST        LL_APB1_GRP1_ReleaseReset\n
 664:Drivers/STM32F1xx_HAL_Driver/Inc/stm32f1xx_ll_bus.h ****   *         APB1RSTR     CAN1RST       LL_APB1_GRP1_ReleaseReset\n
 665:Drivers/STM32F1xx_HAL_Driver/Inc/stm32f1xx_ll_bus.h ****   *         APB1RSTR     CAN2RST       LL_APB1_GRP1_ReleaseReset\n
 666:Drivers/STM32F1xx_HAL_Driver/Inc/stm32f1xx_ll_bus.h ****   *         APB1RSTR     CECRST        LL_APB1_GRP1_ReleaseReset\n
 667:Drivers/STM32F1xx_HAL_Driver/Inc/stm32f1xx_ll_bus.h ****   *         APB1RSTR     DACRST        LL_APB1_GRP1_ReleaseReset\n
 668:Drivers/STM32F1xx_HAL_Driver/Inc/stm32f1xx_ll_bus.h ****   *         APB1RSTR     I2C1RST       LL_APB1_GRP1_ReleaseReset\n
 669:Drivers/STM32F1xx_HAL_Driver/Inc/stm32f1xx_ll_bus.h ****   *         APB1RSTR     I2C2RST       LL_APB1_GRP1_ReleaseReset\n
 670:Drivers/STM32F1xx_HAL_Driver/Inc/stm32f1xx_ll_bus.h ****   *         APB1RSTR     PWRRST        LL_APB1_GRP1_ReleaseReset\n
 671:Drivers/STM32F1xx_HAL_Driver/Inc/stm32f1xx_ll_bus.h ****   *         APB1RSTR     SPI2RST       LL_APB1_GRP1_ReleaseReset\n
 672:Drivers/STM32F1xx_HAL_Driver/Inc/stm32f1xx_ll_bus.h ****   *         APB1RSTR     SPI3RST       LL_APB1_GRP1_ReleaseReset\n
 673:Drivers/STM32F1xx_HAL_Driver/Inc/stm32f1xx_ll_bus.h ****   *         APB1RSTR     TIM12RST      LL_APB1_GRP1_ReleaseReset\n
 674:Drivers/STM32F1xx_HAL_Driver/Inc/stm32f1xx_ll_bus.h ****   *         APB1RSTR     TIM13RST      LL_APB1_GRP1_ReleaseReset\n
 675:Drivers/STM32F1xx_HAL_Driver/Inc/stm32f1xx_ll_bus.h ****   *         APB1RSTR     TIM14RST      LL_APB1_GRP1_ReleaseReset\n
 676:Drivers/STM32F1xx_HAL_Driver/Inc/stm32f1xx_ll_bus.h ****   *         APB1RSTR     TIM2RST       LL_APB1_GRP1_ReleaseReset\n
 677:Drivers/STM32F1xx_HAL_Driver/Inc/stm32f1xx_ll_bus.h ****   *         APB1RSTR     TIM3RST       LL_APB1_GRP1_ReleaseReset\n
 678:Drivers/STM32F1xx_HAL_Driver/Inc/stm32f1xx_ll_bus.h ****   *         APB1RSTR     TIM4RST       LL_APB1_GRP1_ReleaseReset\n
 679:Drivers/STM32F1xx_HAL_Driver/Inc/stm32f1xx_ll_bus.h ****   *         APB1RSTR     TIM5RST       LL_APB1_GRP1_ReleaseReset\n
 680:Drivers/STM32F1xx_HAL_Driver/Inc/stm32f1xx_ll_bus.h ****   *         APB1RSTR     TIM6RST       LL_APB1_GRP1_ReleaseReset\n
 681:Drivers/STM32F1xx_HAL_Driver/Inc/stm32f1xx_ll_bus.h ****   *         APB1RSTR     TIM7RST       LL_APB1_GRP1_ReleaseReset\n
 682:Drivers/STM32F1xx_HAL_Driver/Inc/stm32f1xx_ll_bus.h ****   *         APB1RSTR     UART4RST      LL_APB1_GRP1_ReleaseReset\n
 683:Drivers/STM32F1xx_HAL_Driver/Inc/stm32f1xx_ll_bus.h ****   *         APB1RSTR     UART5RST      LL_APB1_GRP1_ReleaseReset\n
 684:Drivers/STM32F1xx_HAL_Driver/Inc/stm32f1xx_ll_bus.h ****   *         APB1RSTR     USART2RST     LL_APB1_GRP1_ReleaseReset\n
 685:Drivers/STM32F1xx_HAL_Driver/Inc/stm32f1xx_ll_bus.h ****   *         APB1RSTR     USART3RST     LL_APB1_GRP1_ReleaseReset\n
 686:Drivers/STM32F1xx_HAL_Driver/Inc/stm32f1xx_ll_bus.h ****   *         APB1RSTR     USBRST        LL_APB1_GRP1_ReleaseReset\n
 687:Drivers/STM32F1xx_HAL_Driver/Inc/stm32f1xx_ll_bus.h ****   *         APB1RSTR     WWDGRST       LL_APB1_GRP1_ReleaseReset
 688:Drivers/STM32F1xx_HAL_Driver/Inc/stm32f1xx_ll_bus.h ****   * @param  Periphs This parameter can be a combination of the following values:
ARM GAS  /tmp/ccg5Oeuq.s 			page 27


 689:Drivers/STM32F1xx_HAL_Driver/Inc/stm32f1xx_ll_bus.h ****   *         @arg @ref LL_APB1_GRP1_PERIPH_ALL
 690:Drivers/STM32F1xx_HAL_Driver/Inc/stm32f1xx_ll_bus.h ****   *         @arg @ref LL_APB1_GRP1_PERIPH_BKP
 691:Drivers/STM32F1xx_HAL_Driver/Inc/stm32f1xx_ll_bus.h ****   *         @arg @ref LL_APB1_GRP1_PERIPH_CAN1 (*)
 692:Drivers/STM32F1xx_HAL_Driver/Inc/stm32f1xx_ll_bus.h ****   *         @arg @ref LL_APB1_GRP1_PERIPH_CAN2 (*)
 693:Drivers/STM32F1xx_HAL_Driver/Inc/stm32f1xx_ll_bus.h ****   *         @arg @ref LL_APB1_GRP1_PERIPH_CEC (*)
 694:Drivers/STM32F1xx_HAL_Driver/Inc/stm32f1xx_ll_bus.h ****   *         @arg @ref LL_APB1_GRP1_PERIPH_DAC1 (*)
 695:Drivers/STM32F1xx_HAL_Driver/Inc/stm32f1xx_ll_bus.h ****   *         @arg @ref LL_APB1_GRP1_PERIPH_I2C1
 696:Drivers/STM32F1xx_HAL_Driver/Inc/stm32f1xx_ll_bus.h ****   *         @arg @ref LL_APB1_GRP1_PERIPH_I2C2 (*)
 697:Drivers/STM32F1xx_HAL_Driver/Inc/stm32f1xx_ll_bus.h ****   *         @arg @ref LL_APB1_GRP1_PERIPH_PWR
 698:Drivers/STM32F1xx_HAL_Driver/Inc/stm32f1xx_ll_bus.h ****   *         @arg @ref LL_APB1_GRP1_PERIPH_SPI2 (*)
 699:Drivers/STM32F1xx_HAL_Driver/Inc/stm32f1xx_ll_bus.h ****   *         @arg @ref LL_APB1_GRP1_PERIPH_SPI3 (*)
 700:Drivers/STM32F1xx_HAL_Driver/Inc/stm32f1xx_ll_bus.h ****   *         @arg @ref LL_APB1_GRP1_PERIPH_TIM12 (*)
 701:Drivers/STM32F1xx_HAL_Driver/Inc/stm32f1xx_ll_bus.h ****   *         @arg @ref LL_APB1_GRP1_PERIPH_TIM13 (*)
 702:Drivers/STM32F1xx_HAL_Driver/Inc/stm32f1xx_ll_bus.h ****   *         @arg @ref LL_APB1_GRP1_PERIPH_TIM14 (*)
 703:Drivers/STM32F1xx_HAL_Driver/Inc/stm32f1xx_ll_bus.h ****   *         @arg @ref LL_APB1_GRP1_PERIPH_TIM2
 704:Drivers/STM32F1xx_HAL_Driver/Inc/stm32f1xx_ll_bus.h ****   *         @arg @ref LL_APB1_GRP1_PERIPH_TIM3
 705:Drivers/STM32F1xx_HAL_Driver/Inc/stm32f1xx_ll_bus.h ****   *         @arg @ref LL_APB1_GRP1_PERIPH_TIM4 (*)
 706:Drivers/STM32F1xx_HAL_Driver/Inc/stm32f1xx_ll_bus.h ****   *         @arg @ref LL_APB1_GRP1_PERIPH_TIM5 (*)
 707:Drivers/STM32F1xx_HAL_Driver/Inc/stm32f1xx_ll_bus.h ****   *         @arg @ref LL_APB1_GRP1_PERIPH_TIM6 (*)
 708:Drivers/STM32F1xx_HAL_Driver/Inc/stm32f1xx_ll_bus.h ****   *         @arg @ref LL_APB1_GRP1_PERIPH_TIM7 (*)
 709:Drivers/STM32F1xx_HAL_Driver/Inc/stm32f1xx_ll_bus.h ****   *         @arg @ref LL_APB1_GRP1_PERIPH_UART4 (*)
 710:Drivers/STM32F1xx_HAL_Driver/Inc/stm32f1xx_ll_bus.h ****   *         @arg @ref LL_APB1_GRP1_PERIPH_UART5 (*)
 711:Drivers/STM32F1xx_HAL_Driver/Inc/stm32f1xx_ll_bus.h ****   *         @arg @ref LL_APB1_GRP1_PERIPH_USART2
 712:Drivers/STM32F1xx_HAL_Driver/Inc/stm32f1xx_ll_bus.h ****   *         @arg @ref LL_APB1_GRP1_PERIPH_USART3 (*)
 713:Drivers/STM32F1xx_HAL_Driver/Inc/stm32f1xx_ll_bus.h ****   *         @arg @ref LL_APB1_GRP1_PERIPH_USB (*)
 714:Drivers/STM32F1xx_HAL_Driver/Inc/stm32f1xx_ll_bus.h ****   *         @arg @ref LL_APB1_GRP1_PERIPH_WWDG
 715:Drivers/STM32F1xx_HAL_Driver/Inc/stm32f1xx_ll_bus.h ****   *
 716:Drivers/STM32F1xx_HAL_Driver/Inc/stm32f1xx_ll_bus.h ****   *         (*) value not defined in all devices.
 717:Drivers/STM32F1xx_HAL_Driver/Inc/stm32f1xx_ll_bus.h ****   * @retval None
 718:Drivers/STM32F1xx_HAL_Driver/Inc/stm32f1xx_ll_bus.h **** */
 719:Drivers/STM32F1xx_HAL_Driver/Inc/stm32f1xx_ll_bus.h **** __STATIC_INLINE void LL_APB1_GRP1_ReleaseReset(uint32_t Periphs)
 720:Drivers/STM32F1xx_HAL_Driver/Inc/stm32f1xx_ll_bus.h **** {
 179              		.loc 2 720 0
 180              		.cfi_startproc
 181              		@ args = 0, pretend = 0, frame = 8
 182              		@ frame_needed = 1, uses_anonymous_args = 0
 183              		@ link register save eliminated.
 184 0000 80B4     		push	{r7}
 185              	.LCFI18:
 186              		.cfi_def_cfa_offset 4
 187              		.cfi_offset 7, -4
 188 0002 83B0     		sub	sp, sp, #12
 189              	.LCFI19:
 190              		.cfi_def_cfa_offset 16
 191 0004 00AF     		add	r7, sp, #0
 192              	.LCFI20:
 193              		.cfi_def_cfa_register 7
 194 0006 7860     		str	r0, [r7, #4]
 721:Drivers/STM32F1xx_HAL_Driver/Inc/stm32f1xx_ll_bus.h ****   CLEAR_BIT(RCC->APB1RSTR, Periphs);
 195              		.loc 2 721 0
 196 0008 054B     		ldr	r3, .L8
 197 000a 1A69     		ldr	r2, [r3, #16]
 198 000c 7B68     		ldr	r3, [r7, #4]
 199 000e DB43     		mvns	r3, r3
 200 0010 0349     		ldr	r1, .L8
 201 0012 1340     		ands	r3, r3, r2
 202 0014 0B61     		str	r3, [r1, #16]
ARM GAS  /tmp/ccg5Oeuq.s 			page 28


 722:Drivers/STM32F1xx_HAL_Driver/Inc/stm32f1xx_ll_bus.h **** }
 203              		.loc 2 722 0
 204 0016 00BF     		nop
 205 0018 0C37     		adds	r7, r7, #12
 206              	.LCFI21:
 207              		.cfi_def_cfa_offset 4
 208 001a BD46     		mov	sp, r7
 209              	.LCFI22:
 210              		.cfi_def_cfa_register 13
 211              		@ sp needed
 212 001c 80BC     		pop	{r7}
 213              	.LCFI23:
 214              		.cfi_restore 7
 215              		.cfi_def_cfa_offset 0
 216 001e 7047     		bx	lr
 217              	.L9:
 218              		.align	2
 219              	.L8:
 220 0020 00100240 		.word	1073876992
 221              		.cfi_endproc
 222              	.LFE129:
 224              		.section	.text.LL_APB2_GRP1_ForceReset,"ax",%progbits
 225              		.align	1
 226              		.syntax unified
 227              		.thumb
 228              		.thumb_func
 229              		.fpu softvfp
 231              	LL_APB2_GRP1_ForceReset:
 232              	.LFB133:
 723:Drivers/STM32F1xx_HAL_Driver/Inc/stm32f1xx_ll_bus.h **** 
 724:Drivers/STM32F1xx_HAL_Driver/Inc/stm32f1xx_ll_bus.h **** /**
 725:Drivers/STM32F1xx_HAL_Driver/Inc/stm32f1xx_ll_bus.h ****   * @}
 726:Drivers/STM32F1xx_HAL_Driver/Inc/stm32f1xx_ll_bus.h ****   */
 727:Drivers/STM32F1xx_HAL_Driver/Inc/stm32f1xx_ll_bus.h **** 
 728:Drivers/STM32F1xx_HAL_Driver/Inc/stm32f1xx_ll_bus.h **** /** @defgroup BUS_LL_EF_APB2 APB2
 729:Drivers/STM32F1xx_HAL_Driver/Inc/stm32f1xx_ll_bus.h ****   * @{
 730:Drivers/STM32F1xx_HAL_Driver/Inc/stm32f1xx_ll_bus.h ****   */
 731:Drivers/STM32F1xx_HAL_Driver/Inc/stm32f1xx_ll_bus.h **** 
 732:Drivers/STM32F1xx_HAL_Driver/Inc/stm32f1xx_ll_bus.h **** /**
 733:Drivers/STM32F1xx_HAL_Driver/Inc/stm32f1xx_ll_bus.h ****   * @brief  Enable APB2 peripherals clock.
 734:Drivers/STM32F1xx_HAL_Driver/Inc/stm32f1xx_ll_bus.h ****   * @rmtoll APB2ENR      ADC1EN        LL_APB2_GRP1_EnableClock\n
 735:Drivers/STM32F1xx_HAL_Driver/Inc/stm32f1xx_ll_bus.h ****   *         APB2ENR      ADC2EN        LL_APB2_GRP1_EnableClock\n
 736:Drivers/STM32F1xx_HAL_Driver/Inc/stm32f1xx_ll_bus.h ****   *         APB2ENR      ADC3EN        LL_APB2_GRP1_EnableClock\n
 737:Drivers/STM32F1xx_HAL_Driver/Inc/stm32f1xx_ll_bus.h ****   *         APB2ENR      AFIOEN        LL_APB2_GRP1_EnableClock\n
 738:Drivers/STM32F1xx_HAL_Driver/Inc/stm32f1xx_ll_bus.h ****   *         APB2ENR      IOPAEN        LL_APB2_GRP1_EnableClock\n
 739:Drivers/STM32F1xx_HAL_Driver/Inc/stm32f1xx_ll_bus.h ****   *         APB2ENR      IOPBEN        LL_APB2_GRP1_EnableClock\n
 740:Drivers/STM32F1xx_HAL_Driver/Inc/stm32f1xx_ll_bus.h ****   *         APB2ENR      IOPCEN        LL_APB2_GRP1_EnableClock\n
 741:Drivers/STM32F1xx_HAL_Driver/Inc/stm32f1xx_ll_bus.h ****   *         APB2ENR      IOPDEN        LL_APB2_GRP1_EnableClock\n
 742:Drivers/STM32F1xx_HAL_Driver/Inc/stm32f1xx_ll_bus.h ****   *         APB2ENR      IOPEEN        LL_APB2_GRP1_EnableClock\n
 743:Drivers/STM32F1xx_HAL_Driver/Inc/stm32f1xx_ll_bus.h ****   *         APB2ENR      IOPFEN        LL_APB2_GRP1_EnableClock\n
 744:Drivers/STM32F1xx_HAL_Driver/Inc/stm32f1xx_ll_bus.h ****   *         APB2ENR      IOPGEN        LL_APB2_GRP1_EnableClock\n
 745:Drivers/STM32F1xx_HAL_Driver/Inc/stm32f1xx_ll_bus.h ****   *         APB2ENR      SPI1EN        LL_APB2_GRP1_EnableClock\n
 746:Drivers/STM32F1xx_HAL_Driver/Inc/stm32f1xx_ll_bus.h ****   *         APB2ENR      TIM10EN       LL_APB2_GRP1_EnableClock\n
 747:Drivers/STM32F1xx_HAL_Driver/Inc/stm32f1xx_ll_bus.h ****   *         APB2ENR      TIM11EN       LL_APB2_GRP1_EnableClock\n
 748:Drivers/STM32F1xx_HAL_Driver/Inc/stm32f1xx_ll_bus.h ****   *         APB2ENR      TIM15EN       LL_APB2_GRP1_EnableClock\n
 749:Drivers/STM32F1xx_HAL_Driver/Inc/stm32f1xx_ll_bus.h ****   *         APB2ENR      TIM16EN       LL_APB2_GRP1_EnableClock\n
 750:Drivers/STM32F1xx_HAL_Driver/Inc/stm32f1xx_ll_bus.h ****   *         APB2ENR      TIM17EN       LL_APB2_GRP1_EnableClock\n
ARM GAS  /tmp/ccg5Oeuq.s 			page 29


 751:Drivers/STM32F1xx_HAL_Driver/Inc/stm32f1xx_ll_bus.h ****   *         APB2ENR      TIM1EN        LL_APB2_GRP1_EnableClock\n
 752:Drivers/STM32F1xx_HAL_Driver/Inc/stm32f1xx_ll_bus.h ****   *         APB2ENR      TIM8EN        LL_APB2_GRP1_EnableClock\n
 753:Drivers/STM32F1xx_HAL_Driver/Inc/stm32f1xx_ll_bus.h ****   *         APB2ENR      TIM9EN        LL_APB2_GRP1_EnableClock\n
 754:Drivers/STM32F1xx_HAL_Driver/Inc/stm32f1xx_ll_bus.h ****   *         APB2ENR      USART1EN      LL_APB2_GRP1_EnableClock
 755:Drivers/STM32F1xx_HAL_Driver/Inc/stm32f1xx_ll_bus.h ****   * @param  Periphs This parameter can be a combination of the following values:
 756:Drivers/STM32F1xx_HAL_Driver/Inc/stm32f1xx_ll_bus.h ****   *         @arg @ref LL_APB2_GRP1_PERIPH_ADC1
 757:Drivers/STM32F1xx_HAL_Driver/Inc/stm32f1xx_ll_bus.h ****   *         @arg @ref LL_APB2_GRP1_PERIPH_ADC2 (*)
 758:Drivers/STM32F1xx_HAL_Driver/Inc/stm32f1xx_ll_bus.h ****   *         @arg @ref LL_APB2_GRP1_PERIPH_ADC3 (*)
 759:Drivers/STM32F1xx_HAL_Driver/Inc/stm32f1xx_ll_bus.h ****   *         @arg @ref LL_APB2_GRP1_PERIPH_AFIO
 760:Drivers/STM32F1xx_HAL_Driver/Inc/stm32f1xx_ll_bus.h ****   *         @arg @ref LL_APB2_GRP1_PERIPH_GPIOA
 761:Drivers/STM32F1xx_HAL_Driver/Inc/stm32f1xx_ll_bus.h ****   *         @arg @ref LL_APB2_GRP1_PERIPH_GPIOB
 762:Drivers/STM32F1xx_HAL_Driver/Inc/stm32f1xx_ll_bus.h ****   *         @arg @ref LL_APB2_GRP1_PERIPH_GPIOC
 763:Drivers/STM32F1xx_HAL_Driver/Inc/stm32f1xx_ll_bus.h ****   *         @arg @ref LL_APB2_GRP1_PERIPH_GPIOD
 764:Drivers/STM32F1xx_HAL_Driver/Inc/stm32f1xx_ll_bus.h ****   *         @arg @ref LL_APB2_GRP1_PERIPH_GPIOE (*)
 765:Drivers/STM32F1xx_HAL_Driver/Inc/stm32f1xx_ll_bus.h ****   *         @arg @ref LL_APB2_GRP1_PERIPH_GPIOF (*)
 766:Drivers/STM32F1xx_HAL_Driver/Inc/stm32f1xx_ll_bus.h ****   *         @arg @ref LL_APB2_GRP1_PERIPH_GPIOG (*)
 767:Drivers/STM32F1xx_HAL_Driver/Inc/stm32f1xx_ll_bus.h ****   *         @arg @ref LL_APB2_GRP1_PERIPH_SPI1
 768:Drivers/STM32F1xx_HAL_Driver/Inc/stm32f1xx_ll_bus.h ****   *         @arg @ref LL_APB2_GRP1_PERIPH_TIM10 (*)
 769:Drivers/STM32F1xx_HAL_Driver/Inc/stm32f1xx_ll_bus.h ****   *         @arg @ref LL_APB2_GRP1_PERIPH_TIM11 (*)
 770:Drivers/STM32F1xx_HAL_Driver/Inc/stm32f1xx_ll_bus.h ****   *         @arg @ref LL_APB2_GRP1_PERIPH_TIM15 (*)
 771:Drivers/STM32F1xx_HAL_Driver/Inc/stm32f1xx_ll_bus.h ****   *         @arg @ref LL_APB2_GRP1_PERIPH_TIM16 (*)
 772:Drivers/STM32F1xx_HAL_Driver/Inc/stm32f1xx_ll_bus.h ****   *         @arg @ref LL_APB2_GRP1_PERIPH_TIM17 (*)
 773:Drivers/STM32F1xx_HAL_Driver/Inc/stm32f1xx_ll_bus.h ****   *         @arg @ref LL_APB2_GRP1_PERIPH_TIM1
 774:Drivers/STM32F1xx_HAL_Driver/Inc/stm32f1xx_ll_bus.h ****   *         @arg @ref LL_APB2_GRP1_PERIPH_TIM8 (*)
 775:Drivers/STM32F1xx_HAL_Driver/Inc/stm32f1xx_ll_bus.h ****   *         @arg @ref LL_APB2_GRP1_PERIPH_TIM9 (*)
 776:Drivers/STM32F1xx_HAL_Driver/Inc/stm32f1xx_ll_bus.h ****   *         @arg @ref LL_APB2_GRP1_PERIPH_USART1
 777:Drivers/STM32F1xx_HAL_Driver/Inc/stm32f1xx_ll_bus.h ****   *
 778:Drivers/STM32F1xx_HAL_Driver/Inc/stm32f1xx_ll_bus.h ****   *         (*) value not defined in all devices.
 779:Drivers/STM32F1xx_HAL_Driver/Inc/stm32f1xx_ll_bus.h ****   * @retval None
 780:Drivers/STM32F1xx_HAL_Driver/Inc/stm32f1xx_ll_bus.h **** */
 781:Drivers/STM32F1xx_HAL_Driver/Inc/stm32f1xx_ll_bus.h **** __STATIC_INLINE void LL_APB2_GRP1_EnableClock(uint32_t Periphs)
 782:Drivers/STM32F1xx_HAL_Driver/Inc/stm32f1xx_ll_bus.h **** {
 783:Drivers/STM32F1xx_HAL_Driver/Inc/stm32f1xx_ll_bus.h ****   __IO uint32_t tmpreg;
 784:Drivers/STM32F1xx_HAL_Driver/Inc/stm32f1xx_ll_bus.h ****   SET_BIT(RCC->APB2ENR, Periphs);
 785:Drivers/STM32F1xx_HAL_Driver/Inc/stm32f1xx_ll_bus.h ****   /* Delay after an RCC peripheral clock enabling */
 786:Drivers/STM32F1xx_HAL_Driver/Inc/stm32f1xx_ll_bus.h ****   tmpreg = READ_BIT(RCC->APB2ENR, Periphs);
 787:Drivers/STM32F1xx_HAL_Driver/Inc/stm32f1xx_ll_bus.h ****   (void)tmpreg;
 788:Drivers/STM32F1xx_HAL_Driver/Inc/stm32f1xx_ll_bus.h **** }
 789:Drivers/STM32F1xx_HAL_Driver/Inc/stm32f1xx_ll_bus.h **** 
 790:Drivers/STM32F1xx_HAL_Driver/Inc/stm32f1xx_ll_bus.h **** /**
 791:Drivers/STM32F1xx_HAL_Driver/Inc/stm32f1xx_ll_bus.h ****   * @brief  Check if APB2 peripheral clock is enabled or not
 792:Drivers/STM32F1xx_HAL_Driver/Inc/stm32f1xx_ll_bus.h ****   * @rmtoll APB2ENR      ADC1EN        LL_APB2_GRP1_IsEnabledClock\n
 793:Drivers/STM32F1xx_HAL_Driver/Inc/stm32f1xx_ll_bus.h ****   *         APB2ENR      ADC2EN        LL_APB2_GRP1_IsEnabledClock\n
 794:Drivers/STM32F1xx_HAL_Driver/Inc/stm32f1xx_ll_bus.h ****   *         APB2ENR      ADC3EN        LL_APB2_GRP1_IsEnabledClock\n
 795:Drivers/STM32F1xx_HAL_Driver/Inc/stm32f1xx_ll_bus.h ****   *         APB2ENR      AFIOEN        LL_APB2_GRP1_IsEnabledClock\n
 796:Drivers/STM32F1xx_HAL_Driver/Inc/stm32f1xx_ll_bus.h ****   *         APB2ENR      IOPAEN        LL_APB2_GRP1_IsEnabledClock\n
 797:Drivers/STM32F1xx_HAL_Driver/Inc/stm32f1xx_ll_bus.h ****   *         APB2ENR      IOPBEN        LL_APB2_GRP1_IsEnabledClock\n
 798:Drivers/STM32F1xx_HAL_Driver/Inc/stm32f1xx_ll_bus.h ****   *         APB2ENR      IOPCEN        LL_APB2_GRP1_IsEnabledClock\n
 799:Drivers/STM32F1xx_HAL_Driver/Inc/stm32f1xx_ll_bus.h ****   *         APB2ENR      IOPDEN        LL_APB2_GRP1_IsEnabledClock\n
 800:Drivers/STM32F1xx_HAL_Driver/Inc/stm32f1xx_ll_bus.h ****   *         APB2ENR      IOPEEN        LL_APB2_GRP1_IsEnabledClock\n
 801:Drivers/STM32F1xx_HAL_Driver/Inc/stm32f1xx_ll_bus.h ****   *         APB2ENR      IOPFEN        LL_APB2_GRP1_IsEnabledClock\n
 802:Drivers/STM32F1xx_HAL_Driver/Inc/stm32f1xx_ll_bus.h ****   *         APB2ENR      IOPGEN        LL_APB2_GRP1_IsEnabledClock\n
 803:Drivers/STM32F1xx_HAL_Driver/Inc/stm32f1xx_ll_bus.h ****   *         APB2ENR      SPI1EN        LL_APB2_GRP1_IsEnabledClock\n
 804:Drivers/STM32F1xx_HAL_Driver/Inc/stm32f1xx_ll_bus.h ****   *         APB2ENR      TIM10EN       LL_APB2_GRP1_IsEnabledClock\n
 805:Drivers/STM32F1xx_HAL_Driver/Inc/stm32f1xx_ll_bus.h ****   *         APB2ENR      TIM11EN       LL_APB2_GRP1_IsEnabledClock\n
 806:Drivers/STM32F1xx_HAL_Driver/Inc/stm32f1xx_ll_bus.h ****   *         APB2ENR      TIM15EN       LL_APB2_GRP1_IsEnabledClock\n
 807:Drivers/STM32F1xx_HAL_Driver/Inc/stm32f1xx_ll_bus.h ****   *         APB2ENR      TIM16EN       LL_APB2_GRP1_IsEnabledClock\n
ARM GAS  /tmp/ccg5Oeuq.s 			page 30


 808:Drivers/STM32F1xx_HAL_Driver/Inc/stm32f1xx_ll_bus.h ****   *         APB2ENR      TIM17EN       LL_APB2_GRP1_IsEnabledClock\n
 809:Drivers/STM32F1xx_HAL_Driver/Inc/stm32f1xx_ll_bus.h ****   *         APB2ENR      TIM1EN        LL_APB2_GRP1_IsEnabledClock\n
 810:Drivers/STM32F1xx_HAL_Driver/Inc/stm32f1xx_ll_bus.h ****   *         APB2ENR      TIM8EN        LL_APB2_GRP1_IsEnabledClock\n
 811:Drivers/STM32F1xx_HAL_Driver/Inc/stm32f1xx_ll_bus.h ****   *         APB2ENR      TIM9EN        LL_APB2_GRP1_IsEnabledClock\n
 812:Drivers/STM32F1xx_HAL_Driver/Inc/stm32f1xx_ll_bus.h ****   *         APB2ENR      USART1EN      LL_APB2_GRP1_IsEnabledClock
 813:Drivers/STM32F1xx_HAL_Driver/Inc/stm32f1xx_ll_bus.h ****   * @param  Periphs This parameter can be a combination of the following values:
 814:Drivers/STM32F1xx_HAL_Driver/Inc/stm32f1xx_ll_bus.h ****   *         @arg @ref LL_APB2_GRP1_PERIPH_ADC1
 815:Drivers/STM32F1xx_HAL_Driver/Inc/stm32f1xx_ll_bus.h ****   *         @arg @ref LL_APB2_GRP1_PERIPH_ADC2 (*)
 816:Drivers/STM32F1xx_HAL_Driver/Inc/stm32f1xx_ll_bus.h ****   *         @arg @ref LL_APB2_GRP1_PERIPH_ADC3 (*)
 817:Drivers/STM32F1xx_HAL_Driver/Inc/stm32f1xx_ll_bus.h ****   *         @arg @ref LL_APB2_GRP1_PERIPH_AFIO
 818:Drivers/STM32F1xx_HAL_Driver/Inc/stm32f1xx_ll_bus.h ****   *         @arg @ref LL_APB2_GRP1_PERIPH_GPIOA
 819:Drivers/STM32F1xx_HAL_Driver/Inc/stm32f1xx_ll_bus.h ****   *         @arg @ref LL_APB2_GRP1_PERIPH_GPIOB
 820:Drivers/STM32F1xx_HAL_Driver/Inc/stm32f1xx_ll_bus.h ****   *         @arg @ref LL_APB2_GRP1_PERIPH_GPIOC
 821:Drivers/STM32F1xx_HAL_Driver/Inc/stm32f1xx_ll_bus.h ****   *         @arg @ref LL_APB2_GRP1_PERIPH_GPIOD
 822:Drivers/STM32F1xx_HAL_Driver/Inc/stm32f1xx_ll_bus.h ****   *         @arg @ref LL_APB2_GRP1_PERIPH_GPIOE (*)
 823:Drivers/STM32F1xx_HAL_Driver/Inc/stm32f1xx_ll_bus.h ****   *         @arg @ref LL_APB2_GRP1_PERIPH_GPIOF (*)
 824:Drivers/STM32F1xx_HAL_Driver/Inc/stm32f1xx_ll_bus.h ****   *         @arg @ref LL_APB2_GRP1_PERIPH_GPIOG (*)
 825:Drivers/STM32F1xx_HAL_Driver/Inc/stm32f1xx_ll_bus.h ****   *         @arg @ref LL_APB2_GRP1_PERIPH_SPI1
 826:Drivers/STM32F1xx_HAL_Driver/Inc/stm32f1xx_ll_bus.h ****   *         @arg @ref LL_APB2_GRP1_PERIPH_TIM10 (*)
 827:Drivers/STM32F1xx_HAL_Driver/Inc/stm32f1xx_ll_bus.h ****   *         @arg @ref LL_APB2_GRP1_PERIPH_TIM11 (*)
 828:Drivers/STM32F1xx_HAL_Driver/Inc/stm32f1xx_ll_bus.h ****   *         @arg @ref LL_APB2_GRP1_PERIPH_TIM15 (*)
 829:Drivers/STM32F1xx_HAL_Driver/Inc/stm32f1xx_ll_bus.h ****   *         @arg @ref LL_APB2_GRP1_PERIPH_TIM16 (*)
 830:Drivers/STM32F1xx_HAL_Driver/Inc/stm32f1xx_ll_bus.h ****   *         @arg @ref LL_APB2_GRP1_PERIPH_TIM17 (*)
 831:Drivers/STM32F1xx_HAL_Driver/Inc/stm32f1xx_ll_bus.h ****   *         @arg @ref LL_APB2_GRP1_PERIPH_TIM1
 832:Drivers/STM32F1xx_HAL_Driver/Inc/stm32f1xx_ll_bus.h ****   *         @arg @ref LL_APB2_GRP1_PERIPH_TIM8 (*)
 833:Drivers/STM32F1xx_HAL_Driver/Inc/stm32f1xx_ll_bus.h ****   *         @arg @ref LL_APB2_GRP1_PERIPH_TIM9 (*)
 834:Drivers/STM32F1xx_HAL_Driver/Inc/stm32f1xx_ll_bus.h ****   *         @arg @ref LL_APB2_GRP1_PERIPH_USART1
 835:Drivers/STM32F1xx_HAL_Driver/Inc/stm32f1xx_ll_bus.h ****   *
 836:Drivers/STM32F1xx_HAL_Driver/Inc/stm32f1xx_ll_bus.h ****   *         (*) value not defined in all devices.
 837:Drivers/STM32F1xx_HAL_Driver/Inc/stm32f1xx_ll_bus.h ****   * @retval State of Periphs (1 or 0).
 838:Drivers/STM32F1xx_HAL_Driver/Inc/stm32f1xx_ll_bus.h **** */
 839:Drivers/STM32F1xx_HAL_Driver/Inc/stm32f1xx_ll_bus.h **** __STATIC_INLINE uint32_t LL_APB2_GRP1_IsEnabledClock(uint32_t Periphs)
 840:Drivers/STM32F1xx_HAL_Driver/Inc/stm32f1xx_ll_bus.h **** {
 841:Drivers/STM32F1xx_HAL_Driver/Inc/stm32f1xx_ll_bus.h ****   return (READ_BIT(RCC->APB2ENR, Periphs) == Periphs);
 842:Drivers/STM32F1xx_HAL_Driver/Inc/stm32f1xx_ll_bus.h **** }
 843:Drivers/STM32F1xx_HAL_Driver/Inc/stm32f1xx_ll_bus.h **** 
 844:Drivers/STM32F1xx_HAL_Driver/Inc/stm32f1xx_ll_bus.h **** /**
 845:Drivers/STM32F1xx_HAL_Driver/Inc/stm32f1xx_ll_bus.h ****   * @brief  Disable APB2 peripherals clock.
 846:Drivers/STM32F1xx_HAL_Driver/Inc/stm32f1xx_ll_bus.h ****   * @rmtoll APB2ENR      ADC1EN        LL_APB2_GRP1_DisableClock\n
 847:Drivers/STM32F1xx_HAL_Driver/Inc/stm32f1xx_ll_bus.h ****   *         APB2ENR      ADC2EN        LL_APB2_GRP1_DisableClock\n
 848:Drivers/STM32F1xx_HAL_Driver/Inc/stm32f1xx_ll_bus.h ****   *         APB2ENR      ADC3EN        LL_APB2_GRP1_DisableClock\n
 849:Drivers/STM32F1xx_HAL_Driver/Inc/stm32f1xx_ll_bus.h ****   *         APB2ENR      AFIOEN        LL_APB2_GRP1_DisableClock\n
 850:Drivers/STM32F1xx_HAL_Driver/Inc/stm32f1xx_ll_bus.h ****   *         APB2ENR      IOPAEN        LL_APB2_GRP1_DisableClock\n
 851:Drivers/STM32F1xx_HAL_Driver/Inc/stm32f1xx_ll_bus.h ****   *         APB2ENR      IOPBEN        LL_APB2_GRP1_DisableClock\n
 852:Drivers/STM32F1xx_HAL_Driver/Inc/stm32f1xx_ll_bus.h ****   *         APB2ENR      IOPCEN        LL_APB2_GRP1_DisableClock\n
 853:Drivers/STM32F1xx_HAL_Driver/Inc/stm32f1xx_ll_bus.h ****   *         APB2ENR      IOPDEN        LL_APB2_GRP1_DisableClock\n
 854:Drivers/STM32F1xx_HAL_Driver/Inc/stm32f1xx_ll_bus.h ****   *         APB2ENR      IOPEEN        LL_APB2_GRP1_DisableClock\n
 855:Drivers/STM32F1xx_HAL_Driver/Inc/stm32f1xx_ll_bus.h ****   *         APB2ENR      IOPFEN        LL_APB2_GRP1_DisableClock\n
 856:Drivers/STM32F1xx_HAL_Driver/Inc/stm32f1xx_ll_bus.h ****   *         APB2ENR      IOPGEN        LL_APB2_GRP1_DisableClock\n
 857:Drivers/STM32F1xx_HAL_Driver/Inc/stm32f1xx_ll_bus.h ****   *         APB2ENR      SPI1EN        LL_APB2_GRP1_DisableClock\n
 858:Drivers/STM32F1xx_HAL_Driver/Inc/stm32f1xx_ll_bus.h ****   *         APB2ENR      TIM10EN       LL_APB2_GRP1_DisableClock\n
 859:Drivers/STM32F1xx_HAL_Driver/Inc/stm32f1xx_ll_bus.h ****   *         APB2ENR      TIM11EN       LL_APB2_GRP1_DisableClock\n
 860:Drivers/STM32F1xx_HAL_Driver/Inc/stm32f1xx_ll_bus.h ****   *         APB2ENR      TIM15EN       LL_APB2_GRP1_DisableClock\n
 861:Drivers/STM32F1xx_HAL_Driver/Inc/stm32f1xx_ll_bus.h ****   *         APB2ENR      TIM16EN       LL_APB2_GRP1_DisableClock\n
 862:Drivers/STM32F1xx_HAL_Driver/Inc/stm32f1xx_ll_bus.h ****   *         APB2ENR      TIM17EN       LL_APB2_GRP1_DisableClock\n
 863:Drivers/STM32F1xx_HAL_Driver/Inc/stm32f1xx_ll_bus.h ****   *         APB2ENR      TIM1EN        LL_APB2_GRP1_DisableClock\n
 864:Drivers/STM32F1xx_HAL_Driver/Inc/stm32f1xx_ll_bus.h ****   *         APB2ENR      TIM8EN        LL_APB2_GRP1_DisableClock\n
ARM GAS  /tmp/ccg5Oeuq.s 			page 31


 865:Drivers/STM32F1xx_HAL_Driver/Inc/stm32f1xx_ll_bus.h ****   *         APB2ENR      TIM9EN        LL_APB2_GRP1_DisableClock\n
 866:Drivers/STM32F1xx_HAL_Driver/Inc/stm32f1xx_ll_bus.h ****   *         APB2ENR      USART1EN      LL_APB2_GRP1_DisableClock
 867:Drivers/STM32F1xx_HAL_Driver/Inc/stm32f1xx_ll_bus.h ****   * @param  Periphs This parameter can be a combination of the following values:
 868:Drivers/STM32F1xx_HAL_Driver/Inc/stm32f1xx_ll_bus.h ****   *         @arg @ref LL_APB2_GRP1_PERIPH_ADC1
 869:Drivers/STM32F1xx_HAL_Driver/Inc/stm32f1xx_ll_bus.h ****   *         @arg @ref LL_APB2_GRP1_PERIPH_ADC2 (*)
 870:Drivers/STM32F1xx_HAL_Driver/Inc/stm32f1xx_ll_bus.h ****   *         @arg @ref LL_APB2_GRP1_PERIPH_ADC3 (*)
 871:Drivers/STM32F1xx_HAL_Driver/Inc/stm32f1xx_ll_bus.h ****   *         @arg @ref LL_APB2_GRP1_PERIPH_AFIO
 872:Drivers/STM32F1xx_HAL_Driver/Inc/stm32f1xx_ll_bus.h ****   *         @arg @ref LL_APB2_GRP1_PERIPH_GPIOA
 873:Drivers/STM32F1xx_HAL_Driver/Inc/stm32f1xx_ll_bus.h ****   *         @arg @ref LL_APB2_GRP1_PERIPH_GPIOB
 874:Drivers/STM32F1xx_HAL_Driver/Inc/stm32f1xx_ll_bus.h ****   *         @arg @ref LL_APB2_GRP1_PERIPH_GPIOC
 875:Drivers/STM32F1xx_HAL_Driver/Inc/stm32f1xx_ll_bus.h ****   *         @arg @ref LL_APB2_GRP1_PERIPH_GPIOD
 876:Drivers/STM32F1xx_HAL_Driver/Inc/stm32f1xx_ll_bus.h ****   *         @arg @ref LL_APB2_GRP1_PERIPH_GPIOE (*)
 877:Drivers/STM32F1xx_HAL_Driver/Inc/stm32f1xx_ll_bus.h ****   *         @arg @ref LL_APB2_GRP1_PERIPH_GPIOF (*)
 878:Drivers/STM32F1xx_HAL_Driver/Inc/stm32f1xx_ll_bus.h ****   *         @arg @ref LL_APB2_GRP1_PERIPH_GPIOG (*)
 879:Drivers/STM32F1xx_HAL_Driver/Inc/stm32f1xx_ll_bus.h ****   *         @arg @ref LL_APB2_GRP1_PERIPH_SPI1
 880:Drivers/STM32F1xx_HAL_Driver/Inc/stm32f1xx_ll_bus.h ****   *         @arg @ref LL_APB2_GRP1_PERIPH_TIM10 (*)
 881:Drivers/STM32F1xx_HAL_Driver/Inc/stm32f1xx_ll_bus.h ****   *         @arg @ref LL_APB2_GRP1_PERIPH_TIM11 (*)
 882:Drivers/STM32F1xx_HAL_Driver/Inc/stm32f1xx_ll_bus.h ****   *         @arg @ref LL_APB2_GRP1_PERIPH_TIM15 (*)
 883:Drivers/STM32F1xx_HAL_Driver/Inc/stm32f1xx_ll_bus.h ****   *         @arg @ref LL_APB2_GRP1_PERIPH_TIM16 (*)
 884:Drivers/STM32F1xx_HAL_Driver/Inc/stm32f1xx_ll_bus.h ****   *         @arg @ref LL_APB2_GRP1_PERIPH_TIM17 (*)
 885:Drivers/STM32F1xx_HAL_Driver/Inc/stm32f1xx_ll_bus.h ****   *         @arg @ref LL_APB2_GRP1_PERIPH_TIM1
 886:Drivers/STM32F1xx_HAL_Driver/Inc/stm32f1xx_ll_bus.h ****   *         @arg @ref LL_APB2_GRP1_PERIPH_TIM8 (*)
 887:Drivers/STM32F1xx_HAL_Driver/Inc/stm32f1xx_ll_bus.h ****   *         @arg @ref LL_APB2_GRP1_PERIPH_TIM9 (*)
 888:Drivers/STM32F1xx_HAL_Driver/Inc/stm32f1xx_ll_bus.h ****   *         @arg @ref LL_APB2_GRP1_PERIPH_USART1
 889:Drivers/STM32F1xx_HAL_Driver/Inc/stm32f1xx_ll_bus.h ****   *
 890:Drivers/STM32F1xx_HAL_Driver/Inc/stm32f1xx_ll_bus.h ****   *         (*) value not defined in all devices.
 891:Drivers/STM32F1xx_HAL_Driver/Inc/stm32f1xx_ll_bus.h ****   * @retval None
 892:Drivers/STM32F1xx_HAL_Driver/Inc/stm32f1xx_ll_bus.h **** */
 893:Drivers/STM32F1xx_HAL_Driver/Inc/stm32f1xx_ll_bus.h **** __STATIC_INLINE void LL_APB2_GRP1_DisableClock(uint32_t Periphs)
 894:Drivers/STM32F1xx_HAL_Driver/Inc/stm32f1xx_ll_bus.h **** {
 895:Drivers/STM32F1xx_HAL_Driver/Inc/stm32f1xx_ll_bus.h ****   CLEAR_BIT(RCC->APB2ENR, Periphs);
 896:Drivers/STM32F1xx_HAL_Driver/Inc/stm32f1xx_ll_bus.h **** }
 897:Drivers/STM32F1xx_HAL_Driver/Inc/stm32f1xx_ll_bus.h **** 
 898:Drivers/STM32F1xx_HAL_Driver/Inc/stm32f1xx_ll_bus.h **** /**
 899:Drivers/STM32F1xx_HAL_Driver/Inc/stm32f1xx_ll_bus.h ****   * @brief  Force APB2 peripherals reset.
 900:Drivers/STM32F1xx_HAL_Driver/Inc/stm32f1xx_ll_bus.h ****   * @rmtoll APB2RSTR     ADC1RST       LL_APB2_GRP1_ForceReset\n
 901:Drivers/STM32F1xx_HAL_Driver/Inc/stm32f1xx_ll_bus.h ****   *         APB2RSTR     ADC2RST       LL_APB2_GRP1_ForceReset\n
 902:Drivers/STM32F1xx_HAL_Driver/Inc/stm32f1xx_ll_bus.h ****   *         APB2RSTR     ADC3RST       LL_APB2_GRP1_ForceReset\n
 903:Drivers/STM32F1xx_HAL_Driver/Inc/stm32f1xx_ll_bus.h ****   *         APB2RSTR     AFIORST       LL_APB2_GRP1_ForceReset\n
 904:Drivers/STM32F1xx_HAL_Driver/Inc/stm32f1xx_ll_bus.h ****   *         APB2RSTR     IOPARST       LL_APB2_GRP1_ForceReset\n
 905:Drivers/STM32F1xx_HAL_Driver/Inc/stm32f1xx_ll_bus.h ****   *         APB2RSTR     IOPBRST       LL_APB2_GRP1_ForceReset\n
 906:Drivers/STM32F1xx_HAL_Driver/Inc/stm32f1xx_ll_bus.h ****   *         APB2RSTR     IOPCRST       LL_APB2_GRP1_ForceReset\n
 907:Drivers/STM32F1xx_HAL_Driver/Inc/stm32f1xx_ll_bus.h ****   *         APB2RSTR     IOPDRST       LL_APB2_GRP1_ForceReset\n
 908:Drivers/STM32F1xx_HAL_Driver/Inc/stm32f1xx_ll_bus.h ****   *         APB2RSTR     IOPERST       LL_APB2_GRP1_ForceReset\n
 909:Drivers/STM32F1xx_HAL_Driver/Inc/stm32f1xx_ll_bus.h ****   *         APB2RSTR     IOPFRST       LL_APB2_GRP1_ForceReset\n
 910:Drivers/STM32F1xx_HAL_Driver/Inc/stm32f1xx_ll_bus.h ****   *         APB2RSTR     IOPGRST       LL_APB2_GRP1_ForceReset\n
 911:Drivers/STM32F1xx_HAL_Driver/Inc/stm32f1xx_ll_bus.h ****   *         APB2RSTR     SPI1RST       LL_APB2_GRP1_ForceReset\n
 912:Drivers/STM32F1xx_HAL_Driver/Inc/stm32f1xx_ll_bus.h ****   *         APB2RSTR     TIM10RST      LL_APB2_GRP1_ForceReset\n
 913:Drivers/STM32F1xx_HAL_Driver/Inc/stm32f1xx_ll_bus.h ****   *         APB2RSTR     TIM11RST      LL_APB2_GRP1_ForceReset\n
 914:Drivers/STM32F1xx_HAL_Driver/Inc/stm32f1xx_ll_bus.h ****   *         APB2RSTR     TIM15RST      LL_APB2_GRP1_ForceReset\n
 915:Drivers/STM32F1xx_HAL_Driver/Inc/stm32f1xx_ll_bus.h ****   *         APB2RSTR     TIM16RST      LL_APB2_GRP1_ForceReset\n
 916:Drivers/STM32F1xx_HAL_Driver/Inc/stm32f1xx_ll_bus.h ****   *         APB2RSTR     TIM17RST      LL_APB2_GRP1_ForceReset\n
 917:Drivers/STM32F1xx_HAL_Driver/Inc/stm32f1xx_ll_bus.h ****   *         APB2RSTR     TIM1RST       LL_APB2_GRP1_ForceReset\n
 918:Drivers/STM32F1xx_HAL_Driver/Inc/stm32f1xx_ll_bus.h ****   *         APB2RSTR     TIM8RST       LL_APB2_GRP1_ForceReset\n
 919:Drivers/STM32F1xx_HAL_Driver/Inc/stm32f1xx_ll_bus.h ****   *         APB2RSTR     TIM9RST       LL_APB2_GRP1_ForceReset\n
 920:Drivers/STM32F1xx_HAL_Driver/Inc/stm32f1xx_ll_bus.h ****   *         APB2RSTR     USART1RST     LL_APB2_GRP1_ForceReset
 921:Drivers/STM32F1xx_HAL_Driver/Inc/stm32f1xx_ll_bus.h ****   * @param  Periphs This parameter can be a combination of the following values:
ARM GAS  /tmp/ccg5Oeuq.s 			page 32


 922:Drivers/STM32F1xx_HAL_Driver/Inc/stm32f1xx_ll_bus.h ****   *         @arg @ref LL_APB2_GRP1_PERIPH_ALL
 923:Drivers/STM32F1xx_HAL_Driver/Inc/stm32f1xx_ll_bus.h ****   *         @arg @ref LL_APB2_GRP1_PERIPH_ADC1
 924:Drivers/STM32F1xx_HAL_Driver/Inc/stm32f1xx_ll_bus.h ****   *         @arg @ref LL_APB2_GRP1_PERIPH_ADC2 (*)
 925:Drivers/STM32F1xx_HAL_Driver/Inc/stm32f1xx_ll_bus.h ****   *         @arg @ref LL_APB2_GRP1_PERIPH_ADC3 (*)
 926:Drivers/STM32F1xx_HAL_Driver/Inc/stm32f1xx_ll_bus.h ****   *         @arg @ref LL_APB2_GRP1_PERIPH_AFIO
 927:Drivers/STM32F1xx_HAL_Driver/Inc/stm32f1xx_ll_bus.h ****   *         @arg @ref LL_APB2_GRP1_PERIPH_GPIOA
 928:Drivers/STM32F1xx_HAL_Driver/Inc/stm32f1xx_ll_bus.h ****   *         @arg @ref LL_APB2_GRP1_PERIPH_GPIOB
 929:Drivers/STM32F1xx_HAL_Driver/Inc/stm32f1xx_ll_bus.h ****   *         @arg @ref LL_APB2_GRP1_PERIPH_GPIOC
 930:Drivers/STM32F1xx_HAL_Driver/Inc/stm32f1xx_ll_bus.h ****   *         @arg @ref LL_APB2_GRP1_PERIPH_GPIOD
 931:Drivers/STM32F1xx_HAL_Driver/Inc/stm32f1xx_ll_bus.h ****   *         @arg @ref LL_APB2_GRP1_PERIPH_GPIOE (*)
 932:Drivers/STM32F1xx_HAL_Driver/Inc/stm32f1xx_ll_bus.h ****   *         @arg @ref LL_APB2_GRP1_PERIPH_GPIOF (*)
 933:Drivers/STM32F1xx_HAL_Driver/Inc/stm32f1xx_ll_bus.h ****   *         @arg @ref LL_APB2_GRP1_PERIPH_GPIOG (*)
 934:Drivers/STM32F1xx_HAL_Driver/Inc/stm32f1xx_ll_bus.h ****   *         @arg @ref LL_APB2_GRP1_PERIPH_SPI1
 935:Drivers/STM32F1xx_HAL_Driver/Inc/stm32f1xx_ll_bus.h ****   *         @arg @ref LL_APB2_GRP1_PERIPH_TIM10 (*)
 936:Drivers/STM32F1xx_HAL_Driver/Inc/stm32f1xx_ll_bus.h ****   *         @arg @ref LL_APB2_GRP1_PERIPH_TIM11 (*)
 937:Drivers/STM32F1xx_HAL_Driver/Inc/stm32f1xx_ll_bus.h ****   *         @arg @ref LL_APB2_GRP1_PERIPH_TIM15 (*)
 938:Drivers/STM32F1xx_HAL_Driver/Inc/stm32f1xx_ll_bus.h ****   *         @arg @ref LL_APB2_GRP1_PERIPH_TIM16 (*)
 939:Drivers/STM32F1xx_HAL_Driver/Inc/stm32f1xx_ll_bus.h ****   *         @arg @ref LL_APB2_GRP1_PERIPH_TIM17 (*)
 940:Drivers/STM32F1xx_HAL_Driver/Inc/stm32f1xx_ll_bus.h ****   *         @arg @ref LL_APB2_GRP1_PERIPH_TIM1
 941:Drivers/STM32F1xx_HAL_Driver/Inc/stm32f1xx_ll_bus.h ****   *         @arg @ref LL_APB2_GRP1_PERIPH_TIM8 (*)
 942:Drivers/STM32F1xx_HAL_Driver/Inc/stm32f1xx_ll_bus.h ****   *         @arg @ref LL_APB2_GRP1_PERIPH_TIM9 (*)
 943:Drivers/STM32F1xx_HAL_Driver/Inc/stm32f1xx_ll_bus.h ****   *         @arg @ref LL_APB2_GRP1_PERIPH_USART1
 944:Drivers/STM32F1xx_HAL_Driver/Inc/stm32f1xx_ll_bus.h ****   *
 945:Drivers/STM32F1xx_HAL_Driver/Inc/stm32f1xx_ll_bus.h ****   *         (*) value not defined in all devices.
 946:Drivers/STM32F1xx_HAL_Driver/Inc/stm32f1xx_ll_bus.h ****   * @retval None
 947:Drivers/STM32F1xx_HAL_Driver/Inc/stm32f1xx_ll_bus.h **** */
 948:Drivers/STM32F1xx_HAL_Driver/Inc/stm32f1xx_ll_bus.h **** __STATIC_INLINE void LL_APB2_GRP1_ForceReset(uint32_t Periphs)
 949:Drivers/STM32F1xx_HAL_Driver/Inc/stm32f1xx_ll_bus.h **** {
 233              		.loc 2 949 0
 234              		.cfi_startproc
 235              		@ args = 0, pretend = 0, frame = 8
 236              		@ frame_needed = 1, uses_anonymous_args = 0
 237              		@ link register save eliminated.
 238 0000 80B4     		push	{r7}
 239              	.LCFI24:
 240              		.cfi_def_cfa_offset 4
 241              		.cfi_offset 7, -4
 242 0002 83B0     		sub	sp, sp, #12
 243              	.LCFI25:
 244              		.cfi_def_cfa_offset 16
 245 0004 00AF     		add	r7, sp, #0
 246              	.LCFI26:
 247              		.cfi_def_cfa_register 7
 248 0006 7860     		str	r0, [r7, #4]
 950:Drivers/STM32F1xx_HAL_Driver/Inc/stm32f1xx_ll_bus.h ****   SET_BIT(RCC->APB2RSTR, Periphs);
 249              		.loc 2 950 0
 250 0008 054B     		ldr	r3, .L11
 251 000a DA68     		ldr	r2, [r3, #12]
 252 000c 0449     		ldr	r1, .L11
 253 000e 7B68     		ldr	r3, [r7, #4]
 254 0010 1343     		orrs	r3, r3, r2
 255 0012 CB60     		str	r3, [r1, #12]
 951:Drivers/STM32F1xx_HAL_Driver/Inc/stm32f1xx_ll_bus.h **** }
 256              		.loc 2 951 0
 257 0014 00BF     		nop
 258 0016 0C37     		adds	r7, r7, #12
 259              	.LCFI27:
ARM GAS  /tmp/ccg5Oeuq.s 			page 33


 260              		.cfi_def_cfa_offset 4
 261 0018 BD46     		mov	sp, r7
 262              	.LCFI28:
 263              		.cfi_def_cfa_register 13
 264              		@ sp needed
 265 001a 80BC     		pop	{r7}
 266              	.LCFI29:
 267              		.cfi_restore 7
 268              		.cfi_def_cfa_offset 0
 269 001c 7047     		bx	lr
 270              	.L12:
 271 001e 00BF     		.align	2
 272              	.L11:
 273 0020 00100240 		.word	1073876992
 274              		.cfi_endproc
 275              	.LFE133:
 277              		.section	.text.LL_APB2_GRP1_ReleaseReset,"ax",%progbits
 278              		.align	1
 279              		.syntax unified
 280              		.thumb
 281              		.thumb_func
 282              		.fpu softvfp
 284              	LL_APB2_GRP1_ReleaseReset:
 285              	.LFB134:
 952:Drivers/STM32F1xx_HAL_Driver/Inc/stm32f1xx_ll_bus.h **** 
 953:Drivers/STM32F1xx_HAL_Driver/Inc/stm32f1xx_ll_bus.h **** /**
 954:Drivers/STM32F1xx_HAL_Driver/Inc/stm32f1xx_ll_bus.h ****   * @brief  Release APB2 peripherals reset.
 955:Drivers/STM32F1xx_HAL_Driver/Inc/stm32f1xx_ll_bus.h ****   * @rmtoll APB2RSTR     ADC1RST       LL_APB2_GRP1_ReleaseReset\n
 956:Drivers/STM32F1xx_HAL_Driver/Inc/stm32f1xx_ll_bus.h ****   *         APB2RSTR     ADC2RST       LL_APB2_GRP1_ReleaseReset\n
 957:Drivers/STM32F1xx_HAL_Driver/Inc/stm32f1xx_ll_bus.h ****   *         APB2RSTR     ADC3RST       LL_APB2_GRP1_ReleaseReset\n
 958:Drivers/STM32F1xx_HAL_Driver/Inc/stm32f1xx_ll_bus.h ****   *         APB2RSTR     AFIORST       LL_APB2_GRP1_ReleaseReset\n
 959:Drivers/STM32F1xx_HAL_Driver/Inc/stm32f1xx_ll_bus.h ****   *         APB2RSTR     IOPARST       LL_APB2_GRP1_ReleaseReset\n
 960:Drivers/STM32F1xx_HAL_Driver/Inc/stm32f1xx_ll_bus.h ****   *         APB2RSTR     IOPBRST       LL_APB2_GRP1_ReleaseReset\n
 961:Drivers/STM32F1xx_HAL_Driver/Inc/stm32f1xx_ll_bus.h ****   *         APB2RSTR     IOPCRST       LL_APB2_GRP1_ReleaseReset\n
 962:Drivers/STM32F1xx_HAL_Driver/Inc/stm32f1xx_ll_bus.h ****   *         APB2RSTR     IOPDRST       LL_APB2_GRP1_ReleaseReset\n
 963:Drivers/STM32F1xx_HAL_Driver/Inc/stm32f1xx_ll_bus.h ****   *         APB2RSTR     IOPERST       LL_APB2_GRP1_ReleaseReset\n
 964:Drivers/STM32F1xx_HAL_Driver/Inc/stm32f1xx_ll_bus.h ****   *         APB2RSTR     IOPFRST       LL_APB2_GRP1_ReleaseReset\n
 965:Drivers/STM32F1xx_HAL_Driver/Inc/stm32f1xx_ll_bus.h ****   *         APB2RSTR     IOPGRST       LL_APB2_GRP1_ReleaseReset\n
 966:Drivers/STM32F1xx_HAL_Driver/Inc/stm32f1xx_ll_bus.h ****   *         APB2RSTR     SPI1RST       LL_APB2_GRP1_ReleaseReset\n
 967:Drivers/STM32F1xx_HAL_Driver/Inc/stm32f1xx_ll_bus.h ****   *         APB2RSTR     TIM10RST      LL_APB2_GRP1_ReleaseReset\n
 968:Drivers/STM32F1xx_HAL_Driver/Inc/stm32f1xx_ll_bus.h ****   *         APB2RSTR     TIM11RST      LL_APB2_GRP1_ReleaseReset\n
 969:Drivers/STM32F1xx_HAL_Driver/Inc/stm32f1xx_ll_bus.h ****   *         APB2RSTR     TIM15RST      LL_APB2_GRP1_ReleaseReset\n
 970:Drivers/STM32F1xx_HAL_Driver/Inc/stm32f1xx_ll_bus.h ****   *         APB2RSTR     TIM16RST      LL_APB2_GRP1_ReleaseReset\n
 971:Drivers/STM32F1xx_HAL_Driver/Inc/stm32f1xx_ll_bus.h ****   *         APB2RSTR     TIM17RST      LL_APB2_GRP1_ReleaseReset\n
 972:Drivers/STM32F1xx_HAL_Driver/Inc/stm32f1xx_ll_bus.h ****   *         APB2RSTR     TIM1RST       LL_APB2_GRP1_ReleaseReset\n
 973:Drivers/STM32F1xx_HAL_Driver/Inc/stm32f1xx_ll_bus.h ****   *         APB2RSTR     TIM8RST       LL_APB2_GRP1_ReleaseReset\n
 974:Drivers/STM32F1xx_HAL_Driver/Inc/stm32f1xx_ll_bus.h ****   *         APB2RSTR     TIM9RST       LL_APB2_GRP1_ReleaseReset\n
 975:Drivers/STM32F1xx_HAL_Driver/Inc/stm32f1xx_ll_bus.h ****   *         APB2RSTR     USART1RST     LL_APB2_GRP1_ReleaseReset
 976:Drivers/STM32F1xx_HAL_Driver/Inc/stm32f1xx_ll_bus.h ****   * @param  Periphs This parameter can be a combination of the following values:
 977:Drivers/STM32F1xx_HAL_Driver/Inc/stm32f1xx_ll_bus.h ****   *         @arg @ref LL_APB2_GRP1_PERIPH_ALL
 978:Drivers/STM32F1xx_HAL_Driver/Inc/stm32f1xx_ll_bus.h ****   *         @arg @ref LL_APB2_GRP1_PERIPH_ADC1
 979:Drivers/STM32F1xx_HAL_Driver/Inc/stm32f1xx_ll_bus.h ****   *         @arg @ref LL_APB2_GRP1_PERIPH_ADC2 (*)
 980:Drivers/STM32F1xx_HAL_Driver/Inc/stm32f1xx_ll_bus.h ****   *         @arg @ref LL_APB2_GRP1_PERIPH_ADC3 (*)
 981:Drivers/STM32F1xx_HAL_Driver/Inc/stm32f1xx_ll_bus.h ****   *         @arg @ref LL_APB2_GRP1_PERIPH_AFIO
 982:Drivers/STM32F1xx_HAL_Driver/Inc/stm32f1xx_ll_bus.h ****   *         @arg @ref LL_APB2_GRP1_PERIPH_GPIOA
 983:Drivers/STM32F1xx_HAL_Driver/Inc/stm32f1xx_ll_bus.h ****   *         @arg @ref LL_APB2_GRP1_PERIPH_GPIOB
 984:Drivers/STM32F1xx_HAL_Driver/Inc/stm32f1xx_ll_bus.h ****   *         @arg @ref LL_APB2_GRP1_PERIPH_GPIOC
ARM GAS  /tmp/ccg5Oeuq.s 			page 34


 985:Drivers/STM32F1xx_HAL_Driver/Inc/stm32f1xx_ll_bus.h ****   *         @arg @ref LL_APB2_GRP1_PERIPH_GPIOD
 986:Drivers/STM32F1xx_HAL_Driver/Inc/stm32f1xx_ll_bus.h ****   *         @arg @ref LL_APB2_GRP1_PERIPH_GPIOE (*)
 987:Drivers/STM32F1xx_HAL_Driver/Inc/stm32f1xx_ll_bus.h ****   *         @arg @ref LL_APB2_GRP1_PERIPH_GPIOF (*)
 988:Drivers/STM32F1xx_HAL_Driver/Inc/stm32f1xx_ll_bus.h ****   *         @arg @ref LL_APB2_GRP1_PERIPH_GPIOG (*)
 989:Drivers/STM32F1xx_HAL_Driver/Inc/stm32f1xx_ll_bus.h ****   *         @arg @ref LL_APB2_GRP1_PERIPH_SPI1
 990:Drivers/STM32F1xx_HAL_Driver/Inc/stm32f1xx_ll_bus.h ****   *         @arg @ref LL_APB2_GRP1_PERIPH_TIM10 (*)
 991:Drivers/STM32F1xx_HAL_Driver/Inc/stm32f1xx_ll_bus.h ****   *         @arg @ref LL_APB2_GRP1_PERIPH_TIM11 (*)
 992:Drivers/STM32F1xx_HAL_Driver/Inc/stm32f1xx_ll_bus.h ****   *         @arg @ref LL_APB2_GRP1_PERIPH_TIM15 (*)
 993:Drivers/STM32F1xx_HAL_Driver/Inc/stm32f1xx_ll_bus.h ****   *         @arg @ref LL_APB2_GRP1_PERIPH_TIM16 (*)
 994:Drivers/STM32F1xx_HAL_Driver/Inc/stm32f1xx_ll_bus.h ****   *         @arg @ref LL_APB2_GRP1_PERIPH_TIM17 (*)
 995:Drivers/STM32F1xx_HAL_Driver/Inc/stm32f1xx_ll_bus.h ****   *         @arg @ref LL_APB2_GRP1_PERIPH_TIM1
 996:Drivers/STM32F1xx_HAL_Driver/Inc/stm32f1xx_ll_bus.h ****   *         @arg @ref LL_APB2_GRP1_PERIPH_TIM8 (*)
 997:Drivers/STM32F1xx_HAL_Driver/Inc/stm32f1xx_ll_bus.h ****   *         @arg @ref LL_APB2_GRP1_PERIPH_TIM9 (*)
 998:Drivers/STM32F1xx_HAL_Driver/Inc/stm32f1xx_ll_bus.h ****   *         @arg @ref LL_APB2_GRP1_PERIPH_USART1
 999:Drivers/STM32F1xx_HAL_Driver/Inc/stm32f1xx_ll_bus.h ****   *
1000:Drivers/STM32F1xx_HAL_Driver/Inc/stm32f1xx_ll_bus.h ****   *         (*) value not defined in all devices.
1001:Drivers/STM32F1xx_HAL_Driver/Inc/stm32f1xx_ll_bus.h ****   * @retval None
1002:Drivers/STM32F1xx_HAL_Driver/Inc/stm32f1xx_ll_bus.h **** */
1003:Drivers/STM32F1xx_HAL_Driver/Inc/stm32f1xx_ll_bus.h **** __STATIC_INLINE void LL_APB2_GRP1_ReleaseReset(uint32_t Periphs)
1004:Drivers/STM32F1xx_HAL_Driver/Inc/stm32f1xx_ll_bus.h **** {
 286              		.loc 2 1004 0
 287              		.cfi_startproc
 288              		@ args = 0, pretend = 0, frame = 8
 289              		@ frame_needed = 1, uses_anonymous_args = 0
 290              		@ link register save eliminated.
 291 0000 80B4     		push	{r7}
 292              	.LCFI30:
 293              		.cfi_def_cfa_offset 4
 294              		.cfi_offset 7, -4
 295 0002 83B0     		sub	sp, sp, #12
 296              	.LCFI31:
 297              		.cfi_def_cfa_offset 16
 298 0004 00AF     		add	r7, sp, #0
 299              	.LCFI32:
 300              		.cfi_def_cfa_register 7
 301 0006 7860     		str	r0, [r7, #4]
1005:Drivers/STM32F1xx_HAL_Driver/Inc/stm32f1xx_ll_bus.h ****   CLEAR_BIT(RCC->APB2RSTR, Periphs);
 302              		.loc 2 1005 0
 303 0008 054B     		ldr	r3, .L14
 304 000a DA68     		ldr	r2, [r3, #12]
 305 000c 7B68     		ldr	r3, [r7, #4]
 306 000e DB43     		mvns	r3, r3
 307 0010 0349     		ldr	r1, .L14
 308 0012 1340     		ands	r3, r3, r2
 309 0014 CB60     		str	r3, [r1, #12]
1006:Drivers/STM32F1xx_HAL_Driver/Inc/stm32f1xx_ll_bus.h **** }
 310              		.loc 2 1006 0
 311 0016 00BF     		nop
 312 0018 0C37     		adds	r7, r7, #12
 313              	.LCFI33:
 314              		.cfi_def_cfa_offset 4
 315 001a BD46     		mov	sp, r7
 316              	.LCFI34:
 317              		.cfi_def_cfa_register 13
 318              		@ sp needed
 319 001c 80BC     		pop	{r7}
 320              	.LCFI35:
ARM GAS  /tmp/ccg5Oeuq.s 			page 35


 321              		.cfi_restore 7
 322              		.cfi_def_cfa_offset 0
 323 001e 7047     		bx	lr
 324              	.L15:
 325              		.align	2
 326              	.L14:
 327 0020 00100240 		.word	1073876992
 328              		.cfi_endproc
 329              	.LFE134:
 331              		.section	.text.LL_SPI_DeInit,"ax",%progbits
 332              		.align	1
 333              		.global	LL_SPI_DeInit
 334              		.syntax unified
 335              		.thumb
 336              		.thumb_func
 337              		.fpu softvfp
 339              	LL_SPI_DeInit:
 340              	.LFB216:
 341              		.file 3 "Drivers/STM32F1xx_HAL_Driver/Src/stm32f1xx_ll_spi.c"
   1:Drivers/STM32F1xx_HAL_Driver/Src/stm32f1xx_ll_spi.c **** /**
   2:Drivers/STM32F1xx_HAL_Driver/Src/stm32f1xx_ll_spi.c ****   ******************************************************************************
   3:Drivers/STM32F1xx_HAL_Driver/Src/stm32f1xx_ll_spi.c ****   * @file    stm32f1xx_ll_spi.c
   4:Drivers/STM32F1xx_HAL_Driver/Src/stm32f1xx_ll_spi.c ****   * @author  MCD Application Team
   5:Drivers/STM32F1xx_HAL_Driver/Src/stm32f1xx_ll_spi.c ****   * @version V1.1.1
   6:Drivers/STM32F1xx_HAL_Driver/Src/stm32f1xx_ll_spi.c ****   * @date    12-May-2017
   7:Drivers/STM32F1xx_HAL_Driver/Src/stm32f1xx_ll_spi.c ****   * @brief   SPI LL module driver.
   8:Drivers/STM32F1xx_HAL_Driver/Src/stm32f1xx_ll_spi.c ****   ******************************************************************************
   9:Drivers/STM32F1xx_HAL_Driver/Src/stm32f1xx_ll_spi.c ****   * @attention
  10:Drivers/STM32F1xx_HAL_Driver/Src/stm32f1xx_ll_spi.c ****   *
  11:Drivers/STM32F1xx_HAL_Driver/Src/stm32f1xx_ll_spi.c ****   * <h2><center>&copy; COPYRIGHT(c) 2016 STMicroelectronics</center></h2>
  12:Drivers/STM32F1xx_HAL_Driver/Src/stm32f1xx_ll_spi.c ****   *
  13:Drivers/STM32F1xx_HAL_Driver/Src/stm32f1xx_ll_spi.c ****   * Redistribution and use in source and binary forms, with or without modification,
  14:Drivers/STM32F1xx_HAL_Driver/Src/stm32f1xx_ll_spi.c ****   * are permitted provided that the following conditions are met:
  15:Drivers/STM32F1xx_HAL_Driver/Src/stm32f1xx_ll_spi.c ****   *   1. Redistributions of source code must retain the above copyright notice,
  16:Drivers/STM32F1xx_HAL_Driver/Src/stm32f1xx_ll_spi.c ****   *      this list of conditions and the following disclaimer.
  17:Drivers/STM32F1xx_HAL_Driver/Src/stm32f1xx_ll_spi.c ****   *   2. Redistributions in binary form must reproduce the above copyright notice,
  18:Drivers/STM32F1xx_HAL_Driver/Src/stm32f1xx_ll_spi.c ****   *      this list of conditions and the following disclaimer in the documentation
  19:Drivers/STM32F1xx_HAL_Driver/Src/stm32f1xx_ll_spi.c ****   *      and/or other materials provided with the distribution.
  20:Drivers/STM32F1xx_HAL_Driver/Src/stm32f1xx_ll_spi.c ****   *   3. Neither the name of STMicroelectronics nor the names of its contributors
  21:Drivers/STM32F1xx_HAL_Driver/Src/stm32f1xx_ll_spi.c ****   *      may be used to endorse or promote products derived from this software
  22:Drivers/STM32F1xx_HAL_Driver/Src/stm32f1xx_ll_spi.c ****   *      without specific prior written permission.
  23:Drivers/STM32F1xx_HAL_Driver/Src/stm32f1xx_ll_spi.c ****   *
  24:Drivers/STM32F1xx_HAL_Driver/Src/stm32f1xx_ll_spi.c ****   * THIS SOFTWARE IS PROVIDED BY THE COPYRIGHT HOLDERS AND CONTRIBUTORS "AS IS"
  25:Drivers/STM32F1xx_HAL_Driver/Src/stm32f1xx_ll_spi.c ****   * AND ANY EXPRESS OR IMPLIED WARRANTIES, INCLUDING, BUT NOT LIMITED TO, THE
  26:Drivers/STM32F1xx_HAL_Driver/Src/stm32f1xx_ll_spi.c ****   * IMPLIED WARRANTIES OF MERCHANTABILITY AND FITNESS FOR A PARTICULAR PURPOSE ARE
  27:Drivers/STM32F1xx_HAL_Driver/Src/stm32f1xx_ll_spi.c ****   * DISCLAIMED. IN NO EVENT SHALL THE COPYRIGHT HOLDER OR CONTRIBUTORS BE LIABLE
  28:Drivers/STM32F1xx_HAL_Driver/Src/stm32f1xx_ll_spi.c ****   * FOR ANY DIRECT, INDIRECT, INCIDENTAL, SPECIAL, EXEMPLARY, OR CONSEQUENTIAL
  29:Drivers/STM32F1xx_HAL_Driver/Src/stm32f1xx_ll_spi.c ****   * DAMAGES (INCLUDING, BUT NOT LIMITED TO, PROCUREMENT OF SUBSTITUTE GOODS OR
  30:Drivers/STM32F1xx_HAL_Driver/Src/stm32f1xx_ll_spi.c ****   * SERVICES; LOSS OF USE, DATA, OR PROFITS; OR BUSINESS INTERRUPTION) HOWEVER
  31:Drivers/STM32F1xx_HAL_Driver/Src/stm32f1xx_ll_spi.c ****   * CAUSED AND ON ANY THEORY OF LIABILITY, WHETHER IN CONTRACT, STRICT LIABILITY,
  32:Drivers/STM32F1xx_HAL_Driver/Src/stm32f1xx_ll_spi.c ****   * OR TORT (INCLUDING NEGLIGENCE OR OTHERWISE) ARISING IN ANY WAY OUT OF THE USE
  33:Drivers/STM32F1xx_HAL_Driver/Src/stm32f1xx_ll_spi.c ****   * OF THIS SOFTWARE, EVEN IF ADVISED OF THE POSSIBILITY OF SUCH DAMAGE.
  34:Drivers/STM32F1xx_HAL_Driver/Src/stm32f1xx_ll_spi.c ****   *
  35:Drivers/STM32F1xx_HAL_Driver/Src/stm32f1xx_ll_spi.c ****   ******************************************************************************
  36:Drivers/STM32F1xx_HAL_Driver/Src/stm32f1xx_ll_spi.c ****   */
  37:Drivers/STM32F1xx_HAL_Driver/Src/stm32f1xx_ll_spi.c **** #if defined(USE_FULL_LL_DRIVER)
  38:Drivers/STM32F1xx_HAL_Driver/Src/stm32f1xx_ll_spi.c **** 
ARM GAS  /tmp/ccg5Oeuq.s 			page 36


  39:Drivers/STM32F1xx_HAL_Driver/Src/stm32f1xx_ll_spi.c **** /* Includes ------------------------------------------------------------------*/
  40:Drivers/STM32F1xx_HAL_Driver/Src/stm32f1xx_ll_spi.c **** #include "stm32f1xx_ll_spi.h"
  41:Drivers/STM32F1xx_HAL_Driver/Src/stm32f1xx_ll_spi.c **** #include "stm32f1xx_ll_bus.h"
  42:Drivers/STM32F1xx_HAL_Driver/Src/stm32f1xx_ll_spi.c **** #include "stm32f1xx_ll_rcc.h"
  43:Drivers/STM32F1xx_HAL_Driver/Src/stm32f1xx_ll_spi.c **** 
  44:Drivers/STM32F1xx_HAL_Driver/Src/stm32f1xx_ll_spi.c **** #ifdef  USE_FULL_ASSERT
  45:Drivers/STM32F1xx_HAL_Driver/Src/stm32f1xx_ll_spi.c **** #include "stm32_assert.h"
  46:Drivers/STM32F1xx_HAL_Driver/Src/stm32f1xx_ll_spi.c **** #else
  47:Drivers/STM32F1xx_HAL_Driver/Src/stm32f1xx_ll_spi.c **** #define assert_param(expr) ((void)0U)
  48:Drivers/STM32F1xx_HAL_Driver/Src/stm32f1xx_ll_spi.c **** #endif
  49:Drivers/STM32F1xx_HAL_Driver/Src/stm32f1xx_ll_spi.c **** 
  50:Drivers/STM32F1xx_HAL_Driver/Src/stm32f1xx_ll_spi.c **** /** @addtogroup STM32F1xx_LL_Driver
  51:Drivers/STM32F1xx_HAL_Driver/Src/stm32f1xx_ll_spi.c ****   * @{
  52:Drivers/STM32F1xx_HAL_Driver/Src/stm32f1xx_ll_spi.c ****   */
  53:Drivers/STM32F1xx_HAL_Driver/Src/stm32f1xx_ll_spi.c **** 
  54:Drivers/STM32F1xx_HAL_Driver/Src/stm32f1xx_ll_spi.c **** #if defined (SPI1) || defined (SPI2) || defined (SPI3)
  55:Drivers/STM32F1xx_HAL_Driver/Src/stm32f1xx_ll_spi.c **** 
  56:Drivers/STM32F1xx_HAL_Driver/Src/stm32f1xx_ll_spi.c **** /** @addtogroup SPI_LL
  57:Drivers/STM32F1xx_HAL_Driver/Src/stm32f1xx_ll_spi.c ****   * @{
  58:Drivers/STM32F1xx_HAL_Driver/Src/stm32f1xx_ll_spi.c ****   */
  59:Drivers/STM32F1xx_HAL_Driver/Src/stm32f1xx_ll_spi.c **** 
  60:Drivers/STM32F1xx_HAL_Driver/Src/stm32f1xx_ll_spi.c **** /* Private types -------------------------------------------------------------*/
  61:Drivers/STM32F1xx_HAL_Driver/Src/stm32f1xx_ll_spi.c **** /* Private variables ---------------------------------------------------------*/
  62:Drivers/STM32F1xx_HAL_Driver/Src/stm32f1xx_ll_spi.c **** 
  63:Drivers/STM32F1xx_HAL_Driver/Src/stm32f1xx_ll_spi.c **** /* Private constants ---------------------------------------------------------*/
  64:Drivers/STM32F1xx_HAL_Driver/Src/stm32f1xx_ll_spi.c **** /** @defgroup SPI_LL_Private_Constants SPI Private Constants
  65:Drivers/STM32F1xx_HAL_Driver/Src/stm32f1xx_ll_spi.c ****   * @{
  66:Drivers/STM32F1xx_HAL_Driver/Src/stm32f1xx_ll_spi.c ****   */
  67:Drivers/STM32F1xx_HAL_Driver/Src/stm32f1xx_ll_spi.c **** /* SPI registers Masks */
  68:Drivers/STM32F1xx_HAL_Driver/Src/stm32f1xx_ll_spi.c **** #define SPI_CR1_CLEAR_MASK                 (SPI_CR1_CPHA    | SPI_CR1_CPOL     | SPI_CR1_MSTR   | \
  69:Drivers/STM32F1xx_HAL_Driver/Src/stm32f1xx_ll_spi.c ****                                             SPI_CR1_BR      | SPI_CR1_LSBFIRST | SPI_CR1_SSI    | \
  70:Drivers/STM32F1xx_HAL_Driver/Src/stm32f1xx_ll_spi.c ****                                             SPI_CR1_SSM     | SPI_CR1_RXONLY   | SPI_CR1_DFF    | \
  71:Drivers/STM32F1xx_HAL_Driver/Src/stm32f1xx_ll_spi.c ****                                             SPI_CR1_CRCNEXT | SPI_CR1_CRCEN    | SPI_CR1_BIDIOE | \
  72:Drivers/STM32F1xx_HAL_Driver/Src/stm32f1xx_ll_spi.c ****                                             SPI_CR1_BIDIMODE)
  73:Drivers/STM32F1xx_HAL_Driver/Src/stm32f1xx_ll_spi.c **** /**
  74:Drivers/STM32F1xx_HAL_Driver/Src/stm32f1xx_ll_spi.c ****   * @}
  75:Drivers/STM32F1xx_HAL_Driver/Src/stm32f1xx_ll_spi.c ****   */
  76:Drivers/STM32F1xx_HAL_Driver/Src/stm32f1xx_ll_spi.c **** 
  77:Drivers/STM32F1xx_HAL_Driver/Src/stm32f1xx_ll_spi.c **** /* Private macros ------------------------------------------------------------*/
  78:Drivers/STM32F1xx_HAL_Driver/Src/stm32f1xx_ll_spi.c **** /** @defgroup SPI_LL_Private_Macros SPI Private Macros
  79:Drivers/STM32F1xx_HAL_Driver/Src/stm32f1xx_ll_spi.c ****   * @{
  80:Drivers/STM32F1xx_HAL_Driver/Src/stm32f1xx_ll_spi.c ****   */
  81:Drivers/STM32F1xx_HAL_Driver/Src/stm32f1xx_ll_spi.c **** #define IS_LL_SPI_TRANSFER_DIRECTION(__VALUE__) (((__VALUE__) == LL_SPI_FULL_DUPLEX)    \
  82:Drivers/STM32F1xx_HAL_Driver/Src/stm32f1xx_ll_spi.c ****                                               || ((__VALUE__) == LL_SPI_SIMPLEX_RX)     \
  83:Drivers/STM32F1xx_HAL_Driver/Src/stm32f1xx_ll_spi.c ****                                               || ((__VALUE__) == LL_SPI_HALF_DUPLEX_RX) \
  84:Drivers/STM32F1xx_HAL_Driver/Src/stm32f1xx_ll_spi.c ****                                               || ((__VALUE__) == LL_SPI_HALF_DUPLEX_TX))
  85:Drivers/STM32F1xx_HAL_Driver/Src/stm32f1xx_ll_spi.c **** 
  86:Drivers/STM32F1xx_HAL_Driver/Src/stm32f1xx_ll_spi.c **** #define IS_LL_SPI_MODE(__VALUE__) (((__VALUE__) == LL_SPI_MODE_MASTER) \
  87:Drivers/STM32F1xx_HAL_Driver/Src/stm32f1xx_ll_spi.c ****                                 || ((__VALUE__) == LL_SPI_MODE_SLAVE))
  88:Drivers/STM32F1xx_HAL_Driver/Src/stm32f1xx_ll_spi.c **** 
  89:Drivers/STM32F1xx_HAL_Driver/Src/stm32f1xx_ll_spi.c **** #define IS_LL_SPI_DATAWIDTH(__VALUE__) (((__VALUE__) == LL_SPI_DATAWIDTH_8BIT)  \
  90:Drivers/STM32F1xx_HAL_Driver/Src/stm32f1xx_ll_spi.c ****                                      || ((__VALUE__) == LL_SPI_DATAWIDTH_16BIT))
  91:Drivers/STM32F1xx_HAL_Driver/Src/stm32f1xx_ll_spi.c **** 
  92:Drivers/STM32F1xx_HAL_Driver/Src/stm32f1xx_ll_spi.c **** #define IS_LL_SPI_POLARITY(__VALUE__) (((__VALUE__) == LL_SPI_POLARITY_LOW) \
  93:Drivers/STM32F1xx_HAL_Driver/Src/stm32f1xx_ll_spi.c ****                                     || ((__VALUE__) == LL_SPI_POLARITY_HIGH))
  94:Drivers/STM32F1xx_HAL_Driver/Src/stm32f1xx_ll_spi.c **** 
  95:Drivers/STM32F1xx_HAL_Driver/Src/stm32f1xx_ll_spi.c **** #define IS_LL_SPI_PHASE(__VALUE__) (((__VALUE__) == LL_SPI_PHASE_1EDGE) \
ARM GAS  /tmp/ccg5Oeuq.s 			page 37


  96:Drivers/STM32F1xx_HAL_Driver/Src/stm32f1xx_ll_spi.c ****                                  || ((__VALUE__) == LL_SPI_PHASE_2EDGE))
  97:Drivers/STM32F1xx_HAL_Driver/Src/stm32f1xx_ll_spi.c **** 
  98:Drivers/STM32F1xx_HAL_Driver/Src/stm32f1xx_ll_spi.c **** #define IS_LL_SPI_NSS(__VALUE__) (((__VALUE__) == LL_SPI_NSS_SOFT) \
  99:Drivers/STM32F1xx_HAL_Driver/Src/stm32f1xx_ll_spi.c ****                                || ((__VALUE__) == LL_SPI_NSS_HARD_INPUT) \
 100:Drivers/STM32F1xx_HAL_Driver/Src/stm32f1xx_ll_spi.c ****                                || ((__VALUE__) == LL_SPI_NSS_HARD_OUTPUT))
 101:Drivers/STM32F1xx_HAL_Driver/Src/stm32f1xx_ll_spi.c **** 
 102:Drivers/STM32F1xx_HAL_Driver/Src/stm32f1xx_ll_spi.c **** #define IS_LL_SPI_BAUDRATE(__VALUE__) (((__VALUE__) == LL_SPI_BAUDRATEPRESCALER_DIV2)   \
 103:Drivers/STM32F1xx_HAL_Driver/Src/stm32f1xx_ll_spi.c ****                                     || ((__VALUE__) == LL_SPI_BAUDRATEPRESCALER_DIV4)   \
 104:Drivers/STM32F1xx_HAL_Driver/Src/stm32f1xx_ll_spi.c ****                                     || ((__VALUE__) == LL_SPI_BAUDRATEPRESCALER_DIV8)   \
 105:Drivers/STM32F1xx_HAL_Driver/Src/stm32f1xx_ll_spi.c ****                                     || ((__VALUE__) == LL_SPI_BAUDRATEPRESCALER_DIV16)  \
 106:Drivers/STM32F1xx_HAL_Driver/Src/stm32f1xx_ll_spi.c ****                                     || ((__VALUE__) == LL_SPI_BAUDRATEPRESCALER_DIV32)  \
 107:Drivers/STM32F1xx_HAL_Driver/Src/stm32f1xx_ll_spi.c ****                                     || ((__VALUE__) == LL_SPI_BAUDRATEPRESCALER_DIV64)  \
 108:Drivers/STM32F1xx_HAL_Driver/Src/stm32f1xx_ll_spi.c ****                                     || ((__VALUE__) == LL_SPI_BAUDRATEPRESCALER_DIV128) \
 109:Drivers/STM32F1xx_HAL_Driver/Src/stm32f1xx_ll_spi.c ****                                     || ((__VALUE__) == LL_SPI_BAUDRATEPRESCALER_DIV256))
 110:Drivers/STM32F1xx_HAL_Driver/Src/stm32f1xx_ll_spi.c **** 
 111:Drivers/STM32F1xx_HAL_Driver/Src/stm32f1xx_ll_spi.c **** #define IS_LL_SPI_BITORDER(__VALUE__) (((__VALUE__) == LL_SPI_LSB_FIRST) \
 112:Drivers/STM32F1xx_HAL_Driver/Src/stm32f1xx_ll_spi.c ****                                     || ((__VALUE__) == LL_SPI_MSB_FIRST))
 113:Drivers/STM32F1xx_HAL_Driver/Src/stm32f1xx_ll_spi.c **** 
 114:Drivers/STM32F1xx_HAL_Driver/Src/stm32f1xx_ll_spi.c **** #define IS_LL_SPI_CRCCALCULATION(__VALUE__) (((__VALUE__) == LL_SPI_CRCCALCULATION_ENABLE) \
 115:Drivers/STM32F1xx_HAL_Driver/Src/stm32f1xx_ll_spi.c ****                                           || ((__VALUE__) == LL_SPI_CRCCALCULATION_DISABLE))
 116:Drivers/STM32F1xx_HAL_Driver/Src/stm32f1xx_ll_spi.c **** 
 117:Drivers/STM32F1xx_HAL_Driver/Src/stm32f1xx_ll_spi.c **** #define IS_LL_SPI_CRC_POLYNOMIAL(__VALUE__) ((__VALUE__) >= 0x1U)
 118:Drivers/STM32F1xx_HAL_Driver/Src/stm32f1xx_ll_spi.c **** 
 119:Drivers/STM32F1xx_HAL_Driver/Src/stm32f1xx_ll_spi.c **** /**
 120:Drivers/STM32F1xx_HAL_Driver/Src/stm32f1xx_ll_spi.c ****   * @}
 121:Drivers/STM32F1xx_HAL_Driver/Src/stm32f1xx_ll_spi.c ****   */
 122:Drivers/STM32F1xx_HAL_Driver/Src/stm32f1xx_ll_spi.c **** 
 123:Drivers/STM32F1xx_HAL_Driver/Src/stm32f1xx_ll_spi.c **** /* Private function prototypes -----------------------------------------------*/
 124:Drivers/STM32F1xx_HAL_Driver/Src/stm32f1xx_ll_spi.c **** 
 125:Drivers/STM32F1xx_HAL_Driver/Src/stm32f1xx_ll_spi.c **** /* Exported functions --------------------------------------------------------*/
 126:Drivers/STM32F1xx_HAL_Driver/Src/stm32f1xx_ll_spi.c **** /** @addtogroup SPI_LL_Exported_Functions
 127:Drivers/STM32F1xx_HAL_Driver/Src/stm32f1xx_ll_spi.c ****   * @{
 128:Drivers/STM32F1xx_HAL_Driver/Src/stm32f1xx_ll_spi.c ****   */
 129:Drivers/STM32F1xx_HAL_Driver/Src/stm32f1xx_ll_spi.c **** 
 130:Drivers/STM32F1xx_HAL_Driver/Src/stm32f1xx_ll_spi.c **** /** @addtogroup SPI_LL_EF_Init
 131:Drivers/STM32F1xx_HAL_Driver/Src/stm32f1xx_ll_spi.c ****   * @{
 132:Drivers/STM32F1xx_HAL_Driver/Src/stm32f1xx_ll_spi.c ****   */
 133:Drivers/STM32F1xx_HAL_Driver/Src/stm32f1xx_ll_spi.c **** 
 134:Drivers/STM32F1xx_HAL_Driver/Src/stm32f1xx_ll_spi.c **** /**
 135:Drivers/STM32F1xx_HAL_Driver/Src/stm32f1xx_ll_spi.c ****   * @brief  De-initialize the SPI registers to their default reset values.
 136:Drivers/STM32F1xx_HAL_Driver/Src/stm32f1xx_ll_spi.c ****   * @param  SPIx SPI Instance
 137:Drivers/STM32F1xx_HAL_Driver/Src/stm32f1xx_ll_spi.c ****   * @retval An ErrorStatus enumeration value:
 138:Drivers/STM32F1xx_HAL_Driver/Src/stm32f1xx_ll_spi.c ****   *          - SUCCESS: SPI registers are de-initialized
 139:Drivers/STM32F1xx_HAL_Driver/Src/stm32f1xx_ll_spi.c ****   *          - ERROR: SPI registers are not de-initialized
 140:Drivers/STM32F1xx_HAL_Driver/Src/stm32f1xx_ll_spi.c ****   */
 141:Drivers/STM32F1xx_HAL_Driver/Src/stm32f1xx_ll_spi.c **** ErrorStatus LL_SPI_DeInit(SPI_TypeDef *SPIx)
 142:Drivers/STM32F1xx_HAL_Driver/Src/stm32f1xx_ll_spi.c **** {
 342              		.loc 3 142 0
 343              		.cfi_startproc
 344              		@ args = 0, pretend = 0, frame = 16
 345              		@ frame_needed = 1, uses_anonymous_args = 0
 346 0000 80B5     		push	{r7, lr}
 347              	.LCFI36:
 348              		.cfi_def_cfa_offset 8
 349              		.cfi_offset 7, -8
 350              		.cfi_offset 14, -4
 351 0002 84B0     		sub	sp, sp, #16
ARM GAS  /tmp/ccg5Oeuq.s 			page 38


 352              	.LCFI37:
 353              		.cfi_def_cfa_offset 24
 354 0004 00AF     		add	r7, sp, #0
 355              	.LCFI38:
 356              		.cfi_def_cfa_register 7
 357 0006 7860     		str	r0, [r7, #4]
 143:Drivers/STM32F1xx_HAL_Driver/Src/stm32f1xx_ll_spi.c ****   ErrorStatus status = ERROR;
 358              		.loc 3 143 0
 359 0008 0023     		movs	r3, #0
 360 000a FB73     		strb	r3, [r7, #15]
 144:Drivers/STM32F1xx_HAL_Driver/Src/stm32f1xx_ll_spi.c **** 
 145:Drivers/STM32F1xx_HAL_Driver/Src/stm32f1xx_ll_spi.c ****   /* Check the parameters */
 146:Drivers/STM32F1xx_HAL_Driver/Src/stm32f1xx_ll_spi.c ****   assert_param(IS_SPI_ALL_INSTANCE(SPIx));
 147:Drivers/STM32F1xx_HAL_Driver/Src/stm32f1xx_ll_spi.c **** 
 148:Drivers/STM32F1xx_HAL_Driver/Src/stm32f1xx_ll_spi.c **** #if defined(SPI1)
 149:Drivers/STM32F1xx_HAL_Driver/Src/stm32f1xx_ll_spi.c ****   if (SPIx == SPI1)
 361              		.loc 3 149 0
 362 000c 7B68     		ldr	r3, [r7, #4]
 363 000e 104A     		ldr	r2, .L20
 364 0010 9342     		cmp	r3, r2
 365 0012 09D1     		bne	.L17
 150:Drivers/STM32F1xx_HAL_Driver/Src/stm32f1xx_ll_spi.c ****   {
 151:Drivers/STM32F1xx_HAL_Driver/Src/stm32f1xx_ll_spi.c ****     /* Force reset of SPI clock */
 152:Drivers/STM32F1xx_HAL_Driver/Src/stm32f1xx_ll_spi.c ****     LL_APB2_GRP1_ForceReset(LL_APB2_GRP1_PERIPH_SPI1);
 366              		.loc 3 152 0
 367 0014 4FF48050 		mov	r0, #4096
 368 0018 FFF7FEFF 		bl	LL_APB2_GRP1_ForceReset
 153:Drivers/STM32F1xx_HAL_Driver/Src/stm32f1xx_ll_spi.c **** 
 154:Drivers/STM32F1xx_HAL_Driver/Src/stm32f1xx_ll_spi.c ****     /* Release reset of SPI clock */
 155:Drivers/STM32F1xx_HAL_Driver/Src/stm32f1xx_ll_spi.c ****     LL_APB2_GRP1_ReleaseReset(LL_APB2_GRP1_PERIPH_SPI1);
 369              		.loc 3 155 0
 370 001c 4FF48050 		mov	r0, #4096
 371 0020 FFF7FEFF 		bl	LL_APB2_GRP1_ReleaseReset
 156:Drivers/STM32F1xx_HAL_Driver/Src/stm32f1xx_ll_spi.c **** 
 157:Drivers/STM32F1xx_HAL_Driver/Src/stm32f1xx_ll_spi.c ****     status = SUCCESS;
 372              		.loc 3 157 0
 373 0024 0123     		movs	r3, #1
 374 0026 FB73     		strb	r3, [r7, #15]
 375              	.L17:
 158:Drivers/STM32F1xx_HAL_Driver/Src/stm32f1xx_ll_spi.c ****   }
 159:Drivers/STM32F1xx_HAL_Driver/Src/stm32f1xx_ll_spi.c **** #endif /* SPI1 */
 160:Drivers/STM32F1xx_HAL_Driver/Src/stm32f1xx_ll_spi.c **** #if defined(SPI2)
 161:Drivers/STM32F1xx_HAL_Driver/Src/stm32f1xx_ll_spi.c ****   if (SPIx == SPI2)
 376              		.loc 3 161 0
 377 0028 7B68     		ldr	r3, [r7, #4]
 378 002a 0A4A     		ldr	r2, .L20+4
 379 002c 9342     		cmp	r3, r2
 380 002e 09D1     		bne	.L18
 162:Drivers/STM32F1xx_HAL_Driver/Src/stm32f1xx_ll_spi.c ****   {
 163:Drivers/STM32F1xx_HAL_Driver/Src/stm32f1xx_ll_spi.c ****     /* Force reset of SPI clock */
 164:Drivers/STM32F1xx_HAL_Driver/Src/stm32f1xx_ll_spi.c ****     LL_APB1_GRP1_ForceReset(LL_APB1_GRP1_PERIPH_SPI2);
 381              		.loc 3 164 0
 382 0030 4FF48040 		mov	r0, #16384
 383 0034 FFF7FEFF 		bl	LL_APB1_GRP1_ForceReset
 165:Drivers/STM32F1xx_HAL_Driver/Src/stm32f1xx_ll_spi.c **** 
 166:Drivers/STM32F1xx_HAL_Driver/Src/stm32f1xx_ll_spi.c ****     /* Release reset of SPI clock */
 167:Drivers/STM32F1xx_HAL_Driver/Src/stm32f1xx_ll_spi.c ****     LL_APB1_GRP1_ReleaseReset(LL_APB1_GRP1_PERIPH_SPI2);
ARM GAS  /tmp/ccg5Oeuq.s 			page 39


 384              		.loc 3 167 0
 385 0038 4FF48040 		mov	r0, #16384
 386 003c FFF7FEFF 		bl	LL_APB1_GRP1_ReleaseReset
 168:Drivers/STM32F1xx_HAL_Driver/Src/stm32f1xx_ll_spi.c **** 
 169:Drivers/STM32F1xx_HAL_Driver/Src/stm32f1xx_ll_spi.c ****     status = SUCCESS;
 387              		.loc 3 169 0
 388 0040 0123     		movs	r3, #1
 389 0042 FB73     		strb	r3, [r7, #15]
 390              	.L18:
 170:Drivers/STM32F1xx_HAL_Driver/Src/stm32f1xx_ll_spi.c ****   }
 171:Drivers/STM32F1xx_HAL_Driver/Src/stm32f1xx_ll_spi.c **** #endif /* SPI2 */
 172:Drivers/STM32F1xx_HAL_Driver/Src/stm32f1xx_ll_spi.c **** #if defined(SPI3)
 173:Drivers/STM32F1xx_HAL_Driver/Src/stm32f1xx_ll_spi.c ****   if (SPIx == SPI3)
 174:Drivers/STM32F1xx_HAL_Driver/Src/stm32f1xx_ll_spi.c ****   {
 175:Drivers/STM32F1xx_HAL_Driver/Src/stm32f1xx_ll_spi.c ****     /* Force reset of SPI clock */
 176:Drivers/STM32F1xx_HAL_Driver/Src/stm32f1xx_ll_spi.c ****     LL_APB1_GRP1_ForceReset(LL_APB1_GRP1_PERIPH_SPI3);
 177:Drivers/STM32F1xx_HAL_Driver/Src/stm32f1xx_ll_spi.c **** 
 178:Drivers/STM32F1xx_HAL_Driver/Src/stm32f1xx_ll_spi.c ****     /* Release reset of SPI clock */
 179:Drivers/STM32F1xx_HAL_Driver/Src/stm32f1xx_ll_spi.c ****     LL_APB1_GRP1_ReleaseReset(LL_APB1_GRP1_PERIPH_SPI3);
 180:Drivers/STM32F1xx_HAL_Driver/Src/stm32f1xx_ll_spi.c **** 
 181:Drivers/STM32F1xx_HAL_Driver/Src/stm32f1xx_ll_spi.c ****     status = SUCCESS;
 182:Drivers/STM32F1xx_HAL_Driver/Src/stm32f1xx_ll_spi.c ****   }
 183:Drivers/STM32F1xx_HAL_Driver/Src/stm32f1xx_ll_spi.c **** #endif /* SPI3 */
 184:Drivers/STM32F1xx_HAL_Driver/Src/stm32f1xx_ll_spi.c **** 
 185:Drivers/STM32F1xx_HAL_Driver/Src/stm32f1xx_ll_spi.c ****   return status;
 391              		.loc 3 185 0
 392 0044 FB7B     		ldrb	r3, [r7, #15]	@ zero_extendqisi2
 186:Drivers/STM32F1xx_HAL_Driver/Src/stm32f1xx_ll_spi.c **** }
 393              		.loc 3 186 0
 394 0046 1846     		mov	r0, r3
 395 0048 1037     		adds	r7, r7, #16
 396              	.LCFI39:
 397              		.cfi_def_cfa_offset 8
 398 004a BD46     		mov	sp, r7
 399              	.LCFI40:
 400              		.cfi_def_cfa_register 13
 401              		@ sp needed
 402 004c 80BD     		pop	{r7, pc}
 403              	.L21:
 404 004e 00BF     		.align	2
 405              	.L20:
 406 0050 00300140 		.word	1073819648
 407 0054 00380040 		.word	1073756160
 408              		.cfi_endproc
 409              	.LFE216:
 411              		.section	.text.LL_SPI_Init,"ax",%progbits
 412              		.align	1
 413              		.global	LL_SPI_Init
 414              		.syntax unified
 415              		.thumb
 416              		.thumb_func
 417              		.fpu softvfp
 419              	LL_SPI_Init:
 420              	.LFB217:
 187:Drivers/STM32F1xx_HAL_Driver/Src/stm32f1xx_ll_spi.c **** 
 188:Drivers/STM32F1xx_HAL_Driver/Src/stm32f1xx_ll_spi.c **** /**
 189:Drivers/STM32F1xx_HAL_Driver/Src/stm32f1xx_ll_spi.c ****   * @brief  Initialize the SPI registers according to the specified parameters in SPI_InitStruct.
ARM GAS  /tmp/ccg5Oeuq.s 			page 40


 190:Drivers/STM32F1xx_HAL_Driver/Src/stm32f1xx_ll_spi.c ****   * @note   As some bits in SPI configuration registers can only be written when the SPI is disable
 191:Drivers/STM32F1xx_HAL_Driver/Src/stm32f1xx_ll_spi.c ****   *         SPI IP should be in disabled state prior calling this function. Otherwise, ERROR result
 192:Drivers/STM32F1xx_HAL_Driver/Src/stm32f1xx_ll_spi.c ****   * @param  SPIx SPI Instance
 193:Drivers/STM32F1xx_HAL_Driver/Src/stm32f1xx_ll_spi.c ****   * @param  SPI_InitStruct pointer to a @ref LL_SPI_InitTypeDef structure
 194:Drivers/STM32F1xx_HAL_Driver/Src/stm32f1xx_ll_spi.c ****   * @retval An ErrorStatus enumeration value. (Return always SUCCESS)
 195:Drivers/STM32F1xx_HAL_Driver/Src/stm32f1xx_ll_spi.c ****   */
 196:Drivers/STM32F1xx_HAL_Driver/Src/stm32f1xx_ll_spi.c **** ErrorStatus LL_SPI_Init(SPI_TypeDef *SPIx, LL_SPI_InitTypeDef *SPI_InitStruct)
 197:Drivers/STM32F1xx_HAL_Driver/Src/stm32f1xx_ll_spi.c **** {
 421              		.loc 3 197 0
 422              		.cfi_startproc
 423              		@ args = 0, pretend = 0, frame = 16
 424              		@ frame_needed = 1, uses_anonymous_args = 0
 425 0000 80B5     		push	{r7, lr}
 426              	.LCFI41:
 427              		.cfi_def_cfa_offset 8
 428              		.cfi_offset 7, -8
 429              		.cfi_offset 14, -4
 430 0002 84B0     		sub	sp, sp, #16
 431              	.LCFI42:
 432              		.cfi_def_cfa_offset 24
 433 0004 00AF     		add	r7, sp, #0
 434              	.LCFI43:
 435              		.cfi_def_cfa_register 7
 436 0006 7860     		str	r0, [r7, #4]
 437 0008 3960     		str	r1, [r7]
 198:Drivers/STM32F1xx_HAL_Driver/Src/stm32f1xx_ll_spi.c ****   ErrorStatus status = ERROR;
 438              		.loc 3 198 0
 439 000a 0023     		movs	r3, #0
 440 000c FB73     		strb	r3, [r7, #15]
 199:Drivers/STM32F1xx_HAL_Driver/Src/stm32f1xx_ll_spi.c **** 
 200:Drivers/STM32F1xx_HAL_Driver/Src/stm32f1xx_ll_spi.c ****   /* Check the SPI Instance SPIx*/
 201:Drivers/STM32F1xx_HAL_Driver/Src/stm32f1xx_ll_spi.c ****   assert_param(IS_SPI_ALL_INSTANCE(SPIx));
 202:Drivers/STM32F1xx_HAL_Driver/Src/stm32f1xx_ll_spi.c **** 
 203:Drivers/STM32F1xx_HAL_Driver/Src/stm32f1xx_ll_spi.c ****   /* Check the SPI parameters from SPI_InitStruct*/
 204:Drivers/STM32F1xx_HAL_Driver/Src/stm32f1xx_ll_spi.c ****   assert_param(IS_LL_SPI_TRANSFER_DIRECTION(SPI_InitStruct->TransferDirection));
 205:Drivers/STM32F1xx_HAL_Driver/Src/stm32f1xx_ll_spi.c ****   assert_param(IS_LL_SPI_MODE(SPI_InitStruct->Mode));
 206:Drivers/STM32F1xx_HAL_Driver/Src/stm32f1xx_ll_spi.c ****   assert_param(IS_LL_SPI_DATAWIDTH(SPI_InitStruct->DataWidth));
 207:Drivers/STM32F1xx_HAL_Driver/Src/stm32f1xx_ll_spi.c ****   assert_param(IS_LL_SPI_POLARITY(SPI_InitStruct->ClockPolarity));
 208:Drivers/STM32F1xx_HAL_Driver/Src/stm32f1xx_ll_spi.c ****   assert_param(IS_LL_SPI_PHASE(SPI_InitStruct->ClockPhase));
 209:Drivers/STM32F1xx_HAL_Driver/Src/stm32f1xx_ll_spi.c ****   assert_param(IS_LL_SPI_NSS(SPI_InitStruct->NSS));
 210:Drivers/STM32F1xx_HAL_Driver/Src/stm32f1xx_ll_spi.c ****   assert_param(IS_LL_SPI_BAUDRATE(SPI_InitStruct->BaudRate));
 211:Drivers/STM32F1xx_HAL_Driver/Src/stm32f1xx_ll_spi.c ****   assert_param(IS_LL_SPI_BITORDER(SPI_InitStruct->BitOrder));
 212:Drivers/STM32F1xx_HAL_Driver/Src/stm32f1xx_ll_spi.c ****   assert_param(IS_LL_SPI_CRCCALCULATION(SPI_InitStruct->CRCCalculation));
 213:Drivers/STM32F1xx_HAL_Driver/Src/stm32f1xx_ll_spi.c **** 
 214:Drivers/STM32F1xx_HAL_Driver/Src/stm32f1xx_ll_spi.c ****   if (LL_SPI_IsEnabled(SPIx) == 0x00000000U)
 441              		.loc 3 214 0
 442 000e 7868     		ldr	r0, [r7, #4]
 443 0010 FFF7FEFF 		bl	LL_SPI_IsEnabled
 444 0014 0346     		mov	r3, r0
 445 0016 002B     		cmp	r3, #0
 446 0018 39D1     		bne	.L23
 215:Drivers/STM32F1xx_HAL_Driver/Src/stm32f1xx_ll_spi.c ****   {
 216:Drivers/STM32F1xx_HAL_Driver/Src/stm32f1xx_ll_spi.c ****     /*---------------------------- SPIx CR1 Configuration ------------------------
 217:Drivers/STM32F1xx_HAL_Driver/Src/stm32f1xx_ll_spi.c ****      * Configure SPIx CR1 with parameters:
 218:Drivers/STM32F1xx_HAL_Driver/Src/stm32f1xx_ll_spi.c ****      * - TransferDirection:  SPI_CR1_BIDIMODE, SPI_CR1_BIDIOE and SPI_CR1_RXONLY bits
 219:Drivers/STM32F1xx_HAL_Driver/Src/stm32f1xx_ll_spi.c ****      * - Master/Slave Mode:  SPI_CR1_MSTR bit
 220:Drivers/STM32F1xx_HAL_Driver/Src/stm32f1xx_ll_spi.c ****      * - DataWidth:          SPI_CR1_DFF bit
ARM GAS  /tmp/ccg5Oeuq.s 			page 41


 221:Drivers/STM32F1xx_HAL_Driver/Src/stm32f1xx_ll_spi.c ****      * - ClockPolarity:      SPI_CR1_CPOL bit
 222:Drivers/STM32F1xx_HAL_Driver/Src/stm32f1xx_ll_spi.c ****      * - ClockPhase:         SPI_CR1_CPHA bit
 223:Drivers/STM32F1xx_HAL_Driver/Src/stm32f1xx_ll_spi.c ****      * - NSS management:     SPI_CR1_SSM bit
 224:Drivers/STM32F1xx_HAL_Driver/Src/stm32f1xx_ll_spi.c ****      * - BaudRate prescaler: SPI_CR1_BR[2:0] bits
 225:Drivers/STM32F1xx_HAL_Driver/Src/stm32f1xx_ll_spi.c ****      * - BitOrder:           SPI_CR1_LSBFIRST bit
 226:Drivers/STM32F1xx_HAL_Driver/Src/stm32f1xx_ll_spi.c ****      * - CRCCalculation:     SPI_CR1_CRCEN bit
 227:Drivers/STM32F1xx_HAL_Driver/Src/stm32f1xx_ll_spi.c ****      */
 228:Drivers/STM32F1xx_HAL_Driver/Src/stm32f1xx_ll_spi.c ****     MODIFY_REG(SPIx->CR1,
 447              		.loc 3 228 0
 448 001a 7B68     		ldr	r3, [r7, #4]
 449 001c 1B68     		ldr	r3, [r3]
 450 001e 23F47F43 		bic	r3, r3, #65280
 451 0022 23F0BF03 		bic	r3, r3, #191
 452 0026 3A68     		ldr	r2, [r7]
 453 0028 1168     		ldr	r1, [r2]
 454 002a 3A68     		ldr	r2, [r7]
 455 002c 5268     		ldr	r2, [r2, #4]
 456 002e 1143     		orrs	r1, r1, r2
 457 0030 3A68     		ldr	r2, [r7]
 458 0032 9268     		ldr	r2, [r2, #8]
 459 0034 1143     		orrs	r1, r1, r2
 460 0036 3A68     		ldr	r2, [r7]
 461 0038 D268     		ldr	r2, [r2, #12]
 462 003a 1143     		orrs	r1, r1, r2
 463 003c 3A68     		ldr	r2, [r7]
 464 003e 1269     		ldr	r2, [r2, #16]
 465 0040 1143     		orrs	r1, r1, r2
 466 0042 3A68     		ldr	r2, [r7]
 467 0044 5269     		ldr	r2, [r2, #20]
 468 0046 1143     		orrs	r1, r1, r2
 469 0048 3A68     		ldr	r2, [r7]
 470 004a 9269     		ldr	r2, [r2, #24]
 471 004c 1143     		orrs	r1, r1, r2
 472 004e 3A68     		ldr	r2, [r7]
 473 0050 D269     		ldr	r2, [r2, #28]
 474 0052 1143     		orrs	r1, r1, r2
 475 0054 3A68     		ldr	r2, [r7]
 476 0056 126A     		ldr	r2, [r2, #32]
 477 0058 0A43     		orrs	r2, r2, r1
 478 005a 1A43     		orrs	r2, r2, r3
 479 005c 7B68     		ldr	r3, [r7, #4]
 480 005e 1A60     		str	r2, [r3]
 229:Drivers/STM32F1xx_HAL_Driver/Src/stm32f1xx_ll_spi.c ****                SPI_CR1_CLEAR_MASK,
 230:Drivers/STM32F1xx_HAL_Driver/Src/stm32f1xx_ll_spi.c ****                SPI_InitStruct->TransferDirection | SPI_InitStruct->Mode | SPI_InitStruct->DataWidth
 231:Drivers/STM32F1xx_HAL_Driver/Src/stm32f1xx_ll_spi.c ****                SPI_InitStruct->ClockPolarity | SPI_InitStruct->ClockPhase |
 232:Drivers/STM32F1xx_HAL_Driver/Src/stm32f1xx_ll_spi.c ****                SPI_InitStruct->NSS | SPI_InitStruct->BaudRate |
 233:Drivers/STM32F1xx_HAL_Driver/Src/stm32f1xx_ll_spi.c ****                SPI_InitStruct->BitOrder | SPI_InitStruct->CRCCalculation);
 234:Drivers/STM32F1xx_HAL_Driver/Src/stm32f1xx_ll_spi.c **** 
 235:Drivers/STM32F1xx_HAL_Driver/Src/stm32f1xx_ll_spi.c ****     /*---------------------------- SPIx CR2 Configuration ------------------------
 236:Drivers/STM32F1xx_HAL_Driver/Src/stm32f1xx_ll_spi.c ****      * Configure SPIx CR2 with parameters:
 237:Drivers/STM32F1xx_HAL_Driver/Src/stm32f1xx_ll_spi.c ****      * - NSS management:     SSOE bit
 238:Drivers/STM32F1xx_HAL_Driver/Src/stm32f1xx_ll_spi.c ****      */
 239:Drivers/STM32F1xx_HAL_Driver/Src/stm32f1xx_ll_spi.c ****     MODIFY_REG(SPIx->CR2, SPI_CR2_SSOE, (SPI_InitStruct->NSS >> 16U));
 481              		.loc 3 239 0
 482 0060 7B68     		ldr	r3, [r7, #4]
 483 0062 5B68     		ldr	r3, [r3, #4]
 484 0064 23F00402 		bic	r2, r3, #4
ARM GAS  /tmp/ccg5Oeuq.s 			page 42


 485 0068 3B68     		ldr	r3, [r7]
 486 006a 5B69     		ldr	r3, [r3, #20]
 487 006c 1B0C     		lsrs	r3, r3, #16
 488 006e 1A43     		orrs	r2, r2, r3
 489 0070 7B68     		ldr	r3, [r7, #4]
 490 0072 5A60     		str	r2, [r3, #4]
 240:Drivers/STM32F1xx_HAL_Driver/Src/stm32f1xx_ll_spi.c **** 
 241:Drivers/STM32F1xx_HAL_Driver/Src/stm32f1xx_ll_spi.c ****     /*---------------------------- SPIx CRCPR Configuration ----------------------
 242:Drivers/STM32F1xx_HAL_Driver/Src/stm32f1xx_ll_spi.c ****      * Configure SPIx CRCPR with parameters:
 243:Drivers/STM32F1xx_HAL_Driver/Src/stm32f1xx_ll_spi.c ****      * - CRCPoly:            CRCPOLY[15:0] bits
 244:Drivers/STM32F1xx_HAL_Driver/Src/stm32f1xx_ll_spi.c ****      */
 245:Drivers/STM32F1xx_HAL_Driver/Src/stm32f1xx_ll_spi.c ****     if (SPI_InitStruct->CRCCalculation == LL_SPI_CRCCALCULATION_ENABLE)
 491              		.loc 3 245 0
 492 0074 3B68     		ldr	r3, [r7]
 493 0076 1B6A     		ldr	r3, [r3, #32]
 494 0078 B3F5005F 		cmp	r3, #8192
 495 007c 05D1     		bne	.L24
 246:Drivers/STM32F1xx_HAL_Driver/Src/stm32f1xx_ll_spi.c ****     {
 247:Drivers/STM32F1xx_HAL_Driver/Src/stm32f1xx_ll_spi.c ****       assert_param(IS_LL_SPI_CRC_POLYNOMIAL(SPI_InitStruct->CRCPoly));
 248:Drivers/STM32F1xx_HAL_Driver/Src/stm32f1xx_ll_spi.c ****       LL_SPI_SetCRCPolynomial(SPIx, SPI_InitStruct->CRCPoly);
 496              		.loc 3 248 0
 497 007e 3B68     		ldr	r3, [r7]
 498 0080 5B6A     		ldr	r3, [r3, #36]
 499 0082 1946     		mov	r1, r3
 500 0084 7868     		ldr	r0, [r7, #4]
 501 0086 FFF7FEFF 		bl	LL_SPI_SetCRCPolynomial
 502              	.L24:
 249:Drivers/STM32F1xx_HAL_Driver/Src/stm32f1xx_ll_spi.c ****     }
 250:Drivers/STM32F1xx_HAL_Driver/Src/stm32f1xx_ll_spi.c ****     status = SUCCESS;
 503              		.loc 3 250 0
 504 008a 0123     		movs	r3, #1
 505 008c FB73     		strb	r3, [r7, #15]
 506              	.L23:
 251:Drivers/STM32F1xx_HAL_Driver/Src/stm32f1xx_ll_spi.c ****   }
 252:Drivers/STM32F1xx_HAL_Driver/Src/stm32f1xx_ll_spi.c **** 
 253:Drivers/STM32F1xx_HAL_Driver/Src/stm32f1xx_ll_spi.c **** #if defined (SPI_I2S_SUPPORT)
 254:Drivers/STM32F1xx_HAL_Driver/Src/stm32f1xx_ll_spi.c ****   /* Activate the SPI mode (Reset I2SMOD bit in I2SCFGR register) */
 255:Drivers/STM32F1xx_HAL_Driver/Src/stm32f1xx_ll_spi.c ****   CLEAR_BIT(SPIx->I2SCFGR, SPI_I2SCFGR_I2SMOD);
 256:Drivers/STM32F1xx_HAL_Driver/Src/stm32f1xx_ll_spi.c **** #endif /* SPI_I2S_SUPPORT */
 257:Drivers/STM32F1xx_HAL_Driver/Src/stm32f1xx_ll_spi.c ****   return status;
 507              		.loc 3 257 0
 508 008e FB7B     		ldrb	r3, [r7, #15]	@ zero_extendqisi2
 258:Drivers/STM32F1xx_HAL_Driver/Src/stm32f1xx_ll_spi.c **** }
 509              		.loc 3 258 0
 510 0090 1846     		mov	r0, r3
 511 0092 1037     		adds	r7, r7, #16
 512              	.LCFI44:
 513              		.cfi_def_cfa_offset 8
 514 0094 BD46     		mov	sp, r7
 515              	.LCFI45:
 516              		.cfi_def_cfa_register 13
 517              		@ sp needed
 518 0096 80BD     		pop	{r7, pc}
 519              		.cfi_endproc
 520              	.LFE217:
 522              		.section	.text.LL_SPI_StructInit,"ax",%progbits
 523              		.align	1
ARM GAS  /tmp/ccg5Oeuq.s 			page 43


 524              		.global	LL_SPI_StructInit
 525              		.syntax unified
 526              		.thumb
 527              		.thumb_func
 528              		.fpu softvfp
 530              	LL_SPI_StructInit:
 531              	.LFB218:
 259:Drivers/STM32F1xx_HAL_Driver/Src/stm32f1xx_ll_spi.c **** 
 260:Drivers/STM32F1xx_HAL_Driver/Src/stm32f1xx_ll_spi.c **** /**
 261:Drivers/STM32F1xx_HAL_Driver/Src/stm32f1xx_ll_spi.c ****   * @brief  Set each @ref LL_SPI_InitTypeDef field to default value.
 262:Drivers/STM32F1xx_HAL_Driver/Src/stm32f1xx_ll_spi.c ****   * @param  SPI_InitStruct pointer to a @ref LL_SPI_InitTypeDef structure
 263:Drivers/STM32F1xx_HAL_Driver/Src/stm32f1xx_ll_spi.c ****   * whose fields will be set to default values.
 264:Drivers/STM32F1xx_HAL_Driver/Src/stm32f1xx_ll_spi.c ****   * @retval None
 265:Drivers/STM32F1xx_HAL_Driver/Src/stm32f1xx_ll_spi.c ****   */
 266:Drivers/STM32F1xx_HAL_Driver/Src/stm32f1xx_ll_spi.c **** void LL_SPI_StructInit(LL_SPI_InitTypeDef *SPI_InitStruct)
 267:Drivers/STM32F1xx_HAL_Driver/Src/stm32f1xx_ll_spi.c **** {
 532              		.loc 3 267 0
 533              		.cfi_startproc
 534              		@ args = 0, pretend = 0, frame = 8
 535              		@ frame_needed = 1, uses_anonymous_args = 0
 536              		@ link register save eliminated.
 537 0000 80B4     		push	{r7}
 538              	.LCFI46:
 539              		.cfi_def_cfa_offset 4
 540              		.cfi_offset 7, -4
 541 0002 83B0     		sub	sp, sp, #12
 542              	.LCFI47:
 543              		.cfi_def_cfa_offset 16
 544 0004 00AF     		add	r7, sp, #0
 545              	.LCFI48:
 546              		.cfi_def_cfa_register 7
 547 0006 7860     		str	r0, [r7, #4]
 268:Drivers/STM32F1xx_HAL_Driver/Src/stm32f1xx_ll_spi.c ****   /* Set SPI_InitStruct fields to default values */
 269:Drivers/STM32F1xx_HAL_Driver/Src/stm32f1xx_ll_spi.c ****   SPI_InitStruct->TransferDirection = LL_SPI_FULL_DUPLEX;
 548              		.loc 3 269 0
 549 0008 7B68     		ldr	r3, [r7, #4]
 550 000a 0022     		movs	r2, #0
 551 000c 1A60     		str	r2, [r3]
 270:Drivers/STM32F1xx_HAL_Driver/Src/stm32f1xx_ll_spi.c ****   SPI_InitStruct->Mode              = LL_SPI_MODE_SLAVE;
 552              		.loc 3 270 0
 553 000e 7B68     		ldr	r3, [r7, #4]
 554 0010 0022     		movs	r2, #0
 555 0012 5A60     		str	r2, [r3, #4]
 271:Drivers/STM32F1xx_HAL_Driver/Src/stm32f1xx_ll_spi.c ****   SPI_InitStruct->DataWidth         = LL_SPI_DATAWIDTH_8BIT;
 556              		.loc 3 271 0
 557 0014 7B68     		ldr	r3, [r7, #4]
 558 0016 0022     		movs	r2, #0
 559 0018 9A60     		str	r2, [r3, #8]
 272:Drivers/STM32F1xx_HAL_Driver/Src/stm32f1xx_ll_spi.c ****   SPI_InitStruct->ClockPolarity     = LL_SPI_POLARITY_LOW;
 560              		.loc 3 272 0
 561 001a 7B68     		ldr	r3, [r7, #4]
 562 001c 0022     		movs	r2, #0
 563 001e DA60     		str	r2, [r3, #12]
 273:Drivers/STM32F1xx_HAL_Driver/Src/stm32f1xx_ll_spi.c ****   SPI_InitStruct->ClockPhase        = LL_SPI_PHASE_1EDGE;
 564              		.loc 3 273 0
 565 0020 7B68     		ldr	r3, [r7, #4]
 566 0022 0022     		movs	r2, #0
ARM GAS  /tmp/ccg5Oeuq.s 			page 44


 567 0024 1A61     		str	r2, [r3, #16]
 274:Drivers/STM32F1xx_HAL_Driver/Src/stm32f1xx_ll_spi.c ****   SPI_InitStruct->NSS               = LL_SPI_NSS_HARD_INPUT;
 568              		.loc 3 274 0
 569 0026 7B68     		ldr	r3, [r7, #4]
 570 0028 0022     		movs	r2, #0
 571 002a 5A61     		str	r2, [r3, #20]
 275:Drivers/STM32F1xx_HAL_Driver/Src/stm32f1xx_ll_spi.c ****   SPI_InitStruct->BaudRate          = LL_SPI_BAUDRATEPRESCALER_DIV2;
 572              		.loc 3 275 0
 573 002c 7B68     		ldr	r3, [r7, #4]
 574 002e 0022     		movs	r2, #0
 575 0030 9A61     		str	r2, [r3, #24]
 276:Drivers/STM32F1xx_HAL_Driver/Src/stm32f1xx_ll_spi.c ****   SPI_InitStruct->BitOrder          = LL_SPI_MSB_FIRST;
 576              		.loc 3 276 0
 577 0032 7B68     		ldr	r3, [r7, #4]
 578 0034 0022     		movs	r2, #0
 579 0036 DA61     		str	r2, [r3, #28]
 277:Drivers/STM32F1xx_HAL_Driver/Src/stm32f1xx_ll_spi.c ****   SPI_InitStruct->CRCCalculation    = LL_SPI_CRCCALCULATION_DISABLE;
 580              		.loc 3 277 0
 581 0038 7B68     		ldr	r3, [r7, #4]
 582 003a 0022     		movs	r2, #0
 583 003c 1A62     		str	r2, [r3, #32]
 278:Drivers/STM32F1xx_HAL_Driver/Src/stm32f1xx_ll_spi.c ****   SPI_InitStruct->CRCPoly           = 7U;
 584              		.loc 3 278 0
 585 003e 7B68     		ldr	r3, [r7, #4]
 586 0040 0722     		movs	r2, #7
 587 0042 5A62     		str	r2, [r3, #36]
 279:Drivers/STM32F1xx_HAL_Driver/Src/stm32f1xx_ll_spi.c **** }
 588              		.loc 3 279 0
 589 0044 00BF     		nop
 590 0046 0C37     		adds	r7, r7, #12
 591              	.LCFI49:
 592              		.cfi_def_cfa_offset 4
 593 0048 BD46     		mov	sp, r7
 594              	.LCFI50:
 595              		.cfi_def_cfa_register 13
 596              		@ sp needed
 597 004a 80BC     		pop	{r7}
 598              	.LCFI51:
 599              		.cfi_restore 7
 600              		.cfi_def_cfa_offset 0
 601 004c 7047     		bx	lr
 602              		.cfi_endproc
 603              	.LFE218:
 605              		.text
 606              	.Letext0:
 607              		.file 4 "/usr/include/newlib/machine/_default_types.h"
 608              		.file 5 "/usr/include/newlib/sys/_stdint.h"
 609              		.file 6 "Drivers/CMSIS/Include/core_cm3.h"
 610              		.file 7 "Drivers/CMSIS/Device/ST/STM32F1xx/Include/system_stm32f1xx.h"
 611              		.file 8 "Drivers/CMSIS/Device/ST/STM32F1xx/Include/stm32f103xb.h"
 612              		.file 9 "Drivers/CMSIS/Device/ST/STM32F1xx/Include/stm32f1xx.h"
 613              		.file 10 "/usr/include/newlib/sys/lock.h"
 614              		.file 11 "/usr/include/newlib/sys/_types.h"
 615              		.file 12 "/usr/lib/gcc/arm-none-eabi/7.3.1/include/stddef.h"
 616              		.file 13 "/usr/include/newlib/sys/reent.h"
ARM GAS  /tmp/ccg5Oeuq.s 			page 45

