ARM GAS  /tmp/cckByxZ4.s 			page 1


   1              		.cpu cortex-m3
   2              		.eabi_attribute 20, 1
   3              		.eabi_attribute 21, 1
   4              		.eabi_attribute 23, 3
   5              		.eabi_attribute 24, 1
   6              		.eabi_attribute 25, 1
   7              		.eabi_attribute 26, 1
   8              		.eabi_attribute 30, 6
   9              		.eabi_attribute 34, 1
  10              		.eabi_attribute 18, 4
  11              		.file	"usbd_hid.c"
  12              		.text
  13              	.Ltext0:
  14              		.cfi_sections	.debug_frame
  15              		.comm	classReqHistory,2,2
  16              		.comm	usbd_hid_EP0rxBuf,32,4
  17              		.comm	usbd_hid_EP1rxBuf,32,4
  18              		.section	.bss.newDeviceDataAvailable,"aw",%nobits
  21              	newDeviceDataAvailable:
  22 0000 00       		.space	1
  23              		.global	USBD_HID
  24              		.section	.data.USBD_HID,"aw",%progbits
  25              		.align	2
  28              	USBD_HID:
  29 0000 00000000 		.word	USBD_HID_Init
  30 0004 00000000 		.word	USBD_HID_DeInit
  31 0008 00000000 		.word	USBD_HID_Setup
  32 000c 00000000 		.word	0
  33 0010 00000000 		.word	USBD_HID_EP0_RxReady
  34 0014 00000000 		.word	USBD_HID_DataIn
  35 0018 00000000 		.word	USBD_HID_DataOut
  36 001c 00000000 		.word	0
  37 0020 00000000 		.word	0
  38 0024 00000000 		.word	0
  39 0028 00000000 		.word	USBD_HID_GetCfgDesc
  40 002c 00000000 		.word	USBD_HID_GetCfgDesc
  41 0030 00000000 		.word	USBD_HID_GetCfgDesc
  42 0034 00000000 		.word	USBD_HID_GetDeviceQualifierDesc
  43              		.section	.data.USBD_HID_CfgDesc,"aw",%progbits
  44              		.align	2
  47              	USBD_HID_CfgDesc:
  48 0000 09       		.byte	9
  49 0001 02       		.byte	2
  50 0002 29       		.byte	41
  51 0003 00       		.byte	0
  52 0004 01       		.byte	1
  53 0005 01       		.byte	1
  54 0006 00       		.byte	0
  55 0007 E0       		.byte	-32
  56 0008 32       		.byte	50
  57 0009 09       		.byte	9
  58 000a 04       		.byte	4
  59 000b 00       		.byte	0
  60 000c 00       		.byte	0
  61 000d 02       		.byte	2
  62 000e 03       		.byte	3
  63 000f 00       		.byte	0
ARM GAS  /tmp/cckByxZ4.s 			page 2


  64 0010 00       		.byte	0
  65 0011 00       		.byte	0
  66 0012 09       		.byte	9
  67 0013 21       		.byte	33
  68 0014 11       		.byte	17
  69 0015 01       		.byte	1
  70 0016 00       		.byte	0
  71 0017 01       		.byte	1
  72 0018 22       		.byte	34
  73 0019 F8       		.byte	-8
  74 001a 02       		.byte	2
  75 001b 07       		.byte	7
  76 001c 05       		.byte	5
  77 001d 81       		.byte	-127
  78 001e 03       		.byte	3
  79 001f 20       		.byte	32
  80 0020 00       		.byte	0
  81 0021 0A       		.byte	10
  82 0022 07       		.byte	7
  83 0023 05       		.byte	5
  84 0024 01       		.byte	1
  85 0025 03       		.byte	3
  86 0026 20       		.byte	32
  87 0027 00       		.byte	0
  88 0028 03       		.byte	3
  89              		.section	.data.USBD_HID_Desc,"aw",%progbits
  90              		.align	2
  93              	USBD_HID_Desc:
  94 0000 09       		.byte	9
  95 0001 21       		.byte	33
  96 0002 11       		.byte	17
  97 0003 01       		.byte	1
  98 0004 00       		.byte	0
  99 0005 01       		.byte	1
 100 0006 22       		.byte	34
 101 0007 F8       		.byte	-8
 102 0008 02       		.byte	2
 103              		.section	.data.USBD_HID_DeviceQualifierDesc,"aw",%progbits
 104              		.align	2
 107              	USBD_HID_DeviceQualifierDesc:
 108 0000 0A       		.byte	10
 109 0001 06       		.byte	6
 110 0002 00       		.byte	0
 111 0003 02       		.byte	2
 112 0004 00       		.byte	0
 113 0005 00       		.byte	0
 114 0006 00       		.byte	0
 115 0007 40       		.byte	64
 116 0008 01       		.byte	1
 117 0009 00       		.byte	0
 118              		.section	.data.Joystick_ReportDescriptor,"aw",%progbits
 119              		.align	2
 122              	Joystick_ReportDescriptor:
 123 0000 05       		.byte	5
 124 0001 01       		.byte	1
 125 0002 09       		.byte	9
 126 0003 04       		.byte	4
ARM GAS  /tmp/cckByxZ4.s 			page 3


 127 0004 A1       		.byte	-95
 128 0005 01       		.byte	1
 129 0006 85       		.byte	-123
 130 0007 01       		.byte	1
 131 0008 09       		.byte	9
 132 0009 01       		.byte	1
 133 000a A1       		.byte	-95
 134 000b 00       		.byte	0
 135 000c 09       		.byte	9
 136 000d 30       		.byte	48
 137 000e 16       		.byte	22
 138 000f 01       		.byte	1
 139 0010 80       		.byte	-128
 140 0011 26       		.byte	38
 141 0012 FF       		.byte	-1
 142 0013 7F       		.byte	127
 143 0014 35       		.byte	53
 144 0015 00       		.byte	0
 145 0016 47       		.byte	71
 146 0017 FF       		.byte	-1
 147 0018 FF       		.byte	-1
 148 0019 00       		.byte	0
 149 001a 00       		.byte	0
 150 001b 75       		.byte	117
 151 001c 10       		.byte	16
 152 001d 95       		.byte	-107
 153 001e 01       		.byte	1
 154 001f 81       		.byte	-127
 155 0020 02       		.byte	2
 156 0021 09       		.byte	9
 157 0022 31       		.byte	49
 158 0023 15       		.byte	21
 159 0024 00       		.byte	0
 160 0025 25       		.byte	37
 161 0026 FF       		.byte	-1
 162 0027 34       		.byte	52
 163 0028 46       		.byte	70
 164 0029 FF       		.byte	-1
 165 002a 00       		.byte	0
 166 002b 75       		.byte	117
 167 002c 08       		.byte	8
 168 002d 95       		.byte	-107
 169 002e 01       		.byte	1
 170 002f 81       		.byte	-127
 171 0030 02       		.byte	2
 172 0031 C0       		.byte	-64
 173 0032 09       		.byte	9
 174 0033 35       		.byte	53
 175 0034 15       		.byte	21
 176 0035 00       		.byte	0
 177 0036 26       		.byte	38
 178 0037 FF       		.byte	-1
 179 0038 00       		.byte	0
 180 0039 46       		.byte	70
 181 003a FF       		.byte	-1
 182 003b 00       		.byte	0
 183 003c 95       		.byte	-107
ARM GAS  /tmp/cckByxZ4.s 			page 4


 184 003d 01       		.byte	1
 185 003e 75       		.byte	117
 186 003f 08       		.byte	8
 187 0040 81       		.byte	-127
 188 0041 02       		.byte	2
 189 0042 05       		.byte	5
 190 0043 09       		.byte	9
 191 0044 95       		.byte	-107
 192 0045 04       		.byte	4
 193 0046 75       		.byte	117
 194 0047 01       		.byte	1
 195 0048 25       		.byte	37
 196 0049 01       		.byte	1
 197 004a 45       		.byte	69
 198 004b 01       		.byte	1
 199 004c 19       		.byte	25
 200 004d 01       		.byte	1
 201 004e 29       		.byte	41
 202 004f 04       		.byte	4
 203 0050 81       		.byte	-127
 204 0051 02       		.byte	2
 205 0052 09       		.byte	9
 206 0053 39       		.byte	57
 207 0054 15       		.byte	21
 208 0055 01       		.byte	1
 209 0056 25       		.byte	37
 210 0057 08       		.byte	8
 211 0058 35       		.byte	53
 212 0059 00       		.byte	0
 213 005a 46       		.byte	70
 214 005b 3B       		.byte	59
 215 005c 01       		.byte	1
 216 005d 66       		.byte	102
 217 005e 14       		.byte	20
 218 005f 00       		.byte	0
 219 0060 75       		.byte	117
 220 0061 04       		.byte	4
 221 0062 95       		.byte	-107
 222 0063 01       		.byte	1
 223 0064 81       		.byte	-127
 224 0065 02       		.byte	2
 225 0066 05       		.byte	5
 226 0067 0F       		.byte	15
 227 0068 09       		.byte	9
 228 0069 21       		.byte	33
 229 006a A1       		.byte	-95
 230 006b 02       		.byte	2
 231 006c 85       		.byte	-123
 232 006d 01       		.byte	1
 233 006e 09       		.byte	9
 234 006f 22       		.byte	34
 235 0070 15       		.byte	21
 236 0071 01       		.byte	1
 237 0072 25       		.byte	37
 238 0073 20       		.byte	32
 239 0074 35       		.byte	53
 240 0075 01       		.byte	1
ARM GAS  /tmp/cckByxZ4.s 			page 5


 241 0076 45       		.byte	69
 242 0077 20       		.byte	32
 243 0078 75       		.byte	117
 244 0079 08       		.byte	8
 245 007a 95       		.byte	-107
 246 007b 01       		.byte	1
 247 007c 91       		.byte	-111
 248 007d 02       		.byte	2
 249 007e 09       		.byte	9
 250 007f 25       		.byte	37
 251 0080 A1       		.byte	-95
 252 0081 02       		.byte	2
 253 0082 09       		.byte	9
 254 0083 26       		.byte	38
 255 0084 09       		.byte	9
 256 0085 43       		.byte	67
 257 0086 15       		.byte	21
 258 0087 01       		.byte	1
 259 0088 25       		.byte	37
 260 0089 02       		.byte	2
 261 008a 35       		.byte	53
 262 008b 01       		.byte	1
 263 008c 45       		.byte	69
 264 008d 02       		.byte	2
 265 008e 75       		.byte	117
 266 008f 08       		.byte	8
 267 0090 91       		.byte	-111
 268 0091 00       		.byte	0
 269 0092 C0       		.byte	-64
 270 0093 09       		.byte	9
 271 0094 50       		.byte	80
 272 0095 09       		.byte	9
 273 0096 54       		.byte	84
 274 0097 15       		.byte	21
 275 0098 00       		.byte	0
 276 0099 26       		.byte	38
 277 009a 10       		.byte	16
 278 009b 27       		.byte	39
 279 009c 35       		.byte	53
 280 009d 00       		.byte	0
 281 009e 46       		.byte	70
 282 009f 10       		.byte	16
 283 00a0 27       		.byte	39
 284 00a1 66       		.byte	102
 285 00a2 03       		.byte	3
 286 00a3 10       		.byte	16
 287 00a4 55       		.byte	85
 288 00a5 0D       		.byte	13
 289 00a6 75       		.byte	117
 290 00a7 10       		.byte	16
 291 00a8 95       		.byte	-107
 292 00a9 02       		.byte	2
 293 00aa 91       		.byte	-111
 294 00ab 02       		.byte	2
 295 00ac 09       		.byte	9
 296 00ad 51       		.byte	81
 297 00ae 95       		.byte	-107
ARM GAS  /tmp/cckByxZ4.s 			page 6


 298 00af 01       		.byte	1
 299 00b0 91       		.byte	-111
 300 00b1 02       		.byte	2
 301 00b2 45       		.byte	69
 302 00b3 00       		.byte	0
 303 00b4 55       		.byte	85
 304 00b5 00       		.byte	0
 305 00b6 66       		.byte	102
 306 00b7 00       		.byte	0
 307 00b8 00       		.byte	0
 308 00b9 09       		.byte	9
 309 00ba 52       		.byte	82
 310 00bb 15       		.byte	21
 311 00bc 00       		.byte	0
 312 00bd 26       		.byte	38
 313 00be 10       		.byte	16
 314 00bf 27       		.byte	39
 315 00c0 35       		.byte	53
 316 00c1 00       		.byte	0
 317 00c2 46       		.byte	70
 318 00c3 10       		.byte	16
 319 00c4 27       		.byte	39
 320 00c5 75       		.byte	117
 321 00c6 10       		.byte	16
 322 00c7 95       		.byte	-107
 323 00c8 01       		.byte	1
 324 00c9 91       		.byte	-111
 325 00ca 02       		.byte	2
 326 00cb 09       		.byte	9
 327 00cc 53       		.byte	83
 328 00cd 15       		.byte	21
 329 00ce 01       		.byte	1
 330 00cf 25       		.byte	37
 331 00d0 08       		.byte	8
 332 00d1 35       		.byte	53
 333 00d2 01       		.byte	1
 334 00d3 45       		.byte	69
 335 00d4 08       		.byte	8
 336 00d5 75       		.byte	117
 337 00d6 08       		.byte	8
 338 00d7 95       		.byte	-107
 339 00d8 01       		.byte	1
 340 00d9 91       		.byte	-111
 341 00da 02       		.byte	2
 342 00db 09       		.byte	9
 343 00dc 55       		.byte	85
 344 00dd A1       		.byte	-95
 345 00de 02       		.byte	2
 346 00df 05       		.byte	5
 347 00e0 01       		.byte	1
 348 00e1 A1       		.byte	-95
 349 00e2 00       		.byte	0
 350 00e3 09       		.byte	9
 351 00e4 30       		.byte	48
 352 00e5 15       		.byte	21
 353 00e6 00       		.byte	0
 354 00e7 25       		.byte	37
ARM GAS  /tmp/cckByxZ4.s 			page 7


 355 00e8 01       		.byte	1
 356 00e9 75       		.byte	117
 357 00ea 01       		.byte	1
 358 00eb 95       		.byte	-107
 359 00ec 01       		.byte	1
 360 00ed 91       		.byte	-111
 361 00ee 02       		.byte	2
 362 00ef C0       		.byte	-64
 363 00f0 C0       		.byte	-64
 364 00f1 05       		.byte	5
 365 00f2 0F       		.byte	15
 366 00f3 09       		.byte	9
 367 00f4 56       		.byte	86
 368 00f5 95       		.byte	-107
 369 00f6 01       		.byte	1
 370 00f7 91       		.byte	-111
 371 00f8 02       		.byte	2
 372 00f9 95       		.byte	-107
 373 00fa 06       		.byte	6
 374 00fb 91       		.byte	-111
 375 00fc 03       		.byte	3
 376 00fd 09       		.byte	9
 377 00fe 57       		.byte	87
 378 00ff A1       		.byte	-95
 379 0100 02       		.byte	2
 380 0101 0B       		.byte	11
 381 0102 01       		.byte	1
 382 0103 00       		.byte	0
 383 0104 0A       		.byte	10
 384 0105 00       		.byte	0
 385 0106 0B       		.byte	11
 386 0107 02       		.byte	2
 387 0108 00       		.byte	0
 388 0109 0A       		.byte	10
 389 010a 00       		.byte	0
 390 010b 65       		.byte	101
 391 010c 14       		.byte	20
 392 010d 55       		.byte	85
 393 010e FE       		.byte	-2
 394 010f 15       		.byte	21
 395 0110 00       		.byte	0
 396 0111 26       		.byte	38
 397 0112 FF       		.byte	-1
 398 0113 00       		.byte	0
 399 0114 35       		.byte	53
 400 0115 00       		.byte	0
 401 0116 47       		.byte	71
 402 0117 A0       		.byte	-96
 403 0118 8C       		.byte	-116
 404 0119 00       		.byte	0
 405 011a 00       		.byte	0
 406 011b 65       		.byte	101
 407 011c 00       		.byte	0
 408 011d 75       		.byte	117
 409 011e 08       		.byte	8
 410 011f 95       		.byte	-107
 411 0120 02       		.byte	2
ARM GAS  /tmp/cckByxZ4.s 			page 8


 412 0121 91       		.byte	-111
 413 0122 02       		.byte	2
 414 0123 55       		.byte	85
 415 0124 00       		.byte	0
 416 0125 65       		.byte	101
 417 0126 00       		.byte	0
 418 0127 C0       		.byte	-64
 419 0128 C0       		.byte	-64
 420 0129 09       		.byte	9
 421 012a 73       		.byte	115
 422 012b A1       		.byte	-95
 423 012c 02       		.byte	2
 424 012d 85       		.byte	-123
 425 012e 03       		.byte	3
 426 012f 09       		.byte	9
 427 0130 22       		.byte	34
 428 0131 15       		.byte	21
 429 0132 01       		.byte	1
 430 0133 25       		.byte	37
 431 0134 20       		.byte	32
 432 0135 35       		.byte	53
 433 0136 01       		.byte	1
 434 0137 45       		.byte	69
 435 0138 20       		.byte	32
 436 0139 75       		.byte	117
 437 013a 08       		.byte	8
 438 013b 95       		.byte	-107
 439 013c 01       		.byte	1
 440 013d 91       		.byte	-111
 441 013e 02       		.byte	2
 442 013f 09       		.byte	9
 443 0140 70       		.byte	112
 444 0141 16       		.byte	22
 445 0142 F0       		.byte	-16
 446 0143 D8       		.byte	-40
 447 0144 26       		.byte	38
 448 0145 10       		.byte	16
 449 0146 27       		.byte	39
 450 0147 36       		.byte	54
 451 0148 F0       		.byte	-16
 452 0149 D8       		.byte	-40
 453 014a 46       		.byte	70
 454 014b 10       		.byte	16
 455 014c 27       		.byte	39
 456 014d 75       		.byte	117
 457 014e 10       		.byte	16
 458 014f 91       		.byte	-111
 459 0150 02       		.byte	2
 460 0151 C0       		.byte	-64
 461 0152 09       		.byte	9
 462 0153 5A       		.byte	90
 463 0154 A1       		.byte	-95
 464 0155 02       		.byte	2
 465 0156 85       		.byte	-123
 466 0157 02       		.byte	2
 467 0158 09       		.byte	9
 468 0159 22       		.byte	34
ARM GAS  /tmp/cckByxZ4.s 			page 9


 469 015a 15       		.byte	21
 470 015b 01       		.byte	1
 471 015c 25       		.byte	37
 472 015d 20       		.byte	32
 473 015e 35       		.byte	53
 474 015f 01       		.byte	1
 475 0160 45       		.byte	69
 476 0161 20       		.byte	32
 477 0162 75       		.byte	117
 478 0163 08       		.byte	8
 479 0164 95       		.byte	-107
 480 0165 01       		.byte	1
 481 0166 91       		.byte	-111
 482 0167 02       		.byte	2
 483 0168 09       		.byte	9
 484 0169 5B       		.byte	91
 485 016a 09       		.byte	9
 486 016b 5D       		.byte	93
 487 016c 15       		.byte	21
 488 016d 00       		.byte	0
 489 016e 26       		.byte	38
 490 016f FF       		.byte	-1
 491 0170 00       		.byte	0
 492 0171 46       		.byte	70
 493 0172 10       		.byte	16
 494 0173 27       		.byte	39
 495 0174 75       		.byte	117
 496 0175 08       		.byte	8
 497 0176 95       		.byte	-107
 498 0177 02       		.byte	2
 499 0178 91       		.byte	-111
 500 0179 02       		.byte	2
 501 017a 09       		.byte	9
 502 017b 5C       		.byte	92
 503 017c 09       		.byte	9
 504 017d 5E       		.byte	94
 505 017e 66       		.byte	102
 506 017f 03       		.byte	3
 507 0180 10       		.byte	16
 508 0181 55       		.byte	85
 509 0182 0D       		.byte	13
 510 0183 75       		.byte	117
 511 0184 08       		.byte	8
 512 0185 91       		.byte	-111
 513 0186 02       		.byte	2
 514 0187 65       		.byte	101
 515 0188 00       		.byte	0
 516 0189 55       		.byte	85
 517 018a 00       		.byte	0
 518 018b C0       		.byte	-64
 519 018c 09       		.byte	9
 520 018d 77       		.byte	119
 521 018e A1       		.byte	-95
 522 018f 02       		.byte	2
 523 0190 85       		.byte	-123
 524 0191 04       		.byte	4
 525 0192 09       		.byte	9
ARM GAS  /tmp/cckByxZ4.s 			page 10


 526 0193 22       		.byte	34
 527 0194 15       		.byte	21
 528 0195 01       		.byte	1
 529 0196 25       		.byte	37
 530 0197 20       		.byte	32
 531 0198 35       		.byte	53
 532 0199 01       		.byte	1
 533 019a 45       		.byte	69
 534 019b 20       		.byte	32
 535 019c 75       		.byte	117
 536 019d 08       		.byte	8
 537 019e 95       		.byte	-107
 538 019f 01       		.byte	1
 539 01a0 91       		.byte	-111
 540 01a1 02       		.byte	2
 541 01a2 09       		.byte	9
 542 01a3 78       		.byte	120
 543 01a4 A1       		.byte	-95
 544 01a5 02       		.byte	2
 545 01a6 09       		.byte	9
 546 01a7 79       		.byte	121
 547 01a8 09       		.byte	9
 548 01a9 7A       		.byte	122
 549 01aa 09       		.byte	9
 550 01ab 7B       		.byte	123
 551 01ac 15       		.byte	21
 552 01ad 01       		.byte	1
 553 01ae 25       		.byte	37
 554 01af 03       		.byte	3
 555 01b0 35       		.byte	53
 556 01b1 01       		.byte	1
 557 01b2 45       		.byte	69
 558 01b3 03       		.byte	3
 559 01b4 75       		.byte	117
 560 01b5 08       		.byte	8
 561 01b6 91       		.byte	-111
 562 01b7 00       		.byte	0
 563 01b8 C0       		.byte	-64
 564 01b9 09       		.byte	9
 565 01ba 7C       		.byte	124
 566 01bb 15       		.byte	21
 567 01bc 00       		.byte	0
 568 01bd 26       		.byte	38
 569 01be FF       		.byte	-1
 570 01bf 00       		.byte	0
 571 01c0 35       		.byte	53
 572 01c1 00       		.byte	0
 573 01c2 46       		.byte	70
 574 01c3 FF       		.byte	-1
 575 01c4 00       		.byte	0
 576 01c5 91       		.byte	-111
 577 01c6 02       		.byte	2
 578 01c7 C0       		.byte	-64
 579 01c8 09       		.byte	9
 580 01c9 92       		.byte	-110
 581 01ca A1       		.byte	-95
 582 01cb 02       		.byte	2
ARM GAS  /tmp/cckByxZ4.s 			page 11


 583 01cc 85       		.byte	-123
 584 01cd 02       		.byte	2
 585 01ce 09       		.byte	9
 586 01cf 22       		.byte	34
 587 01d0 15       		.byte	21
 588 01d1 01       		.byte	1
 589 01d2 25       		.byte	37
 590 01d3 20       		.byte	32
 591 01d4 35       		.byte	53
 592 01d5 01       		.byte	1
 593 01d6 45       		.byte	69
 594 01d7 20       		.byte	32
 595 01d8 75       		.byte	117
 596 01d9 08       		.byte	8
 597 01da 95       		.byte	-107
 598 01db 01       		.byte	1
 599 01dc 81       		.byte	-127
 600 01dd 02       		.byte	2
 601 01de 09       		.byte	9
 602 01df 94       		.byte	-108
 603 01e0 09       		.byte	9
 604 01e1 9F       		.byte	-97
 605 01e2 09       		.byte	9
 606 01e3 A0       		.byte	-96
 607 01e4 09       		.byte	9
 608 01e5 A4       		.byte	-92
 609 01e6 09       		.byte	9
 610 01e7 A5       		.byte	-91
 611 01e8 09       		.byte	9
 612 01e9 A6       		.byte	-90
 613 01ea 15       		.byte	21
 614 01eb 00       		.byte	0
 615 01ec 25       		.byte	37
 616 01ed 01       		.byte	1
 617 01ee 35       		.byte	53
 618 01ef 00       		.byte	0
 619 01f0 45       		.byte	69
 620 01f1 01       		.byte	1
 621 01f2 75       		.byte	117
 622 01f3 01       		.byte	1
 623 01f4 95       		.byte	-107
 624 01f5 06       		.byte	6
 625 01f6 81       		.byte	-127
 626 01f7 02       		.byte	2
 627 01f8 95       		.byte	-107
 628 01f9 02       		.byte	2
 629 01fa 81       		.byte	-127
 630 01fb 03       		.byte	3
 631 01fc C0       		.byte	-64
 632 01fd 09       		.byte	9
 633 01fe 96       		.byte	-106
 634 01ff A1       		.byte	-95
 635 0200 02       		.byte	2
 636 0201 85       		.byte	-123
 637 0202 05       		.byte	5
 638 0203 09       		.byte	9
 639 0204 97       		.byte	-105
ARM GAS  /tmp/cckByxZ4.s 			page 12


 640 0205 09       		.byte	9
 641 0206 98       		.byte	-104
 642 0207 09       		.byte	9
 643 0208 99       		.byte	-103
 644 0209 09       		.byte	9
 645 020a 9A       		.byte	-102
 646 020b 09       		.byte	9
 647 020c 9B       		.byte	-101
 648 020d 09       		.byte	9
 649 020e 9C       		.byte	-100
 650 020f 15       		.byte	21
 651 0210 01       		.byte	1
 652 0211 25       		.byte	37
 653 0212 06       		.byte	6
 654 0213 35       		.byte	53
 655 0214 00       		.byte	0
 656 0215 45       		.byte	69
 657 0216 00       		.byte	0
 658 0217 75       		.byte	117
 659 0218 08       		.byte	8
 660 0219 95       		.byte	-107
 661 021a 01       		.byte	1
 662 021b 91       		.byte	-111
 663 021c 00       		.byte	0
 664 021d C0       		.byte	-64
 665 021e 09       		.byte	9
 666 021f 7D       		.byte	125
 667 0220 A1       		.byte	-95
 668 0221 02       		.byte	2
 669 0222 85       		.byte	-123
 670 0223 02       		.byte	2
 671 0224 09       		.byte	9
 672 0225 7E       		.byte	126
 673 0226 15       		.byte	21
 674 0227 00       		.byte	0
 675 0228 25       		.byte	37
 676 0229 FF       		.byte	-1
 677 022a 75       		.byte	117
 678 022b 08       		.byte	8
 679 022c 95       		.byte	-107
 680 022d 01       		.byte	1
 681 022e B1       		.byte	-79
 682 022f 02       		.byte	2
 683 0230 C0       		.byte	-64
 684 0231 09       		.byte	9
 685 0232 7F       		.byte	127
 686 0233 A1       		.byte	-95
 687 0234 02       		.byte	2
 688 0235 85       		.byte	-123
 689 0236 01       		.byte	1
 690 0237 09       		.byte	9
 691 0238 80       		.byte	-128
 692 0239 16       		.byte	22
 693 023a 00       		.byte	0
 694 023b 00       		.byte	0
 695 023c 34       		.byte	52
 696 023d 26       		.byte	38
ARM GAS  /tmp/cckByxZ4.s 			page 13


 697 023e 00       		.byte	0
 698 023f 00       		.byte	0
 699 0240 44       		.byte	68
 700 0241 95       		.byte	-107
 701 0242 01       		.byte	1
 702 0243 75       		.byte	117
 703 0244 10       		.byte	16
 704 0245 B1       		.byte	-79
 705 0246 02       		.byte	2
 706 0247 09       		.byte	9
 707 0248 83       		.byte	-125
 708 0249 25       		.byte	37
 709 024a FF       		.byte	-1
 710 024b 45       		.byte	69
 711 024c FF       		.byte	-1
 712 024d 75       		.byte	117
 713 024e 08       		.byte	8
 714 024f 95       		.byte	-107
 715 0250 01       		.byte	1
 716 0251 B1       		.byte	-79
 717 0252 02       		.byte	2
 718 0253 09       		.byte	9
 719 0254 A9       		.byte	-87
 720 0255 09       		.byte	9
 721 0256 AA       		.byte	-86
 722 0257 75       		.byte	117
 723 0258 01       		.byte	1
 724 0259 95       		.byte	-107
 725 025a 02       		.byte	2
 726 025b 15       		.byte	21
 727 025c 00       		.byte	0
 728 025d 25       		.byte	37
 729 025e 01       		.byte	1
 730 025f 35       		.byte	53
 731 0260 00       		.byte	0
 732 0261 45       		.byte	69
 733 0262 01       		.byte	1
 734 0263 B1       		.byte	-79
 735 0264 02       		.byte	2
 736 0265 75       		.byte	117
 737 0266 06       		.byte	6
 738 0267 95       		.byte	-107
 739 0268 01       		.byte	1
 740 0269 B1       		.byte	-79
 741 026a 03       		.byte	3
 742 026b C0       		.byte	-64
 743 026c 09       		.byte	9
 744 026d AB       		.byte	-85
 745 026e A1       		.byte	-95
 746 026f 02       		.byte	2
 747 0270 85       		.byte	-123
 748 0271 03       		.byte	3
 749 0272 09       		.byte	9
 750 0273 25       		.byte	37
 751 0274 A1       		.byte	-95
 752 0275 02       		.byte	2
 753 0276 09       		.byte	9
ARM GAS  /tmp/cckByxZ4.s 			page 14


 754 0277 26       		.byte	38
 755 0278 15       		.byte	21
 756 0279 01       		.byte	1
 757 027a 25       		.byte	37
 758 027b 01       		.byte	1
 759 027c 35       		.byte	53
 760 027d 00       		.byte	0
 761 027e 45       		.byte	69
 762 027f 01       		.byte	1
 763 0280 75       		.byte	117
 764 0281 08       		.byte	8
 765 0282 95       		.byte	-107
 766 0283 01       		.byte	1
 767 0284 B1       		.byte	-79
 768 0285 00       		.byte	0
 769 0286 C0       		.byte	-64
 770 0287 05       		.byte	5
 771 0288 01       		.byte	1
 772 0289 09       		.byte	9
 773 028a 3B       		.byte	59
 774 028b 15       		.byte	21
 775 028c 00       		.byte	0
 776 028d 26       		.byte	38
 777 028e FF       		.byte	-1
 778 028f 00       		.byte	0
 779 0290 35       		.byte	53
 780 0291 00       		.byte	0
 781 0292 46       		.byte	70
 782 0293 FF       		.byte	-1
 783 0294 00       		.byte	0
 784 0295 75       		.byte	117
 785 0296 08       		.byte	8
 786 0297 95       		.byte	-107
 787 0298 01       		.byte	1
 788 0299 B1       		.byte	-79
 789 029a 02       		.byte	2
 790 029b C0       		.byte	-64
 791 029c 05       		.byte	5
 792 029d 0F       		.byte	15
 793 029e 09       		.byte	9
 794 029f 89       		.byte	-119
 795 02a0 A1       		.byte	-95
 796 02a1 02       		.byte	2
 797 02a2 85       		.byte	-123
 798 02a3 04       		.byte	4
 799 02a4 09       		.byte	9
 800 02a5 22       		.byte	34
 801 02a6 15       		.byte	21
 802 02a7 01       		.byte	1
 803 02a8 25       		.byte	37
 804 02a9 20       		.byte	32
 805 02aa 35       		.byte	53
 806 02ab 01       		.byte	1
 807 02ac 45       		.byte	69
 808 02ad 20       		.byte	32
 809 02ae 75       		.byte	117
 810 02af 08       		.byte	8
ARM GAS  /tmp/cckByxZ4.s 			page 15


 811 02b0 95       		.byte	-107
 812 02b1 01       		.byte	1
 813 02b2 B1       		.byte	-79
 814 02b3 02       		.byte	2
 815 02b4 09       		.byte	9
 816 02b5 8B       		.byte	-117
 817 02b6 A1       		.byte	-95
 818 02b7 02       		.byte	2
 819 02b8 09       		.byte	9
 820 02b9 8C       		.byte	-116
 821 02ba 09       		.byte	9
 822 02bb 8D       		.byte	-115
 823 02bc 09       		.byte	9
 824 02bd 8E       		.byte	-114
 825 02be 25       		.byte	37
 826 02bf 03       		.byte	3
 827 02c0 15       		.byte	21
 828 02c1 01       		.byte	1
 829 02c2 35       		.byte	53
 830 02c3 01       		.byte	1
 831 02c4 45       		.byte	69
 832 02c5 03       		.byte	3
 833 02c6 75       		.byte	117
 834 02c7 08       		.byte	8
 835 02c8 95       		.byte	-107
 836 02c9 01       		.byte	1
 837 02ca B1       		.byte	-79
 838 02cb 00       		.byte	0
 839 02cc C0       		.byte	-64
 840 02cd 09       		.byte	9
 841 02ce AC       		.byte	-84
 842 02cf 15       		.byte	21
 843 02d0 00       		.byte	0
 844 02d1 26       		.byte	38
 845 02d2 FF       		.byte	-1
 846 02d3 00       		.byte	0
 847 02d4 35       		.byte	53
 848 02d5 00       		.byte	0
 849 02d6 46       		.byte	70
 850 02d7 FF       		.byte	-1
 851 02d8 00       		.byte	0
 852 02d9 75       		.byte	117
 853 02da 08       		.byte	8
 854 02db 95       		.byte	-107
 855 02dc 01       		.byte	1
 856 02dd B1       		.byte	-79
 857 02de 02       		.byte	2
 858 02df C0       		.byte	-64
 859 02e0 09       		.byte	9
 860 02e1 90       		.byte	-112
 861 02e2 A1       		.byte	-95
 862 02e3 02       		.byte	2
 863 02e4 85       		.byte	-123
 864 02e5 05       		.byte	5
 865 02e6 09       		.byte	9
 866 02e7 22       		.byte	34
 867 02e8 15       		.byte	21
ARM GAS  /tmp/cckByxZ4.s 			page 16


 868 02e9 01       		.byte	1
 869 02ea 25       		.byte	37
 870 02eb 20       		.byte	32
 871 02ec 35       		.byte	53
 872 02ed 01       		.byte	1
 873 02ee 45       		.byte	69
 874 02ef 20       		.byte	32
 875 02f0 75       		.byte	117
 876 02f1 08       		.byte	8
 877 02f2 95       		.byte	-107
 878 02f3 01       		.byte	1
 879 02f4 B1       		.byte	-79
 880 02f5 02       		.byte	2
 881 02f6 C0       		.byte	-64
 882 02f7 C0       		.byte	-64
 883              		.section	.text.USBD_HID_Init,"ax",%progbits
 884              		.align	1
 885              		.syntax unified
 886              		.thumb
 887              		.thumb_func
 888              		.fpu softvfp
 890              	USBD_HID_Init:
 891              	.LFB66:
 892              		.file 1 "Middlewares/ST/STM32_USB_Device_Library/Class/HID/Src/usbd_hid.c"
   1:Middlewares/ST/STM32_USB_Device_Library/Class/HID/Src/usbd_hid.c **** /**
   2:Middlewares/ST/STM32_USB_Device_Library/Class/HID/Src/usbd_hid.c ****   ******************************************************************************
   3:Middlewares/ST/STM32_USB_Device_Library/Class/HID/Src/usbd_hid.c ****   * @file    usbd_hid.c
   4:Middlewares/ST/STM32_USB_Device_Library/Class/HID/Src/usbd_hid.c ****   * @author  MCD Application Team
   5:Middlewares/ST/STM32_USB_Device_Library/Class/HID/Src/usbd_hid.c ****   * @version V2.4.2
   6:Middlewares/ST/STM32_USB_Device_Library/Class/HID/Src/usbd_hid.c ****   * @date    11-December-2015
   7:Middlewares/ST/STM32_USB_Device_Library/Class/HID/Src/usbd_hid.c ****   * @brief   This file provides the HID core functions.
   8:Middlewares/ST/STM32_USB_Device_Library/Class/HID/Src/usbd_hid.c ****   *
   9:Middlewares/ST/STM32_USB_Device_Library/Class/HID/Src/usbd_hid.c ****   * @verbatim
  10:Middlewares/ST/STM32_USB_Device_Library/Class/HID/Src/usbd_hid.c ****   *      
  11:Middlewares/ST/STM32_USB_Device_Library/Class/HID/Src/usbd_hid.c ****   *          ===================================================================      
  12:Middlewares/ST/STM32_USB_Device_Library/Class/HID/Src/usbd_hid.c ****   *                                HID Class  Description
  13:Middlewares/ST/STM32_USB_Device_Library/Class/HID/Src/usbd_hid.c ****   *          =================================================================== 
  14:Middlewares/ST/STM32_USB_Device_Library/Class/HID/Src/usbd_hid.c ****   *           This module manages the HID class V1.11 following the "Device Class Definition
  15:Middlewares/ST/STM32_USB_Device_Library/Class/HID/Src/usbd_hid.c ****   *           for Human Interface Devices (HID) Version 1.11 Jun 27, 2001".
  16:Middlewares/ST/STM32_USB_Device_Library/Class/HID/Src/usbd_hid.c ****   *           This driver implements the following aspects of the specification:
  17:Middlewares/ST/STM32_USB_Device_Library/Class/HID/Src/usbd_hid.c ****   *             - The Boot Interface Subclass
  18:Middlewares/ST/STM32_USB_Device_Library/Class/HID/Src/usbd_hid.c ****   *             - The Mouse protocol
  19:Middlewares/ST/STM32_USB_Device_Library/Class/HID/Src/usbd_hid.c ****   *             - Usage Page : Generic Desktop
  20:Middlewares/ST/STM32_USB_Device_Library/Class/HID/Src/usbd_hid.c ****   *             - Usage : Joystick
  21:Middlewares/ST/STM32_USB_Device_Library/Class/HID/Src/usbd_hid.c ****   *             - Collection : Application 
  22:Middlewares/ST/STM32_USB_Device_Library/Class/HID/Src/usbd_hid.c ****   *      
  23:Middlewares/ST/STM32_USB_Device_Library/Class/HID/Src/usbd_hid.c ****   * @note     In HS mode and when the DMA is used, all variables and data structures
  24:Middlewares/ST/STM32_USB_Device_Library/Class/HID/Src/usbd_hid.c ****   *           dealing with the DMA during the transaction process should be 32-bit aligned.
  25:Middlewares/ST/STM32_USB_Device_Library/Class/HID/Src/usbd_hid.c ****   *           
  26:Middlewares/ST/STM32_USB_Device_Library/Class/HID/Src/usbd_hid.c ****   *      
  27:Middlewares/ST/STM32_USB_Device_Library/Class/HID/Src/usbd_hid.c ****   *  @endverbatim
  28:Middlewares/ST/STM32_USB_Device_Library/Class/HID/Src/usbd_hid.c ****   *
  29:Middlewares/ST/STM32_USB_Device_Library/Class/HID/Src/usbd_hid.c ****   ******************************************************************************
  30:Middlewares/ST/STM32_USB_Device_Library/Class/HID/Src/usbd_hid.c ****   * @attention
  31:Middlewares/ST/STM32_USB_Device_Library/Class/HID/Src/usbd_hid.c ****   *
  32:Middlewares/ST/STM32_USB_Device_Library/Class/HID/Src/usbd_hid.c ****   * <h2><center>&copy; COPYRIGHT 2015 STMicroelectronics</center></h2>
  33:Middlewares/ST/STM32_USB_Device_Library/Class/HID/Src/usbd_hid.c ****   *
ARM GAS  /tmp/cckByxZ4.s 			page 17


  34:Middlewares/ST/STM32_USB_Device_Library/Class/HID/Src/usbd_hid.c ****   * Licensed under MCD-ST Liberty SW License Agreement V2, (the "License");
  35:Middlewares/ST/STM32_USB_Device_Library/Class/HID/Src/usbd_hid.c ****   * You may not use this file except in compliance with the License.
  36:Middlewares/ST/STM32_USB_Device_Library/Class/HID/Src/usbd_hid.c ****   * You may obtain a copy of the License at:
  37:Middlewares/ST/STM32_USB_Device_Library/Class/HID/Src/usbd_hid.c ****   *
  38:Middlewares/ST/STM32_USB_Device_Library/Class/HID/Src/usbd_hid.c ****   *        http://www.st.com/software_license_agreement_liberty_v2
  39:Middlewares/ST/STM32_USB_Device_Library/Class/HID/Src/usbd_hid.c ****   *
  40:Middlewares/ST/STM32_USB_Device_Library/Class/HID/Src/usbd_hid.c ****   * Unless required by applicable law or agreed to in writing, software 
  41:Middlewares/ST/STM32_USB_Device_Library/Class/HID/Src/usbd_hid.c ****   * distributed under the License is distributed on an "AS IS" BASIS, 
  42:Middlewares/ST/STM32_USB_Device_Library/Class/HID/Src/usbd_hid.c ****   * WITHOUT WARRANTIES OR CONDITIONS OF ANY KIND, either express or implied.
  43:Middlewares/ST/STM32_USB_Device_Library/Class/HID/Src/usbd_hid.c ****   * See the License for the specific language governing permissions and
  44:Middlewares/ST/STM32_USB_Device_Library/Class/HID/Src/usbd_hid.c ****   * limitations under the License.
  45:Middlewares/ST/STM32_USB_Device_Library/Class/HID/Src/usbd_hid.c ****   *
  46:Middlewares/ST/STM32_USB_Device_Library/Class/HID/Src/usbd_hid.c ****   ******************************************************************************
  47:Middlewares/ST/STM32_USB_Device_Library/Class/HID/Src/usbd_hid.c ****   */ 
  48:Middlewares/ST/STM32_USB_Device_Library/Class/HID/Src/usbd_hid.c **** 
  49:Middlewares/ST/STM32_USB_Device_Library/Class/HID/Src/usbd_hid.c **** /* Includes ------------------------------------------------------------------*/
  50:Middlewares/ST/STM32_USB_Device_Library/Class/HID/Src/usbd_hid.c **** #include "usbd_hid.h"
  51:Middlewares/ST/STM32_USB_Device_Library/Class/HID/Src/usbd_hid.c **** #include "usbd_desc.h"
  52:Middlewares/ST/STM32_USB_Device_Library/Class/HID/Src/usbd_hid.c **** #include "usbd_ctlreq.h"
  53:Middlewares/ST/STM32_USB_Device_Library/Class/HID/Src/usbd_hid.c **** #include "ausb.h"
  54:Middlewares/ST/STM32_USB_Device_Library/Class/HID/Src/usbd_hid.c **** 
  55:Middlewares/ST/STM32_USB_Device_Library/Class/HID/Src/usbd_hid.c **** 
  56:Middlewares/ST/STM32_USB_Device_Library/Class/HID/Src/usbd_hid.c **** /** @addtogroup STM32_USB_DEVICE_LIBRARY
  57:Middlewares/ST/STM32_USB_Device_Library/Class/HID/Src/usbd_hid.c ****   * @{
  58:Middlewares/ST/STM32_USB_Device_Library/Class/HID/Src/usbd_hid.c ****   */
  59:Middlewares/ST/STM32_USB_Device_Library/Class/HID/Src/usbd_hid.c **** 
  60:Middlewares/ST/STM32_USB_Device_Library/Class/HID/Src/usbd_hid.c **** 
  61:Middlewares/ST/STM32_USB_Device_Library/Class/HID/Src/usbd_hid.c **** /** @defgroup USBD_HID 
  62:Middlewares/ST/STM32_USB_Device_Library/Class/HID/Src/usbd_hid.c ****   * @brief usbd core module
  63:Middlewares/ST/STM32_USB_Device_Library/Class/HID/Src/usbd_hid.c ****   * @{
  64:Middlewares/ST/STM32_USB_Device_Library/Class/HID/Src/usbd_hid.c ****   */ 
  65:Middlewares/ST/STM32_USB_Device_Library/Class/HID/Src/usbd_hid.c **** 
  66:Middlewares/ST/STM32_USB_Device_Library/Class/HID/Src/usbd_hid.c **** /** @defgroup USBD_HID_Private_TypesDefinitions
  67:Middlewares/ST/STM32_USB_Device_Library/Class/HID/Src/usbd_hid.c ****   * @{
  68:Middlewares/ST/STM32_USB_Device_Library/Class/HID/Src/usbd_hid.c ****   */ 
  69:Middlewares/ST/STM32_USB_Device_Library/Class/HID/Src/usbd_hid.c **** /**
  70:Middlewares/ST/STM32_USB_Device_Library/Class/HID/Src/usbd_hid.c ****   * @}
  71:Middlewares/ST/STM32_USB_Device_Library/Class/HID/Src/usbd_hid.c ****   */ 
  72:Middlewares/ST/STM32_USB_Device_Library/Class/HID/Src/usbd_hid.c **** 
  73:Middlewares/ST/STM32_USB_Device_Library/Class/HID/Src/usbd_hid.c **** 
  74:Middlewares/ST/STM32_USB_Device_Library/Class/HID/Src/usbd_hid.c **** /** @defgroup USBD_HID_Private_Defines
  75:Middlewares/ST/STM32_USB_Device_Library/Class/HID/Src/usbd_hid.c ****   * @{
  76:Middlewares/ST/STM32_USB_Device_Library/Class/HID/Src/usbd_hid.c ****   */ 
  77:Middlewares/ST/STM32_USB_Device_Library/Class/HID/Src/usbd_hid.c **** 
  78:Middlewares/ST/STM32_USB_Device_Library/Class/HID/Src/usbd_hid.c **** /**
  79:Middlewares/ST/STM32_USB_Device_Library/Class/HID/Src/usbd_hid.c ****   * @}
  80:Middlewares/ST/STM32_USB_Device_Library/Class/HID/Src/usbd_hid.c ****   */ 
  81:Middlewares/ST/STM32_USB_Device_Library/Class/HID/Src/usbd_hid.c **** 
  82:Middlewares/ST/STM32_USB_Device_Library/Class/HID/Src/usbd_hid.c **** 
  83:Middlewares/ST/STM32_USB_Device_Library/Class/HID/Src/usbd_hid.c **** /** @defgroup USBD_HID_Private_Macros
  84:Middlewares/ST/STM32_USB_Device_Library/Class/HID/Src/usbd_hid.c ****   * @{
  85:Middlewares/ST/STM32_USB_Device_Library/Class/HID/Src/usbd_hid.c ****   */ 
  86:Middlewares/ST/STM32_USB_Device_Library/Class/HID/Src/usbd_hid.c **** /**
  87:Middlewares/ST/STM32_USB_Device_Library/Class/HID/Src/usbd_hid.c ****   * @}
  88:Middlewares/ST/STM32_USB_Device_Library/Class/HID/Src/usbd_hid.c ****   */ 
  89:Middlewares/ST/STM32_USB_Device_Library/Class/HID/Src/usbd_hid.c **** 
  90:Middlewares/ST/STM32_USB_Device_Library/Class/HID/Src/usbd_hid.c **** uint16_t classReqHistory;
ARM GAS  /tmp/cckByxZ4.s 			page 18


  91:Middlewares/ST/STM32_USB_Device_Library/Class/HID/Src/usbd_hid.c **** uint8_t usbd_hid_EP0rxBuf[32]; /*0x14 = 20DEC; buffer used to receive PID CLASS reports data on EP0
  92:Middlewares/ST/STM32_USB_Device_Library/Class/HID/Src/usbd_hid.c **** uint8_t usbd_hid_EP1rxBuf[AUSB_EP1OutMaxPacketSize]; /*0x14 = 20DEC; buffer used to receive Out dat
  93:Middlewares/ST/STM32_USB_Device_Library/Class/HID/Src/usbd_hid.c **** static uint8_t newDeviceDataAvailable;
  94:Middlewares/ST/STM32_USB_Device_Library/Class/HID/Src/usbd_hid.c ****  
  95:Middlewares/ST/STM32_USB_Device_Library/Class/HID/Src/usbd_hid.c **** /** @defgroup USBD_HID_Private_FunctionPrototypes
  96:Middlewares/ST/STM32_USB_Device_Library/Class/HID/Src/usbd_hid.c ****   * @{
  97:Middlewares/ST/STM32_USB_Device_Library/Class/HID/Src/usbd_hid.c ****   */
  98:Middlewares/ST/STM32_USB_Device_Library/Class/HID/Src/usbd_hid.c **** 
  99:Middlewares/ST/STM32_USB_Device_Library/Class/HID/Src/usbd_hid.c **** 
 100:Middlewares/ST/STM32_USB_Device_Library/Class/HID/Src/usbd_hid.c **** static uint8_t  USBD_HID_Init (USBD_HandleTypeDef *pdev, 
 101:Middlewares/ST/STM32_USB_Device_Library/Class/HID/Src/usbd_hid.c ****                                uint8_t cfgidx);
 102:Middlewares/ST/STM32_USB_Device_Library/Class/HID/Src/usbd_hid.c **** 
 103:Middlewares/ST/STM32_USB_Device_Library/Class/HID/Src/usbd_hid.c **** static uint8_t  USBD_HID_DeInit (USBD_HandleTypeDef *pdev, 
 104:Middlewares/ST/STM32_USB_Device_Library/Class/HID/Src/usbd_hid.c ****                                  uint8_t cfgidx);
 105:Middlewares/ST/STM32_USB_Device_Library/Class/HID/Src/usbd_hid.c **** 
 106:Middlewares/ST/STM32_USB_Device_Library/Class/HID/Src/usbd_hid.c **** static uint8_t  USBD_HID_Setup (USBD_HandleTypeDef *pdev, 
 107:Middlewares/ST/STM32_USB_Device_Library/Class/HID/Src/usbd_hid.c ****                                 USBD_SetupReqTypedef *req);
 108:Middlewares/ST/STM32_USB_Device_Library/Class/HID/Src/usbd_hid.c **** 
 109:Middlewares/ST/STM32_USB_Device_Library/Class/HID/Src/usbd_hid.c **** static uint8_t  *USBD_HID_GetCfgDesc (uint16_t *length);
 110:Middlewares/ST/STM32_USB_Device_Library/Class/HID/Src/usbd_hid.c **** 
 111:Middlewares/ST/STM32_USB_Device_Library/Class/HID/Src/usbd_hid.c **** static uint8_t  *USBD_HID_GetDeviceQualifierDesc (uint16_t *length);
 112:Middlewares/ST/STM32_USB_Device_Library/Class/HID/Src/usbd_hid.c **** 
 113:Middlewares/ST/STM32_USB_Device_Library/Class/HID/Src/usbd_hid.c **** static uint8_t  USBD_HID_EP0_RxReady(USBD_HandleTypeDef *pdev );
 114:Middlewares/ST/STM32_USB_Device_Library/Class/HID/Src/usbd_hid.c **** 
 115:Middlewares/ST/STM32_USB_Device_Library/Class/HID/Src/usbd_hid.c **** static uint8_t  USBD_HID_DataIn (USBD_HandleTypeDef *pdev, uint8_t epnum);
 116:Middlewares/ST/STM32_USB_Device_Library/Class/HID/Src/usbd_hid.c **** 
 117:Middlewares/ST/STM32_USB_Device_Library/Class/HID/Src/usbd_hid.c **** static uint8_t  USBD_HID_DataOut(USBD_HandleTypeDef *pdev , uint8_t epnum);
 118:Middlewares/ST/STM32_USB_Device_Library/Class/HID/Src/usbd_hid.c **** /**
 119:Middlewares/ST/STM32_USB_Device_Library/Class/HID/Src/usbd_hid.c ****   * @}
 120:Middlewares/ST/STM32_USB_Device_Library/Class/HID/Src/usbd_hid.c ****   */ 
 121:Middlewares/ST/STM32_USB_Device_Library/Class/HID/Src/usbd_hid.c **** 
 122:Middlewares/ST/STM32_USB_Device_Library/Class/HID/Src/usbd_hid.c **** /** @defgroup USBD_HID_Private_Variables
 123:Middlewares/ST/STM32_USB_Device_Library/Class/HID/Src/usbd_hid.c ****   * @{
 124:Middlewares/ST/STM32_USB_Device_Library/Class/HID/Src/usbd_hid.c ****   */ 
 125:Middlewares/ST/STM32_USB_Device_Library/Class/HID/Src/usbd_hid.c **** 
 126:Middlewares/ST/STM32_USB_Device_Library/Class/HID/Src/usbd_hid.c **** USBD_ClassTypeDef  USBD_HID = 
 127:Middlewares/ST/STM32_USB_Device_Library/Class/HID/Src/usbd_hid.c **** {
 128:Middlewares/ST/STM32_USB_Device_Library/Class/HID/Src/usbd_hid.c ****   USBD_HID_Init,
 129:Middlewares/ST/STM32_USB_Device_Library/Class/HID/Src/usbd_hid.c ****   USBD_HID_DeInit,
 130:Middlewares/ST/STM32_USB_Device_Library/Class/HID/Src/usbd_hid.c ****   USBD_HID_Setup,
 131:Middlewares/ST/STM32_USB_Device_Library/Class/HID/Src/usbd_hid.c ****   NULL, /*EP0_TxSent*/  
 132:Middlewares/ST/STM32_USB_Device_Library/Class/HID/Src/usbd_hid.c ****   USBD_HID_EP0_RxReady, /*EP0_RxReady*/
 133:Middlewares/ST/STM32_USB_Device_Library/Class/HID/Src/usbd_hid.c ****   USBD_HID_DataIn, /*DataIn*/
 134:Middlewares/ST/STM32_USB_Device_Library/Class/HID/Src/usbd_hid.c ****   USBD_HID_DataOut, /*DataOut*/
 135:Middlewares/ST/STM32_USB_Device_Library/Class/HID/Src/usbd_hid.c ****   NULL, /*SOF */
 136:Middlewares/ST/STM32_USB_Device_Library/Class/HID/Src/usbd_hid.c ****   NULL,
 137:Middlewares/ST/STM32_USB_Device_Library/Class/HID/Src/usbd_hid.c ****   NULL,      
 138:Middlewares/ST/STM32_USB_Device_Library/Class/HID/Src/usbd_hid.c ****   USBD_HID_GetCfgDesc,
 139:Middlewares/ST/STM32_USB_Device_Library/Class/HID/Src/usbd_hid.c ****   USBD_HID_GetCfgDesc, 
 140:Middlewares/ST/STM32_USB_Device_Library/Class/HID/Src/usbd_hid.c ****   USBD_HID_GetCfgDesc,
 141:Middlewares/ST/STM32_USB_Device_Library/Class/HID/Src/usbd_hid.c ****   USBD_HID_GetDeviceQualifierDesc,
 142:Middlewares/ST/STM32_USB_Device_Library/Class/HID/Src/usbd_hid.c **** };
 143:Middlewares/ST/STM32_USB_Device_Library/Class/HID/Src/usbd_hid.c **** 
 144:Middlewares/ST/STM32_USB_Device_Library/Class/HID/Src/usbd_hid.c **** /* USB HID device Configuration Descriptor */
 145:Middlewares/ST/STM32_USB_Device_Library/Class/HID/Src/usbd_hid.c **** __ALIGN_BEGIN static uint8_t USBD_HID_CfgDesc[JOYSTICK_SIZ_CONFIG_DESC]  __ALIGN_END =
 146:Middlewares/ST/STM32_USB_Device_Library/Class/HID/Src/usbd_hid.c **** {
 147:Middlewares/ST/STM32_USB_Device_Library/Class/HID/Src/usbd_hid.c ****   0x09, /* bLength: Configuration Descriptor size */
ARM GAS  /tmp/cckByxZ4.s 			page 19


 148:Middlewares/ST/STM32_USB_Device_Library/Class/HID/Src/usbd_hid.c ****   USB_DESC_TYPE_CONFIGURATION, /* bDescriptorType: Configuration */
 149:Middlewares/ST/STM32_USB_Device_Library/Class/HID/Src/usbd_hid.c ****   JOYSTICK_SIZ_CONFIG_DESC,
 150:Middlewares/ST/STM32_USB_Device_Library/Class/HID/Src/usbd_hid.c ****   /* wTotalLength: Bytes returned */
 151:Middlewares/ST/STM32_USB_Device_Library/Class/HID/Src/usbd_hid.c ****   0x00,
 152:Middlewares/ST/STM32_USB_Device_Library/Class/HID/Src/usbd_hid.c ****   0x01,         /*bNumInterfaces: 1 interface*/
 153:Middlewares/ST/STM32_USB_Device_Library/Class/HID/Src/usbd_hid.c ****   0x01,         /*bConfigurationValue: Configuration value*/
 154:Middlewares/ST/STM32_USB_Device_Library/Class/HID/Src/usbd_hid.c ****   0x00,         /*iConfiguration: Index of string descriptor describing
 155:Middlewares/ST/STM32_USB_Device_Library/Class/HID/Src/usbd_hid.c ****   the configuration*/
 156:Middlewares/ST/STM32_USB_Device_Library/Class/HID/Src/usbd_hid.c ****   0xE0,         /*bmAttributes: bus powered and Support Remote Wake-up */
 157:Middlewares/ST/STM32_USB_Device_Library/Class/HID/Src/usbd_hid.c ****   0x32,         /*MaxPower 100 mA: this current is used for detecting Vbus*/
 158:Middlewares/ST/STM32_USB_Device_Library/Class/HID/Src/usbd_hid.c ****   
 159:Middlewares/ST/STM32_USB_Device_Library/Class/HID/Src/usbd_hid.c ****   /************** Descriptor of Joystick Mouse interface ****************/
 160:Middlewares/ST/STM32_USB_Device_Library/Class/HID/Src/usbd_hid.c ****   /* 09 */
 161:Middlewares/ST/STM32_USB_Device_Library/Class/HID/Src/usbd_hid.c ****   0x09,         /*bLength: Interface Descriptor size*/
 162:Middlewares/ST/STM32_USB_Device_Library/Class/HID/Src/usbd_hid.c ****   USB_DESC_TYPE_INTERFACE,/*bDescriptorType: Interface descriptor type*/
 163:Middlewares/ST/STM32_USB_Device_Library/Class/HID/Src/usbd_hid.c ****   0x00,         /*bInterfaceNumber: Number of Interface*/
 164:Middlewares/ST/STM32_USB_Device_Library/Class/HID/Src/usbd_hid.c ****   0x00,         /*bAlternateSetting: Alternate setting*/
 165:Middlewares/ST/STM32_USB_Device_Library/Class/HID/Src/usbd_hid.c ****   0x02,         /*bNumEndpoints*/
 166:Middlewares/ST/STM32_USB_Device_Library/Class/HID/Src/usbd_hid.c ****   0x03,         /*bInterfaceClass: HID*/
 167:Middlewares/ST/STM32_USB_Device_Library/Class/HID/Src/usbd_hid.c ****   0x00,         /*bInterfaceSubClass : 1=BOOT, 0=no boot*/
 168:Middlewares/ST/STM32_USB_Device_Library/Class/HID/Src/usbd_hid.c ****   0x00,         /*nInterfaceProtocol : 0=none, 1=keyboard, 2=mouse*/
 169:Middlewares/ST/STM32_USB_Device_Library/Class/HID/Src/usbd_hid.c ****   0,            /*iInterface: Index of string descriptor*/
 170:Middlewares/ST/STM32_USB_Device_Library/Class/HID/Src/usbd_hid.c ****   /******************** Descriptor of Joystick Mouse HID ********************/
 171:Middlewares/ST/STM32_USB_Device_Library/Class/HID/Src/usbd_hid.c ****   /* 18 */
 172:Middlewares/ST/STM32_USB_Device_Library/Class/HID/Src/usbd_hid.c ****   0x09,         /*bLength: HID Descriptor size*/
 173:Middlewares/ST/STM32_USB_Device_Library/Class/HID/Src/usbd_hid.c ****   HID_DESCRIPTOR_TYPE, /*bDescriptorType: HID*/
 174:Middlewares/ST/STM32_USB_Device_Library/Class/HID/Src/usbd_hid.c ****   0x11,         /*bcdHID: HID Class Spec release number*/
 175:Middlewares/ST/STM32_USB_Device_Library/Class/HID/Src/usbd_hid.c ****   0x01,
 176:Middlewares/ST/STM32_USB_Device_Library/Class/HID/Src/usbd_hid.c ****   0x00,         /*bCountryCode: Hardware target country*/
 177:Middlewares/ST/STM32_USB_Device_Library/Class/HID/Src/usbd_hid.c ****   0x01,         /*bNumDescriptors: Number of HID class descriptors to follow*/
 178:Middlewares/ST/STM32_USB_Device_Library/Class/HID/Src/usbd_hid.c ****   0x22,         /*bDescriptorType*/
 179:Middlewares/ST/STM32_USB_Device_Library/Class/HID/Src/usbd_hid.c ****   (JOYSTICK_SIZ_REPORT_DESC%0x100u), /*wItemLength: Total length of Report descriptor*/
 180:Middlewares/ST/STM32_USB_Device_Library/Class/HID/Src/usbd_hid.c ****   (JOYSTICK_SIZ_REPORT_DESC/0x100u),
 181:Middlewares/ST/STM32_USB_Device_Library/Class/HID/Src/usbd_hid.c ****   /******************** Descriptor of Mouse endpoint ********************/
 182:Middlewares/ST/STM32_USB_Device_Library/Class/HID/Src/usbd_hid.c ****   /* 27 */
 183:Middlewares/ST/STM32_USB_Device_Library/Class/HID/Src/usbd_hid.c ****   0x07,          /*bLength: Endpoint Descriptor size*/
 184:Middlewares/ST/STM32_USB_Device_Library/Class/HID/Src/usbd_hid.c ****   USB_DESC_TYPE_ENDPOINT, /*bDescriptorType:*/
 185:Middlewares/ST/STM32_USB_Device_Library/Class/HID/Src/usbd_hid.c ****   HID_EPIN_ADDR,     /*bEndpointAddress: Endpoint Address (IN)*/
 186:Middlewares/ST/STM32_USB_Device_Library/Class/HID/Src/usbd_hid.c ****   0x03,          /*bmAttributes: Interrupt endpoint*/
 187:Middlewares/ST/STM32_USB_Device_Library/Class/HID/Src/usbd_hid.c ****   AUSB_EP1InMaxPacketSize, /*wMaxPacketSize */
 188:Middlewares/ST/STM32_USB_Device_Library/Class/HID/Src/usbd_hid.c ****   0x00,
 189:Middlewares/ST/STM32_USB_Device_Library/Class/HID/Src/usbd_hid.c ****   HID_FS_BINTERVAL,          /*bInterval: Polling Interval (10 ms)*/
 190:Middlewares/ST/STM32_USB_Device_Library/Class/HID/Src/usbd_hid.c ****   /* 34 */
 191:Middlewares/ST/STM32_USB_Device_Library/Class/HID/Src/usbd_hid.c ****   0x07,	/* bLength: EndpoinT Descriptor size */
 192:Middlewares/ST/STM32_USB_Device_Library/Class/HID/Src/usbd_hid.c **** 	USB_DESC_TYPE_ENDPOINT,	/* bDescriptorType: */ /*	EndpoinT descriptor type */
 193:Middlewares/ST/STM32_USB_Device_Library/Class/HID/Src/usbd_hid.c **** 	HID_EPOUT_ADDR,	/* bEndpointAddress: */ /*	EndpoinT Address (OUT) */
 194:Middlewares/ST/STM32_USB_Device_Library/Class/HID/Src/usbd_hid.c **** 	0x03,	/* bmAttributes: Interrupt endpoinT */
 195:Middlewares/ST/STM32_USB_Device_Library/Class/HID/Src/usbd_hid.c **** 	AUSB_EP1OutMaxPacketSize,	/* wMaxPacketSize: Now the report with maximum size is Set Effect Report
 196:Middlewares/ST/STM32_USB_Device_Library/Class/HID/Src/usbd_hid.c **** 	0x00,
 197:Middlewares/ST/STM32_USB_Device_Library/Class/HID/Src/usbd_hid.c **** 	3,	/* bInterval: Polling Interval */
 198:Middlewares/ST/STM32_USB_Device_Library/Class/HID/Src/usbd_hid.c **** 	/* 41 */
 199:Middlewares/ST/STM32_USB_Device_Library/Class/HID/Src/usbd_hid.c **** } ;
 200:Middlewares/ST/STM32_USB_Device_Library/Class/HID/Src/usbd_hid.c **** 
 201:Middlewares/ST/STM32_USB_Device_Library/Class/HID/Src/usbd_hid.c **** /* USB HID device Configuration Descriptor */
 202:Middlewares/ST/STM32_USB_Device_Library/Class/HID/Src/usbd_hid.c **** __ALIGN_BEGIN static uint8_t USBD_HID_Desc[USB_HID_DESC_SIZ]  __ALIGN_END  =
 203:Middlewares/ST/STM32_USB_Device_Library/Class/HID/Src/usbd_hid.c **** {
 204:Middlewares/ST/STM32_USB_Device_Library/Class/HID/Src/usbd_hid.c ****   /* 18 */
ARM GAS  /tmp/cckByxZ4.s 			page 20


 205:Middlewares/ST/STM32_USB_Device_Library/Class/HID/Src/usbd_hid.c ****   0x09,         /*bLength: HID Descriptor size*/
 206:Middlewares/ST/STM32_USB_Device_Library/Class/HID/Src/usbd_hid.c ****   HID_DESCRIPTOR_TYPE, /*bDescriptorType: HID*/
 207:Middlewares/ST/STM32_USB_Device_Library/Class/HID/Src/usbd_hid.c ****   0x11,         /*bcdHID: HID Class Spec release number*/
 208:Middlewares/ST/STM32_USB_Device_Library/Class/HID/Src/usbd_hid.c ****   0x01,
 209:Middlewares/ST/STM32_USB_Device_Library/Class/HID/Src/usbd_hid.c ****   0x00,         /*bCountryCode: Hardware target country*/
 210:Middlewares/ST/STM32_USB_Device_Library/Class/HID/Src/usbd_hid.c ****   0x01,         /*bNumDescriptors: Number of HID class descriptors to follow*/
 211:Middlewares/ST/STM32_USB_Device_Library/Class/HID/Src/usbd_hid.c ****   0x22,         /*bDescriptorType*/
 212:Middlewares/ST/STM32_USB_Device_Library/Class/HID/Src/usbd_hid.c ****   (JOYSTICK_SIZ_REPORT_DESC%0x100u), /*wItemLength: Total length of Report descriptor*/
 213:Middlewares/ST/STM32_USB_Device_Library/Class/HID/Src/usbd_hid.c ****   (JOYSTICK_SIZ_REPORT_DESC/0x100u),
 214:Middlewares/ST/STM32_USB_Device_Library/Class/HID/Src/usbd_hid.c **** };
 215:Middlewares/ST/STM32_USB_Device_Library/Class/HID/Src/usbd_hid.c **** 
 216:Middlewares/ST/STM32_USB_Device_Library/Class/HID/Src/usbd_hid.c **** /* USB Standard Device Descriptor */
 217:Middlewares/ST/STM32_USB_Device_Library/Class/HID/Src/usbd_hid.c **** __ALIGN_BEGIN static uint8_t USBD_HID_DeviceQualifierDesc[USB_LEN_DEV_QUALIFIER_DESC]  __ALIGN_END 
 218:Middlewares/ST/STM32_USB_Device_Library/Class/HID/Src/usbd_hid.c **** {
 219:Middlewares/ST/STM32_USB_Device_Library/Class/HID/Src/usbd_hid.c ****   USB_LEN_DEV_QUALIFIER_DESC,
 220:Middlewares/ST/STM32_USB_Device_Library/Class/HID/Src/usbd_hid.c ****   USB_DESC_TYPE_DEVICE_QUALIFIER,
 221:Middlewares/ST/STM32_USB_Device_Library/Class/HID/Src/usbd_hid.c ****   0x00,
 222:Middlewares/ST/STM32_USB_Device_Library/Class/HID/Src/usbd_hid.c ****   0x02,
 223:Middlewares/ST/STM32_USB_Device_Library/Class/HID/Src/usbd_hid.c ****   0x00,
 224:Middlewares/ST/STM32_USB_Device_Library/Class/HID/Src/usbd_hid.c ****   0x00,
 225:Middlewares/ST/STM32_USB_Device_Library/Class/HID/Src/usbd_hid.c ****   0x00,
 226:Middlewares/ST/STM32_USB_Device_Library/Class/HID/Src/usbd_hid.c ****   0x40,
 227:Middlewares/ST/STM32_USB_Device_Library/Class/HID/Src/usbd_hid.c ****   0x01,
 228:Middlewares/ST/STM32_USB_Device_Library/Class/HID/Src/usbd_hid.c ****   0x00,
 229:Middlewares/ST/STM32_USB_Device_Library/Class/HID/Src/usbd_hid.c **** };
 230:Middlewares/ST/STM32_USB_Device_Library/Class/HID/Src/usbd_hid.c **** 
 231:Middlewares/ST/STM32_USB_Device_Library/Class/HID/Src/usbd_hid.c **** __ALIGN_BEGIN static uint8_t Joystick_ReportDescriptor[JOYSTICK_SIZ_REPORT_DESC]  __ALIGN_END =
 232:Middlewares/ST/STM32_USB_Device_Library/Class/HID/Src/usbd_hid.c **** {
 233:Middlewares/ST/STM32_USB_Device_Library/Class/HID/Src/usbd_hid.c ****  		  0x05, 0x01,         		/*  Usage Page (Generic Desktop),           [12] */
 234:Middlewares/ST/STM32_USB_Device_Library/Class/HID/Src/usbd_hid.c **** 			   0x09, 0x04,         	/*  Usage (JoyStik),                        */
 235:Middlewares/ST/STM32_USB_Device_Library/Class/HID/Src/usbd_hid.c **** 			   0xA1, 0x01,         	/*  Collection (Application),               */
 236:Middlewares/ST/STM32_USB_Device_Library/Class/HID/Src/usbd_hid.c **** 			   0x85, 0x01,			/* REPORT_ID (1)*/
 237:Middlewares/ST/STM32_USB_Device_Library/Class/HID/Src/usbd_hid.c **** 			   //0xA1, 0x02,        /* Collection (Logical) */
 238:Middlewares/ST/STM32_USB_Device_Library/Class/HID/Src/usbd_hid.c **** 			   0x09, 0x01,			/*usage pointer*/
 239:Middlewares/ST/STM32_USB_Device_Library/Class/HID/Src/usbd_hid.c **** 			    0xA1, 0x00,			/* Collection (Physical) */
 240:Middlewares/ST/STM32_USB_Device_Library/Class/HID/Src/usbd_hid.c **** 			     /*X axis - the wheel axis										[21]*/
 241:Middlewares/ST/STM32_USB_Device_Library/Class/HID/Src/usbd_hid.c **** 			   	 0x09, 0x30,        /* Usage (X),                      */
 242:Middlewares/ST/STM32_USB_Device_Library/Class/HID/Src/usbd_hid.c **** 			     0x16, 0x01, 0x80,  /* Logical Minimum (-32767),       */
 243:Middlewares/ST/STM32_USB_Device_Library/Class/HID/Src/usbd_hid.c **** 			     0x26, 0xFF, 0x7F, 	/* Logical Maximum (32767),          */
 244:Middlewares/ST/STM32_USB_Device_Library/Class/HID/Src/usbd_hid.c **** 			     0x35, 0x00,        /* Physical Minimum (0),           */
 245:Middlewares/ST/STM32_USB_Device_Library/Class/HID/Src/usbd_hid.c **** 			     0x47, 0xFF, 0xFF, 0x00, 0x00, 	/* Physical Maximum (65k),         */
 246:Middlewares/ST/STM32_USB_Device_Library/Class/HID/Src/usbd_hid.c **** 				 0x75, 0x10,        /* Report Size (16),               */
 247:Middlewares/ST/STM32_USB_Device_Library/Class/HID/Src/usbd_hid.c **** 				 0x95, 0x01,        /* Report Count (1),               */
 248:Middlewares/ST/STM32_USB_Device_Library/Class/HID/Src/usbd_hid.c **** 			     0x81, 0x02,        /* Input (Variable),               */
 249:Middlewares/ST/STM32_USB_Device_Library/Class/HID/Src/usbd_hid.c **** 				 /*Y axis - Acceleration PedaL									[17]*/
 250:Middlewares/ST/STM32_USB_Device_Library/Class/HID/Src/usbd_hid.c **** 				 0x09, 0x31,         	/*          Usage (Y),                      */
 251:Middlewares/ST/STM32_USB_Device_Library/Class/HID/Src/usbd_hid.c **** 				 0x15, 0x00, /*0x81,*/           	/*          Logical Minimum 0 (-127),        	*/
 252:Middlewares/ST/STM32_USB_Device_Library/Class/HID/Src/usbd_hid.c **** 			     0x25, 0xFF, /*0x7F*/			/*      	Logical Maximum 255 (127),          */
 253:Middlewares/ST/STM32_USB_Device_Library/Class/HID/Src/usbd_hid.c **** 			     0x34,                  /*      	Physical Minimum (0),           */
 254:Middlewares/ST/STM32_USB_Device_Library/Class/HID/Src/usbd_hid.c **** 			     0x46, 0xFF, 0x00,   	/*       	Physical Maximum (255),         */
 255:Middlewares/ST/STM32_USB_Device_Library/Class/HID/Src/usbd_hid.c **** 			     0x75, 0x08,         	/*          Report Size (8),                */
 256:Middlewares/ST/STM32_USB_Device_Library/Class/HID/Src/usbd_hid.c **** 				 0x95, 0x01,         	/*          Report Count (1),               */
 257:Middlewares/ST/STM32_USB_Device_Library/Class/HID/Src/usbd_hid.c **** 			     0x81, 0x02,         	/*          Input (Variable),               */
 258:Middlewares/ST/STM32_USB_Device_Library/Class/HID/Src/usbd_hid.c **** 			    0xC0,				/* End collection (Physical)*/
 259:Middlewares/ST/STM32_USB_Device_Library/Class/HID/Src/usbd_hid.c **** 				/*rZ axis - Brake PedaL											[16]*/
 260:Middlewares/ST/STM32_USB_Device_Library/Class/HID/Src/usbd_hid.c **** 				0x09, 0x35,         	/*          Usage (RZ),                     */
 261:Middlewares/ST/STM32_USB_Device_Library/Class/HID/Src/usbd_hid.c **** 				0x15, 0x00,             /*          Logical Minimum (0),            */
ARM GAS  /tmp/cckByxZ4.s 			page 21


 262:Middlewares/ST/STM32_USB_Device_Library/Class/HID/Src/usbd_hid.c **** 			    0x26, 0xFF, 0x00,   	/*       	Logical Maximum (255),          */
 263:Middlewares/ST/STM32_USB_Device_Library/Class/HID/Src/usbd_hid.c **** 			    0x46, 0xFF, 0x00,   	/*       	Physical Maximum (255),         */
 264:Middlewares/ST/STM32_USB_Device_Library/Class/HID/Src/usbd_hid.c **** 				0x95, 0x01,         	/*          Report Count (1),               */
 265:Middlewares/ST/STM32_USB_Device_Library/Class/HID/Src/usbd_hid.c **** 			    0x75, 0x08,         	/*          Report Size (8),                */
 266:Middlewares/ST/STM32_USB_Device_Library/Class/HID/Src/usbd_hid.c **** 			    0x81, 0x02,         	/*          Input (Variable),               */
 267:Middlewares/ST/STM32_USB_Device_Library/Class/HID/Src/usbd_hid.c **** 				//0xA1, 0x02,        /* Collection (Logical) 						*/
 268:Middlewares/ST/STM32_USB_Device_Library/Class/HID/Src/usbd_hid.c **** 				/*4 buttons (can be Console Style: [] /\ 0 X					[16]*/
 269:Middlewares/ST/STM32_USB_Device_Library/Class/HID/Src/usbd_hid.c **** 				0x05, 0x09,         	/*          Usage Page (Button),            */
 270:Middlewares/ST/STM32_USB_Device_Library/Class/HID/Src/usbd_hid.c **** 			    0x95, 0x04,         	/*          Report Count (4),               */
 271:Middlewares/ST/STM32_USB_Device_Library/Class/HID/Src/usbd_hid.c **** 			    0x75, 0x01,         	/*          Report Size (1),                */
 272:Middlewares/ST/STM32_USB_Device_Library/Class/HID/Src/usbd_hid.c **** 			    0x25, 0x01,         	/*          Logical Maximum (1),            */
 273:Middlewares/ST/STM32_USB_Device_Library/Class/HID/Src/usbd_hid.c **** 			    0x45, 0x01,         	/*          Physical Maximum (1),           */
 274:Middlewares/ST/STM32_USB_Device_Library/Class/HID/Src/usbd_hid.c **** 			    0x19, 0x01,         	/*          Usage Minimum (01h),            */
 275:Middlewares/ST/STM32_USB_Device_Library/Class/HID/Src/usbd_hid.c **** 			    0x29, 0x04,         	/*          Usage Maximum (04h),            */
 276:Middlewares/ST/STM32_USB_Device_Library/Class/HID/Src/usbd_hid.c **** 			    0x81, 0x02,         	/*          Input (Variable),               */
 277:Middlewares/ST/STM32_USB_Device_Library/Class/HID/Src/usbd_hid.c **** 				/*Hat Switch													[20]*/
 278:Middlewares/ST/STM32_USB_Device_Library/Class/HID/Src/usbd_hid.c **** 			    //0x05, 0x01,         	/*          Usage Page (Generic Desktop),   */
 279:Middlewares/ST/STM32_USB_Device_Library/Class/HID/Src/usbd_hid.c **** 				0x09, 0x39,         	/*          Usage (Hat Switch),             */
 280:Middlewares/ST/STM32_USB_Device_Library/Class/HID/Src/usbd_hid.c **** 				0x15, 0x01,             /*          Logical Minimum,            	*/
 281:Middlewares/ST/STM32_USB_Device_Library/Class/HID/Src/usbd_hid.c **** 				0x25, 0x08,         	/*          Logical Maximum					*/
 282:Middlewares/ST/STM32_USB_Device_Library/Class/HID/Src/usbd_hid.c **** 				0x35, 0x00,         	/*          Physical Minimum				*/
 283:Middlewares/ST/STM32_USB_Device_Library/Class/HID/Src/usbd_hid.c **** 				0x46, 0x3B, 0x01, 		/*          Physical Maximum (315),         */
 284:Middlewares/ST/STM32_USB_Device_Library/Class/HID/Src/usbd_hid.c **** 				0x66, 0x14, 0x00,     	/*          Unit (Degrees),                 */
 285:Middlewares/ST/STM32_USB_Device_Library/Class/HID/Src/usbd_hid.c **** 				0x75, 0x04,         	/*          Report Size (4),                */
 286:Middlewares/ST/STM32_USB_Device_Library/Class/HID/Src/usbd_hid.c **** 			    0x95, 0x01,         	/*          Report Count (1),               */
 287:Middlewares/ST/STM32_USB_Device_Library/Class/HID/Src/usbd_hid.c **** 			    0x81, 0x02,         	/*          Input (Variable),               */
 288:Middlewares/ST/STM32_USB_Device_Library/Class/HID/Src/usbd_hid.c **** 			   //0xC0,               		/*      End Collection,  (Logical),         */
 289:Middlewares/ST/STM32_USB_Device_Library/Class/HID/Src/usbd_hid.c **** 			   /*start Force Feedback definitions*/
 290:Middlewares/ST/STM32_USB_Device_Library/Class/HID/Src/usbd_hid.c **** 			   0x05, 0x0F,			/*Usage_Page (Physical Interface)				[2]*/
 291:Middlewares/ST/STM32_USB_Device_Library/Class/HID/Src/usbd_hid.c **** 			   /*Set Effect report													[6]*/
 292:Middlewares/ST/STM32_USB_Device_Library/Class/HID/Src/usbd_hid.c **** 			   0x09, 0x21,			/*USAGE (Set effect report)*/
 293:Middlewares/ST/STM32_USB_Device_Library/Class/HID/Src/usbd_hid.c **** 			   0xA1, 0x02, 			/*COLLECTION (Logical)*/
 294:Middlewares/ST/STM32_USB_Device_Library/Class/HID/Src/usbd_hid.c **** 			   0x85, 0x01,			/* REPORT_ID (1)*/
 295:Middlewares/ST/STM32_USB_Device_Library/Class/HID/Src/usbd_hid.c **** 			    /*Effect Block Index												[16]*/
 296:Middlewares/ST/STM32_USB_Device_Library/Class/HID/Src/usbd_hid.c **** 			    0x09, 0x22,			/*USAGE (Effect Block Index)*/
 297:Middlewares/ST/STM32_USB_Device_Library/Class/HID/Src/usbd_hid.c **** 				0x15, 0x01,			/*LOGICAL_MINIMUM (1)*/
 298:Middlewares/ST/STM32_USB_Device_Library/Class/HID/Src/usbd_hid.c **** 			    0x25, 0x20,			/*LOGICAL_MAXIMUM (32)*/
 299:Middlewares/ST/STM32_USB_Device_Library/Class/HID/Src/usbd_hid.c **** 				0x35, 0x01,        	/*Physical Minimum*/
 300:Middlewares/ST/STM32_USB_Device_Library/Class/HID/Src/usbd_hid.c **** 				0x45, 0x20, 		/*Physical Maximum*/
 301:Middlewares/ST/STM32_USB_Device_Library/Class/HID/Src/usbd_hid.c **** 			    0x75, 0x08,			/*REPORT_SIZE (8)*/
 302:Middlewares/ST/STM32_USB_Device_Library/Class/HID/Src/usbd_hid.c **** 			    0x95, 0x01,			/*REPORT_COUNT (1)*/
 303:Middlewares/ST/STM32_USB_Device_Library/Class/HID/Src/usbd_hid.c **** 			    0x91, 0x02,			/*OUTPUT (Data,VaR, AbS)*/
 304:Middlewares/ST/STM32_USB_Device_Library/Class/HID/Src/usbd_hid.c **** 			    /*Effect type														[21]*/
 305:Middlewares/ST/STM32_USB_Device_Library/Class/HID/Src/usbd_hid.c **** 			    0x09, 0x25,			/*USAGE (Effect Type)*/
 306:Middlewares/ST/STM32_USB_Device_Library/Class/HID/Src/usbd_hid.c **** 			    0xA1, 0x02,			/*COLLECTION (Logical)*/
 307:Middlewares/ST/STM32_USB_Device_Library/Class/HID/Src/usbd_hid.c **** 			     0x09, 0x26,		/*USAGE (ET Constant Force)*/
 308:Middlewares/ST/STM32_USB_Device_Library/Class/HID/Src/usbd_hid.c **** 				 0x09, 0x43,		/*USAGE (ET Friction)*/
 309:Middlewares/ST/STM32_USB_Device_Library/Class/HID/Src/usbd_hid.c **** 			     0x15, 0x01,		/*LOGICAL_MINIMUM*/
 310:Middlewares/ST/STM32_USB_Device_Library/Class/HID/Src/usbd_hid.c **** 				 0x25, 0x02,		/*LOGICAL_MAXIMUM*/
 311:Middlewares/ST/STM32_USB_Device_Library/Class/HID/Src/usbd_hid.c **** 				 0x35, 0x01,        /*Physical Minimum*/
 312:Middlewares/ST/STM32_USB_Device_Library/Class/HID/Src/usbd_hid.c **** 				 0x45, 0x02, 		/*Physical Maximum*/
 313:Middlewares/ST/STM32_USB_Device_Library/Class/HID/Src/usbd_hid.c **** 				 0x75, 0x08,		/*REPORT_SIZE (8)*/
 314:Middlewares/ST/STM32_USB_Device_Library/Class/HID/Src/usbd_hid.c **** 				 0x91, 0x00,		/*OUTPUT (Data,ArY,AbS)*/
 315:Middlewares/ST/STM32_USB_Device_Library/Class/HID/Src/usbd_hid.c **** 				0xC0,				/*END COLLECTION*/
 316:Middlewares/ST/STM32_USB_Device_Library/Class/HID/Src/usbd_hid.c **** 				/*Duration and 	Trigger Repeat Interval									[25]*/
 317:Middlewares/ST/STM32_USB_Device_Library/Class/HID/Src/usbd_hid.c **** 				0x09, 0x50,			/*USAGE (Duration)*/
 318:Middlewares/ST/STM32_USB_Device_Library/Class/HID/Src/usbd_hid.c **** 				0x09, 0x54,			/*USAGE (Trigger Repeat Interval)*/
ARM GAS  /tmp/cckByxZ4.s 			page 22


 319:Middlewares/ST/STM32_USB_Device_Library/Class/HID/Src/usbd_hid.c **** 				0x15, 0x00,			/*LOGICAL_MINIMUM (0)*/
 320:Middlewares/ST/STM32_USB_Device_Library/Class/HID/Src/usbd_hid.c **** 				0x26, 0x10, 0x27,	/*LOGICAL_MAXIMUM (10000)*/
 321:Middlewares/ST/STM32_USB_Device_Library/Class/HID/Src/usbd_hid.c **** 				0x35, 0x00,         /*Physical Minimum*/
 322:Middlewares/ST/STM32_USB_Device_Library/Class/HID/Src/usbd_hid.c **** 				0x46, 0x10, 0x27,	/*PHYSICAL_MAXIMUM (10000)*/
 323:Middlewares/ST/STM32_USB_Device_Library/Class/HID/Src/usbd_hid.c **** 				0x66, 0x03, 0x10,	/*UNIT (ENG Lin:Time)*/
 324:Middlewares/ST/STM32_USB_Device_Library/Class/HID/Src/usbd_hid.c **** 				0x55, 0x0D,			/*UNIT_EXPONENT (-3)*/
 325:Middlewares/ST/STM32_USB_Device_Library/Class/HID/Src/usbd_hid.c **** 				0x75, 0x10,			/*REPORT_SIZE (16)*/
 326:Middlewares/ST/STM32_USB_Device_Library/Class/HID/Src/usbd_hid.c **** 				0x95, 0x02,			/*REPORT_COUNT (2) - XXX 2 is for Duration and Trigger Repeat Interval ? XXX*/
 327:Middlewares/ST/STM32_USB_Device_Library/Class/HID/Src/usbd_hid.c **** 				0x91, 0x02,			/*OUTPUT (Data,VaR,AbS)*/
 328:Middlewares/ST/STM32_USB_Device_Library/Class/HID/Src/usbd_hid.c **** 				/*Sample period													[6]*/
 329:Middlewares/ST/STM32_USB_Device_Library/Class/HID/Src/usbd_hid.c **** 				0x09, 0x51,			/*USAGE (Sample Period)*/
 330:Middlewares/ST/STM32_USB_Device_Library/Class/HID/Src/usbd_hid.c **** 				0x95, 0x01,			/*REPORT_COUNT (1) */
 331:Middlewares/ST/STM32_USB_Device_Library/Class/HID/Src/usbd_hid.c **** 				0x91, 0x02,			/*OUTPUT (Data,VaR,AbS)*/
 332:Middlewares/ST/STM32_USB_Device_Library/Class/HID/Src/usbd_hid.c **** 				/*GLOBAL Defines												[7]*/
 333:Middlewares/ST/STM32_USB_Device_Library/Class/HID/Src/usbd_hid.c **** 				0x45, 0x00,			/*PHYSICAL_MAXIMUM (0)*/
 334:Middlewares/ST/STM32_USB_Device_Library/Class/HID/Src/usbd_hid.c **** 				0x55, 0x00, 		/*UNIT_EXPONENT (0)*/
 335:Middlewares/ST/STM32_USB_Device_Library/Class/HID/Src/usbd_hid.c **** 				0x66, 0x00, 0x00,	/*UNIT (None)*/
 336:Middlewares/ST/STM32_USB_Device_Library/Class/HID/Src/usbd_hid.c **** 				/*Gain 															[18]*/
 337:Middlewares/ST/STM32_USB_Device_Library/Class/HID/Src/usbd_hid.c **** 				0x09, 0x52,			/*USAGE (Gain)*/
 338:Middlewares/ST/STM32_USB_Device_Library/Class/HID/Src/usbd_hid.c **** 				0x15, 0x00,			/*LOGICAL_MINIMUM*/
 339:Middlewares/ST/STM32_USB_Device_Library/Class/HID/Src/usbd_hid.c **** 				0x26, 0x10, 0x27,	/*LOGICAL_MAXIMUM (10000)*/
 340:Middlewares/ST/STM32_USB_Device_Library/Class/HID/Src/usbd_hid.c **** 				0x35, 0x00,         /*Physical Minimum*/
 341:Middlewares/ST/STM32_USB_Device_Library/Class/HID/Src/usbd_hid.c **** 				0x46, 0x10, 0x27,	/*PHYSICAL_MAXIMUM (10000)*/
 342:Middlewares/ST/STM32_USB_Device_Library/Class/HID/Src/usbd_hid.c **** 				0x75, 0x10,			/*REPORT_SIZE (16)*/
 343:Middlewares/ST/STM32_USB_Device_Library/Class/HID/Src/usbd_hid.c **** 				0x95, 0x01,			/*REPORT_COUNT*/
 344:Middlewares/ST/STM32_USB_Device_Library/Class/HID/Src/usbd_hid.c **** 				0x91, 0x02,			/*OUTPUT (Data,VaR,AbS)*/
 345:Middlewares/ST/STM32_USB_Device_Library/Class/HID/Src/usbd_hid.c **** 				/*Trigger Button 												[16]*/
 346:Middlewares/ST/STM32_USB_Device_Library/Class/HID/Src/usbd_hid.c **** 				0x09, 0x53,			/*USAGE (Trigger Button)*/
 347:Middlewares/ST/STM32_USB_Device_Library/Class/HID/Src/usbd_hid.c **** 				0x15, 0x01,			/*LOGICAL_MINIMUM*/
 348:Middlewares/ST/STM32_USB_Device_Library/Class/HID/Src/usbd_hid.c **** 				0x25, 0x08,			/*LOGICAL_MAXIMUM*/
 349:Middlewares/ST/STM32_USB_Device_Library/Class/HID/Src/usbd_hid.c **** 				0x35, 0x01,         /*Physical Minimum*/
 350:Middlewares/ST/STM32_USB_Device_Library/Class/HID/Src/usbd_hid.c **** 				0x45, 0x08,			/*PHYSICAL_MAXIMUM*/
 351:Middlewares/ST/STM32_USB_Device_Library/Class/HID/Src/usbd_hid.c **** 				0x75, 0x08,			/*REPORT_SIZE*/
 352:Middlewares/ST/STM32_USB_Device_Library/Class/HID/Src/usbd_hid.c **** 				0x95, 0x01,			/*REPORT_COUNT*/
 353:Middlewares/ST/STM32_USB_Device_Library/Class/HID/Src/usbd_hid.c **** 				0x91, 0x02,			/*OUTPUT (Data,VaR,AbS)*/
 354:Middlewares/ST/STM32_USB_Device_Library/Class/HID/Src/usbd_hid.c **** 				/*Axes enable 															[22]*/
 355:Middlewares/ST/STM32_USB_Device_Library/Class/HID/Src/usbd_hid.c **** 				0x09, 0x55,			/*USAGE (Axes Enable) ; Tie these axes to the stick*/
 356:Middlewares/ST/STM32_USB_Device_Library/Class/HID/Src/usbd_hid.c **** 				0xA1, 0x02,			/*COLLECTION (Logical)*/
 357:Middlewares/ST/STM32_USB_Device_Library/Class/HID/Src/usbd_hid.c **** 				 0x05, 0x01,		/*USAGE_PAGE (Generic Desktop)*/
 358:Middlewares/ST/STM32_USB_Device_Library/Class/HID/Src/usbd_hid.c **** 				 0xA1, 0x00,		/*COLLECTION (PHYSICAL)*/	
 359:Middlewares/ST/STM32_USB_Device_Library/Class/HID/Src/usbd_hid.c **** 				  0x09, 0x30,		/*USAGE (X) - Wheel Axis*/
 360:Middlewares/ST/STM32_USB_Device_Library/Class/HID/Src/usbd_hid.c **** 				  0x15, 0x00,		/*LOGICAL_MINIMUM (0)*/
 361:Middlewares/ST/STM32_USB_Device_Library/Class/HID/Src/usbd_hid.c **** 				  0x25, 0x01,		/*LOGICAL_MAXIMUM (1)*/
 362:Middlewares/ST/STM32_USB_Device_Library/Class/HID/Src/usbd_hid.c **** 				  0x75, 0x01,		/*REPORT_SIZE (1)*/
 363:Middlewares/ST/STM32_USB_Device_Library/Class/HID/Src/usbd_hid.c **** 				  0x95, 0x01,		/*REPORT_COUNT (1)*/
 364:Middlewares/ST/STM32_USB_Device_Library/Class/HID/Src/usbd_hid.c **** 				  0x91, 0x02,		/*OUTPUT (Data,VaR,AbS)*/
 365:Middlewares/ST/STM32_USB_Device_Library/Class/HID/Src/usbd_hid.c **** 				 0xC0,				/*END_COLLECTION (physical)*/ 
 366:Middlewares/ST/STM32_USB_Device_Library/Class/HID/Src/usbd_hid.c **** 				0xC0,				/*END_COLLECTION (logical)*/
 367:Middlewares/ST/STM32_USB_Device_Library/Class/HID/Src/usbd_hid.c **** 				/*Direction enable - uses one more bit in the byte for axes enable		[12]*/
 368:Middlewares/ST/STM32_USB_Device_Library/Class/HID/Src/usbd_hid.c **** 				0x05, 0x0F, 		/*USAGE_PAGE (Physical Interface)*/
 369:Middlewares/ST/STM32_USB_Device_Library/Class/HID/Src/usbd_hid.c **** 				0x09, 0x56,			/*USAGE (Direction enable)*/
 370:Middlewares/ST/STM32_USB_Device_Library/Class/HID/Src/usbd_hid.c **** 				0x95, 0x01, 		/* REPORT_COUNT (1) */
 371:Middlewares/ST/STM32_USB_Device_Library/Class/HID/Src/usbd_hid.c **** 				0x91, 0x02,			/* OUTPUT (Data,VaR,AbS)*/
 372:Middlewares/ST/STM32_USB_Device_Library/Class/HID/Src/usbd_hid.c **** 				0x95, 0x06, 		/* REPORT_COUNT (6 - one bit used by axes enable and one by direction enable) */
 373:Middlewares/ST/STM32_USB_Device_Library/Class/HID/Src/usbd_hid.c **** 				0x91, 0x03,			/* OUTPUT (Constant,VaR,AbS); bit padding*/
 374:Middlewares/ST/STM32_USB_Device_Library/Class/HID/Src/usbd_hid.c **** 				/*Direction 															[43]*/
 375:Middlewares/ST/STM32_USB_Device_Library/Class/HID/Src/usbd_hid.c **** 				0x09, 0x57,			/*USAGE (Direction)*/
ARM GAS  /tmp/cckByxZ4.s 			page 23


 376:Middlewares/ST/STM32_USB_Device_Library/Class/HID/Src/usbd_hid.c **** 				0xA1, 0x02,			/*COLLECTION (Logical)*/
 377:Middlewares/ST/STM32_USB_Device_Library/Class/HID/Src/usbd_hid.c **** 				  0x0B, 0x01, 0x00, 0x0A, 0x00,	/*USAGE (Ordinals:Instance 1)*/
 378:Middlewares/ST/STM32_USB_Device_Library/Class/HID/Src/usbd_hid.c **** 				  0x0B, 0x02, 0x00, 0x0A, 0x00,	/*USAGE (Ordinals:Instance 2)*/
 379:Middlewares/ST/STM32_USB_Device_Library/Class/HID/Src/usbd_hid.c **** 				  0x65, 0x14,		/*unit degrees*/
 380:Middlewares/ST/STM32_USB_Device_Library/Class/HID/Src/usbd_hid.c **** 				  0x55, 0xFE,/*was 0x0E,*/	/*unit exponent ? (was -2)*/
 381:Middlewares/ST/STM32_USB_Device_Library/Class/HID/Src/usbd_hid.c **** 				  0x15, 0x00,		/*LOGICAL_MINIMUM (0)*/
 382:Middlewares/ST/STM32_USB_Device_Library/Class/HID/Src/usbd_hid.c **** 				  0x26, 0xFF, 0x00,	/*LOGICAL_MAXIMUM (255)*/
 383:Middlewares/ST/STM32_USB_Device_Library/Class/HID/Src/usbd_hid.c **** 				  0x35, 0x00,		/*PHYSICAL_MINIMUM (0 - use logical limits)*/
 384:Middlewares/ST/STM32_USB_Device_Library/Class/HID/Src/usbd_hid.c **** 				  0x47, 0xa0, 0x8c, 0x00, 0x00, /*was0x45, 0x00,*/	/*PHYSICAL_MAXIMUM (36000) (was 0 - use logi
 385:Middlewares/ST/STM32_USB_Device_Library/Class/HID/Src/usbd_hid.c **** 				  0x65, 0x00,		/*UNIT (0)*/
 386:Middlewares/ST/STM32_USB_Device_Library/Class/HID/Src/usbd_hid.c **** 				  0x75, 0x08,		/*REPORT_SIZE (8)*/
 387:Middlewares/ST/STM32_USB_Device_Library/Class/HID/Src/usbd_hid.c **** 				  0x95, 0x02,		/*REPORT_COUNT*/
 388:Middlewares/ST/STM32_USB_Device_Library/Class/HID/Src/usbd_hid.c **** 				  0x91, 0x02,		/*OUTPUT (Data,VaR,AbS)*/
 389:Middlewares/ST/STM32_USB_Device_Library/Class/HID/Src/usbd_hid.c **** 				  0x55, 0x00,	  	/*Unit exponent (0)*/
 390:Middlewares/ST/STM32_USB_Device_Library/Class/HID/Src/usbd_hid.c **** 				  0x65, 0x00,		/*UNIT (None) */
 391:Middlewares/ST/STM32_USB_Device_Library/Class/HID/Src/usbd_hid.c **** 				0xC0,				/*END_COLLECTION (Direction)*/
 392:Middlewares/ST/STM32_USB_Device_Library/Class/HID/Src/usbd_hid.c **** 				// /*Start delay												[not used 21]*/
 393:Middlewares/ST/STM32_USB_Device_Library/Class/HID/Src/usbd_hid.c **** 				// 0x09, 0xA7,			/*USAGE (Start Delay)*/
 394:Middlewares/ST/STM32_USB_Device_Library/Class/HID/Src/usbd_hid.c **** 				// 0x15, 0x00,			/*LOGICAL_MINIMUM (0)*/
 395:Middlewares/ST/STM32_USB_Device_Library/Class/HID/Src/usbd_hid.c **** 				// 0x26, 0x10, 0x27,	/*LOGICAL_MAXIMUM (10000)*/
 396:Middlewares/ST/STM32_USB_Device_Library/Class/HID/Src/usbd_hid.c **** 				// 0x46, 0x10, 0x27,	/*PHYSICAL_MAXIMUM (10000)*/
 397:Middlewares/ST/STM32_USB_Device_Library/Class/HID/Src/usbd_hid.c **** 				// 0x75, 0x10,			/*REPORT_SIZE (16)*/
 398:Middlewares/ST/STM32_USB_Device_Library/Class/HID/Src/usbd_hid.c **** 				// 0x66, 0x03, 0x10,	/*UNIT (ENG Lin:Time)*/
 399:Middlewares/ST/STM32_USB_Device_Library/Class/HID/Src/usbd_hid.c **** 				// 0x55, 0x0D,			/*UNIT_EXPONENT (-3)*/
 400:Middlewares/ST/STM32_USB_Device_Library/Class/HID/Src/usbd_hid.c **** 				// 0x95, 0x01,			/*REPORT_COUNT (1)*/
 401:Middlewares/ST/STM32_USB_Device_Library/Class/HID/Src/usbd_hid.c **** 				// 0x91, 0x02,			/*OUTPUT (Data,VaR,AbS)*/
 402:Middlewares/ST/STM32_USB_Device_Library/Class/HID/Src/usbd_hid.c **** 				// /*GLOBAL Defines												[not used 6]*/
 403:Middlewares/ST/STM32_USB_Device_Library/Class/HID/Src/usbd_hid.c **** 				// 0x45, 0x00,			/*PHYSICAL_MAXIMUM (0)*/
 404:Middlewares/ST/STM32_USB_Device_Library/Class/HID/Src/usbd_hid.c **** 				// 0x55, 0x00, 		/*UNIT_EXPONENT (0)*/
 405:Middlewares/ST/STM32_USB_Device_Library/Class/HID/Src/usbd_hid.c **** 				// 0x65, 0x00,			/*UNIT (None)*/
 406:Middlewares/ST/STM32_USB_Device_Library/Class/HID/Src/usbd_hid.c **** 				// /*Type Specific Block Offset 								[not used 21]*/
 407:Middlewares/ST/STM32_USB_Device_Library/Class/HID/Src/usbd_hid.c **** 				// 0x05, 0x0F, 		/*USAGE_PAGE (Physical Interface)*/
 408:Middlewares/ST/STM32_USB_Device_Library/Class/HID/Src/usbd_hid.c **** 				// 0x09, 0x58,			/*USAGE (Type Specific Block Offset)*/
 409:Middlewares/ST/STM32_USB_Device_Library/Class/HID/Src/usbd_hid.c **** 				// 0xA1, 0x02, 			/*COLLECTION (Logical)*/
 410:Middlewares/ST/STM32_USB_Device_Library/Class/HID/Src/usbd_hid.c **** 				//  0x0B, 0x01, 0x00, 0x0A, 0x00,	/*USAGE (Ordinals:Instance 1)*/
 411:Middlewares/ST/STM32_USB_Device_Library/Class/HID/Src/usbd_hid.c **** 				//  //0x0B, 0x02, 0x00, 0x0A, 0x00,	/*USAGE (Ordinals:Instance 2)*/
 412:Middlewares/ST/STM32_USB_Device_Library/Class/HID/Src/usbd_hid.c **** 				//  0x26, 0x20, 0x00,		/*LOGICAL_MAXIMUM (32 XXX was 32765: 0xFD, 0x7F)*/
 413:Middlewares/ST/STM32_USB_Device_Library/Class/HID/Src/usbd_hid.c **** 				//  0x75, 0x10,			/*REPORT_SIZE (16)*/
 414:Middlewares/ST/STM32_USB_Device_Library/Class/HID/Src/usbd_hid.c **** 				//  0x95, 0x01,			/*REPORT_COUNT (1)*/
 415:Middlewares/ST/STM32_USB_Device_Library/Class/HID/Src/usbd_hid.c **** 				//  0x91, 0x02,			/*OUTPUT (Data,VaR,AbS)*/
 416:Middlewares/ST/STM32_USB_Device_Library/Class/HID/Src/usbd_hid.c **** 				// 0xC0,					/*END_COLLECTION*/
 417:Middlewares/ST/STM32_USB_Device_Library/Class/HID/Src/usbd_hid.c **** 				/*END of Set Effect report									[1]*/
 418:Middlewares/ST/STM32_USB_Device_Library/Class/HID/Src/usbd_hid.c **** 			   0xC0, 					/*END COLLECTION ( Effect report )*/
 419:Middlewares/ST/STM32_USB_Device_Library/Class/HID/Src/usbd_hid.c **** 			   /*Constant Force Report Definition 							[41]*/
 420:Middlewares/ST/STM32_USB_Device_Library/Class/HID/Src/usbd_hid.c **** 			   0x09, 0x73,			/*USAGE (Set Constant Force Report)*/
 421:Middlewares/ST/STM32_USB_Device_Library/Class/HID/Src/usbd_hid.c **** 			   0xA1, 0x02,			/*COLLECTION (Logical) */
 422:Middlewares/ST/STM32_USB_Device_Library/Class/HID/Src/usbd_hid.c **** 			    0x85, 0x03,				/*REPORT_ID (3) */
 423:Middlewares/ST/STM32_USB_Device_Library/Class/HID/Src/usbd_hid.c **** 			    //0x09, 0x23,				/*USAGE (Parameter Block Offset); TODO if problems: use 22 (Effect Block In
 424:Middlewares/ST/STM32_USB_Device_Library/Class/HID/Src/usbd_hid.c **** 			    0x09, 0x22,				/*Effect Block Index */
 425:Middlewares/ST/STM32_USB_Device_Library/Class/HID/Src/usbd_hid.c **** 				0x15, 0x01,				/*LOGICAL_MINIMUM (1)*/
 426:Middlewares/ST/STM32_USB_Device_Library/Class/HID/Src/usbd_hid.c **** 				0x25, 0x20,			    /*LOGICAL_MAXIMUM (32)*/
 427:Middlewares/ST/STM32_USB_Device_Library/Class/HID/Src/usbd_hid.c **** 				0x35, 0x01,				/*PHYSICAL_MINIMUM (1)*/
 428:Middlewares/ST/STM32_USB_Device_Library/Class/HID/Src/usbd_hid.c **** 				0x45, 0x20,				/*PHYSICAL_MAXIMUM (32)*/
 429:Middlewares/ST/STM32_USB_Device_Library/Class/HID/Src/usbd_hid.c **** 			    0x75, 0x08,				/*REPORT_SIZE (8)*/
 430:Middlewares/ST/STM32_USB_Device_Library/Class/HID/Src/usbd_hid.c **** 			    0x95, 0x01,				/*REPORT_COUNT (1)*/
 431:Middlewares/ST/STM32_USB_Device_Library/Class/HID/Src/usbd_hid.c **** 			    0x91, 0x02,				/*OUTPUT (Data,VaR,AbS)*/
 432:Middlewares/ST/STM32_USB_Device_Library/Class/HID/Src/usbd_hid.c **** 			    0x09, 0x70,				/*USAGE (Magnitude) */
ARM GAS  /tmp/cckByxZ4.s 			page 24


 433:Middlewares/ST/STM32_USB_Device_Library/Class/HID/Src/usbd_hid.c **** 				0x16, 0xF0, 0xD8,		/*LOGICAL_MINIMUM (-10000)*/
 434:Middlewares/ST/STM32_USB_Device_Library/Class/HID/Src/usbd_hid.c **** 			    0x26, 0x10, 0x27,		/*LOGICAL_MAXIMUM (10000) */
 435:Middlewares/ST/STM32_USB_Device_Library/Class/HID/Src/usbd_hid.c **** 				0x36, 0xF0, 0xD8,		/*PHYSICAL_MINIMUM (-10000)*/
 436:Middlewares/ST/STM32_USB_Device_Library/Class/HID/Src/usbd_hid.c **** 				0x46, 0x10, 0x27,		/*PHYSICAL_MAXIMUM (10000)*/
 437:Middlewares/ST/STM32_USB_Device_Library/Class/HID/Src/usbd_hid.c **** 			    0x75, 0x10,				/*REPORT_SIZE (16)*/
 438:Middlewares/ST/STM32_USB_Device_Library/Class/HID/Src/usbd_hid.c **** 			    0x91, 0x02,				/*OUTPUT (Data,VaR,AbS) */
 439:Middlewares/ST/STM32_USB_Device_Library/Class/HID/Src/usbd_hid.c **** 			   0xC0,					/*END_COLLECTION */
 440:Middlewares/ST/STM32_USB_Device_Library/Class/HID/Src/usbd_hid.c **** 			   /*Envelope Report Definition										[58] */
 441:Middlewares/ST/STM32_USB_Device_Library/Class/HID/Src/usbd_hid.c **** 			   0x09, 0x5A,	/*USAGE (Set Envelope Report) */
 442:Middlewares/ST/STM32_USB_Device_Library/Class/HID/Src/usbd_hid.c **** 			   0xA1, 0x02,	/*COLLECTION (Logical)*/
 443:Middlewares/ST/STM32_USB_Device_Library/Class/HID/Src/usbd_hid.c **** 			    0x85, 0x02, 		/* REPORT_ID (2)*/
 444:Middlewares/ST/STM32_USB_Device_Library/Class/HID/Src/usbd_hid.c **** 			    0x09, 0x22, 		/* USAGE (Effect Block Index) XXX was 0x23 USAGE (Parameter Block Offset) but 
 445:Middlewares/ST/STM32_USB_Device_Library/Class/HID/Src/usbd_hid.c **** 				0x15, 0x01,			/* LOGICAL_MINIMUM (1)*/
 446:Middlewares/ST/STM32_USB_Device_Library/Class/HID/Src/usbd_hid.c **** 			    0x25, 0x20,			/* LOGICAL_MAXIMUM (32)*/
 447:Middlewares/ST/STM32_USB_Device_Library/Class/HID/Src/usbd_hid.c **** 				0x35, 0x01,			/* PHYSICAL_MINIMUM (1)*/
 448:Middlewares/ST/STM32_USB_Device_Library/Class/HID/Src/usbd_hid.c **** 				0x45, 0x20,			/* PHYSICAL_MAXIMUM (32)*/
 449:Middlewares/ST/STM32_USB_Device_Library/Class/HID/Src/usbd_hid.c **** 			    0x75, 0x08, 		/* REPORT_SIZE (8)*/
 450:Middlewares/ST/STM32_USB_Device_Library/Class/HID/Src/usbd_hid.c **** 			    0x95, 0x01, 		/* REPORT_COUNT (1)*/
 451:Middlewares/ST/STM32_USB_Device_Library/Class/HID/Src/usbd_hid.c **** 			    0x91, 0x02, 		/* OUTPUT (Data,VaR,AbS) */
 452:Middlewares/ST/STM32_USB_Device_Library/Class/HID/Src/usbd_hid.c **** 			    0x09, 0x5B, 		/* USAGE (Attack Level) */
 453:Middlewares/ST/STM32_USB_Device_Library/Class/HID/Src/usbd_hid.c **** 			    0x09, 0x5D,	 		/* USAGE (Fade Level) */
 454:Middlewares/ST/STM32_USB_Device_Library/Class/HID/Src/usbd_hid.c **** 				0x15, 0x00,			/* LOGICAL_MINIMUM (0)*/
 455:Middlewares/ST/STM32_USB_Device_Library/Class/HID/Src/usbd_hid.c **** 			    0x26, 0xFF, 0x00,	/* LOGICAL_MAXIMUM (255) */
 456:Middlewares/ST/STM32_USB_Device_Library/Class/HID/Src/usbd_hid.c **** 				0x46, 0x10, 0x27, 	/* PHYSICAL_MAXIMUM (10000)  */
 457:Middlewares/ST/STM32_USB_Device_Library/Class/HID/Src/usbd_hid.c **** 			    0x75, 0x08, 		/* REPORT_SIZE (8)*/
 458:Middlewares/ST/STM32_USB_Device_Library/Class/HID/Src/usbd_hid.c **** 			    0x95, 0x02, 		/* REPORT_COUNT (2)*/
 459:Middlewares/ST/STM32_USB_Device_Library/Class/HID/Src/usbd_hid.c **** 			    0x91, 0x02,			/* OUTPUT (Data,VaR,AbS)*/
 460:Middlewares/ST/STM32_USB_Device_Library/Class/HID/Src/usbd_hid.c **** 			    0x09, 0x5C, 		/* USAGE (Attack Time) */
 461:Middlewares/ST/STM32_USB_Device_Library/Class/HID/Src/usbd_hid.c **** 			    0x09, 0x5E, 		/* USAGE (Fade Time)  */
 462:Middlewares/ST/STM32_USB_Device_Library/Class/HID/Src/usbd_hid.c **** 			    0x66, 0x03, 0x10, 	/* UNIT (EnG Lin:Time) */
 463:Middlewares/ST/STM32_USB_Device_Library/Class/HID/Src/usbd_hid.c **** 			    0x55, 0x0D, 		/* UNIT_EXPONENT (-3)*/
 464:Middlewares/ST/STM32_USB_Device_Library/Class/HID/Src/usbd_hid.c **** 			    0x75, 0x08, 		/* REPORT_SIZE*/
 465:Middlewares/ST/STM32_USB_Device_Library/Class/HID/Src/usbd_hid.c **** 			    0x91, 0x02, 		/* OUTPUT (Data,VaR,AbS) */
 466:Middlewares/ST/STM32_USB_Device_Library/Class/HID/Src/usbd_hid.c **** 			    0x65, 0x00, 		/* UNIT (None) */
 467:Middlewares/ST/STM32_USB_Device_Library/Class/HID/Src/usbd_hid.c **** 			    0x55, 0x00, 		/* UNIT_EXPONENT (0)*/
 468:Middlewares/ST/STM32_USB_Device_Library/Class/HID/Src/usbd_hid.c **** 			   0xC0, 				/*END_COLLECTION */
 469:Middlewares/ST/STM32_USB_Device_Library/Class/HID/Src/usbd_hid.c **** 			   /*Effect Operation Report Definition							[60]*/
 470:Middlewares/ST/STM32_USB_Device_Library/Class/HID/Src/usbd_hid.c **** 			   0x09, 0x77,				/*USAGE (Effect Operation Report)*/
 471:Middlewares/ST/STM32_USB_Device_Library/Class/HID/Src/usbd_hid.c **** 			   0xA1, 0x02,				/* COLLECTION (Logical) */
 472:Middlewares/ST/STM32_USB_Device_Library/Class/HID/Src/usbd_hid.c **** 			    0x85, 0x04,				/* REPORT_ID (4) */
 473:Middlewares/ST/STM32_USB_Device_Library/Class/HID/Src/usbd_hid.c **** 			    0x09, 0x22,				/* USAGE (Effect Block Index) */
 474:Middlewares/ST/STM32_USB_Device_Library/Class/HID/Src/usbd_hid.c **** 				0x15, 0x01,				/*LOGICAL_MINIMUM (1)*/
 475:Middlewares/ST/STM32_USB_Device_Library/Class/HID/Src/usbd_hid.c **** 			    0x25, 0x20,				/*LOGICAL_MAXIMUM (32)*/
 476:Middlewares/ST/STM32_USB_Device_Library/Class/HID/Src/usbd_hid.c **** 				0x35, 0x01,				/* PHYSICAL_MINIMUM (1)*/
 477:Middlewares/ST/STM32_USB_Device_Library/Class/HID/Src/usbd_hid.c **** 				0x45, 0x20,				/* PHYSICAL_MAXIMUM (32)*/
 478:Middlewares/ST/STM32_USB_Device_Library/Class/HID/Src/usbd_hid.c **** 			    0x75, 0x08,				/* REPORT_SIZE (8) */
 479:Middlewares/ST/STM32_USB_Device_Library/Class/HID/Src/usbd_hid.c **** 			    0x95, 0x01,				/* REPORT_COUNT (1) */
 480:Middlewares/ST/STM32_USB_Device_Library/Class/HID/Src/usbd_hid.c **** 			    0x91, 0x02,				/* OUTPUT (Data,VaR,AbS) */
 481:Middlewares/ST/STM32_USB_Device_Library/Class/HID/Src/usbd_hid.c **** 			    0x09, 0x78,				/* USAGE (Effect Operation) */
 482:Middlewares/ST/STM32_USB_Device_Library/Class/HID/Src/usbd_hid.c **** 			    0xA1, 0x02,				/* COLLECTION (Logical) */
 483:Middlewares/ST/STM32_USB_Device_Library/Class/HID/Src/usbd_hid.c **** 			     0x09, 0x79,			/* USAGE (OpEffect Start) */
 484:Middlewares/ST/STM32_USB_Device_Library/Class/HID/Src/usbd_hid.c **** 			     0x09, 0x7A,			/* USAGE (OpEffect Start Solo) */
 485:Middlewares/ST/STM32_USB_Device_Library/Class/HID/Src/usbd_hid.c **** 			     0x09, 0x7B,			/* USAGE (OpEffect Stop) */
 486:Middlewares/ST/STM32_USB_Device_Library/Class/HID/Src/usbd_hid.c **** 			     0x15, 0x01,			/* LOGICAL_MINIMUM*/
 487:Middlewares/ST/STM32_USB_Device_Library/Class/HID/Src/usbd_hid.c **** 			     0x25, 0x03,			/* LOGICAL_MAXIMUM*/
 488:Middlewares/ST/STM32_USB_Device_Library/Class/HID/Src/usbd_hid.c **** 				 0x35, 0x01,			/* PHYSICAL_MINIMUM*/
 489:Middlewares/ST/STM32_USB_Device_Library/Class/HID/Src/usbd_hid.c **** 			     0x45, 0x03,			/* PHYSICAL_MAXIMUM*/
ARM GAS  /tmp/cckByxZ4.s 			page 25


 490:Middlewares/ST/STM32_USB_Device_Library/Class/HID/Src/usbd_hid.c **** 			     0x75, 0x08,			/* REPORT_SIZE (8) */
 491:Middlewares/ST/STM32_USB_Device_Library/Class/HID/Src/usbd_hid.c **** 			     0x91, 0x00,			/* OUTPUT (Data,ArY,AbS) */
 492:Middlewares/ST/STM32_USB_Device_Library/Class/HID/Src/usbd_hid.c **** 			    0xC0,					/* END_COLLECTION */
 493:Middlewares/ST/STM32_USB_Device_Library/Class/HID/Src/usbd_hid.c **** 				0x09, 0x7C,				/* USAGE (Loop Count) */
 494:Middlewares/ST/STM32_USB_Device_Library/Class/HID/Src/usbd_hid.c **** 				0x15, 0x00,				/* LOGICAL_MINIMUM (0) */
 495:Middlewares/ST/STM32_USB_Device_Library/Class/HID/Src/usbd_hid.c **** 				0x26, 0xFF, 0x00,		/* LOGICAL_MAXIMUM (255) */
 496:Middlewares/ST/STM32_USB_Device_Library/Class/HID/Src/usbd_hid.c **** 				0x35, 0x00,				/* PHYSICAL_MINIMUM*/
 497:Middlewares/ST/STM32_USB_Device_Library/Class/HID/Src/usbd_hid.c **** 			    0x46, 0xFF, 0x00,		/* PHYSICAL_MAXIMUM*/
 498:Middlewares/ST/STM32_USB_Device_Library/Class/HID/Src/usbd_hid.c **** 				0x91, 0x02,				/* OUTPUT (Data,VaR,AbS) */
 499:Middlewares/ST/STM32_USB_Device_Library/Class/HID/Src/usbd_hid.c **** 			   0xC0,					/* END_COLLECTION */
 500:Middlewares/ST/STM32_USB_Device_Library/Class/HID/Src/usbd_hid.c **** 			   /* PID State report Definition 								[53]*/
 501:Middlewares/ST/STM32_USB_Device_Library/Class/HID/Src/usbd_hid.c **** 			   0x09, 0x92,				/* USAGE (PID State Report) */
 502:Middlewares/ST/STM32_USB_Device_Library/Class/HID/Src/usbd_hid.c **** 			   0xA1, 0x02,				/* COLLECTION (Logical) */
 503:Middlewares/ST/STM32_USB_Device_Library/Class/HID/Src/usbd_hid.c **** 			    0x85, 0x02, 			/* REPORT_ID (2) */
 504:Middlewares/ST/STM32_USB_Device_Library/Class/HID/Src/usbd_hid.c **** 				0x09, 0x22,				/* USAGE (Effect Block Index) */
 505:Middlewares/ST/STM32_USB_Device_Library/Class/HID/Src/usbd_hid.c **** 				0x15, 0x01,				/* LOGICAL_MINIMUM (1)*/
 506:Middlewares/ST/STM32_USB_Device_Library/Class/HID/Src/usbd_hid.c **** 			    0x25, 0x20,				/* LOGICAL_MAXIMUM (32)*/
 507:Middlewares/ST/STM32_USB_Device_Library/Class/HID/Src/usbd_hid.c **** 				0x35, 0x01,				/* PHYSICAL_MINIMUM (1)*/
 508:Middlewares/ST/STM32_USB_Device_Library/Class/HID/Src/usbd_hid.c **** 				0x45, 0x20, 			/* PHYSICAL_MAXIMUM (32)*/
 509:Middlewares/ST/STM32_USB_Device_Library/Class/HID/Src/usbd_hid.c **** 				0x75, 0x08,				/* REPORT_SIZE (8) */
 510:Middlewares/ST/STM32_USB_Device_Library/Class/HID/Src/usbd_hid.c **** 				0x95, 0x01,				/* REPORT_COUNT (1) */
 511:Middlewares/ST/STM32_USB_Device_Library/Class/HID/Src/usbd_hid.c **** 				0x81, 0x02,				/* INPUT (Data,VaR,AbS) */
 512:Middlewares/ST/STM32_USB_Device_Library/Class/HID/Src/usbd_hid.c **** 				0x09, 0x94, 			/* USAGE (Effect Playing) */
 513:Middlewares/ST/STM32_USB_Device_Library/Class/HID/Src/usbd_hid.c **** 				0x09, 0x9F,				/* USAGE (Device Paused) */
 514:Middlewares/ST/STM32_USB_Device_Library/Class/HID/Src/usbd_hid.c **** 				0x09, 0xA0, 			/* USAGE (Actuators Enabled) */
 515:Middlewares/ST/STM32_USB_Device_Library/Class/HID/Src/usbd_hid.c **** 				0x09, 0xA4, 			/* USAGE (Safety Switch) */
 516:Middlewares/ST/STM32_USB_Device_Library/Class/HID/Src/usbd_hid.c **** 				0x09, 0xA5, 			/* USAGE (Actuator Override Switch)*/
 517:Middlewares/ST/STM32_USB_Device_Library/Class/HID/Src/usbd_hid.c **** 				0x09, 0xA6, 			/* USAGE (Actuator Power) */
 518:Middlewares/ST/STM32_USB_Device_Library/Class/HID/Src/usbd_hid.c **** 				0x15, 0x00,				/* LOGICAL_MINIMUM (0)*/
 519:Middlewares/ST/STM32_USB_Device_Library/Class/HID/Src/usbd_hid.c **** 				0x25, 0x01, 			/* LOGICAL_MAXIMUM (1) */
 520:Middlewares/ST/STM32_USB_Device_Library/Class/HID/Src/usbd_hid.c **** 				0x35, 0x00,				/* PHYSICAL_MINIMUM (0)*/
 521:Middlewares/ST/STM32_USB_Device_Library/Class/HID/Src/usbd_hid.c **** 				0x45, 0x01, 			/* PHYSICAL_MAXIMUM (1)*/
 522:Middlewares/ST/STM32_USB_Device_Library/Class/HID/Src/usbd_hid.c **** 				0x75, 0x01,				/* REPORT_SIZE (1) */
 523:Middlewares/ST/STM32_USB_Device_Library/Class/HID/Src/usbd_hid.c **** 				0x95, 0x06, 			/* REPORT_COUNT (6) */
 524:Middlewares/ST/STM32_USB_Device_Library/Class/HID/Src/usbd_hid.c **** 				0x81, 0x02,				/* INPUT (Data,VaR,AbS) */
 525:Middlewares/ST/STM32_USB_Device_Library/Class/HID/Src/usbd_hid.c **** 				0x95, 0x02, 			/* REPORT_COUNT (2) */
 526:Middlewares/ST/STM32_USB_Device_Library/Class/HID/Src/usbd_hid.c **** 				0x81, 0x03,				/* INPUT (CnsT,VaR,AbS) ; 2-bit pad */
 527:Middlewares/ST/STM32_USB_Device_Library/Class/HID/Src/usbd_hid.c **** 			   0xC0,					/* END_COLLECTION */
 528:Middlewares/ST/STM32_USB_Device_Library/Class/HID/Src/usbd_hid.c **** 			   /* PID Device control Report Definition						[33]*/
 529:Middlewares/ST/STM32_USB_Device_Library/Class/HID/Src/usbd_hid.c **** //			   0x09, 0x95,				/* USAGE (PID Device Control Report)  XXX not used because in linuX is writt
 530:Middlewares/ST/STM32_USB_Device_Library/Class/HID/Src/usbd_hid.c **** //			   0xA1, 0x02,				/* COLLECTION (Logical) */
 531:Middlewares/ST/STM32_USB_Device_Library/Class/HID/Src/usbd_hid.c **** //			    0x85, 0x0B,				/* REPORT_ID (11) */
 532:Middlewares/ST/STM32_USB_Device_Library/Class/HID/Src/usbd_hid.c **** 			   0x09, 0x96,				/* USAGE (PID Device Control) */
 533:Middlewares/ST/STM32_USB_Device_Library/Class/HID/Src/usbd_hid.c **** 			   0xA1, 0x02,				/* COLLECTION (LOGICAL) */
 534:Middlewares/ST/STM32_USB_Device_Library/Class/HID/Src/usbd_hid.c **** 			    0x85, 0x05,				/* REPORT_ID (5) */
 535:Middlewares/ST/STM32_USB_Device_Library/Class/HID/Src/usbd_hid.c **** 			    0x09, 0x97,			/* USAGE (DC Enable Actuators) */
 536:Middlewares/ST/STM32_USB_Device_Library/Class/HID/Src/usbd_hid.c **** 				0x09, 0x98,			/* USAGE (DC Disable Actuators) */
 537:Middlewares/ST/STM32_USB_Device_Library/Class/HID/Src/usbd_hid.c **** 				0x09, 0x99,			/* USAGE (DC Stop All Effects) */
 538:Middlewares/ST/STM32_USB_Device_Library/Class/HID/Src/usbd_hid.c **** 			    0x09, 0x9A,			/* USAGE (DC Reset) */
 539:Middlewares/ST/STM32_USB_Device_Library/Class/HID/Src/usbd_hid.c **** 			    0x09, 0x9B,			/* USAGE (DC Pause) */
 540:Middlewares/ST/STM32_USB_Device_Library/Class/HID/Src/usbd_hid.c **** 			    0x09, 0x9C,			/* USAGE (DC Continue) */
 541:Middlewares/ST/STM32_USB_Device_Library/Class/HID/Src/usbd_hid.c **** 			    0x15, 0x01,			/* LOGICAL_MINIMUM (1) */
 542:Middlewares/ST/STM32_USB_Device_Library/Class/HID/Src/usbd_hid.c **** 			    0x25, 0x06,			/* LOGICAL_MAXIMUM (6) */
 543:Middlewares/ST/STM32_USB_Device_Library/Class/HID/Src/usbd_hid.c **** 				0x35, 0x00,			/* PHYSICAL_MINIMUM (0 - use logical limits)*/
 544:Middlewares/ST/STM32_USB_Device_Library/Class/HID/Src/usbd_hid.c **** 				0x45, 0x00, 		/* PHYSICAL_MAXIMUM (0 - use logical limits)*/
 545:Middlewares/ST/STM32_USB_Device_Library/Class/HID/Src/usbd_hid.c **** //				0x75, 0x01,			/* REPORT_SIZE (1)  XXX in SideWinder report descriptor is not 1; see after com
 546:Middlewares/ST/STM32_USB_Device_Library/Class/HID/Src/usbd_hid.c **** //			    0x95, 0x08,			/* REPORT_COUNT (4 XXX Wrong:is 0x08 not 0x04 ) */
ARM GAS  /tmp/cckByxZ4.s 			page 26


 547:Middlewares/ST/STM32_USB_Device_Library/Class/HID/Src/usbd_hid.c **** 				 /*XXX FixMe use 2 bit padding or use Array as defined below if report is not correctly read:
 548:Middlewares/ST/STM32_USB_Device_Library/Class/HID/Src/usbd_hid.c **** 				   0x75, 0x08,		 REPORT_SIZE (8)
 549:Middlewares/ST/STM32_USB_Device_Library/Class/HID/Src/usbd_hid.c **** 				   0x95, 0x01,		 REPORT_COUNT (1)
 550:Middlewares/ST/STM32_USB_Device_Library/Class/HID/Src/usbd_hid.c **** 				   0x91, 0x00,		 OUTPUT (Data,ArY,AbS)*/
 551:Middlewares/ST/STM32_USB_Device_Library/Class/HID/Src/usbd_hid.c **** 				0x75, 0x08,			/* REPORT_SIZE (8) */
 552:Middlewares/ST/STM32_USB_Device_Library/Class/HID/Src/usbd_hid.c **** 				0x95, 0x01,			/* REPORT_COUNT (1) */
 553:Middlewares/ST/STM32_USB_Device_Library/Class/HID/Src/usbd_hid.c **** 			    // 0x91, 0x02,			/* OUTPUT(Data,Var,AbS) XXX: was commented because also in SideWinder repor
 554:Middlewares/ST/STM32_USB_Device_Library/Class/HID/Src/usbd_hid.c **** 				0x91, 0x00,			/* OUTPUT(Data,ArY,AbS)*/
 555:Middlewares/ST/STM32_USB_Device_Library/Class/HID/Src/usbd_hid.c **** 			   0xC0,					/* END_COLLECTION */
 556:Middlewares/ST/STM32_USB_Device_Library/Class/HID/Src/usbd_hid.c **** //			   0xC0,					/* END_COLLECTION  XXX from commented COLLECTION after USAGE (PID Device Control 
 557:Middlewares/ST/STM32_USB_Device_Library/Class/HID/Src/usbd_hid.c **** 			   /* Device Gain Report Definition								[19]*/
 558:Middlewares/ST/STM32_USB_Device_Library/Class/HID/Src/usbd_hid.c **** 			   0x09, 0x7D,				/* USAGE (Device Gain Report) */
 559:Middlewares/ST/STM32_USB_Device_Library/Class/HID/Src/usbd_hid.c **** 			   0xA1, 0x02,				/* COLLECTION (Logical) */
 560:Middlewares/ST/STM32_USB_Device_Library/Class/HID/Src/usbd_hid.c **** 			    0x85, 0x02,				/* REPORT_ID (2) */
 561:Middlewares/ST/STM32_USB_Device_Library/Class/HID/Src/usbd_hid.c **** 			    0x09, 0x7E,				/* USAGE (Device Gain) */
 562:Middlewares/ST/STM32_USB_Device_Library/Class/HID/Src/usbd_hid.c **** 				0x15, 0x00,			 	/* LOGICAL_MINIMUM (0) */
 563:Middlewares/ST/STM32_USB_Device_Library/Class/HID/Src/usbd_hid.c **** 			    0x25, 0xFF,				/* LOGICAL_MAXIMUM (255) */
 564:Middlewares/ST/STM32_USB_Device_Library/Class/HID/Src/usbd_hid.c **** 			    0x75, 0x08,				/* REPORT_SIZE (8) */
 565:Middlewares/ST/STM32_USB_Device_Library/Class/HID/Src/usbd_hid.c **** 			    0x95, 0x01, 			/* REPORT_COUNT (1) */
 566:Middlewares/ST/STM32_USB_Device_Library/Class/HID/Src/usbd_hid.c **** 			    0xB1, 0x02, 			/* FEATURE (Data,VaR,AbS) */
 567:Middlewares/ST/STM32_USB_Device_Library/Class/HID/Src/usbd_hid.c **** 			   0xC0,					/* END_COLLECTION */
 568:Middlewares/ST/STM32_USB_Device_Library/Class/HID/Src/usbd_hid.c **** 			   /* PID Pool Report Definition								[59]*/
 569:Middlewares/ST/STM32_USB_Device_Library/Class/HID/Src/usbd_hid.c **** 			   0x09, 0x7F,				/* USAGE (PID Pool Report) */
 570:Middlewares/ST/STM32_USB_Device_Library/Class/HID/Src/usbd_hid.c **** 			   0xA1, 0x02,				/* COLLECTION (Logical) */
 571:Middlewares/ST/STM32_USB_Device_Library/Class/HID/Src/usbd_hid.c **** 			    0x85, 0x01,				/* REPORT_ID (1) */
 572:Middlewares/ST/STM32_USB_Device_Library/Class/HID/Src/usbd_hid.c **** 			    0x09, 0x80,				/* USAGE (RAM Pool Size) */
 573:Middlewares/ST/STM32_USB_Device_Library/Class/HID/Src/usbd_hid.c **** 				0x16, 0x00, 0x00,		/* LOGICAL Minimum*/
 574:Middlewares/ST/STM32_USB_Device_Library/Class/HID/Src/usbd_hid.c **** 				0x34,              		/* Physical Minimum (0),           */
 575:Middlewares/ST/STM32_USB_Device_Library/Class/HID/Src/usbd_hid.c **** 				0x26, 0x00, 0x00,		/* LOGICAL_MAXIMUM was 0xFD, 0x7F*/
 576:Middlewares/ST/STM32_USB_Device_Library/Class/HID/Src/usbd_hid.c **** 			    0x44, 					/* Physical Maximum (0),         */
 577:Middlewares/ST/STM32_USB_Device_Library/Class/HID/Src/usbd_hid.c **** 			    0x95, 0x01,				/* REPORT_COUNT (1) */
 578:Middlewares/ST/STM32_USB_Device_Library/Class/HID/Src/usbd_hid.c **** 			    0x75, 0x10,				/* REPORT_SIZE (16) */
 579:Middlewares/ST/STM32_USB_Device_Library/Class/HID/Src/usbd_hid.c **** 			    0xB1, 0x02,				/* FEATURE (Data,VaR,AbS) */
 580:Middlewares/ST/STM32_USB_Device_Library/Class/HID/Src/usbd_hid.c **** 				0x09, 0x83,				/* USAGE (Simultaneous effects max)*/
 581:Middlewares/ST/STM32_USB_Device_Library/Class/HID/Src/usbd_hid.c **** 				0x25, 0xFF,				/* LOGICAL_MAXIMUM (255) */
 582:Middlewares/ST/STM32_USB_Device_Library/Class/HID/Src/usbd_hid.c **** 				0x45, 0xFF,				/* Physical Maximum (255) */
 583:Middlewares/ST/STM32_USB_Device_Library/Class/HID/Src/usbd_hid.c **** 				0x75, 0x08,				/* REPORT_SIZE - 8*/
 584:Middlewares/ST/STM32_USB_Device_Library/Class/HID/Src/usbd_hid.c **** 				0x95, 0x01,				/* REPORT_COUNT - 1*/
 585:Middlewares/ST/STM32_USB_Device_Library/Class/HID/Src/usbd_hid.c **** 				0xB1, 0x02,				/* FEATURE (Data,VaR,AbS) */
 586:Middlewares/ST/STM32_USB_Device_Library/Class/HID/Src/usbd_hid.c **** 				0x09, 0xa9,				/* usage device managed pool*/
 587:Middlewares/ST/STM32_USB_Device_Library/Class/HID/Src/usbd_hid.c **** 				0x09, 0xaa,				/* usage shared parameter blocks*/
 588:Middlewares/ST/STM32_USB_Device_Library/Class/HID/Src/usbd_hid.c **** 				0x75, 0x01,				/* REPORT_SIZE (1) */
 589:Middlewares/ST/STM32_USB_Device_Library/Class/HID/Src/usbd_hid.c **** 				0x95, 0x02,				/* REPORT_COUNT (2) */
 590:Middlewares/ST/STM32_USB_Device_Library/Class/HID/Src/usbd_hid.c **** 				0x15, 0x00,				/* LOGICAL Minimum (0)*/
 591:Middlewares/ST/STM32_USB_Device_Library/Class/HID/Src/usbd_hid.c **** 				0x25, 0x01,				/* LOGICAL_MAXIMUM (1)*/
 592:Middlewares/ST/STM32_USB_Device_Library/Class/HID/Src/usbd_hid.c **** 				0x35, 0x00,				/* Physical Minimum (0) */
 593:Middlewares/ST/STM32_USB_Device_Library/Class/HID/Src/usbd_hid.c **** 				0x45, 0x01,				/* Physical Maximum (1) */
 594:Middlewares/ST/STM32_USB_Device_Library/Class/HID/Src/usbd_hid.c **** 				0xB1, 0x02,				/* FEATURE (Data,VaR,AbS) */
 595:Middlewares/ST/STM32_USB_Device_Library/Class/HID/Src/usbd_hid.c **** 				0x75, 0x06,				/* REPORT_SIZE (6) */
 596:Middlewares/ST/STM32_USB_Device_Library/Class/HID/Src/usbd_hid.c **** 				0x95, 0x01,				/* REPORT_COUNT (1) */
 597:Middlewares/ST/STM32_USB_Device_Library/Class/HID/Src/usbd_hid.c **** 				0xB1, 0x03,				/* FEATURE (CnsT,VaR,AbS) ; 6-bit pad */
 598:Middlewares/ST/STM32_USB_Device_Library/Class/HID/Src/usbd_hid.c **** 			   0xC0,					/* END_COLLECTION */
 599:Middlewares/ST/STM32_USB_Device_Library/Class/HID/Src/usbd_hid.c **** 			   /* Create New Effect Report 									[48]*/
 600:Middlewares/ST/STM32_USB_Device_Library/Class/HID/Src/usbd_hid.c **** 			   0x09, 0xAB,	   			/* USAGE (Create New Effect Report) */
 601:Middlewares/ST/STM32_USB_Device_Library/Class/HID/Src/usbd_hid.c **** 			   0xA1, 0x02, 	   	   	    /* COLLECTION (Logical) */
 602:Middlewares/ST/STM32_USB_Device_Library/Class/HID/Src/usbd_hid.c **** 			    0x85, 0x03, 	   	   	/* REPORT_ID (3) */
 603:Middlewares/ST/STM32_USB_Device_Library/Class/HID/Src/usbd_hid.c **** 			    0x09, 0x25,   	   	   	/* USAGE (Effect Type) */
ARM GAS  /tmp/cckByxZ4.s 			page 27


 604:Middlewares/ST/STM32_USB_Device_Library/Class/HID/Src/usbd_hid.c **** 			    0xA1, 0x02, 	   	   	/* COLLECTION (Logical) */
 605:Middlewares/ST/STM32_USB_Device_Library/Class/HID/Src/usbd_hid.c **** 				 0x09, 0x26,  	   	   	/* USAGE (ET Constant Force) */
 606:Middlewares/ST/STM32_USB_Device_Library/Class/HID/Src/usbd_hid.c **** //			   	   	   	   	   	   	    /* USAGE (ET Ramp) */
 607:Middlewares/ST/STM32_USB_Device_Library/Class/HID/Src/usbd_hid.c **** //			   	   	   	   	   	   	    /* USAGE (ET Square) */
 608:Middlewares/ST/STM32_USB_Device_Library/Class/HID/Src/usbd_hid.c **** //			   	   	   	   	   	   	    /* USAGE (ET Sine) */
 609:Middlewares/ST/STM32_USB_Device_Library/Class/HID/Src/usbd_hid.c **** //			   	   	   	   	   	   	    /* USAGE (ET Triangle) */
 610:Middlewares/ST/STM32_USB_Device_Library/Class/HID/Src/usbd_hid.c **** //			   	   	   	   	   	   	    /* USAGE (ET Sawtooth Up) */
 611:Middlewares/ST/STM32_USB_Device_Library/Class/HID/Src/usbd_hid.c **** //			   	   	   	   	   	   	    /* USAGE (ET Sawtooth Down) */
 612:Middlewares/ST/STM32_USB_Device_Library/Class/HID/Src/usbd_hid.c **** //			   	   	   	   	   	   	    /* USAGE (ET Spring) */
 613:Middlewares/ST/STM32_USB_Device_Library/Class/HID/Src/usbd_hid.c **** //			   	   	   	   	   	   	    /* USAGE (ET Damper) */
 614:Middlewares/ST/STM32_USB_Device_Library/Class/HID/Src/usbd_hid.c **** //			   	   	   	   	   	   	    /* USAGE (ET Inertia) */
 615:Middlewares/ST/STM32_USB_Device_Library/Class/HID/Src/usbd_hid.c **** //			   	   	   	   	   	   	    /* USAGE (ET Friction) */
 616:Middlewares/ST/STM32_USB_Device_Library/Class/HID/Src/usbd_hid.c **** //			   	   	   	   	   	   	    /* USAGE (ET Custom Force Data) */
 617:Middlewares/ST/STM32_USB_Device_Library/Class/HID/Src/usbd_hid.c **** 				 0x15, 0x01,  	   	   	/* LOGICAL_MINIMUM (1) */
 618:Middlewares/ST/STM32_USB_Device_Library/Class/HID/Src/usbd_hid.c **** 				 0x25, 0x01,   	   	    /* LOGICAL_MAXIMUM (1 XXX was 12 when all ET's where active) */
 619:Middlewares/ST/STM32_USB_Device_Library/Class/HID/Src/usbd_hid.c **** 				 0x35, 0x00,			/* Physical Minimum (0) */
 620:Middlewares/ST/STM32_USB_Device_Library/Class/HID/Src/usbd_hid.c **** 				 0x45, 0x01,			/* Physical Maximum (1) */
 621:Middlewares/ST/STM32_USB_Device_Library/Class/HID/Src/usbd_hid.c **** 				 0x75, 0x08, 	   	   	/* REPORT_SIZE (8) */
 622:Middlewares/ST/STM32_USB_Device_Library/Class/HID/Src/usbd_hid.c **** 				 0x95, 0x01,   	   	   	/* REPORT_COUNT (1) */
 623:Middlewares/ST/STM32_USB_Device_Library/Class/HID/Src/usbd_hid.c **** 				 0xB1, 0x00,  	   	   	/* FEATURE (Data,ArY,AbS) */
 624:Middlewares/ST/STM32_USB_Device_Library/Class/HID/Src/usbd_hid.c **** 				0xC0,  	   	   	   		/* END_COLLECTION */
 625:Middlewares/ST/STM32_USB_Device_Library/Class/HID/Src/usbd_hid.c **** 				0x05, 0x01,   	   	   	/* USAGE_PAGE (Generic Desktop) */
 626:Middlewares/ST/STM32_USB_Device_Library/Class/HID/Src/usbd_hid.c **** 				0x09, 0x3B,			    /* USAGE (Byte Count) */
 627:Middlewares/ST/STM32_USB_Device_Library/Class/HID/Src/usbd_hid.c **** 				0x15, 0x00,	   	   	    /* LOGICAL_MINIMUM (0) */
 628:Middlewares/ST/STM32_USB_Device_Library/Class/HID/Src/usbd_hid.c **** 				0x26, 0xFF, 0x00,   	/* LOGICAL_MAXIMUM (255) */
 629:Middlewares/ST/STM32_USB_Device_Library/Class/HID/Src/usbd_hid.c **** 				0x35, 0x00,				/* Physical Minimum (0) */
 630:Middlewares/ST/STM32_USB_Device_Library/Class/HID/Src/usbd_hid.c **** 				0x46, 0xFF, 0x00,		/* Physical Maximum (255) */
 631:Middlewares/ST/STM32_USB_Device_Library/Class/HID/Src/usbd_hid.c **** 				0x75, 0x08,   	   	   	/* REPORT_SIZE (8) */
 632:Middlewares/ST/STM32_USB_Device_Library/Class/HID/Src/usbd_hid.c **** 				0x95, 0x01,   	   	   	/* REPORT_COUNT (1) */
 633:Middlewares/ST/STM32_USB_Device_Library/Class/HID/Src/usbd_hid.c **** 				0xB1, 0x02,	   	   	    /* FEATURE (Data,VaR,AbS) */
 634:Middlewares/ST/STM32_USB_Device_Library/Class/HID/Src/usbd_hid.c **** 			   0xC0,   	   	   	    	/* END_COLLECTION */
 635:Middlewares/ST/STM32_USB_Device_Library/Class/HID/Src/usbd_hid.c **** 			   /* PID Block Load Report 									[68]*/
 636:Middlewares/ST/STM32_USB_Device_Library/Class/HID/Src/usbd_hid.c **** 			   0x05, 0x0F,				/* USAGE_PAGE (Physical Interface)*/
 637:Middlewares/ST/STM32_USB_Device_Library/Class/HID/Src/usbd_hid.c **** 			   0x09, 0x89,				/* USAGE (PID Block Load Report) */
 638:Middlewares/ST/STM32_USB_Device_Library/Class/HID/Src/usbd_hid.c **** 			   0xA1, 0x02,				/* COLLECTION (Logical) */
 639:Middlewares/ST/STM32_USB_Device_Library/Class/HID/Src/usbd_hid.c **** 			    0x85, 0x04,				/* REPORT_ID (4) */
 640:Middlewares/ST/STM32_USB_Device_Library/Class/HID/Src/usbd_hid.c **** 			    0x09, 0x22,				/* USAGE (Effect Block Index) */
 641:Middlewares/ST/STM32_USB_Device_Library/Class/HID/Src/usbd_hid.c **** 				0x15, 0x01, 			/* LOGICAL_MINIMUM (1) */
 642:Middlewares/ST/STM32_USB_Device_Library/Class/HID/Src/usbd_hid.c **** 				0x25, 0x20,				/* LOGICAL_MAXIMUM (32) */
 643:Middlewares/ST/STM32_USB_Device_Library/Class/HID/Src/usbd_hid.c **** 				0x35, 0x01,				/* PHYSICAL_MINIMUM (1)*/
 644:Middlewares/ST/STM32_USB_Device_Library/Class/HID/Src/usbd_hid.c **** 				0x45, 0x20,				/* PHYSICAL_MAXIMUM (32)*/
 645:Middlewares/ST/STM32_USB_Device_Library/Class/HID/Src/usbd_hid.c **** 				0x75, 0x08,				/* REPORT_SIZE (8) */
 646:Middlewares/ST/STM32_USB_Device_Library/Class/HID/Src/usbd_hid.c **** 				0x95, 0x01,				/* REPORT_COUNT (1) */
 647:Middlewares/ST/STM32_USB_Device_Library/Class/HID/Src/usbd_hid.c **** 				0xB1, 0x02,				/* FEATURE (Data,VaR,AbS) */
 648:Middlewares/ST/STM32_USB_Device_Library/Class/HID/Src/usbd_hid.c **** 				0x09, 0x8B,				/* USAGE (Block Load Status) */
 649:Middlewares/ST/STM32_USB_Device_Library/Class/HID/Src/usbd_hid.c **** 				0xA1, 0x02,				/* COLLECTION (Logical) */
 650:Middlewares/ST/STM32_USB_Device_Library/Class/HID/Src/usbd_hid.c **** 				 0x09, 0x8C,			/* USAGE (Block Load Success) */
 651:Middlewares/ST/STM32_USB_Device_Library/Class/HID/Src/usbd_hid.c **** 				 0x09, 0x8D,			/* USAGE (Block Load Full) */
 652:Middlewares/ST/STM32_USB_Device_Library/Class/HID/Src/usbd_hid.c **** 				 0x09, 0x8E,			/* USAGE (Block Load Error) */
 653:Middlewares/ST/STM32_USB_Device_Library/Class/HID/Src/usbd_hid.c **** 				 0x25, 0x03,			/* LOGICAL_MAXIMUM (3) */
 654:Middlewares/ST/STM32_USB_Device_Library/Class/HID/Src/usbd_hid.c **** 				 0x15, 0x01,			/* LOGICAL_MINIMUM (1) */
 655:Middlewares/ST/STM32_USB_Device_Library/Class/HID/Src/usbd_hid.c **** 				 0x35, 0x01,			/* PHYSICAL_MINIMUM (1) */
 656:Middlewares/ST/STM32_USB_Device_Library/Class/HID/Src/usbd_hid.c **** 				 0x45, 0x03,	 		/* PHYSICAL_MAXIMUM (3) */
 657:Middlewares/ST/STM32_USB_Device_Library/Class/HID/Src/usbd_hid.c **** 				 0x75, 0x08,			/* REPORT_SIZE (8) */
 658:Middlewares/ST/STM32_USB_Device_Library/Class/HID/Src/usbd_hid.c **** 				 0x95, 0x01,			/* REPORT_COUNT (1) */
 659:Middlewares/ST/STM32_USB_Device_Library/Class/HID/Src/usbd_hid.c **** 				 0xB1, 0x00,			/* FEATURE (Data,ArY,AbS) */
 660:Middlewares/ST/STM32_USB_Device_Library/Class/HID/Src/usbd_hid.c **** 				0xC0,					/* END_COLLECTION */
ARM GAS  /tmp/cckByxZ4.s 			page 28


 661:Middlewares/ST/STM32_USB_Device_Library/Class/HID/Src/usbd_hid.c **** 				0x09, 0xAC,				/* USAGE (RAM Pool Available) */
 662:Middlewares/ST/STM32_USB_Device_Library/Class/HID/Src/usbd_hid.c **** 				0x15, 0x00,				/* LOGICAL_MINIMUM (0) */
 663:Middlewares/ST/STM32_USB_Device_Library/Class/HID/Src/usbd_hid.c **** 				0x26, 0xFF, 0x00,		/* LOGICAL_MAXIMUM (255 ) */
 664:Middlewares/ST/STM32_USB_Device_Library/Class/HID/Src/usbd_hid.c **** 				0x35, 0x00,				/* PHYSICAL_MINIMUM (0) */
 665:Middlewares/ST/STM32_USB_Device_Library/Class/HID/Src/usbd_hid.c **** 				0x46, 0xFF, 0x00,		/* PHYSICAL_MAXIMUM (255) */
 666:Middlewares/ST/STM32_USB_Device_Library/Class/HID/Src/usbd_hid.c **** 				0x75, 0x08,				/* REPORT_SIZE  */
 667:Middlewares/ST/STM32_USB_Device_Library/Class/HID/Src/usbd_hid.c **** 				0x95, 0x01,				/* REPORT_COUNT (1) */
 668:Middlewares/ST/STM32_USB_Device_Library/Class/HID/Src/usbd_hid.c **** 				//0xB1, 0x00,				/* FEATURE (Data,ArY,AbS) */
 669:Middlewares/ST/STM32_USB_Device_Library/Class/HID/Src/usbd_hid.c **** 				0xB1, 0x02,				/* FEATURE (Data,VaR,AbS) */
 670:Middlewares/ST/STM32_USB_Device_Library/Class/HID/Src/usbd_hid.c **** 			   0xC0,					/* END_COLLECTION */
 671:Middlewares/ST/STM32_USB_Device_Library/Class/HID/Src/usbd_hid.c **** 			   /* PID Block Free Report 									[23]*/
 672:Middlewares/ST/STM32_USB_Device_Library/Class/HID/Src/usbd_hid.c **** 			   0x09, 0x90,	   	   	   /* USAGE (PID Block Free Report) */
 673:Middlewares/ST/STM32_USB_Device_Library/Class/HID/Src/usbd_hid.c **** 			   0xA1, 0x02,	   	   	   /* COLLECTION (Logical) */
 674:Middlewares/ST/STM32_USB_Device_Library/Class/HID/Src/usbd_hid.c **** 			    0x85, 0x05,	   	   	   /* REPORT_ID (5) */
 675:Middlewares/ST/STM32_USB_Device_Library/Class/HID/Src/usbd_hid.c **** 				0x09, 0x22,			   /* USAGE (Effect Block Index) */
 676:Middlewares/ST/STM32_USB_Device_Library/Class/HID/Src/usbd_hid.c **** 				0x15, 0x01,			   /* LOGICAL_MINIMUM (01) */
 677:Middlewares/ST/STM32_USB_Device_Library/Class/HID/Src/usbd_hid.c **** 				0x25, 0x20,			   /* LOGICAL_MAXIMUM (32) */
 678:Middlewares/ST/STM32_USB_Device_Library/Class/HID/Src/usbd_hid.c **** 				0x35, 0x01,			   /* PHYSICAL_MINIMUM (01) */
 679:Middlewares/ST/STM32_USB_Device_Library/Class/HID/Src/usbd_hid.c **** 				0x45, 0x20,	 		   /* PHYSICAL_MAXIMUM (32) */
 680:Middlewares/ST/STM32_USB_Device_Library/Class/HID/Src/usbd_hid.c **** 				0x75, 0x08,			   /* REPORT_SIZE (8) */
 681:Middlewares/ST/STM32_USB_Device_Library/Class/HID/Src/usbd_hid.c **** 				0x95, 0x01,			   /* REPORT_COUNT (1) */
 682:Middlewares/ST/STM32_USB_Device_Library/Class/HID/Src/usbd_hid.c **** 				0xB1, 0x02,			   /* FEATURE (Data,VaR,AbS) */
 683:Middlewares/ST/STM32_USB_Device_Library/Class/HID/Src/usbd_hid.c **** 			   0xC0,				   /* END COLLECTION () */
 684:Middlewares/ST/STM32_USB_Device_Library/Class/HID/Src/usbd_hid.c **** 			  /* Collection Application END									[1]*/
 685:Middlewares/ST/STM32_USB_Device_Library/Class/HID/Src/usbd_hid.c **** 			  0xC0                /*  End Collection  Application*/ 
 686:Middlewares/ST/STM32_USB_Device_Library/Class/HID/Src/usbd_hid.c **** }; 
 687:Middlewares/ST/STM32_USB_Device_Library/Class/HID/Src/usbd_hid.c **** 
 688:Middlewares/ST/STM32_USB_Device_Library/Class/HID/Src/usbd_hid.c **** /**
 689:Middlewares/ST/STM32_USB_Device_Library/Class/HID/Src/usbd_hid.c ****   * @}
 690:Middlewares/ST/STM32_USB_Device_Library/Class/HID/Src/usbd_hid.c ****   */ 
 691:Middlewares/ST/STM32_USB_Device_Library/Class/HID/Src/usbd_hid.c **** 
 692:Middlewares/ST/STM32_USB_Device_Library/Class/HID/Src/usbd_hid.c **** /** @defgroup USBD_HID_Private_Functions
 693:Middlewares/ST/STM32_USB_Device_Library/Class/HID/Src/usbd_hid.c ****   * @{
 694:Middlewares/ST/STM32_USB_Device_Library/Class/HID/Src/usbd_hid.c ****   */ 
 695:Middlewares/ST/STM32_USB_Device_Library/Class/HID/Src/usbd_hid.c **** 
 696:Middlewares/ST/STM32_USB_Device_Library/Class/HID/Src/usbd_hid.c **** /**
 697:Middlewares/ST/STM32_USB_Device_Library/Class/HID/Src/usbd_hid.c ****   * @brief  USBD_HID_Init
 698:Middlewares/ST/STM32_USB_Device_Library/Class/HID/Src/usbd_hid.c ****   *         Initialize the HID interface
 699:Middlewares/ST/STM32_USB_Device_Library/Class/HID/Src/usbd_hid.c ****   * @param  pdev: device instance
 700:Middlewares/ST/STM32_USB_Device_Library/Class/HID/Src/usbd_hid.c ****   * @param  cfgidx: Configuration index
 701:Middlewares/ST/STM32_USB_Device_Library/Class/HID/Src/usbd_hid.c ****   * @retval status
 702:Middlewares/ST/STM32_USB_Device_Library/Class/HID/Src/usbd_hid.c ****   */
 703:Middlewares/ST/STM32_USB_Device_Library/Class/HID/Src/usbd_hid.c **** static uint8_t  USBD_HID_Init (USBD_HandleTypeDef *pdev, 
 704:Middlewares/ST/STM32_USB_Device_Library/Class/HID/Src/usbd_hid.c ****                                uint8_t cfgidx)
 705:Middlewares/ST/STM32_USB_Device_Library/Class/HID/Src/usbd_hid.c **** {
 893              		.loc 1 705 0
 894              		.cfi_startproc
 895              		@ args = 0, pretend = 0, frame = 16
 896              		@ frame_needed = 1, uses_anonymous_args = 0
 897 0000 80B5     		push	{r7, lr}
 898              	.LCFI0:
 899              		.cfi_def_cfa_offset 8
 900              		.cfi_offset 7, -8
 901              		.cfi_offset 14, -4
 902 0002 84B0     		sub	sp, sp, #16
 903              	.LCFI1:
 904              		.cfi_def_cfa_offset 24
ARM GAS  /tmp/cckByxZ4.s 			page 29


 905 0004 00AF     		add	r7, sp, #0
 906              	.LCFI2:
 907              		.cfi_def_cfa_register 7
 908 0006 7860     		str	r0, [r7, #4]
 909 0008 0B46     		mov	r3, r1
 910 000a FB70     		strb	r3, [r7, #3]
 706:Middlewares/ST/STM32_USB_Device_Library/Class/HID/Src/usbd_hid.c ****   uint8_t ret = 0;
 911              		.loc 1 706 0
 912 000c 0023     		movs	r3, #0
 913 000e FB73     		strb	r3, [r7, #15]
 707:Middlewares/ST/STM32_USB_Device_Library/Class/HID/Src/usbd_hid.c ****   
 708:Middlewares/ST/STM32_USB_Device_Library/Class/HID/Src/usbd_hid.c ****   /* Open EP IN */
 709:Middlewares/ST/STM32_USB_Device_Library/Class/HID/Src/usbd_hid.c ****   USBD_LL_OpenEP(pdev,
 914              		.loc 1 709 0
 915 0010 2023     		movs	r3, #32
 916 0012 0322     		movs	r2, #3
 917 0014 8121     		movs	r1, #129
 918 0016 7868     		ldr	r0, [r7, #4]
 919 0018 FFF7FEFF 		bl	USBD_LL_OpenEP
 710:Middlewares/ST/STM32_USB_Device_Library/Class/HID/Src/usbd_hid.c ****                  HID_EPIN_ADDR,
 711:Middlewares/ST/STM32_USB_Device_Library/Class/HID/Src/usbd_hid.c ****                  USBD_EP_TYPE_INTR,
 712:Middlewares/ST/STM32_USB_Device_Library/Class/HID/Src/usbd_hid.c ****                  AUSB_EP1InMaxPacketSize);  
 713:Middlewares/ST/STM32_USB_Device_Library/Class/HID/Src/usbd_hid.c **** 
 714:Middlewares/ST/STM32_USB_Device_Library/Class/HID/Src/usbd_hid.c **** 	/* Open EP OUT */
 715:Middlewares/ST/STM32_USB_Device_Library/Class/HID/Src/usbd_hid.c ****   USBD_LL_OpenEP(pdev,
 920              		.loc 1 715 0
 921 001c 2023     		movs	r3, #32
 922 001e 0322     		movs	r2, #3
 923 0020 0121     		movs	r1, #1
 924 0022 7868     		ldr	r0, [r7, #4]
 925 0024 FFF7FEFF 		bl	USBD_LL_OpenEP
 716:Middlewares/ST/STM32_USB_Device_Library/Class/HID/Src/usbd_hid.c ****                  HID_EPOUT_ADDR,
 717:Middlewares/ST/STM32_USB_Device_Library/Class/HID/Src/usbd_hid.c ****                  USBD_EP_TYPE_INTR,
 718:Middlewares/ST/STM32_USB_Device_Library/Class/HID/Src/usbd_hid.c ****                  AUSB_EP1OutMaxPacketSize); 
 719:Middlewares/ST/STM32_USB_Device_Library/Class/HID/Src/usbd_hid.c **** 
 720:Middlewares/ST/STM32_USB_Device_Library/Class/HID/Src/usbd_hid.c ****   /*prepare to receive data*/
 721:Middlewares/ST/STM32_USB_Device_Library/Class/HID/Src/usbd_hid.c ****   USBD_LL_PrepareReceive(pdev, HID_EPOUT_ADDR, usbd_hid_EP1rxBuf, AUSB_EP1OutMaxPacketSize);
 926              		.loc 1 721 0
 927 0028 2023     		movs	r3, #32
 928 002a 0F4A     		ldr	r2, .L5
 929 002c 0121     		movs	r1, #1
 930 002e 7868     		ldr	r0, [r7, #4]
 931 0030 FFF7FEFF 		bl	USBD_LL_PrepareReceive
 722:Middlewares/ST/STM32_USB_Device_Library/Class/HID/Src/usbd_hid.c **** 
 723:Middlewares/ST/STM32_USB_Device_Library/Class/HID/Src/usbd_hid.c ****   pdev->pClassData = USBD_malloc(sizeof (USBD_HID_HandleTypeDef));
 932              		.loc 1 723 0
 933 0034 1020     		movs	r0, #16
 934 0036 FFF7FEFF 		bl	USBD_static_malloc
 935 003a 0246     		mov	r2, r0
 936 003c 7B68     		ldr	r3, [r7, #4]
 937 003e C3F81822 		str	r2, [r3, #536]
 724:Middlewares/ST/STM32_USB_Device_Library/Class/HID/Src/usbd_hid.c ****   
 725:Middlewares/ST/STM32_USB_Device_Library/Class/HID/Src/usbd_hid.c ****   if(pdev->pClassData == NULL)
 938              		.loc 1 725 0
 939 0042 7B68     		ldr	r3, [r7, #4]
 940 0044 D3F81832 		ldr	r3, [r3, #536]
 941 0048 002B     		cmp	r3, #0
ARM GAS  /tmp/cckByxZ4.s 			page 30


 942 004a 02D1     		bne	.L2
 726:Middlewares/ST/STM32_USB_Device_Library/Class/HID/Src/usbd_hid.c ****   {
 727:Middlewares/ST/STM32_USB_Device_Library/Class/HID/Src/usbd_hid.c ****     ret = 1; 
 943              		.loc 1 727 0
 944 004c 0123     		movs	r3, #1
 945 004e FB73     		strb	r3, [r7, #15]
 946 0050 04E0     		b	.L3
 947              	.L2:
 728:Middlewares/ST/STM32_USB_Device_Library/Class/HID/Src/usbd_hid.c ****   }
 729:Middlewares/ST/STM32_USB_Device_Library/Class/HID/Src/usbd_hid.c ****   else
 730:Middlewares/ST/STM32_USB_Device_Library/Class/HID/Src/usbd_hid.c ****   {
 731:Middlewares/ST/STM32_USB_Device_Library/Class/HID/Src/usbd_hid.c ****     ((USBD_HID_HandleTypeDef *)pdev->pClassData)->state = HID_IDLE;
 948              		.loc 1 731 0
 949 0052 7B68     		ldr	r3, [r7, #4]
 950 0054 D3F81832 		ldr	r3, [r3, #536]
 951 0058 0022     		movs	r2, #0
 952 005a 1A73     		strb	r2, [r3, #12]
 953              	.L3:
 732:Middlewares/ST/STM32_USB_Device_Library/Class/HID/Src/usbd_hid.c ****   }
 733:Middlewares/ST/STM32_USB_Device_Library/Class/HID/Src/usbd_hid.c ****   return ret;
 954              		.loc 1 733 0
 955 005c FB7B     		ldrb	r3, [r7, #15]	@ zero_extendqisi2
 734:Middlewares/ST/STM32_USB_Device_Library/Class/HID/Src/usbd_hid.c **** }
 956              		.loc 1 734 0
 957 005e 1846     		mov	r0, r3
 958 0060 1037     		adds	r7, r7, #16
 959              	.LCFI3:
 960              		.cfi_def_cfa_offset 8
 961 0062 BD46     		mov	sp, r7
 962              	.LCFI4:
 963              		.cfi_def_cfa_register 13
 964              		@ sp needed
 965 0064 80BD     		pop	{r7, pc}
 966              	.L6:
 967 0066 00BF     		.align	2
 968              	.L5:
 969 0068 00000000 		.word	usbd_hid_EP1rxBuf
 970              		.cfi_endproc
 971              	.LFE66:
 973              		.section	.text.USBD_HID_DeInit,"ax",%progbits
 974              		.align	1
 975              		.syntax unified
 976              		.thumb
 977              		.thumb_func
 978              		.fpu softvfp
 980              	USBD_HID_DeInit:
 981              	.LFB67:
 735:Middlewares/ST/STM32_USB_Device_Library/Class/HID/Src/usbd_hid.c **** 
 736:Middlewares/ST/STM32_USB_Device_Library/Class/HID/Src/usbd_hid.c **** /**
 737:Middlewares/ST/STM32_USB_Device_Library/Class/HID/Src/usbd_hid.c ****   * @brief  USBD_HID_Init
 738:Middlewares/ST/STM32_USB_Device_Library/Class/HID/Src/usbd_hid.c ****   *         DeInitialize the HID layer
 739:Middlewares/ST/STM32_USB_Device_Library/Class/HID/Src/usbd_hid.c ****   * @param  pdev: device instance
 740:Middlewares/ST/STM32_USB_Device_Library/Class/HID/Src/usbd_hid.c ****   * @param  cfgidx: Configuration index
 741:Middlewares/ST/STM32_USB_Device_Library/Class/HID/Src/usbd_hid.c ****   * @retval status
 742:Middlewares/ST/STM32_USB_Device_Library/Class/HID/Src/usbd_hid.c ****   */
 743:Middlewares/ST/STM32_USB_Device_Library/Class/HID/Src/usbd_hid.c **** static uint8_t  USBD_HID_DeInit (USBD_HandleTypeDef *pdev, 
 744:Middlewares/ST/STM32_USB_Device_Library/Class/HID/Src/usbd_hid.c ****                                  uint8_t cfgidx)
ARM GAS  /tmp/cckByxZ4.s 			page 31


 745:Middlewares/ST/STM32_USB_Device_Library/Class/HID/Src/usbd_hid.c **** {
 982              		.loc 1 745 0
 983              		.cfi_startproc
 984              		@ args = 0, pretend = 0, frame = 8
 985              		@ frame_needed = 1, uses_anonymous_args = 0
 986 0000 80B5     		push	{r7, lr}
 987              	.LCFI5:
 988              		.cfi_def_cfa_offset 8
 989              		.cfi_offset 7, -8
 990              		.cfi_offset 14, -4
 991 0002 82B0     		sub	sp, sp, #8
 992              	.LCFI6:
 993              		.cfi_def_cfa_offset 16
 994 0004 00AF     		add	r7, sp, #0
 995              	.LCFI7:
 996              		.cfi_def_cfa_register 7
 997 0006 7860     		str	r0, [r7, #4]
 998 0008 0B46     		mov	r3, r1
 999 000a FB70     		strb	r3, [r7, #3]
 746:Middlewares/ST/STM32_USB_Device_Library/Class/HID/Src/usbd_hid.c ****   /* Close HID EPs */
 747:Middlewares/ST/STM32_USB_Device_Library/Class/HID/Src/usbd_hid.c ****   USBD_LL_CloseEP(pdev,
 1000              		.loc 1 747 0
 1001 000c 8121     		movs	r1, #129
 1002 000e 7868     		ldr	r0, [r7, #4]
 1003 0010 FFF7FEFF 		bl	USBD_LL_CloseEP
 748:Middlewares/ST/STM32_USB_Device_Library/Class/HID/Src/usbd_hid.c ****                   HID_EPIN_ADDR);
 749:Middlewares/ST/STM32_USB_Device_Library/Class/HID/Src/usbd_hid.c ****   
 750:Middlewares/ST/STM32_USB_Device_Library/Class/HID/Src/usbd_hid.c ****   /* FRee allocated memory */
 751:Middlewares/ST/STM32_USB_Device_Library/Class/HID/Src/usbd_hid.c ****   if(pdev->pClassData != NULL)
 1004              		.loc 1 751 0
 1005 0014 7B68     		ldr	r3, [r7, #4]
 1006 0016 D3F81832 		ldr	r3, [r3, #536]
 1007 001a 002B     		cmp	r3, #0
 1008 001c 09D0     		beq	.L8
 752:Middlewares/ST/STM32_USB_Device_Library/Class/HID/Src/usbd_hid.c ****   {
 753:Middlewares/ST/STM32_USB_Device_Library/Class/HID/Src/usbd_hid.c ****     USBD_free(pdev->pClassData);
 1009              		.loc 1 753 0
 1010 001e 7B68     		ldr	r3, [r7, #4]
 1011 0020 D3F81832 		ldr	r3, [r3, #536]
 1012 0024 1846     		mov	r0, r3
 1013 0026 FFF7FEFF 		bl	USBD_static_free
 754:Middlewares/ST/STM32_USB_Device_Library/Class/HID/Src/usbd_hid.c ****     pdev->pClassData = NULL;
 1014              		.loc 1 754 0
 1015 002a 7B68     		ldr	r3, [r7, #4]
 1016 002c 0022     		movs	r2, #0
 1017 002e C3F81822 		str	r2, [r3, #536]
 1018              	.L8:
 755:Middlewares/ST/STM32_USB_Device_Library/Class/HID/Src/usbd_hid.c ****   } 
 756:Middlewares/ST/STM32_USB_Device_Library/Class/HID/Src/usbd_hid.c ****   
 757:Middlewares/ST/STM32_USB_Device_Library/Class/HID/Src/usbd_hid.c ****   return USBD_OK;
 1019              		.loc 1 757 0
 1020 0032 0023     		movs	r3, #0
 758:Middlewares/ST/STM32_USB_Device_Library/Class/HID/Src/usbd_hid.c **** }
 1021              		.loc 1 758 0
 1022 0034 1846     		mov	r0, r3
 1023 0036 0837     		adds	r7, r7, #8
 1024              	.LCFI8:
ARM GAS  /tmp/cckByxZ4.s 			page 32


 1025              		.cfi_def_cfa_offset 8
 1026 0038 BD46     		mov	sp, r7
 1027              	.LCFI9:
 1028              		.cfi_def_cfa_register 13
 1029              		@ sp needed
 1030 003a 80BD     		pop	{r7, pc}
 1031              		.cfi_endproc
 1032              	.LFE67:
 1034              		.section	.text.USBD_HID_Setup,"ax",%progbits
 1035              		.align	1
 1036              		.syntax unified
 1037              		.thumb
 1038              		.thumb_func
 1039              		.fpu softvfp
 1041              	USBD_HID_Setup:
 1042              	.LFB68:
 759:Middlewares/ST/STM32_USB_Device_Library/Class/HID/Src/usbd_hid.c **** 
 760:Middlewares/ST/STM32_USB_Device_Library/Class/HID/Src/usbd_hid.c **** /**
 761:Middlewares/ST/STM32_USB_Device_Library/Class/HID/Src/usbd_hid.c ****   * @brief  USBD_HID_Setup
 762:Middlewares/ST/STM32_USB_Device_Library/Class/HID/Src/usbd_hid.c ****   *         Handle the HID specific requests
 763:Middlewares/ST/STM32_USB_Device_Library/Class/HID/Src/usbd_hid.c ****   * @param  pdev: instance
 764:Middlewares/ST/STM32_USB_Device_Library/Class/HID/Src/usbd_hid.c ****   * @param  req: usb requests
 765:Middlewares/ST/STM32_USB_Device_Library/Class/HID/Src/usbd_hid.c ****   * @retval status
 766:Middlewares/ST/STM32_USB_Device_Library/Class/HID/Src/usbd_hid.c ****   */
 767:Middlewares/ST/STM32_USB_Device_Library/Class/HID/Src/usbd_hid.c **** static uint8_t  USBD_HID_Setup (USBD_HandleTypeDef *pdev, 
 768:Middlewares/ST/STM32_USB_Device_Library/Class/HID/Src/usbd_hid.c ****                                 USBD_SetupReqTypedef *req)
 769:Middlewares/ST/STM32_USB_Device_Library/Class/HID/Src/usbd_hid.c **** {
 1043              		.loc 1 769 0
 1044              		.cfi_startproc
 1045              		@ args = 0, pretend = 0, frame = 24
 1046              		@ frame_needed = 1, uses_anonymous_args = 0
 1047 0000 80B5     		push	{r7, lr}
 1048              	.LCFI10:
 1049              		.cfi_def_cfa_offset 8
 1050              		.cfi_offset 7, -8
 1051              		.cfi_offset 14, -4
 1052 0002 86B0     		sub	sp, sp, #24
 1053              	.LCFI11:
 1054              		.cfi_def_cfa_offset 32
 1055 0004 00AF     		add	r7, sp, #0
 1056              	.LCFI12:
 1057              		.cfi_def_cfa_register 7
 1058 0006 7860     		str	r0, [r7, #4]
 1059 0008 3960     		str	r1, [r7]
 770:Middlewares/ST/STM32_USB_Device_Library/Class/HID/Src/usbd_hid.c ****   uint16_t len = 0;
 1060              		.loc 1 770 0
 1061 000a 0023     		movs	r3, #0
 1062 000c FB82     		strh	r3, [r7, #22]	@ movhi
 771:Middlewares/ST/STM32_USB_Device_Library/Class/HID/Src/usbd_hid.c ****   uint8_t  *pbuf = NULL;
 1063              		.loc 1 771 0
 1064 000e 0023     		movs	r3, #0
 1065 0010 3B61     		str	r3, [r7, #16]
 772:Middlewares/ST/STM32_USB_Device_Library/Class/HID/Src/usbd_hid.c ****   USBD_HID_HandleTypeDef     *hhid = (USBD_HID_HandleTypeDef*) pdev->pClassData;
 1066              		.loc 1 772 0
 1067 0012 7B68     		ldr	r3, [r7, #4]
 1068 0014 D3F81832 		ldr	r3, [r3, #536]
 1069 0018 FB60     		str	r3, [r7, #12]
ARM GAS  /tmp/cckByxZ4.s 			page 33


 773:Middlewares/ST/STM32_USB_Device_Library/Class/HID/Src/usbd_hid.c **** 
 774:Middlewares/ST/STM32_USB_Device_Library/Class/HID/Src/usbd_hid.c ****   switch (req->bmRequest & USB_REQ_TYPE_MASK)
 1070              		.loc 1 774 0
 1071 001a 3B68     		ldr	r3, [r7]
 1072 001c 1B78     		ldrb	r3, [r3]	@ zero_extendqisi2
 1073 001e 03F06003 		and	r3, r3, #96
 1074 0022 002B     		cmp	r3, #0
 1075 0024 44D0     		beq	.L12
 1076 0026 202B     		cmp	r3, #32
 1077 0028 7FD1     		bne	.L11
 775:Middlewares/ST/STM32_USB_Device_Library/Class/HID/Src/usbd_hid.c ****   {
 776:Middlewares/ST/STM32_USB_Device_Library/Class/HID/Src/usbd_hid.c ****   case USB_REQ_TYPE_CLASS :  
 777:Middlewares/ST/STM32_USB_Device_Library/Class/HID/Src/usbd_hid.c ****     switch (req->bRequest)
 1078              		.loc 1 777 0
 1079 002a 3B68     		ldr	r3, [r7]
 1080 002c 5B78     		ldrb	r3, [r3, #1]	@ zero_extendqisi2
 1081 002e 023B     		subs	r3, r3, #2
 1082 0030 092B     		cmp	r3, #9
 1083 0032 36D8     		bhi	.L14
 1084 0034 01A2     		adr	r2, .L16
 1085 0036 52F823F0 		ldr	pc, [r2, r3, lsl #2]
 1086 003a 00BF     		.p2align 2
 1087              	.L16:
 1088 003c 93000000 		.word	.L15+1
 1089 0040 73000000 		.word	.L17+1
 1090 0044 A3000000 		.word	.L14+1
 1091 0048 A3000000 		.word	.L14+1
 1092 004c A3000000 		.word	.L14+1
 1093 0050 A3000000 		.word	.L14+1
 1094 0054 A3000000 		.word	.L14+1
 1095 0058 A3000000 		.word	.L14+1
 1096 005c 81000000 		.word	.L18+1
 1097 0060 65000000 		.word	.L19+1
 1098              		.p2align 1
 1099              	.L19:
 778:Middlewares/ST/STM32_USB_Device_Library/Class/HID/Src/usbd_hid.c ****     {
 779:Middlewares/ST/STM32_USB_Device_Library/Class/HID/Src/usbd_hid.c ****            
 780:Middlewares/ST/STM32_USB_Device_Library/Class/HID/Src/usbd_hid.c ****     case HID_REQ_SET_PROTOCOL:
 781:Middlewares/ST/STM32_USB_Device_Library/Class/HID/Src/usbd_hid.c ****       hhid->Protocol = (uint8_t)(req->wValue);
 1100              		.loc 1 781 0
 1101 0064 3B68     		ldr	r3, [r7]
 1102 0066 5B88     		ldrh	r3, [r3, #2]
 1103 0068 DBB2     		uxtb	r3, r3
 1104 006a 1A46     		mov	r2, r3
 1105 006c FB68     		ldr	r3, [r7, #12]
 1106 006e 1A60     		str	r2, [r3]
 782:Middlewares/ST/STM32_USB_Device_Library/Class/HID/Src/usbd_hid.c ****       break;
 1107              		.loc 1 782 0
 1108 0070 1DE0     		b	.L20
 1109              	.L17:
 783:Middlewares/ST/STM32_USB_Device_Library/Class/HID/Src/usbd_hid.c ****       
 784:Middlewares/ST/STM32_USB_Device_Library/Class/HID/Src/usbd_hid.c ****     case HID_REQ_GET_PROTOCOL:
 785:Middlewares/ST/STM32_USB_Device_Library/Class/HID/Src/usbd_hid.c ****       USBD_CtlSendData (pdev, 
 786:Middlewares/ST/STM32_USB_Device_Library/Class/HID/Src/usbd_hid.c ****                         (uint8_t *)&hhid->Protocol,
 1110              		.loc 1 786 0
 1111 0072 FB68     		ldr	r3, [r7, #12]
 785:Middlewares/ST/STM32_USB_Device_Library/Class/HID/Src/usbd_hid.c ****                         (uint8_t *)&hhid->Protocol,
ARM GAS  /tmp/cckByxZ4.s 			page 34


 1112              		.loc 1 785 0
 1113 0074 0122     		movs	r2, #1
 1114 0076 1946     		mov	r1, r3
 1115 0078 7868     		ldr	r0, [r7, #4]
 1116 007a FFF7FEFF 		bl	USBD_CtlSendData
 787:Middlewares/ST/STM32_USB_Device_Library/Class/HID/Src/usbd_hid.c ****                         1);    
 788:Middlewares/ST/STM32_USB_Device_Library/Class/HID/Src/usbd_hid.c ****       break;
 1117              		.loc 1 788 0
 1118 007e 16E0     		b	.L20
 1119              	.L18:
 789:Middlewares/ST/STM32_USB_Device_Library/Class/HID/Src/usbd_hid.c ****       
 790:Middlewares/ST/STM32_USB_Device_Library/Class/HID/Src/usbd_hid.c ****     case HID_REQ_SET_IDLE:
 791:Middlewares/ST/STM32_USB_Device_Library/Class/HID/Src/usbd_hid.c ****       hhid->IdleState = (uint8_t)(req->wValue >> 8);
 1120              		.loc 1 791 0
 1121 0080 3B68     		ldr	r3, [r7]
 1122 0082 5B88     		ldrh	r3, [r3, #2]
 1123 0084 1B0A     		lsrs	r3, r3, #8
 1124 0086 9BB2     		uxth	r3, r3
 1125 0088 DBB2     		uxtb	r3, r3
 1126 008a 1A46     		mov	r2, r3
 1127 008c FB68     		ldr	r3, [r7, #12]
 1128 008e 5A60     		str	r2, [r3, #4]
 792:Middlewares/ST/STM32_USB_Device_Library/Class/HID/Src/usbd_hid.c ****       break;
 1129              		.loc 1 792 0
 1130 0090 0DE0     		b	.L20
 1131              	.L15:
 793:Middlewares/ST/STM32_USB_Device_Library/Class/HID/Src/usbd_hid.c ****       
 794:Middlewares/ST/STM32_USB_Device_Library/Class/HID/Src/usbd_hid.c ****     case HID_REQ_GET_IDLE:
 795:Middlewares/ST/STM32_USB_Device_Library/Class/HID/Src/usbd_hid.c ****       USBD_CtlSendData (pdev, 
 796:Middlewares/ST/STM32_USB_Device_Library/Class/HID/Src/usbd_hid.c ****                         (uint8_t *)&hhid->IdleState,
 1132              		.loc 1 796 0
 1133 0092 FB68     		ldr	r3, [r7, #12]
 1134 0094 0433     		adds	r3, r3, #4
 795:Middlewares/ST/STM32_USB_Device_Library/Class/HID/Src/usbd_hid.c ****                         (uint8_t *)&hhid->IdleState,
 1135              		.loc 1 795 0
 1136 0096 0122     		movs	r2, #1
 1137 0098 1946     		mov	r1, r3
 1138 009a 7868     		ldr	r0, [r7, #4]
 1139 009c FFF7FEFF 		bl	USBD_CtlSendData
 797:Middlewares/ST/STM32_USB_Device_Library/Class/HID/Src/usbd_hid.c ****                         1);        
 798:Middlewares/ST/STM32_USB_Device_Library/Class/HID/Src/usbd_hid.c ****       break;      
 1140              		.loc 1 798 0
 1141 00a0 05E0     		b	.L20
 1142              	.L14:
 799:Middlewares/ST/STM32_USB_Device_Library/Class/HID/Src/usbd_hid.c ****       
 800:Middlewares/ST/STM32_USB_Device_Library/Class/HID/Src/usbd_hid.c ****     default:
 801:Middlewares/ST/STM32_USB_Device_Library/Class/HID/Src/usbd_hid.c ****       USBD_CtlError (pdev, req);
 1143              		.loc 1 801 0
 1144 00a2 3968     		ldr	r1, [r7]
 1145 00a4 7868     		ldr	r0, [r7, #4]
 1146 00a6 FFF7FEFF 		bl	USBD_CtlError
 802:Middlewares/ST/STM32_USB_Device_Library/Class/HID/Src/usbd_hid.c ****       return USBD_FAIL; 
 1147              		.loc 1 802 0
 1148 00aa 0223     		movs	r3, #2
 1149 00ac 3EE0     		b	.L21
 1150              	.L20:
 803:Middlewares/ST/STM32_USB_Device_Library/Class/HID/Src/usbd_hid.c ****     }
ARM GAS  /tmp/cckByxZ4.s 			page 35


 804:Middlewares/ST/STM32_USB_Device_Library/Class/HID/Src/usbd_hid.c ****     break;
 1151              		.loc 1 804 0
 1152 00ae 3CE0     		b	.L11
 1153              	.L12:
 805:Middlewares/ST/STM32_USB_Device_Library/Class/HID/Src/usbd_hid.c ****     
 806:Middlewares/ST/STM32_USB_Device_Library/Class/HID/Src/usbd_hid.c ****   case USB_REQ_TYPE_STANDARD:
 807:Middlewares/ST/STM32_USB_Device_Library/Class/HID/Src/usbd_hid.c ****     switch (req->bRequest)
 1154              		.loc 1 807 0
 1155 00b0 3B68     		ldr	r3, [r7]
 1156 00b2 5B78     		ldrb	r3, [r3, #1]	@ zero_extendqisi2
 1157 00b4 0A2B     		cmp	r3, #10
 1158 00b6 29D0     		beq	.L22
 1159 00b8 0B2B     		cmp	r3, #11
 1160 00ba 2FD0     		beq	.L23
 1161 00bc 062B     		cmp	r3, #6
 1162 00be 34D1     		bne	.L11
 808:Middlewares/ST/STM32_USB_Device_Library/Class/HID/Src/usbd_hid.c ****     {
 809:Middlewares/ST/STM32_USB_Device_Library/Class/HID/Src/usbd_hid.c ****     case USB_REQ_GET_DESCRIPTOR: 
 810:Middlewares/ST/STM32_USB_Device_Library/Class/HID/Src/usbd_hid.c ****       if( req->wValue >> 8 == HID_REPORT_DESC)
 1163              		.loc 1 810 0
 1164 00c0 3B68     		ldr	r3, [r7]
 1165 00c2 5B88     		ldrh	r3, [r3, #2]
 1166 00c4 1B0A     		lsrs	r3, r3, #8
 1167 00c6 9BB2     		uxth	r3, r3
 1168 00c8 222B     		cmp	r3, #34
 1169 00ca 0AD1     		bne	.L25
 811:Middlewares/ST/STM32_USB_Device_Library/Class/HID/Src/usbd_hid.c ****       {
 812:Middlewares/ST/STM32_USB_Device_Library/Class/HID/Src/usbd_hid.c ****         len = MIN(JOYSTICK_SIZ_REPORT_DESC , req->wLength);
 1170              		.loc 1 812 0
 1171 00cc 3B68     		ldr	r3, [r7]
 1172 00ce DB88     		ldrh	r3, [r3, #6]
 1173 00d0 B3F53E7F 		cmp	r3, #760
 1174 00d4 28BF     		it	cs
 1175 00d6 4FF43E73 		movcs	r3, #760
 1176 00da FB82     		strh	r3, [r7, #22]	@ movhi
 813:Middlewares/ST/STM32_USB_Device_Library/Class/HID/Src/usbd_hid.c ****         pbuf = Joystick_ReportDescriptor;
 1177              		.loc 1 813 0
 1178 00dc 154B     		ldr	r3, .L27
 1179 00de 3B61     		str	r3, [r7, #16]
 1180 00e0 0DE0     		b	.L26
 1181              	.L25:
 814:Middlewares/ST/STM32_USB_Device_Library/Class/HID/Src/usbd_hid.c ****       }
 815:Middlewares/ST/STM32_USB_Device_Library/Class/HID/Src/usbd_hid.c ****       else if( req->wValue >> 8 == HID_DESCRIPTOR_TYPE)
 1182              		.loc 1 815 0
 1183 00e2 3B68     		ldr	r3, [r7]
 1184 00e4 5B88     		ldrh	r3, [r3, #2]
 1185 00e6 1B0A     		lsrs	r3, r3, #8
 1186 00e8 9BB2     		uxth	r3, r3
 1187 00ea 212B     		cmp	r3, #33
 1188 00ec 07D1     		bne	.L26
 816:Middlewares/ST/STM32_USB_Device_Library/Class/HID/Src/usbd_hid.c ****       {
 817:Middlewares/ST/STM32_USB_Device_Library/Class/HID/Src/usbd_hid.c ****         pbuf = USBD_HID_Desc;   
 1189              		.loc 1 817 0
 1190 00ee 124B     		ldr	r3, .L27+4
 1191 00f0 3B61     		str	r3, [r7, #16]
 818:Middlewares/ST/STM32_USB_Device_Library/Class/HID/Src/usbd_hid.c ****         len = MIN(USB_HID_DESC_SIZ , req->wLength);
 1192              		.loc 1 818 0
ARM GAS  /tmp/cckByxZ4.s 			page 36


 1193 00f2 3B68     		ldr	r3, [r7]
 1194 00f4 DB88     		ldrh	r3, [r3, #6]
 1195 00f6 092B     		cmp	r3, #9
 1196 00f8 28BF     		it	cs
 1197 00fa 0923     		movcs	r3, #9
 1198 00fc FB82     		strh	r3, [r7, #22]	@ movhi
 1199              	.L26:
 819:Middlewares/ST/STM32_USB_Device_Library/Class/HID/Src/usbd_hid.c ****       }
 820:Middlewares/ST/STM32_USB_Device_Library/Class/HID/Src/usbd_hid.c ****       
 821:Middlewares/ST/STM32_USB_Device_Library/Class/HID/Src/usbd_hid.c ****       USBD_CtlSendData (pdev, 
 1200              		.loc 1 821 0
 1201 00fe FB8A     		ldrh	r3, [r7, #22]
 1202 0100 1A46     		mov	r2, r3
 1203 0102 3969     		ldr	r1, [r7, #16]
 1204 0104 7868     		ldr	r0, [r7, #4]
 1205 0106 FFF7FEFF 		bl	USBD_CtlSendData
 822:Middlewares/ST/STM32_USB_Device_Library/Class/HID/Src/usbd_hid.c ****                         pbuf,
 823:Middlewares/ST/STM32_USB_Device_Library/Class/HID/Src/usbd_hid.c ****                         len);
 824:Middlewares/ST/STM32_USB_Device_Library/Class/HID/Src/usbd_hid.c ****       
 825:Middlewares/ST/STM32_USB_Device_Library/Class/HID/Src/usbd_hid.c ****       break;
 1206              		.loc 1 825 0
 1207 010a 0EE0     		b	.L11
 1208              	.L22:
 826:Middlewares/ST/STM32_USB_Device_Library/Class/HID/Src/usbd_hid.c ****       
 827:Middlewares/ST/STM32_USB_Device_Library/Class/HID/Src/usbd_hid.c ****     case USB_REQ_GET_INTERFACE :
 828:Middlewares/ST/STM32_USB_Device_Library/Class/HID/Src/usbd_hid.c ****       USBD_CtlSendData (pdev,
 829:Middlewares/ST/STM32_USB_Device_Library/Class/HID/Src/usbd_hid.c ****                         (uint8_t *)&hhid->AltSetting,
 1209              		.loc 1 829 0
 1210 010c FB68     		ldr	r3, [r7, #12]
 1211 010e 0833     		adds	r3, r3, #8
 828:Middlewares/ST/STM32_USB_Device_Library/Class/HID/Src/usbd_hid.c ****                         (uint8_t *)&hhid->AltSetting,
 1212              		.loc 1 828 0
 1213 0110 0122     		movs	r2, #1
 1214 0112 1946     		mov	r1, r3
 1215 0114 7868     		ldr	r0, [r7, #4]
 1216 0116 FFF7FEFF 		bl	USBD_CtlSendData
 830:Middlewares/ST/STM32_USB_Device_Library/Class/HID/Src/usbd_hid.c ****                         1);
 831:Middlewares/ST/STM32_USB_Device_Library/Class/HID/Src/usbd_hid.c ****       break;
 1217              		.loc 1 831 0
 1218 011a 06E0     		b	.L11
 1219              	.L23:
 832:Middlewares/ST/STM32_USB_Device_Library/Class/HID/Src/usbd_hid.c ****       
 833:Middlewares/ST/STM32_USB_Device_Library/Class/HID/Src/usbd_hid.c ****     case USB_REQ_SET_INTERFACE :
 834:Middlewares/ST/STM32_USB_Device_Library/Class/HID/Src/usbd_hid.c ****       hhid->AltSetting = (uint8_t)(req->wValue);
 1220              		.loc 1 834 0
 1221 011c 3B68     		ldr	r3, [r7]
 1222 011e 5B88     		ldrh	r3, [r3, #2]
 1223 0120 DBB2     		uxtb	r3, r3
 1224 0122 1A46     		mov	r2, r3
 1225 0124 FB68     		ldr	r3, [r7, #12]
 1226 0126 9A60     		str	r2, [r3, #8]
 835:Middlewares/ST/STM32_USB_Device_Library/Class/HID/Src/usbd_hid.c ****       break;
 1227              		.loc 1 835 0
 1228 0128 00BF     		nop
 1229              	.L11:
 836:Middlewares/ST/STM32_USB_Device_Library/Class/HID/Src/usbd_hid.c ****     }
 837:Middlewares/ST/STM32_USB_Device_Library/Class/HID/Src/usbd_hid.c ****   }
ARM GAS  /tmp/cckByxZ4.s 			page 37


 838:Middlewares/ST/STM32_USB_Device_Library/Class/HID/Src/usbd_hid.c ****   return USBD_OK;
 1230              		.loc 1 838 0
 1231 012a 0023     		movs	r3, #0
 1232              	.L21:
 839:Middlewares/ST/STM32_USB_Device_Library/Class/HID/Src/usbd_hid.c **** }
 1233              		.loc 1 839 0
 1234 012c 1846     		mov	r0, r3
 1235 012e 1837     		adds	r7, r7, #24
 1236              	.LCFI13:
 1237              		.cfi_def_cfa_offset 8
 1238 0130 BD46     		mov	sp, r7
 1239              	.LCFI14:
 1240              		.cfi_def_cfa_register 13
 1241              		@ sp needed
 1242 0132 80BD     		pop	{r7, pc}
 1243              	.L28:
 1244              		.align	2
 1245              	.L27:
 1246 0134 00000000 		.word	Joystick_ReportDescriptor
 1247 0138 00000000 		.word	USBD_HID_Desc
 1248              		.cfi_endproc
 1249              	.LFE68:
 1251              		.section	.text.USBD_HID_SendReport,"ax",%progbits
 1252              		.align	1
 1253              		.global	USBD_HID_SendReport
 1254              		.syntax unified
 1255              		.thumb
 1256              		.thumb_func
 1257              		.fpu softvfp
 1259              	USBD_HID_SendReport:
 1260              	.LFB69:
 840:Middlewares/ST/STM32_USB_Device_Library/Class/HID/Src/usbd_hid.c **** 
 841:Middlewares/ST/STM32_USB_Device_Library/Class/HID/Src/usbd_hid.c **** /**
 842:Middlewares/ST/STM32_USB_Device_Library/Class/HID/Src/usbd_hid.c ****   * @brief  USBD_HID_SendReport 
 843:Middlewares/ST/STM32_USB_Device_Library/Class/HID/Src/usbd_hid.c ****   *         Send HID Report
 844:Middlewares/ST/STM32_USB_Device_Library/Class/HID/Src/usbd_hid.c ****   * @param  pdev: device instance
 845:Middlewares/ST/STM32_USB_Device_Library/Class/HID/Src/usbd_hid.c ****   * @param  buff: pointer to report
 846:Middlewares/ST/STM32_USB_Device_Library/Class/HID/Src/usbd_hid.c ****   * @retval status
 847:Middlewares/ST/STM32_USB_Device_Library/Class/HID/Src/usbd_hid.c ****   */
 848:Middlewares/ST/STM32_USB_Device_Library/Class/HID/Src/usbd_hid.c **** uint8_t USBD_HID_SendReport     (USBD_HandleTypeDef  *pdev, 
 849:Middlewares/ST/STM32_USB_Device_Library/Class/HID/Src/usbd_hid.c ****                                  uint8_t *report,
 850:Middlewares/ST/STM32_USB_Device_Library/Class/HID/Src/usbd_hid.c ****                                  uint16_t len)
 851:Middlewares/ST/STM32_USB_Device_Library/Class/HID/Src/usbd_hid.c **** {
 1261              		.loc 1 851 0
 1262              		.cfi_startproc
 1263              		@ args = 0, pretend = 0, frame = 24
 1264              		@ frame_needed = 1, uses_anonymous_args = 0
 1265 0000 80B5     		push	{r7, lr}
 1266              	.LCFI15:
 1267              		.cfi_def_cfa_offset 8
 1268              		.cfi_offset 7, -8
 1269              		.cfi_offset 14, -4
 1270 0002 86B0     		sub	sp, sp, #24
 1271              	.LCFI16:
 1272              		.cfi_def_cfa_offset 32
 1273 0004 00AF     		add	r7, sp, #0
 1274              	.LCFI17:
ARM GAS  /tmp/cckByxZ4.s 			page 38


 1275              		.cfi_def_cfa_register 7
 1276 0006 F860     		str	r0, [r7, #12]
 1277 0008 B960     		str	r1, [r7, #8]
 1278 000a 1346     		mov	r3, r2
 1279 000c FB80     		strh	r3, [r7, #6]	@ movhi
 852:Middlewares/ST/STM32_USB_Device_Library/Class/HID/Src/usbd_hid.c ****   USBD_HID_HandleTypeDef     *hhid = (USBD_HID_HandleTypeDef*)pdev->pClassData;
 1280              		.loc 1 852 0
 1281 000e FB68     		ldr	r3, [r7, #12]
 1282 0010 D3F81832 		ldr	r3, [r3, #536]
 1283 0014 7B61     		str	r3, [r7, #20]
 853:Middlewares/ST/STM32_USB_Device_Library/Class/HID/Src/usbd_hid.c ****   
 854:Middlewares/ST/STM32_USB_Device_Library/Class/HID/Src/usbd_hid.c ****   if (pdev->dev_state == USBD_STATE_CONFIGURED )
 1284              		.loc 1 854 0
 1285 0016 FB68     		ldr	r3, [r7, #12]
 1286 0018 93F8FC31 		ldrb	r3, [r3, #508]	@ zero_extendqisi2
 1287 001c 032B     		cmp	r3, #3
 1288 001e 0CD1     		bne	.L30
 855:Middlewares/ST/STM32_USB_Device_Library/Class/HID/Src/usbd_hid.c ****   {
 856:Middlewares/ST/STM32_USB_Device_Library/Class/HID/Src/usbd_hid.c ****     if(hhid->state == HID_IDLE)
 1289              		.loc 1 856 0
 1290 0020 7B69     		ldr	r3, [r7, #20]
 1291 0022 1B7B     		ldrb	r3, [r3, #12]	@ zero_extendqisi2
 1292 0024 002B     		cmp	r3, #0
 1293 0026 08D1     		bne	.L30
 857:Middlewares/ST/STM32_USB_Device_Library/Class/HID/Src/usbd_hid.c ****     {
 858:Middlewares/ST/STM32_USB_Device_Library/Class/HID/Src/usbd_hid.c ****       hhid->state = HID_BUSY;
 1294              		.loc 1 858 0
 1295 0028 7B69     		ldr	r3, [r7, #20]
 1296 002a 0122     		movs	r2, #1
 1297 002c 1A73     		strb	r2, [r3, #12]
 859:Middlewares/ST/STM32_USB_Device_Library/Class/HID/Src/usbd_hid.c ****       USBD_LL_Transmit (pdev, 
 1298              		.loc 1 859 0
 1299 002e FB88     		ldrh	r3, [r7, #6]
 1300 0030 BA68     		ldr	r2, [r7, #8]
 1301 0032 8121     		movs	r1, #129
 1302 0034 F868     		ldr	r0, [r7, #12]
 1303 0036 FFF7FEFF 		bl	USBD_LL_Transmit
 1304              	.L30:
 860:Middlewares/ST/STM32_USB_Device_Library/Class/HID/Src/usbd_hid.c ****                         HID_EPIN_ADDR,                                      
 861:Middlewares/ST/STM32_USB_Device_Library/Class/HID/Src/usbd_hid.c ****                         report,
 862:Middlewares/ST/STM32_USB_Device_Library/Class/HID/Src/usbd_hid.c ****                         len);
 863:Middlewares/ST/STM32_USB_Device_Library/Class/HID/Src/usbd_hid.c ****     }
 864:Middlewares/ST/STM32_USB_Device_Library/Class/HID/Src/usbd_hid.c ****   }
 865:Middlewares/ST/STM32_USB_Device_Library/Class/HID/Src/usbd_hid.c **** 
 866:Middlewares/ST/STM32_USB_Device_Library/Class/HID/Src/usbd_hid.c ****   newDeviceDataAvailable = 1u;
 1305              		.loc 1 866 0
 1306 003a 044B     		ldr	r3, .L32
 1307 003c 0122     		movs	r2, #1
 1308 003e 1A70     		strb	r2, [r3]
 867:Middlewares/ST/STM32_USB_Device_Library/Class/HID/Src/usbd_hid.c **** 
 868:Middlewares/ST/STM32_USB_Device_Library/Class/HID/Src/usbd_hid.c ****   return USBD_OK;
 1309              		.loc 1 868 0
 1310 0040 0023     		movs	r3, #0
 869:Middlewares/ST/STM32_USB_Device_Library/Class/HID/Src/usbd_hid.c **** }
 1311              		.loc 1 869 0
 1312 0042 1846     		mov	r0, r3
 1313 0044 1837     		adds	r7, r7, #24
ARM GAS  /tmp/cckByxZ4.s 			page 39


 1314              	.LCFI18:
 1315              		.cfi_def_cfa_offset 8
 1316 0046 BD46     		mov	sp, r7
 1317              	.LCFI19:
 1318              		.cfi_def_cfa_register 13
 1319              		@ sp needed
 1320 0048 80BD     		pop	{r7, pc}
 1321              	.L33:
 1322 004a 00BF     		.align	2
 1323              	.L32:
 1324 004c 00000000 		.word	newDeviceDataAvailable
 1325              		.cfi_endproc
 1326              	.LFE69:
 1328              		.section	.text.USBD_HID_GetPollingInterval,"ax",%progbits
 1329              		.align	1
 1330              		.global	USBD_HID_GetPollingInterval
 1331              		.syntax unified
 1332              		.thumb
 1333              		.thumb_func
 1334              		.fpu softvfp
 1336              	USBD_HID_GetPollingInterval:
 1337              	.LFB70:
 870:Middlewares/ST/STM32_USB_Device_Library/Class/HID/Src/usbd_hid.c **** 
 871:Middlewares/ST/STM32_USB_Device_Library/Class/HID/Src/usbd_hid.c **** /**
 872:Middlewares/ST/STM32_USB_Device_Library/Class/HID/Src/usbd_hid.c ****   * @brief  USBD_HID_GetPollingInterval 
 873:Middlewares/ST/STM32_USB_Device_Library/Class/HID/Src/usbd_hid.c ****   *         return polling interval from endpoint descriptor
 874:Middlewares/ST/STM32_USB_Device_Library/Class/HID/Src/usbd_hid.c ****   * @param  pdev: device instance
 875:Middlewares/ST/STM32_USB_Device_Library/Class/HID/Src/usbd_hid.c ****   * @retval polling interval
 876:Middlewares/ST/STM32_USB_Device_Library/Class/HID/Src/usbd_hid.c ****   */
 877:Middlewares/ST/STM32_USB_Device_Library/Class/HID/Src/usbd_hid.c **** uint32_t USBD_HID_GetPollingInterval (USBD_HandleTypeDef *pdev)
 878:Middlewares/ST/STM32_USB_Device_Library/Class/HID/Src/usbd_hid.c **** {
 1338              		.loc 1 878 0
 1339              		.cfi_startproc
 1340              		@ args = 0, pretend = 0, frame = 16
 1341              		@ frame_needed = 1, uses_anonymous_args = 0
 1342              		@ link register save eliminated.
 1343 0000 80B4     		push	{r7}
 1344              	.LCFI20:
 1345              		.cfi_def_cfa_offset 4
 1346              		.cfi_offset 7, -4
 1347 0002 85B0     		sub	sp, sp, #20
 1348              	.LCFI21:
 1349              		.cfi_def_cfa_offset 24
 1350 0004 00AF     		add	r7, sp, #0
 1351              	.LCFI22:
 1352              		.cfi_def_cfa_register 7
 1353 0006 7860     		str	r0, [r7, #4]
 879:Middlewares/ST/STM32_USB_Device_Library/Class/HID/Src/usbd_hid.c ****   uint32_t polling_interval = 0;
 1354              		.loc 1 879 0
 1355 0008 0023     		movs	r3, #0
 1356 000a FB60     		str	r3, [r7, #12]
 880:Middlewares/ST/STM32_USB_Device_Library/Class/HID/Src/usbd_hid.c **** 
 881:Middlewares/ST/STM32_USB_Device_Library/Class/HID/Src/usbd_hid.c ****   /* HIGH-speed endpoints */
 882:Middlewares/ST/STM32_USB_Device_Library/Class/HID/Src/usbd_hid.c ****   if(pdev->dev_speed == USBD_SPEED_HIGH)
 1357              		.loc 1 882 0
 1358 000c 7B68     		ldr	r3, [r7, #4]
 1359 000e 1B7C     		ldrb	r3, [r3, #16]	@ zero_extendqisi2
ARM GAS  /tmp/cckByxZ4.s 			page 40


 1360 0010 002B     		cmp	r3, #0
 1361 0012 02D1     		bne	.L35
 883:Middlewares/ST/STM32_USB_Device_Library/Class/HID/Src/usbd_hid.c ****   {
 884:Middlewares/ST/STM32_USB_Device_Library/Class/HID/Src/usbd_hid.c ****    /* Sets the data transfer polling interval for high speed transfers. 
 885:Middlewares/ST/STM32_USB_Device_Library/Class/HID/Src/usbd_hid.c ****     Values between 1..16 are allowed. Values correspond to interval 
 886:Middlewares/ST/STM32_USB_Device_Library/Class/HID/Src/usbd_hid.c ****     of 2 ^ (bInterval-1). This option (8 ms, corresponds to HID_HS_BINTERVAL */
 887:Middlewares/ST/STM32_USB_Device_Library/Class/HID/Src/usbd_hid.c ****     polling_interval = (((1 <<(HID_HS_BINTERVAL - 1)))/8);
 1362              		.loc 1 887 0
 1363 0014 0823     		movs	r3, #8
 1364 0016 FB60     		str	r3, [r7, #12]
 1365 0018 01E0     		b	.L36
 1366              	.L35:
 888:Middlewares/ST/STM32_USB_Device_Library/Class/HID/Src/usbd_hid.c ****   }
 889:Middlewares/ST/STM32_USB_Device_Library/Class/HID/Src/usbd_hid.c ****   else   /* LOW and FULL-speed endpoints */
 890:Middlewares/ST/STM32_USB_Device_Library/Class/HID/Src/usbd_hid.c ****   {
 891:Middlewares/ST/STM32_USB_Device_Library/Class/HID/Src/usbd_hid.c ****     /* Sets the data transfer polling interval for low and full 
 892:Middlewares/ST/STM32_USB_Device_Library/Class/HID/Src/usbd_hid.c ****     speed transfers */
 893:Middlewares/ST/STM32_USB_Device_Library/Class/HID/Src/usbd_hid.c ****     polling_interval =  HID_FS_BINTERVAL;
 1367              		.loc 1 893 0
 1368 001a 0A23     		movs	r3, #10
 1369 001c FB60     		str	r3, [r7, #12]
 1370              	.L36:
 894:Middlewares/ST/STM32_USB_Device_Library/Class/HID/Src/usbd_hid.c ****   }
 895:Middlewares/ST/STM32_USB_Device_Library/Class/HID/Src/usbd_hid.c ****   
 896:Middlewares/ST/STM32_USB_Device_Library/Class/HID/Src/usbd_hid.c ****   return ((uint32_t)(polling_interval));
 1371              		.loc 1 896 0
 1372 001e FB68     		ldr	r3, [r7, #12]
 897:Middlewares/ST/STM32_USB_Device_Library/Class/HID/Src/usbd_hid.c **** }
 1373              		.loc 1 897 0
 1374 0020 1846     		mov	r0, r3
 1375 0022 1437     		adds	r7, r7, #20
 1376              	.LCFI23:
 1377              		.cfi_def_cfa_offset 4
 1378 0024 BD46     		mov	sp, r7
 1379              	.LCFI24:
 1380              		.cfi_def_cfa_register 13
 1381              		@ sp needed
 1382 0026 80BC     		pop	{r7}
 1383              	.LCFI25:
 1384              		.cfi_restore 7
 1385              		.cfi_def_cfa_offset 0
 1386 0028 7047     		bx	lr
 1387              		.cfi_endproc
 1388              	.LFE70:
 1390              		.section	.text.USBD_HID_GetCfgDesc,"ax",%progbits
 1391              		.align	1
 1392              		.syntax unified
 1393              		.thumb
 1394              		.thumb_func
 1395              		.fpu softvfp
 1397              	USBD_HID_GetCfgDesc:
 1398              	.LFB71:
 898:Middlewares/ST/STM32_USB_Device_Library/Class/HID/Src/usbd_hid.c **** 
 899:Middlewares/ST/STM32_USB_Device_Library/Class/HID/Src/usbd_hid.c **** /**
 900:Middlewares/ST/STM32_USB_Device_Library/Class/HID/Src/usbd_hid.c ****   * @brief  USBD_HID_GetCfgDesc 
 901:Middlewares/ST/STM32_USB_Device_Library/Class/HID/Src/usbd_hid.c ****   *         return configuration descriptor
 902:Middlewares/ST/STM32_USB_Device_Library/Class/HID/Src/usbd_hid.c ****   * @param  speed : current device speed
ARM GAS  /tmp/cckByxZ4.s 			page 41


 903:Middlewares/ST/STM32_USB_Device_Library/Class/HID/Src/usbd_hid.c ****   * @param  length : pointer data length
 904:Middlewares/ST/STM32_USB_Device_Library/Class/HID/Src/usbd_hid.c ****   * @retval pointer to descriptor buffer
 905:Middlewares/ST/STM32_USB_Device_Library/Class/HID/Src/usbd_hid.c ****   */
 906:Middlewares/ST/STM32_USB_Device_Library/Class/HID/Src/usbd_hid.c **** static uint8_t  *USBD_HID_GetCfgDesc (uint16_t *length)
 907:Middlewares/ST/STM32_USB_Device_Library/Class/HID/Src/usbd_hid.c **** {
 1399              		.loc 1 907 0
 1400              		.cfi_startproc
 1401              		@ args = 0, pretend = 0, frame = 8
 1402              		@ frame_needed = 1, uses_anonymous_args = 0
 1403              		@ link register save eliminated.
 1404 0000 80B4     		push	{r7}
 1405              	.LCFI26:
 1406              		.cfi_def_cfa_offset 4
 1407              		.cfi_offset 7, -4
 1408 0002 83B0     		sub	sp, sp, #12
 1409              	.LCFI27:
 1410              		.cfi_def_cfa_offset 16
 1411 0004 00AF     		add	r7, sp, #0
 1412              	.LCFI28:
 1413              		.cfi_def_cfa_register 7
 1414 0006 7860     		str	r0, [r7, #4]
 908:Middlewares/ST/STM32_USB_Device_Library/Class/HID/Src/usbd_hid.c **** 
 909:Middlewares/ST/STM32_USB_Device_Library/Class/HID/Src/usbd_hid.c ****   *length = sizeof (USBD_HID_CfgDesc);
 1415              		.loc 1 909 0
 1416 0008 7B68     		ldr	r3, [r7, #4]
 1417 000a 2922     		movs	r2, #41
 1418 000c 1A80     		strh	r2, [r3]	@ movhi
 910:Middlewares/ST/STM32_USB_Device_Library/Class/HID/Src/usbd_hid.c ****   return USBD_HID_CfgDesc;
 1419              		.loc 1 910 0
 1420 000e 034B     		ldr	r3, .L40
 911:Middlewares/ST/STM32_USB_Device_Library/Class/HID/Src/usbd_hid.c **** }
 1421              		.loc 1 911 0
 1422 0010 1846     		mov	r0, r3
 1423 0012 0C37     		adds	r7, r7, #12
 1424              	.LCFI29:
 1425              		.cfi_def_cfa_offset 4
 1426 0014 BD46     		mov	sp, r7
 1427              	.LCFI30:
 1428              		.cfi_def_cfa_register 13
 1429              		@ sp needed
 1430 0016 80BC     		pop	{r7}
 1431              	.LCFI31:
 1432              		.cfi_restore 7
 1433              		.cfi_def_cfa_offset 0
 1434 0018 7047     		bx	lr
 1435              	.L41:
 1436 001a 00BF     		.align	2
 1437              	.L40:
 1438 001c 00000000 		.word	USBD_HID_CfgDesc
 1439              		.cfi_endproc
 1440              	.LFE71:
 1442              		.section	.text.USBD_HID_EP0_RxReady,"ax",%progbits
 1443              		.align	1
 1444              		.syntax unified
 1445              		.thumb
 1446              		.thumb_func
 1447              		.fpu softvfp
ARM GAS  /tmp/cckByxZ4.s 			page 42


 1449              	USBD_HID_EP0_RxReady:
 1450              	.LFB72:
 912:Middlewares/ST/STM32_USB_Device_Library/Class/HID/Src/usbd_hid.c **** 
 913:Middlewares/ST/STM32_USB_Device_Library/Class/HID/Src/usbd_hid.c **** 
 914:Middlewares/ST/STM32_USB_Device_Library/Class/HID/Src/usbd_hid.c **** /**
 915:Middlewares/ST/STM32_USB_Device_Library/Class/HID/Src/usbd_hid.c ****   * @brief  USBD_HID_EP0_RxReady
 916:Middlewares/ST/STM32_USB_Device_Library/Class/HID/Src/usbd_hid.c ****   *         data reception finished on EP0
 917:Middlewares/ST/STM32_USB_Device_Library/Class/HID/Src/usbd_hid.c ****   * @param  pdev: device instance
 918:Middlewares/ST/STM32_USB_Device_Library/Class/HID/Src/usbd_hid.c ****   * @retval status
 919:Middlewares/ST/STM32_USB_Device_Library/Class/HID/Src/usbd_hid.c ****   */
 920:Middlewares/ST/STM32_USB_Device_Library/Class/HID/Src/usbd_hid.c **** static uint8_t  USBD_HID_EP0_RxReady(USBD_HandleTypeDef *pdev )
 921:Middlewares/ST/STM32_USB_Device_Library/Class/HID/Src/usbd_hid.c **** {
 1451              		.loc 1 921 0
 1452              		.cfi_startproc
 1453              		@ args = 0, pretend = 0, frame = 8
 1454              		@ frame_needed = 1, uses_anonymous_args = 0
 1455              		@ link register save eliminated.
 1456 0000 80B4     		push	{r7}
 1457              	.LCFI32:
 1458              		.cfi_def_cfa_offset 4
 1459              		.cfi_offset 7, -4
 1460 0002 83B0     		sub	sp, sp, #12
 1461              	.LCFI33:
 1462              		.cfi_def_cfa_offset 16
 1463 0004 00AF     		add	r7, sp, #0
 1464              	.LCFI34:
 1465              		.cfi_def_cfa_register 7
 1466 0006 7860     		str	r0, [r7, #4]
 922:Middlewares/ST/STM32_USB_Device_Library/Class/HID/Src/usbd_hid.c **** #ifdef DEBUGENABLE_USB
 923:Middlewares/ST/STM32_USB_Device_Library/Class/HID/Src/usbd_hid.c **** 	// /*TOGGLE THE trigger pin needed by logic analyzer*/
 924:Middlewares/ST/STM32_USB_Device_Library/Class/HID/Src/usbd_hid.c **** 	// HAL_GPIO_TogglePin(GPIOA, PIN_LogicAnalyzerTriggerOutOrClassReport);
 925:Middlewares/ST/STM32_USB_Device_Library/Class/HID/Src/usbd_hid.c **** 	// HAL_GPIO_TogglePin(GPIOA, PIN_LogicAnalyzerTriggerOutOrClassReport);
 926:Middlewares/ST/STM32_USB_Device_Library/Class/HID/Src/usbd_hid.c **** 	// HAL_GPIO_TogglePin(GPIOA, PIN_LogicAnalyzerTriggerOutOrClassReport);
 927:Middlewares/ST/STM32_USB_Device_Library/Class/HID/Src/usbd_hid.c **** #endif
 928:Middlewares/ST/STM32_USB_Device_Library/Class/HID/Src/usbd_hid.c **** 
 929:Middlewares/ST/STM32_USB_Device_Library/Class/HID/Src/usbd_hid.c **** 	/*check first byte: report is (should be the same as MsB of wValue received in previous setup pack
 930:Middlewares/ST/STM32_USB_Device_Library/Class/HID/Src/usbd_hid.c **** 	if ( 0x03 == usbd_hid_EP0rxBuf[0] ) //&& (0x0303 == classReqHistory))
 1467              		.loc 1 930 0
 1468 0008 0B4B     		ldr	r3, .L46
 1469 000a 1B78     		ldrb	r3, [r3]	@ zero_extendqisi2
 1470 000c 032B     		cmp	r3, #3
 1471 000e 02D1     		bne	.L43
 931:Middlewares/ST/STM32_USB_Device_Library/Class/HID/Src/usbd_hid.c **** 	{//This is the data stage for "Create new effect report"
 932:Middlewares/ST/STM32_USB_Device_Library/Class/HID/Src/usbd_hid.c **** 		ausb_pidEvent = evCreateNewEffectDataStage;
 1472              		.loc 1 932 0
 1473 0010 0A4B     		ldr	r3, .L46+4
 1474 0012 0222     		movs	r2, #2
 1475 0014 1A70     		strb	r2, [r3]
 1476              	.L43:
 933:Middlewares/ST/STM32_USB_Device_Library/Class/HID/Src/usbd_hid.c **** 	}
 934:Middlewares/ST/STM32_USB_Device_Library/Class/HID/Src/usbd_hid.c **** 
 935:Middlewares/ST/STM32_USB_Device_Library/Class/HID/Src/usbd_hid.c **** 	if ( 0x05 ==  usbd_hid_EP0rxBuf[0] )
 1477              		.loc 1 935 0
 1478 0016 084B     		ldr	r3, .L46
 1479 0018 1B78     		ldrb	r3, [r3]	@ zero_extendqisi2
 1480 001a 052B     		cmp	r3, #5
 1481 001c 06D1     		bne	.L44
ARM GAS  /tmp/cckByxZ4.s 			page 43


 936:Middlewares/ST/STM32_USB_Device_Library/Class/HID/Src/usbd_hid.c **** 	{/*data stage for free efect*/
 937:Middlewares/ST/STM32_USB_Device_Library/Class/HID/Src/usbd_hid.c **** 		if ( 1 == usbd_hid_EP0rxBuf[0] )
 1482              		.loc 1 937 0
 1483 001e 064B     		ldr	r3, .L46
 1484 0020 1B78     		ldrb	r3, [r3]	@ zero_extendqisi2
 1485 0022 012B     		cmp	r3, #1
 1486 0024 02D1     		bne	.L44
 938:Middlewares/ST/STM32_USB_Device_Library/Class/HID/Src/usbd_hid.c **** 		{/*effect index is 1*/
 939:Middlewares/ST/STM32_USB_Device_Library/Class/HID/Src/usbd_hid.c **** 			ausb_pidEvent = evFreeEffectSetReportDataStage;
 1487              		.loc 1 939 0
 1488 0026 054B     		ldr	r3, .L46+4
 1489 0028 0822     		movs	r2, #8
 1490 002a 1A70     		strb	r2, [r3]
 1491              	.L44:
 940:Middlewares/ST/STM32_USB_Device_Library/Class/HID/Src/usbd_hid.c **** 		}/*only effect index 1 - constant force is supported*/
 941:Middlewares/ST/STM32_USB_Device_Library/Class/HID/Src/usbd_hid.c **** 	}
 942:Middlewares/ST/STM32_USB_Device_Library/Class/HID/Src/usbd_hid.c **** 
 943:Middlewares/ST/STM32_USB_Device_Library/Class/HID/Src/usbd_hid.c **** 	return USBD_OK;
 1492              		.loc 1 943 0
 1493 002c 0023     		movs	r3, #0
 944:Middlewares/ST/STM32_USB_Device_Library/Class/HID/Src/usbd_hid.c **** }
 1494              		.loc 1 944 0
 1495 002e 1846     		mov	r0, r3
 1496 0030 0C37     		adds	r7, r7, #12
 1497              	.LCFI35:
 1498              		.cfi_def_cfa_offset 4
 1499 0032 BD46     		mov	sp, r7
 1500              	.LCFI36:
 1501              		.cfi_def_cfa_register 13
 1502              		@ sp needed
 1503 0034 80BC     		pop	{r7}
 1504              	.LCFI37:
 1505              		.cfi_restore 7
 1506              		.cfi_def_cfa_offset 0
 1507 0036 7047     		bx	lr
 1508              	.L47:
 1509              		.align	2
 1510              	.L46:
 1511 0038 00000000 		.word	usbd_hid_EP0rxBuf
 1512 003c 00000000 		.word	ausb_pidEvent
 1513              		.cfi_endproc
 1514              	.LFE72:
 1516              		.section	.text.USBD_HID_DataIn,"ax",%progbits
 1517              		.align	1
 1518              		.syntax unified
 1519              		.thumb
 1520              		.thumb_func
 1521              		.fpu softvfp
 1523              	USBD_HID_DataIn:
 1524              	.LFB73:
 945:Middlewares/ST/STM32_USB_Device_Library/Class/HID/Src/usbd_hid.c **** 
 946:Middlewares/ST/STM32_USB_Device_Library/Class/HID/Src/usbd_hid.c **** /**
 947:Middlewares/ST/STM32_USB_Device_Library/Class/HID/Src/usbd_hid.c ****   * @brief  USBD_HID_DataIn
 948:Middlewares/ST/STM32_USB_Device_Library/Class/HID/Src/usbd_hid.c ****   *         handle data IN Stage
 949:Middlewares/ST/STM32_USB_Device_Library/Class/HID/Src/usbd_hid.c ****   * @param  pdev: device instance
 950:Middlewares/ST/STM32_USB_Device_Library/Class/HID/Src/usbd_hid.c ****   * @param  epnum: endpoint index
 951:Middlewares/ST/STM32_USB_Device_Library/Class/HID/Src/usbd_hid.c ****   * @retval status
ARM GAS  /tmp/cckByxZ4.s 			page 44


 952:Middlewares/ST/STM32_USB_Device_Library/Class/HID/Src/usbd_hid.c ****   */
 953:Middlewares/ST/STM32_USB_Device_Library/Class/HID/Src/usbd_hid.c **** static uint8_t  USBD_HID_DataIn (USBD_HandleTypeDef *pdev, 
 954:Middlewares/ST/STM32_USB_Device_Library/Class/HID/Src/usbd_hid.c ****                               uint8_t epnum)
 955:Middlewares/ST/STM32_USB_Device_Library/Class/HID/Src/usbd_hid.c **** {
 1525              		.loc 1 955 0
 1526              		.cfi_startproc
 1527              		@ args = 0, pretend = 0, frame = 8
 1528              		@ frame_needed = 1, uses_anonymous_args = 0
 1529              		@ link register save eliminated.
 1530 0000 80B4     		push	{r7}
 1531              	.LCFI38:
 1532              		.cfi_def_cfa_offset 4
 1533              		.cfi_offset 7, -4
 1534 0002 83B0     		sub	sp, sp, #12
 1535              	.LCFI39:
 1536              		.cfi_def_cfa_offset 16
 1537 0004 00AF     		add	r7, sp, #0
 1538              	.LCFI40:
 1539              		.cfi_def_cfa_register 7
 1540 0006 7860     		str	r0, [r7, #4]
 1541 0008 0B46     		mov	r3, r1
 1542 000a FB70     		strb	r3, [r7, #3]
 956:Middlewares/ST/STM32_USB_Device_Library/Class/HID/Src/usbd_hid.c ****   /* Ensure that the FIFO is empty before a new transfer, this condition could 
 957:Middlewares/ST/STM32_USB_Device_Library/Class/HID/Src/usbd_hid.c ****   be caused by  a new transfer before the end of the previous transfer */
 958:Middlewares/ST/STM32_USB_Device_Library/Class/HID/Src/usbd_hid.c ****   ((USBD_HID_HandleTypeDef *)pdev->pClassData)->state = HID_IDLE;
 1543              		.loc 1 958 0
 1544 000c 7B68     		ldr	r3, [r7, #4]
 1545 000e D3F81832 		ldr	r3, [r3, #536]
 1546 0012 0022     		movs	r2, #0
 1547 0014 1A73     		strb	r2, [r3, #12]
 959:Middlewares/ST/STM32_USB_Device_Library/Class/HID/Src/usbd_hid.c **** 
 960:Middlewares/ST/STM32_USB_Device_Library/Class/HID/Src/usbd_hid.c **** 
 961:Middlewares/ST/STM32_USB_Device_Library/Class/HID/Src/usbd_hid.c ****   if ( 0u != newDeviceDataAvailable )
 1548              		.loc 1 961 0
 1549 0016 064B     		ldr	r3, .L51
 1550 0018 1B78     		ldrb	r3, [r3]	@ zero_extendqisi2
 1551 001a 002B     		cmp	r3, #0
 1552 001c 02D0     		beq	.L49
 962:Middlewares/ST/STM32_USB_Device_Library/Class/HID/Src/usbd_hid.c ****   {
 963:Middlewares/ST/STM32_USB_Device_Library/Class/HID/Src/usbd_hid.c **** 	newDeviceDataAvailable = 0u; 
 1553              		.loc 1 963 0
 1554 001e 044B     		ldr	r3, .L51
 1555 0020 0022     		movs	r2, #0
 1556 0022 1A70     		strb	r2, [r3]
 1557              	.L49:
 964:Middlewares/ST/STM32_USB_Device_Library/Class/HID/Src/usbd_hid.c **** #ifdef DEBUGENABLE_USB
 965:Middlewares/ST/STM32_USB_Device_Library/Class/HID/Src/usbd_hid.c ****   	/*TOGGLE THE trigger pin needed by logic analyzer*/
 966:Middlewares/ST/STM32_USB_Device_Library/Class/HID/Src/usbd_hid.c ****   	HAL_GPIO_TogglePin(GPIOA, PIN_LogicAnalyzerTriggerInReport);
 967:Middlewares/ST/STM32_USB_Device_Library/Class/HID/Src/usbd_hid.c **** #endif
 968:Middlewares/ST/STM32_USB_Device_Library/Class/HID/Src/usbd_hid.c ****   }
 969:Middlewares/ST/STM32_USB_Device_Library/Class/HID/Src/usbd_hid.c **** 
 970:Middlewares/ST/STM32_USB_Device_Library/Class/HID/Src/usbd_hid.c ****   return USBD_OK;
 1558              		.loc 1 970 0
 1559 0024 0023     		movs	r3, #0
 971:Middlewares/ST/STM32_USB_Device_Library/Class/HID/Src/usbd_hid.c **** }
 1560              		.loc 1 971 0
 1561 0026 1846     		mov	r0, r3
ARM GAS  /tmp/cckByxZ4.s 			page 45


 1562 0028 0C37     		adds	r7, r7, #12
 1563              	.LCFI41:
 1564              		.cfi_def_cfa_offset 4
 1565 002a BD46     		mov	sp, r7
 1566              	.LCFI42:
 1567              		.cfi_def_cfa_register 13
 1568              		@ sp needed
 1569 002c 80BC     		pop	{r7}
 1570              	.LCFI43:
 1571              		.cfi_restore 7
 1572              		.cfi_def_cfa_offset 0
 1573 002e 7047     		bx	lr
 1574              	.L52:
 1575              		.align	2
 1576              	.L51:
 1577 0030 00000000 		.word	newDeviceDataAvailable
 1578              		.cfi_endproc
 1579              	.LFE73:
 1581              		.section	.text.USBD_HID_DataOut,"ax",%progbits
 1582              		.align	1
 1583              		.syntax unified
 1584              		.thumb
 1585              		.thumb_func
 1586              		.fpu softvfp
 1588              	USBD_HID_DataOut:
 1589              	.LFB74:
 972:Middlewares/ST/STM32_USB_Device_Library/Class/HID/Src/usbd_hid.c **** 
 973:Middlewares/ST/STM32_USB_Device_Library/Class/HID/Src/usbd_hid.c **** /**
 974:Middlewares/ST/STM32_USB_Device_Library/Class/HID/Src/usbd_hid.c ****   * @brief  USBD_HID_DataOut
 975:Middlewares/ST/STM32_USB_Device_Library/Class/HID/Src/usbd_hid.c ****   *         handle data Out Stage (MiPa: from PC to UsbDevice)
 976:Middlewares/ST/STM32_USB_Device_Library/Class/HID/Src/usbd_hid.c ****   * @param  pdev: device instance
 977:Middlewares/ST/STM32_USB_Device_Library/Class/HID/Src/usbd_hid.c ****   * @param  epnum: endpoint index
 978:Middlewares/ST/STM32_USB_Device_Library/Class/HID/Src/usbd_hid.c ****   * @retval status
 979:Middlewares/ST/STM32_USB_Device_Library/Class/HID/Src/usbd_hid.c ****   */
 980:Middlewares/ST/STM32_USB_Device_Library/Class/HID/Src/usbd_hid.c **** static uint8_t  USBD_HID_DataOut(USBD_HandleTypeDef *pdev , uint8_t epnum)
 981:Middlewares/ST/STM32_USB_Device_Library/Class/HID/Src/usbd_hid.c **** {
 1590              		.loc 1 981 0
 1591              		.cfi_startproc
 1592              		@ args = 0, pretend = 0, frame = 8
 1593              		@ frame_needed = 1, uses_anonymous_args = 0
 1594 0000 80B5     		push	{r7, lr}
 1595              	.LCFI44:
 1596              		.cfi_def_cfa_offset 8
 1597              		.cfi_offset 7, -8
 1598              		.cfi_offset 14, -4
 1599 0002 82B0     		sub	sp, sp, #8
 1600              	.LCFI45:
 1601              		.cfi_def_cfa_offset 16
 1602 0004 00AF     		add	r7, sp, #0
 1603              	.LCFI46:
 1604              		.cfi_def_cfa_register 7
 1605 0006 7860     		str	r0, [r7, #4]
 1606 0008 0B46     		mov	r3, r1
 1607 000a FB70     		strb	r3, [r7, #3]
 982:Middlewares/ST/STM32_USB_Device_Library/Class/HID/Src/usbd_hid.c **** 	/*TOGGLE THE trigger pin needed by logic analyzer*/
 983:Middlewares/ST/STM32_USB_Device_Library/Class/HID/Src/usbd_hid.c **** #ifdef DEBUGENABLE_USB
 984:Middlewares/ST/STM32_USB_Device_Library/Class/HID/Src/usbd_hid.c **** 	HAL_GPIO_TogglePin(GPIOA, PIN_LogicAnalyzerTriggerOutOrClassReport);
ARM GAS  /tmp/cckByxZ4.s 			page 46


 985:Middlewares/ST/STM32_USB_Device_Library/Class/HID/Src/usbd_hid.c **** #endif
 986:Middlewares/ST/STM32_USB_Device_Library/Class/HID/Src/usbd_hid.c **** 
 987:Middlewares/ST/STM32_USB_Device_Library/Class/HID/Src/usbd_hid.c **** 	/*data should be already available in usbd_hid_EP1rxBuf*/
 988:Middlewares/ST/STM32_USB_Device_Library/Class/HID/Src/usbd_hid.c **** 
 989:Middlewares/ST/STM32_USB_Device_Library/Class/HID/Src/usbd_hid.c **** 	if ( 1 == epnum )
 1608              		.loc 1 989 0
 1609 000c FB78     		ldrb	r3, [r7, #3]	@ zero_extendqisi2
 1610 000e 012B     		cmp	r3, #1
 1611 0010 40F0E180 		bne	.L75
 990:Middlewares/ST/STM32_USB_Device_Library/Class/HID/Src/usbd_hid.c **** 	{/*interrupt endpoint 1*/
 991:Middlewares/ST/STM32_USB_Device_Library/Class/HID/Src/usbd_hid.c **** 
 992:Middlewares/ST/STM32_USB_Device_Library/Class/HID/Src/usbd_hid.c **** 		switch (usbd_hid_EP1rxBuf[0])		/*at index 0 is the Report ID*/
 1612              		.loc 1 992 0
 1613 0014 784B     		ldr	r3, .L78
 1614 0016 1B78     		ldrb	r3, [r3]	@ zero_extendqisi2
 1615 0018 013B     		subs	r3, r3, #1
 1616 001a 042B     		cmp	r3, #4
 1617 001c 00F2DD80 		bhi	.L76
 1618 0020 01A2     		adr	r2, .L57
 1619 0022 52F823F0 		ldr	pc, [r2, r3, lsl #2]
 1620 0026 00BF     		.p2align 2
 1621              	.L57:
 1622 0028 3D000000 		.word	.L56+1
 1623 002c DB010000 		.word	.L76+1
 1624 0030 93000000 		.word	.L58+1
 1625 0034 BB000000 		.word	.L59+1
 1626 0038 15010000 		.word	.L60+1
 1627              		.p2align 1
 1628              	.L56:
 993:Middlewares/ST/STM32_USB_Device_Library/Class/HID/Src/usbd_hid.c **** 		{
 994:Middlewares/ST/STM32_USB_Device_Library/Class/HID/Src/usbd_hid.c **** 		case 1: /* Set Effect  Report */
 995:Middlewares/ST/STM32_USB_Device_Library/Class/HID/Src/usbd_hid.c **** 		{
 996:Middlewares/ST/STM32_USB_Device_Library/Class/HID/Src/usbd_hid.c **** 			/*save effect index (should be 1: only one effect is stored - the constant force effect)*/
 997:Middlewares/ST/STM32_USB_Device_Library/Class/HID/Src/usbd_hid.c **** 			ausb_OperationReportEffectIdx = usbd_hid_EP1rxBuf[1];
 1629              		.loc 1 997 0
 1630 003c 6E4B     		ldr	r3, .L78
 1631 003e 5A78     		ldrb	r2, [r3, #1]	@ zero_extendqisi2
 1632 0040 6E4B     		ldr	r3, .L78+4
 1633 0042 1A70     		strb	r2, [r3]
 998:Middlewares/ST/STM32_USB_Device_Library/Class/HID/Src/usbd_hid.c **** 
 999:Middlewares/ST/STM32_USB_Device_Library/Class/HID/Src/usbd_hid.c **** 			/*check effect type: should be 1 - Constant Force*/
1000:Middlewares/ST/STM32_USB_Device_Library/Class/HID/Src/usbd_hid.c **** 			if ( 1 == usbd_hid_EP1rxBuf[2] )
 1634              		.loc 1 1000 0
 1635 0044 6C4B     		ldr	r3, .L78
 1636 0046 9B78     		ldrb	r3, [r3, #2]	@ zero_extendqisi2
 1637 0048 012B     		cmp	r3, #1
 1638 004a 40F0C880 		bne	.L77
1001:Middlewares/ST/STM32_USB_Device_Library/Class/HID/Src/usbd_hid.c **** 			{/*all OK*/
1002:Middlewares/ST/STM32_USB_Device_Library/Class/HID/Src/usbd_hid.c **** 				/*update relevant fields in the effect structure*/
1003:Middlewares/ST/STM32_USB_Device_Library/Class/HID/Src/usbd_hid.c **** 				ausb_effectData.duration = ((uint16_t)(usbd_hid_EP1rxBuf[4])<<8) | usbd_hid_EP1rxBuf[3]; /*16 b
 1639              		.loc 1 1003 0
 1640 004e 6A4B     		ldr	r3, .L78
 1641 0050 1B79     		ldrb	r3, [r3, #4]	@ zero_extendqisi2
 1642 0052 1B02     		lsls	r3, r3, #8
 1643 0054 1AB2     		sxth	r2, r3
 1644 0056 684B     		ldr	r3, .L78
 1645 0058 DB78     		ldrb	r3, [r3, #3]	@ zero_extendqisi2
ARM GAS  /tmp/cckByxZ4.s 			page 47


 1646 005a 1BB2     		sxth	r3, r3
 1647 005c 1343     		orrs	r3, r3, r2
 1648 005e 1BB2     		sxth	r3, r3
 1649 0060 9AB2     		uxth	r2, r3
 1650 0062 674B     		ldr	r3, .L78+8
 1651 0064 1A80     		strh	r2, [r3]	@ movhi
1004:Middlewares/ST/STM32_USB_Device_Library/Class/HID/Src/usbd_hid.c **** 				/*[5,6] trigger repeat interval (not used)*/
1005:Middlewares/ST/STM32_USB_Device_Library/Class/HID/Src/usbd_hid.c **** 				/*[7,8] sample period (not used)*/
1006:Middlewares/ST/STM32_USB_Device_Library/Class/HID/Src/usbd_hid.c **** 				ausb_effectData.gain = usbd_hid_EP1rxBuf[9]; /*normalized value: 0-100%*/
 1652              		.loc 1 1006 0
 1653 0066 644B     		ldr	r3, .L78
 1654 0068 5A7A     		ldrb	r2, [r3, #9]	@ zero_extendqisi2
 1655 006a 654B     		ldr	r3, .L78+8
 1656 006c 9A70     		strb	r2, [r3, #2]
1007:Middlewares/ST/STM32_USB_Device_Library/Class/HID/Src/usbd_hid.c **** 				/*[10] trigger button (not used)*/
1008:Middlewares/ST/STM32_USB_Device_Library/Class/HID/Src/usbd_hid.c **** 				/*[11] axes enable(must be X axis because other axis is not used for PID (we don't check it)*/
1009:Middlewares/ST/STM32_USB_Device_Library/Class/HID/Src/usbd_hid.c **** 				ausb_effectData.direction = usbd_hid_EP1rxBuf[12];  /*should be normalized value: -100..0..100%
 1657              		.loc 1 1009 0
 1658 006e 624B     		ldr	r3, .L78
 1659 0070 1B7B     		ldrb	r3, [r3, #12]	@ zero_extendqisi2
 1660 0072 5AB2     		sxtb	r2, r3
 1661 0074 624B     		ldr	r3, .L78+8
 1662 0076 DA70     		strb	r2, [r3, #3]
1010:Middlewares/ST/STM32_USB_Device_Library/Class/HID/Src/usbd_hid.c **** 				/*Receive_Buffer[13]; direction enable 1 byte - MSBit is a flag, the other bits are not used*/
1011:Middlewares/ST/STM32_USB_Device_Library/Class/HID/Src/usbd_hid.c **** 				ausb_effectData.startDelay = ((uint16_t)(usbd_hid_EP1rxBuf[15])<<8) | usbd_hid_EP1rxBuf[14]; /*
 1663              		.loc 1 1011 0
 1664 0078 5F4B     		ldr	r3, .L78
 1665 007a DB7B     		ldrb	r3, [r3, #15]	@ zero_extendqisi2
 1666 007c 1B02     		lsls	r3, r3, #8
 1667 007e 1AB2     		sxth	r2, r3
 1668 0080 5D4B     		ldr	r3, .L78
 1669 0082 9B7B     		ldrb	r3, [r3, #14]	@ zero_extendqisi2
 1670 0084 1BB2     		sxth	r3, r3
 1671 0086 1343     		orrs	r3, r3, r2
 1672 0088 1BB2     		sxth	r3, r3
 1673 008a 9AB2     		uxth	r2, r3
 1674 008c 5C4B     		ldr	r3, .L78+8
 1675 008e 9A80     		strh	r2, [r3, #4]	@ movhi
1012:Middlewares/ST/STM32_USB_Device_Library/Class/HID/Src/usbd_hid.c **** 				/*Receive_Buffer[16,17]; ignore this field because for constant force effect is clear that firs
1013:Middlewares/ST/STM32_USB_Device_Library/Class/HID/Src/usbd_hid.c **** 				/*Receive_Buffer[18,19]; ignore this field because for constant force effect is clear that seco
1014:Middlewares/ST/STM32_USB_Device_Library/Class/HID/Src/usbd_hid.c **** 			}else{/*no actions: effect type not OK*/}
1015:Middlewares/ST/STM32_USB_Device_Library/Class/HID/Src/usbd_hid.c **** 
1016:Middlewares/ST/STM32_USB_Device_Library/Class/HID/Src/usbd_hid.c **** 		}break;
 1676              		.loc 1 1016 0
 1677 0090 A5E0     		b	.L77
 1678              	.L58:
1017:Middlewares/ST/STM32_USB_Device_Library/Class/HID/Src/usbd_hid.c **** 		// case 2: /* Envelope report */
1018:Middlewares/ST/STM32_USB_Device_Library/Class/HID/Src/usbd_hid.c **** 		// {
1019:Middlewares/ST/STM32_USB_Device_Library/Class/HID/Src/usbd_hid.c **** 		// 	if ( 1 == Receive_Buffer[1] )
1020:Middlewares/ST/STM32_USB_Device_Library/Class/HID/Src/usbd_hid.c **** 		// 	{/*Block Index OK (now is always 1)*/
1021:Middlewares/ST/STM32_USB_Device_Library/Class/HID/Src/usbd_hid.c **** 		// 		/*save the envelope values*/
1022:Middlewares/ST/STM32_USB_Device_Library/Class/HID/Src/usbd_hid.c **** 		// 		ausb_effectData.envelopeAttackLevel = Receive_Buffer[2];
1023:Middlewares/ST/STM32_USB_Device_Library/Class/HID/Src/usbd_hid.c **** 		// 		ausb_effectData.envelopeFadeLevel = Receive_Buffer[3];
1024:Middlewares/ST/STM32_USB_Device_Library/Class/HID/Src/usbd_hid.c **** 		// 		ausb_effectData.envelopeAttackTime = ( (uint16_t)Receive_Buffer[5] << 8 ) | Receive_Buffer[4
1025:Middlewares/ST/STM32_USB_Device_Library/Class/HID/Src/usbd_hid.c **** 		// 		ausb_effectData.envelopeFadeTime = ( (uint16_t)Receive_Buffer[7] << 8 ) | Receive_Buffer[6];
1026:Middlewares/ST/STM32_USB_Device_Library/Class/HID/Src/usbd_hid.c **** 		// 	}else{/*unsupported index*/}
1027:Middlewares/ST/STM32_USB_Device_Library/Class/HID/Src/usbd_hid.c **** 
ARM GAS  /tmp/cckByxZ4.s 			page 48


1028:Middlewares/ST/STM32_USB_Device_Library/Class/HID/Src/usbd_hid.c **** 		// }break;
1029:Middlewares/ST/STM32_USB_Device_Library/Class/HID/Src/usbd_hid.c **** 		case 3: /* Set Constant Force Report */
1030:Middlewares/ST/STM32_USB_Device_Library/Class/HID/Src/usbd_hid.c **** 		{
1031:Middlewares/ST/STM32_USB_Device_Library/Class/HID/Src/usbd_hid.c **** 			/*save the magnitude value*/
1032:Middlewares/ST/STM32_USB_Device_Library/Class/HID/Src/usbd_hid.c **** 			ausb_effectData.constantForceMagnitude = (usbd_hid_EP1rxBuf[3] << 8) | usbd_hid_EP1rxBuf[2];
 1679              		.loc 1 1032 0
 1680 0092 594B     		ldr	r3, .L78
 1681 0094 DB78     		ldrb	r3, [r3, #3]	@ zero_extendqisi2
 1682 0096 1B02     		lsls	r3, r3, #8
 1683 0098 1AB2     		sxth	r2, r3
 1684 009a 574B     		ldr	r3, .L78
 1685 009c 9B78     		ldrb	r3, [r3, #2]	@ zero_extendqisi2
 1686 009e 1BB2     		sxth	r3, r3
 1687 00a0 1343     		orrs	r3, r3, r2
 1688 00a2 1AB2     		sxth	r2, r3
 1689 00a4 564B     		ldr	r3, .L78+8
 1690 00a6 9A81     		strh	r2, [r3, #12]	@ movhi
1033:Middlewares/ST/STM32_USB_Device_Library/Class/HID/Src/usbd_hid.c **** 			ausb_flags |= AUSB_CONSTANT_FORCE_UPDATED;
 1691              		.loc 1 1033 0
 1692 00a8 564B     		ldr	r3, .L78+12
 1693 00aa 1B78     		ldrb	r3, [r3]
 1694 00ac DBB2     		uxtb	r3, r3
 1695 00ae 43F02003 		orr	r3, r3, #32
 1696 00b2 DAB2     		uxtb	r2, r3
 1697 00b4 534B     		ldr	r3, .L78+12
 1698 00b6 1A70     		strb	r2, [r3]
1034:Middlewares/ST/STM32_USB_Device_Library/Class/HID/Src/usbd_hid.c **** 		}break;
 1699              		.loc 1 1034 0
 1700 00b8 92E0     		b	.L54
 1701              	.L59:
1035:Middlewares/ST/STM32_USB_Device_Library/Class/HID/Src/usbd_hid.c **** 		case 4: /*Effect Operation Report */
1036:Middlewares/ST/STM32_USB_Device_Library/Class/HID/Src/usbd_hid.c **** 		{
1037:Middlewares/ST/STM32_USB_Device_Library/Class/HID/Src/usbd_hid.c **** 			ausb_flags |= AUSB_NEW_CONTROL_EVENT; //set flag
 1702              		.loc 1 1037 0
 1703 00ba 524B     		ldr	r3, .L78+12
 1704 00bc 1B78     		ldrb	r3, [r3]
 1705 00be DBB2     		uxtb	r3, r3
 1706 00c0 43F00103 		orr	r3, r3, #1
 1707 00c4 DAB2     		uxtb	r2, r3
 1708 00c6 4F4B     		ldr	r3, .L78+12
 1709 00c8 1A70     		strb	r2, [r3]
1038:Middlewares/ST/STM32_USB_Device_Library/Class/HID/Src/usbd_hid.c **** 
1039:Middlewares/ST/STM32_USB_Device_Library/Class/HID/Src/usbd_hid.c **** 			/*save effect index*/
1040:Middlewares/ST/STM32_USB_Device_Library/Class/HID/Src/usbd_hid.c **** 			ausb_OperationReportEffectIdx = usbd_hid_EP1rxBuf[1];
 1710              		.loc 1 1040 0
 1711 00ca 4B4B     		ldr	r3, .L78
 1712 00cc 5A78     		ldrb	r2, [r3, #1]	@ zero_extendqisi2
 1713 00ce 4B4B     		ldr	r3, .L78+4
 1714 00d0 1A70     		strb	r2, [r3]
1041:Middlewares/ST/STM32_USB_Device_Library/Class/HID/Src/usbd_hid.c **** 
1042:Middlewares/ST/STM32_USB_Device_Library/Class/HID/Src/usbd_hid.c **** 			/*check effect operation command byte; values are: 1-Start, 2-StartSolo, 3-Stop*/
1043:Middlewares/ST/STM32_USB_Device_Library/Class/HID/Src/usbd_hid.c **** 			if ( (1 == usbd_hid_EP1rxBuf[2]) || (2 == usbd_hid_EP1rxBuf[2]) )
 1715              		.loc 1 1043 0
 1716 00d2 494B     		ldr	r3, .L78
 1717 00d4 9B78     		ldrb	r3, [r3, #2]	@ zero_extendqisi2
 1718 00d6 012B     		cmp	r3, #1
 1719 00d8 03D0     		beq	.L62
ARM GAS  /tmp/cckByxZ4.s 			page 49


 1720              		.loc 1 1043 0 is_stmt 0 discriminator 1
 1721 00da 474B     		ldr	r3, .L78
 1722 00dc 9B78     		ldrb	r3, [r3, #2]	@ zero_extendqisi2
 1723 00de 022B     		cmp	r3, #2
 1724 00e0 0CD1     		bne	.L63
 1725              	.L62:
1044:Middlewares/ST/STM32_USB_Device_Library/Class/HID/Src/usbd_hid.c **** 			{/*Start effect or Start effect Solo (for now is the same because only one effect is active at a
1045:Middlewares/ST/STM32_USB_Device_Library/Class/HID/Src/usbd_hid.c **** 				ausb_pidStateFlags |= 0x01u;
 1726              		.loc 1 1045 0 is_stmt 1
 1727 00e2 494B     		ldr	r3, .L78+16
 1728 00e4 1B78     		ldrb	r3, [r3]
 1729 00e6 DBB2     		uxtb	r3, r3
 1730 00e8 43F00103 		orr	r3, r3, #1
 1731 00ec DAB2     		uxtb	r2, r3
 1732 00ee 464B     		ldr	r3, .L78+16
 1733 00f0 1A70     		strb	r2, [r3]
1046:Middlewares/ST/STM32_USB_Device_Library/Class/HID/Src/usbd_hid.c **** 				/*save the loop count*/
1047:Middlewares/ST/STM32_USB_Device_Library/Class/HID/Src/usbd_hid.c **** 				ausb_effectDataLoopCnt = usbd_hid_EP1rxBuf[3];
 1734              		.loc 1 1047 0
 1735 00f2 414B     		ldr	r3, .L78
 1736 00f4 DA78     		ldrb	r2, [r3, #3]	@ zero_extendqisi2
 1737 00f6 454B     		ldr	r3, .L78+20
 1738 00f8 1A70     		strb	r2, [r3]
1048:Middlewares/ST/STM32_USB_Device_Library/Class/HID/Src/usbd_hid.c **** 			}
1049:Middlewares/ST/STM32_USB_Device_Library/Class/HID/Src/usbd_hid.c **** 			else
1050:Middlewares/ST/STM32_USB_Device_Library/Class/HID/Src/usbd_hid.c **** 			{/*we stop the effect on any value different than 1 or 2 (normally: 3 - Stop effect)*/
1051:Middlewares/ST/STM32_USB_Device_Library/Class/HID/Src/usbd_hid.c **** 				ausb_pidStateFlags |= 0x02u;
1052:Middlewares/ST/STM32_USB_Device_Library/Class/HID/Src/usbd_hid.c **** 				ausb_effectDataLoopCnt = 0;
1053:Middlewares/ST/STM32_USB_Device_Library/Class/HID/Src/usbd_hid.c **** 			}
1054:Middlewares/ST/STM32_USB_Device_Library/Class/HID/Src/usbd_hid.c **** 
1055:Middlewares/ST/STM32_USB_Device_Library/Class/HID/Src/usbd_hid.c **** 		}break;
 1739              		.loc 1 1055 0
 1740 00fa 71E0     		b	.L54
 1741              	.L63:
1051:Middlewares/ST/STM32_USB_Device_Library/Class/HID/Src/usbd_hid.c **** 				ausb_effectDataLoopCnt = 0;
 1742              		.loc 1 1051 0
 1743 00fc 424B     		ldr	r3, .L78+16
 1744 00fe 1B78     		ldrb	r3, [r3]
 1745 0100 DBB2     		uxtb	r3, r3
 1746 0102 43F00203 		orr	r3, r3, #2
 1747 0106 DAB2     		uxtb	r2, r3
 1748 0108 3F4B     		ldr	r3, .L78+16
 1749 010a 1A70     		strb	r2, [r3]
1052:Middlewares/ST/STM32_USB_Device_Library/Class/HID/Src/usbd_hid.c **** 			}
 1750              		.loc 1 1052 0
 1751 010c 3F4B     		ldr	r3, .L78+20
 1752 010e 0022     		movs	r2, #0
 1753 0110 1A70     		strb	r2, [r3]
 1754              		.loc 1 1055 0
 1755 0112 65E0     		b	.L54
 1756              	.L60:
1056:Middlewares/ST/STM32_USB_Device_Library/Class/HID/Src/usbd_hid.c **** 		case 5: /*PID device control */
1057:Middlewares/ST/STM32_USB_Device_Library/Class/HID/Src/usbd_hid.c **** 		{
1058:Middlewares/ST/STM32_USB_Device_Library/Class/HID/Src/usbd_hid.c **** 			ausb_flags |= AUSB_NEW_CONTROL_EVENT; //set flag
 1757              		.loc 1 1058 0
 1758 0114 3B4B     		ldr	r3, .L78+12
 1759 0116 1B78     		ldrb	r3, [r3]
ARM GAS  /tmp/cckByxZ4.s 			page 50


 1760 0118 DBB2     		uxtb	r3, r3
 1761 011a 43F00103 		orr	r3, r3, #1
 1762 011e DAB2     		uxtb	r2, r3
 1763 0120 384B     		ldr	r3, .L78+12
 1764 0122 1A70     		strb	r2, [r3]
1059:Middlewares/ST/STM32_USB_Device_Library/Class/HID/Src/usbd_hid.c **** 
1060:Middlewares/ST/STM32_USB_Device_Library/Class/HID/Src/usbd_hid.c **** 			/*check command byte*/
1061:Middlewares/ST/STM32_USB_Device_Library/Class/HID/Src/usbd_hid.c **** 			switch ( usbd_hid_EP1rxBuf[1] )
 1765              		.loc 1 1061 0
 1766 0124 344B     		ldr	r3, .L78
 1767 0126 5B78     		ldrb	r3, [r3, #1]	@ zero_extendqisi2
 1768 0128 013B     		subs	r3, r3, #1
 1769 012a 052B     		cmp	r3, #5
 1770 012c 49D8     		bhi	.L65
 1771 012e 01A2     		adr	r2, .L67
 1772 0130 52F823F0 		ldr	pc, [r2, r3, lsl #2]
 1773              		.p2align 2
 1774              	.L67:
 1775 0134 4D010000 		.word	.L66+1
 1776 0138 5F010000 		.word	.L68+1
 1777 013c 71010000 		.word	.L69+1
 1778 0140 89010000 		.word	.L70+1
 1779 0144 9F010000 		.word	.L71+1
 1780 0148 B1010000 		.word	.L72+1
 1781              		.p2align 1
 1782              	.L66:
1062:Middlewares/ST/STM32_USB_Device_Library/Class/HID/Src/usbd_hid.c **** 			{
1063:Middlewares/ST/STM32_USB_Device_Library/Class/HID/Src/usbd_hid.c **** 			case 1: //Enable actuators
1064:Middlewares/ST/STM32_USB_Device_Library/Class/HID/Src/usbd_hid.c **** 			{
1065:Middlewares/ST/STM32_USB_Device_Library/Class/HID/Src/usbd_hid.c **** 				ausb_pidStateFlags |= 0x10u;
 1783              		.loc 1 1065 0
 1784 014c 2E4B     		ldr	r3, .L78+16
 1785 014e 1B78     		ldrb	r3, [r3]
 1786 0150 DBB2     		uxtb	r3, r3
 1787 0152 43F01003 		orr	r3, r3, #16
 1788 0156 DAB2     		uxtb	r2, r3
 1789 0158 2B4B     		ldr	r3, .L78+16
 1790 015a 1A70     		strb	r2, [r3]
1066:Middlewares/ST/STM32_USB_Device_Library/Class/HID/Src/usbd_hid.c **** 
1067:Middlewares/ST/STM32_USB_Device_Library/Class/HID/Src/usbd_hid.c **** 			}break;
 1791              		.loc 1 1067 0
 1792 015c 3AE0     		b	.L73
 1793              	.L68:
1068:Middlewares/ST/STM32_USB_Device_Library/Class/HID/Src/usbd_hid.c **** 			case 2:	// Disable actuators
1069:Middlewares/ST/STM32_USB_Device_Library/Class/HID/Src/usbd_hid.c **** 			{
1070:Middlewares/ST/STM32_USB_Device_Library/Class/HID/Src/usbd_hid.c **** 				ausb_pidStateFlags |= 0x20u;
 1794              		.loc 1 1070 0
 1795 015e 2A4B     		ldr	r3, .L78+16
 1796 0160 1B78     		ldrb	r3, [r3]
 1797 0162 DBB2     		uxtb	r3, r3
 1798 0164 43F02003 		orr	r3, r3, #32
 1799 0168 DAB2     		uxtb	r2, r3
 1800 016a 274B     		ldr	r3, .L78+16
 1801 016c 1A70     		strb	r2, [r3]
1071:Middlewares/ST/STM32_USB_Device_Library/Class/HID/Src/usbd_hid.c **** 			}break;
 1802              		.loc 1 1071 0
 1803 016e 31E0     		b	.L73
ARM GAS  /tmp/cckByxZ4.s 			page 51


 1804              	.L69:
1072:Middlewares/ST/STM32_USB_Device_Library/Class/HID/Src/usbd_hid.c **** 			case 3:	//Stop all effects
1073:Middlewares/ST/STM32_USB_Device_Library/Class/HID/Src/usbd_hid.c **** 			{
1074:Middlewares/ST/STM32_USB_Device_Library/Class/HID/Src/usbd_hid.c **** 				ausb_pidStateFlags |= 0x02u;
 1805              		.loc 1 1074 0
 1806 0170 254B     		ldr	r3, .L78+16
 1807 0172 1B78     		ldrb	r3, [r3]
 1808 0174 DBB2     		uxtb	r3, r3
 1809 0176 43F00203 		orr	r3, r3, #2
 1810 017a DAB2     		uxtb	r2, r3
 1811 017c 224B     		ldr	r3, .L78+16
 1812 017e 1A70     		strb	r2, [r3]
1075:Middlewares/ST/STM32_USB_Device_Library/Class/HID/Src/usbd_hid.c **** 				ausb_effectDataLoopCnt = 0;
 1813              		.loc 1 1075 0
 1814 0180 224B     		ldr	r3, .L78+20
 1815 0182 0022     		movs	r2, #0
 1816 0184 1A70     		strb	r2, [r3]
1076:Middlewares/ST/STM32_USB_Device_Library/Class/HID/Src/usbd_hid.c **** 			}break;
 1817              		.loc 1 1076 0
 1818 0186 25E0     		b	.L73
 1819              	.L70:
1077:Middlewares/ST/STM32_USB_Device_Library/Class/HID/Src/usbd_hid.c **** 			case 4:	//Reset
1078:Middlewares/ST/STM32_USB_Device_Library/Class/HID/Src/usbd_hid.c **** 			{/*Clears any device paused condition, enables all actuators and clears all effects from memory*
1079:Middlewares/ST/STM32_USB_Device_Library/Class/HID/Src/usbd_hid.c **** 				ausb_pidStateFlags |= (0x18u); /*set continue and enable actuators flags*/
 1820              		.loc 1 1079 0
 1821 0188 1F4B     		ldr	r3, .L78+16
 1822 018a 1B78     		ldrb	r3, [r3]
 1823 018c DBB2     		uxtb	r3, r3
 1824 018e 43F01803 		orr	r3, r3, #24
 1825 0192 DAB2     		uxtb	r2, r3
 1826 0194 1C4B     		ldr	r3, .L78+16
 1827 0196 1A70     		strb	r2, [r3]
1080:Middlewares/ST/STM32_USB_Device_Library/Class/HID/Src/usbd_hid.c **** 				/*clear effects data*/
1081:Middlewares/ST/STM32_USB_Device_Library/Class/HID/Src/usbd_hid.c **** 				ausb_initEffectsData();
 1828              		.loc 1 1081 0
 1829 0198 FFF7FEFF 		bl	ausb_initEffectsData
1082:Middlewares/ST/STM32_USB_Device_Library/Class/HID/Src/usbd_hid.c **** 			}break;
 1830              		.loc 1 1082 0
 1831 019c 1AE0     		b	.L73
 1832              	.L71:
1083:Middlewares/ST/STM32_USB_Device_Library/Class/HID/Src/usbd_hid.c **** 			case 5:	//Pause
1084:Middlewares/ST/STM32_USB_Device_Library/Class/HID/Src/usbd_hid.c **** 			{
1085:Middlewares/ST/STM32_USB_Device_Library/Class/HID/Src/usbd_hid.c **** 				ausb_pidStateFlags |= 0x04u;
 1833              		.loc 1 1085 0
 1834 019e 1A4B     		ldr	r3, .L78+16
 1835 01a0 1B78     		ldrb	r3, [r3]
 1836 01a2 DBB2     		uxtb	r3, r3
 1837 01a4 43F00403 		orr	r3, r3, #4
 1838 01a8 DAB2     		uxtb	r2, r3
 1839 01aa 174B     		ldr	r3, .L78+16
 1840 01ac 1A70     		strb	r2, [r3]
1086:Middlewares/ST/STM32_USB_Device_Library/Class/HID/Src/usbd_hid.c **** 			}break;
 1841              		.loc 1 1086 0
 1842 01ae 11E0     		b	.L73
 1843              	.L72:
1087:Middlewares/ST/STM32_USB_Device_Library/Class/HID/Src/usbd_hid.c **** 			case 6:	//Continue
1088:Middlewares/ST/STM32_USB_Device_Library/Class/HID/Src/usbd_hid.c **** 			{
ARM GAS  /tmp/cckByxZ4.s 			page 52


1089:Middlewares/ST/STM32_USB_Device_Library/Class/HID/Src/usbd_hid.c **** 				ausb_pidStateFlags |= 0x08u;
 1844              		.loc 1 1089 0
 1845 01b0 154B     		ldr	r3, .L78+16
 1846 01b2 1B78     		ldrb	r3, [r3]
 1847 01b4 DBB2     		uxtb	r3, r3
 1848 01b6 43F00803 		orr	r3, r3, #8
 1849 01ba DAB2     		uxtb	r2, r3
 1850 01bc 124B     		ldr	r3, .L78+16
 1851 01be 1A70     		strb	r2, [r3]
1090:Middlewares/ST/STM32_USB_Device_Library/Class/HID/Src/usbd_hid.c **** 			}break;
 1852              		.loc 1 1090 0
 1853 01c0 08E0     		b	.L73
 1854              	.L65:
1091:Middlewares/ST/STM32_USB_Device_Library/Class/HID/Src/usbd_hid.c **** 
1092:Middlewares/ST/STM32_USB_Device_Library/Class/HID/Src/usbd_hid.c **** 			default:
1093:Middlewares/ST/STM32_USB_Device_Library/Class/HID/Src/usbd_hid.c **** 			{
1094:Middlewares/ST/STM32_USB_Device_Library/Class/HID/Src/usbd_hid.c **** 				ausb_flags &= 0xFF^AUSB_NEW_CONTROL_EVENT; //clear flag because the event is undefined
 1855              		.loc 1 1094 0
 1856 01c2 104B     		ldr	r3, .L78+12
 1857 01c4 1B78     		ldrb	r3, [r3]
 1858 01c6 DBB2     		uxtb	r3, r3
 1859 01c8 23F00103 		bic	r3, r3, #1
 1860 01cc DAB2     		uxtb	r2, r3
 1861 01ce 0D4B     		ldr	r3, .L78+12
 1862 01d0 1A70     		strb	r2, [r3]
1095:Middlewares/ST/STM32_USB_Device_Library/Class/HID/Src/usbd_hid.c **** 			}break;
 1863              		.loc 1 1095 0
 1864 01d2 00BF     		nop
 1865              	.L73:
1096:Middlewares/ST/STM32_USB_Device_Library/Class/HID/Src/usbd_hid.c **** 			}
1097:Middlewares/ST/STM32_USB_Device_Library/Class/HID/Src/usbd_hid.c **** 		}break;
 1866              		.loc 1 1097 0
 1867 01d4 04E0     		b	.L54
 1868              	.L75:
1098:Middlewares/ST/STM32_USB_Device_Library/Class/HID/Src/usbd_hid.c **** 
1099:Middlewares/ST/STM32_USB_Device_Library/Class/HID/Src/usbd_hid.c **** 		default:
1100:Middlewares/ST/STM32_USB_Device_Library/Class/HID/Src/usbd_hid.c **** 			///*TODO: remove this DEBUG TEST on LED*/		aleds_ledGreenStatus = ALEDS_LED_STATUS_BLINK; /*TODO
1101:Middlewares/ST/STM32_USB_Device_Library/Class/HID/Src/usbd_hid.c **** 		break;
1102:Middlewares/ST/STM32_USB_Device_Library/Class/HID/Src/usbd_hid.c **** 		}
1103:Middlewares/ST/STM32_USB_Device_Library/Class/HID/Src/usbd_hid.c **** 	}
 1869              		.loc 1 1103 0
 1870 01d6 00BF     		nop
 1871 01d8 02E0     		b	.L54
 1872              	.L76:
1101:Middlewares/ST/STM32_USB_Device_Library/Class/HID/Src/usbd_hid.c **** 		}
 1873              		.loc 1 1101 0
 1874 01da 00BF     		nop
 1875 01dc 00E0     		b	.L54
 1876              	.L77:
1016:Middlewares/ST/STM32_USB_Device_Library/Class/HID/Src/usbd_hid.c **** 		// case 2: /* Envelope report */
 1877              		.loc 1 1016 0
 1878 01de 00BF     		nop
 1879              	.L54:
1104:Middlewares/ST/STM32_USB_Device_Library/Class/HID/Src/usbd_hid.c **** 	/*prepare for next RX data*/
1105:Middlewares/ST/STM32_USB_Device_Library/Class/HID/Src/usbd_hid.c **** 	USBD_LL_PrepareReceive(pdev, epnum, usbd_hid_EP1rxBuf, AUSB_EP1OutMaxPacketSize);
 1880              		.loc 1 1105 0
 1881 01e0 F978     		ldrb	r1, [r7, #3]	@ zero_extendqisi2
ARM GAS  /tmp/cckByxZ4.s 			page 53


 1882 01e2 2023     		movs	r3, #32
 1883 01e4 044A     		ldr	r2, .L78
 1884 01e6 7868     		ldr	r0, [r7, #4]
 1885 01e8 FFF7FEFF 		bl	USBD_LL_PrepareReceive
1106:Middlewares/ST/STM32_USB_Device_Library/Class/HID/Src/usbd_hid.c **** 
1107:Middlewares/ST/STM32_USB_Device_Library/Class/HID/Src/usbd_hid.c **** 	return USBD_OK;
 1886              		.loc 1 1107 0
 1887 01ec 0023     		movs	r3, #0
1108:Middlewares/ST/STM32_USB_Device_Library/Class/HID/Src/usbd_hid.c **** } 
 1888              		.loc 1 1108 0
 1889 01ee 1846     		mov	r0, r3
 1890 01f0 0837     		adds	r7, r7, #8
 1891              	.LCFI47:
 1892              		.cfi_def_cfa_offset 8
 1893 01f2 BD46     		mov	sp, r7
 1894              	.LCFI48:
 1895              		.cfi_def_cfa_register 13
 1896              		@ sp needed
 1897 01f4 80BD     		pop	{r7, pc}
 1898              	.L79:
 1899 01f6 00BF     		.align	2
 1900              	.L78:
 1901 01f8 00000000 		.word	usbd_hid_EP1rxBuf
 1902 01fc 00000000 		.word	ausb_OperationReportEffectIdx
 1903 0200 00000000 		.word	ausb_effectData
 1904 0204 00000000 		.word	ausb_flags
 1905 0208 00000000 		.word	ausb_pidStateFlags
 1906 020c 00000000 		.word	ausb_effectDataLoopCnt
 1907              		.cfi_endproc
 1908              	.LFE74:
 1910              		.section	.text.USBD_HID_GetDeviceQualifierDesc,"ax",%progbits
 1911              		.align	1
 1912              		.syntax unified
 1913              		.thumb
 1914              		.thumb_func
 1915              		.fpu softvfp
 1917              	USBD_HID_GetDeviceQualifierDesc:
 1918              	.LFB75:
1109:Middlewares/ST/STM32_USB_Device_Library/Class/HID/Src/usbd_hid.c **** 
1110:Middlewares/ST/STM32_USB_Device_Library/Class/HID/Src/usbd_hid.c **** /**
1111:Middlewares/ST/STM32_USB_Device_Library/Class/HID/Src/usbd_hid.c **** * @brief  DeviceQualifierDescriptor 
1112:Middlewares/ST/STM32_USB_Device_Library/Class/HID/Src/usbd_hid.c **** *         return Device Qualifier descriptor
1113:Middlewares/ST/STM32_USB_Device_Library/Class/HID/Src/usbd_hid.c **** * @param  length : pointer data length
1114:Middlewares/ST/STM32_USB_Device_Library/Class/HID/Src/usbd_hid.c **** * @retval pointer to descriptor buffer
1115:Middlewares/ST/STM32_USB_Device_Library/Class/HID/Src/usbd_hid.c **** */
1116:Middlewares/ST/STM32_USB_Device_Library/Class/HID/Src/usbd_hid.c **** static uint8_t  *USBD_HID_GetDeviceQualifierDesc (uint16_t *length)
1117:Middlewares/ST/STM32_USB_Device_Library/Class/HID/Src/usbd_hid.c **** {
 1919              		.loc 1 1117 0
 1920              		.cfi_startproc
 1921              		@ args = 0, pretend = 0, frame = 8
 1922              		@ frame_needed = 1, uses_anonymous_args = 0
 1923              		@ link register save eliminated.
 1924 0000 80B4     		push	{r7}
 1925              	.LCFI49:
 1926              		.cfi_def_cfa_offset 4
 1927              		.cfi_offset 7, -4
 1928 0002 83B0     		sub	sp, sp, #12
ARM GAS  /tmp/cckByxZ4.s 			page 54


 1929              	.LCFI50:
 1930              		.cfi_def_cfa_offset 16
 1931 0004 00AF     		add	r7, sp, #0
 1932              	.LCFI51:
 1933              		.cfi_def_cfa_register 7
 1934 0006 7860     		str	r0, [r7, #4]
1118:Middlewares/ST/STM32_USB_Device_Library/Class/HID/Src/usbd_hid.c ****   *length = sizeof (USBD_HID_DeviceQualifierDesc);
 1935              		.loc 1 1118 0
 1936 0008 7B68     		ldr	r3, [r7, #4]
 1937 000a 0A22     		movs	r2, #10
 1938 000c 1A80     		strh	r2, [r3]	@ movhi
1119:Middlewares/ST/STM32_USB_Device_Library/Class/HID/Src/usbd_hid.c ****   return USBD_HID_DeviceQualifierDesc;
 1939              		.loc 1 1119 0
 1940 000e 034B     		ldr	r3, .L82
1120:Middlewares/ST/STM32_USB_Device_Library/Class/HID/Src/usbd_hid.c **** }
 1941              		.loc 1 1120 0
 1942 0010 1846     		mov	r0, r3
 1943 0012 0C37     		adds	r7, r7, #12
 1944              	.LCFI52:
 1945              		.cfi_def_cfa_offset 4
 1946 0014 BD46     		mov	sp, r7
 1947              	.LCFI53:
 1948              		.cfi_def_cfa_register 13
 1949              		@ sp needed
 1950 0016 80BC     		pop	{r7}
 1951              	.LCFI54:
 1952              		.cfi_restore 7
 1953              		.cfi_def_cfa_offset 0
 1954 0018 7047     		bx	lr
 1955              	.L83:
 1956 001a 00BF     		.align	2
 1957              	.L82:
 1958 001c 00000000 		.word	USBD_HID_DeviceQualifierDesc
 1959              		.cfi_endproc
 1960              	.LFE75:
 1962              		.text
 1963              	.Letext0:
 1964              		.file 2 "/usr/include/newlib/machine/_default_types.h"
 1965              		.file 3 "/usr/include/newlib/sys/lock.h"
 1966              		.file 4 "/usr/include/newlib/sys/_types.h"
 1967              		.file 5 "/usr/lib/gcc/arm-none-eabi/7.3.1/include/stddef.h"
 1968              		.file 6 "/usr/include/newlib/sys/reent.h"
 1969              		.file 7 "/usr/include/newlib/sys/_stdint.h"
 1970              		.file 8 "/usr/include/newlib/stdlib.h"
 1971              		.file 9 "Drivers/CMSIS/Include/core_cm3.h"
 1972              		.file 10 "Drivers/CMSIS/Device/ST/STM32F1xx/Include/system_stm32f1xx.h"
 1973              		.file 11 "Middlewares/ST/STM32_USB_Device_Library/Core/Inc/usbd_def.h"
 1974              		.file 12 "Middlewares/ST/STM32_USB_Device_Library/Class/HID/Inc/usbd_hid.h"
 1975              		.file 13 "Inc/usbd_desc.h"
 1976              		.file 14 "Application/aUSB/ausb.h"
ARM GAS  /tmp/cckByxZ4.s 			page 55


DEFINED SYMBOLS
                            *ABS*:0000000000000000 usbd_hid.c
                            *COM*:0000000000000002 classReqHistory
                            *COM*:0000000000000020 usbd_hid_EP0rxBuf
                            *COM*:0000000000000020 usbd_hid_EP1rxBuf
     /tmp/cckByxZ4.s:21     .bss.newDeviceDataAvailable:0000000000000000 newDeviceDataAvailable
     /tmp/cckByxZ4.s:22     .bss.newDeviceDataAvailable:0000000000000000 $d
     /tmp/cckByxZ4.s:28     .data.USBD_HID:0000000000000000 USBD_HID
     /tmp/cckByxZ4.s:25     .data.USBD_HID:0000000000000000 $d
     /tmp/cckByxZ4.s:890    .text.USBD_HID_Init:0000000000000000 USBD_HID_Init
     /tmp/cckByxZ4.s:980    .text.USBD_HID_DeInit:0000000000000000 USBD_HID_DeInit
     /tmp/cckByxZ4.s:1041   .text.USBD_HID_Setup:0000000000000000 USBD_HID_Setup
     /tmp/cckByxZ4.s:1449   .text.USBD_HID_EP0_RxReady:0000000000000000 USBD_HID_EP0_RxReady
     /tmp/cckByxZ4.s:1523   .text.USBD_HID_DataIn:0000000000000000 USBD_HID_DataIn
     /tmp/cckByxZ4.s:1588   .text.USBD_HID_DataOut:0000000000000000 USBD_HID_DataOut
     /tmp/cckByxZ4.s:1397   .text.USBD_HID_GetCfgDesc:0000000000000000 USBD_HID_GetCfgDesc
     /tmp/cckByxZ4.s:1917   .text.USBD_HID_GetDeviceQualifierDesc:0000000000000000 USBD_HID_GetDeviceQualifierDesc
     /tmp/cckByxZ4.s:44     .data.USBD_HID_CfgDesc:0000000000000000 $d
     /tmp/cckByxZ4.s:47     .data.USBD_HID_CfgDesc:0000000000000000 USBD_HID_CfgDesc
     /tmp/cckByxZ4.s:90     .data.USBD_HID_Desc:0000000000000000 $d
     /tmp/cckByxZ4.s:93     .data.USBD_HID_Desc:0000000000000000 USBD_HID_Desc
     /tmp/cckByxZ4.s:104    .data.USBD_HID_DeviceQualifierDesc:0000000000000000 $d
     /tmp/cckByxZ4.s:107    .data.USBD_HID_DeviceQualifierDesc:0000000000000000 USBD_HID_DeviceQualifierDesc
     /tmp/cckByxZ4.s:119    .data.Joystick_ReportDescriptor:0000000000000000 $d
     /tmp/cckByxZ4.s:122    .data.Joystick_ReportDescriptor:0000000000000000 Joystick_ReportDescriptor
     /tmp/cckByxZ4.s:884    .text.USBD_HID_Init:0000000000000000 $t
     /tmp/cckByxZ4.s:969    .text.USBD_HID_Init:0000000000000068 $d
     /tmp/cckByxZ4.s:974    .text.USBD_HID_DeInit:0000000000000000 $t
     /tmp/cckByxZ4.s:1035   .text.USBD_HID_Setup:0000000000000000 $t
     /tmp/cckByxZ4.s:1088   .text.USBD_HID_Setup:000000000000003c $d
     /tmp/cckByxZ4.s:1098   .text.USBD_HID_Setup:0000000000000064 $t
     /tmp/cckByxZ4.s:1246   .text.USBD_HID_Setup:0000000000000134 $d
     /tmp/cckByxZ4.s:1252   .text.USBD_HID_SendReport:0000000000000000 $t
     /tmp/cckByxZ4.s:1259   .text.USBD_HID_SendReport:0000000000000000 USBD_HID_SendReport
     /tmp/cckByxZ4.s:1324   .text.USBD_HID_SendReport:000000000000004c $d
     /tmp/cckByxZ4.s:1329   .text.USBD_HID_GetPollingInterval:0000000000000000 $t
     /tmp/cckByxZ4.s:1336   .text.USBD_HID_GetPollingInterval:0000000000000000 USBD_HID_GetPollingInterval
     /tmp/cckByxZ4.s:1391   .text.USBD_HID_GetCfgDesc:0000000000000000 $t
     /tmp/cckByxZ4.s:1438   .text.USBD_HID_GetCfgDesc:000000000000001c $d
     /tmp/cckByxZ4.s:1443   .text.USBD_HID_EP0_RxReady:0000000000000000 $t
     /tmp/cckByxZ4.s:1511   .text.USBD_HID_EP0_RxReady:0000000000000038 $d
     /tmp/cckByxZ4.s:1517   .text.USBD_HID_DataIn:0000000000000000 $t
     /tmp/cckByxZ4.s:1577   .text.USBD_HID_DataIn:0000000000000030 $d
     /tmp/cckByxZ4.s:1582   .text.USBD_HID_DataOut:0000000000000000 $t
     /tmp/cckByxZ4.s:1622   .text.USBD_HID_DataOut:0000000000000028 $d
     /tmp/cckByxZ4.s:1627   .text.USBD_HID_DataOut:000000000000003c $t
     /tmp/cckByxZ4.s:1775   .text.USBD_HID_DataOut:0000000000000134 $d
     /tmp/cckByxZ4.s:1781   .text.USBD_HID_DataOut:000000000000014c $t
     /tmp/cckByxZ4.s:1901   .text.USBD_HID_DataOut:00000000000001f8 $d
     /tmp/cckByxZ4.s:1911   .text.USBD_HID_GetDeviceQualifierDesc:0000000000000000 $t
     /tmp/cckByxZ4.s:1958   .text.USBD_HID_GetDeviceQualifierDesc:000000000000001c $d

UNDEFINED SYMBOLS
USBD_LL_OpenEP
USBD_LL_PrepareReceive
USBD_static_malloc
USBD_LL_CloseEP
ARM GAS  /tmp/cckByxZ4.s 			page 56


USBD_static_free
USBD_CtlSendData
USBD_CtlError
USBD_LL_Transmit
ausb_pidEvent
ausb_initEffectsData
ausb_OperationReportEffectIdx
ausb_effectData
ausb_flags
ausb_pidStateFlags
ausb_effectDataLoopCnt
